
      AUTOMATIC DISASSEMBLY OF MAINDEC-08-DHKEA-A-PB.bin BY D8TAPE        Page 1


    1             TITLE "AUTOMATIC DISASSEMBLY OF MAINDEC-08-DHKEA-A-PB.bin BY D8TAPE"
    2             ////////////////////////////////////////////////////////////////////////////////
    3             /
    4             /   Automatic Disassembly of MAINDEC-08-DHKEA-A-PB.bin
    5             /   Generated 2015 10 28 22:37:20
    6             /   Generated by d8tape version 0.347
    7             /   Visit http://www.pdp12.org/pdp8/software/index.html for updates
    8             /
    9             /   Symbol format:
   10             /       AIx   -- Auto-index variables (address range 001x)
   11             /       Caaaa -- Constants (non-unique)
   12             /       Daaaa -- Data (read/write variables)
   13             /       Kvvvv -- Program-wide unique constants
   14             /       Laaaa -- Labels for control flow targets
   15             /       Saaaa -- Subroutines
   16             /
   17             /   Where:
   18             /       aaaa is the definition address
   19             /       vvvv is the value of the constant
   20             /       x    is the last digit of the address 001x for auto-index variables
   21             /
   22             /   3510 locations used, 2612 code and 0676 data
   23             ////////////////////////////////////////////////////////////////////////////////
   24             
   25       0200  *0200
   26             
   27       0000  *0000
   28             L0000,
   29 00000 0000  D0000,  0000                / AND   L0000                           
   30             L0001,
   31 00001 5001  C0001,  5001                / JMP   L0001                           
   32 00002 0002  D0002,  0002                / AND   D0002                           
   33 00003 0003  D0003,  0003                / AND   D0003                           
   34 00004 0004  D0004,  0004                / AND   D0004                           
   35 00005 0005  D0005,  0005                / AND   D0005                           
   36             
   37             ////////////////////////////////////////////////////////////////////////////////
   38             /
   39             /   SUBROUTINE:  S0006
   40             /
   41             /   Called from:
   42             /   2501 2563 7225 
   43             /   Total 0003 (3) calls
   44             ////////////////////////////////////////////////////////////////////////////////
   45             S0006,
   46 00006 0000      0                       / return area
   47 00007 0000  D0007,  0000                / AND   L0000                           
   48             
   49       0010  *0010
   50 00010 0000  AI0,    0000                / AUTO-INDEX REGISTER AND   L0000                           
   51 00011 5406  AI1,    5406                / AUTO-INDEX REGISTER JMP I S0006                           
   52 00012 0000  AI2,    0000                / AUTO-INDEX REGISTER AND   L0000                           
   53 00013 0000  AI3,    0000                / AUTO-INDEX REGISTER AND   L0000                           
   54             L0014,
   55 00014 0000  AI4,    0000                / AUTO-INDEX REGISTER AND   L0000                           
   56             L0015,
   57 00015 0000  AI5,    0000                / AUTO-INDEX REGISTER AND   L0000                           

      AUTOMATIC DISASSEMBLY OF MAINDEC-08-DHKEA-A-PB.bin BY D8TAPE        Page 2


   58 00016 0000  AI6,    0000                / AUTO-INDEX REGISTER AND   L0000                           
   59 00017 0000  AI7,    0000                / AUTO-INDEX REGISTER AND   L0000                           
   60             
   61       0020  *0020
   62 00020 0000  D0020,  0000                / AND   L0000                           
   63 00021 0000  D0021,  0000                / AND   L0000                           
   64 00022 0000  D0022,  0000                / AND   L0000                           
   65 00023 0000  D0023,  0000                / AND   L0000                           
   66 00024 0000  D0024,  0000                / AND   L0000                           
   67 00025 0000  D0025,  0000                / AND   L0000                           
   68 00026 0000  D0026,  0000                / AND   L0000                           
   69 00027 0000  D0027,  0000                / AND   L0000                           
   70 00030 0000  D0030,  0000                / AND   L0000                           
   71 00031 0000  D0031,  0000                / AND   L0000                           
   72 00032 0000  D0032,  0000                / AND   L0000                           
   73 00033 0000  D0033,  0000                / AND   L0000                           
   74 00034 0000  D0034,  0000                / AND   L0000                           
   75 00035 0000  D0035,  0000                / AND   L0000                           
   76 00036 0000  D0036,  0000                / AND   L0000                           
   77 00037 0000  D0037,  0000                / AND   L0000                           
   78 00040 0000  D0040,  0000                / AND   L0000                           
   79 00041 0000  D0041,  0000                / AND   L0000                           
   80 00042 0000  D0042,  0000                / AND   L0000                           
   81 00043 0000  C0043,  0000                / AND   L0000                           
   82 00044 0000  D0044,  0000                / AND   L0000                           
   83 00045 0000  D0045,  0000                / AND   L0000                           
   84 00046 0000  D0046,  0000                / AND   L0000                           
   85 00047 0000  D0047,  0000                / AND   L0000                           
   86             
   87       0200  *0200
   88             L0200,
   89 00200 6007  C0200,  6007                / 6007                                  
   90 00201 1377      TAD   C0377             /                                       @@0201=1377
   91 00202 3042      DCA   D0042             /                                       @@0202=3042
   92 00203 6224      RIF                     / Same as RDF except reads the instruc  @@0203=6224
   93 00204 3027      DCA   D0027             /                                       @@0204=3027
   94 00205 7604      LAS                     /                                       @@0205=7604
   95 00206 0173      AND   C0173             /                                       @@0206=0173
   96 00207 7104  C0207,  7104                / CLL RAL                               
   97 00210 7006      RTL                     /                                       @@0210=7006
   98 00211 3030      DCA   D0030             /                                       @@0211=3030
   99 00212 4572      JMS I C0172             / long call to S2120                    @@0212=4572
  100 00213 6224      RIF                     / Same as RDF except reads the instruc  @@0213=6224
  101 00214 3031      DCA   D0031             /                                       @@0214=3031
  102 00215 1030      TAD   D0030             /                                       @@0215=1030
  103 00216 3032      DCA   D0032             /                                       @@0216=3032
  104 00217 4776      JMS I C0376             / long call to S2000                    @@0217=4776
  105 00220 1026      TAD   D0026             /                                       @@0220=1026
  106 00221 7140      CLL CMA                 /                                       @@0221=7140
  107 00222 1030      TAD   D0030             /                                       @@0222=1030
  108 00223 7620      SNL CLA                 /                                       @@0223=7620
  109 00224 5775      JMP I C0375             / long jump to L2074                    @@0224=5775
  110 00225 7402      HLT                     /                                       @@0225=7402
  111 00226 5200      JMP   L0200             /                                       @@0226=5200
  112 00227 4571      JMS I C0171             / long call to S2145                    @@0227=4571
  113 00230 7000      NOP                     /                                       @@0230=7000
  114 00231 1374      TAD   C0374             /                                       @@0231=1374

      AUTOMATIC DISASSEMBLY OF MAINDEC-08-DHKEA-A-PB.bin BY D8TAPE        Page 3


  115 00232 3042      DCA   D0042             /                                       @@0232=3042
  116 00233 7431  C0233,  7431                / MQL NMI                               
  117 00234 1170      TAD   C0170             /                                       @@0234=1170
  118             L0235,
  119 00235 3245      DCA   D0245             /                                       @@0235=3245
  120             L0236,
  121 00236 1245      TAD   D0245             /                                       @@0236=1245
  122 00237 7421      MQL                     /                                       @@0237=7421
  123 00240 4567      JMS I C0167             / long call to S2111                    @@0240=4567
  124 00241 7501      MQA                     /                                       @@0241=7501
  125 00242 7101      CLL IAC                 /                                       @@0242=7101
  126 00243 7575  C0243,  7575                / MQA SCA MQL ASR +                     
  127 00244 7443  C0244,  7443                / SCA SCL +                             
  128 00245 0000  D0245,  0000                / AND   L0000                           
  129 00246 7451  C0246,  7451                / SCA NMI                               
  130 00247 5252      JMP   L0252             /                                       @@0247=5252
  131 00250 7430      SZL                     /                                       @@0250=7430
  132 00251 5257      JMP   L0257             /                                       @@0251=5257
  133             L0252,
  134 00252 4566      JMS I C0166             / long call to S1760                    @@0252=4566
  135 00253 4565      JMS I C0165             / long call to S2055                    @@0253=4565
  136 00254 4300      JMS   S0300             /                                       @@0254=4300
  137 00255 4564      JMS I C0164             / long call to S2040                    @@0255=4564
  138 00256 7402      HLT                     /                                       @@0256=7402
  139             L0257,
  140 00257 4572      JMS I C0172             / long call to S2120                    @@0257=4572
  141 00260 4563      JMS I C0163             / long call to S2046                    @@0260=4563
  142 00261 5236      JMP   L0236             /                                       @@0261=5236
  143 00262 1245      TAD   D0245             /                                       @@0262=1245
  144 00263 1162      TAD   C0162             /                                       @@0263=1162
  145 00264 7650      SNA CLA                 /                                       @@0264=7650
  146 00265 5561      JMP I C0161             / long jump to L2064                    @@0265=5561
  147 00266 1245      TAD   D0245             /                                       @@0266=1245
  148 00267 1160      TAD   C0160             /                                       @@0267=1160
  149 00270 3245      DCA   D0245             /                                       @@0270=3245
  150 00271 1245      TAD   D0245             /                                       @@0271=1245
  151 00272 7104      CLL RAL                 /                                       @@0272=7104
  152 00273 7700      SMA CLA                 /                                       @@0273=7700
  153 00274 5236      JMP   L0236             /                                       @@0274=5236
  154 00275 1245      TAD   D0245             /                                       @@0275=1245
  155 00276 1157      TAD   C0157             /                                       @@0276=1157
  156 00277 5235      JMP   L0235             /                                       @@0277=5235
  157             
  158             ////////////////////////////////////////////////////////////////////////////////
  159             /
  160             /   SUBROUTINE:  S0300
  161             /
  162             /   Called from:
  163             /   0254 
  164             /   Total 0001 (1) calls
  165             ////////////////////////////////////////////////////////////////////////////////
  166             S0300,
  167 00300 0000      0                       / return area
  168 00301 1245      TAD   D0245             /                                       @@0301=1245
  169 00302 4556      JMS I C0156             / long call to S6000                    @@0302=4556
  170 00303 6755  C0303,  6755                / 6755                                  
  171 00304 1245      TAD   D0245             /                                       @@0304=1245

      AUTOMATIC DISASSEMBLY OF MAINDEC-08-DHKEA-A-PB.bin BY D8TAPE        Page 4


  172 00305 4773      JMS I C0373             / long call to S6033                    @@0305=4773
  173 00306 5700      JMP I S0300             / return                                @@0306=5700
  174 00307 4571  C0307,  4571                / JMS I C0171                           
  175 00310 7000      NOP                     /                                       @@0310=7000
  176 00311 1372      TAD   C0372             /                                       @@0311=1372
  177 00312 3042      DCA   D0042             /                                       @@0312=3042
  178 00313 1371      TAD   C0371             /                                       @@0313=1371
  179 00314 3007      DCA   D0007             /                                       @@0314=3007
  180 00315 1155      TAD   C0155             /                                       @@0315=1155
  181 00316 3010      DCA   AI0               / AUTO INDEX REGISTER                   @@0316=3010
  182 00317 1157      TAD   C0157             /                                       @@0317=1157
  183 00320 3041      DCA   D0041             /                                       @@0320=3041
  184 00321 7431  C0321,  7431                / MQL NMI                               
  185             L0322,
  186 00322 1010      TAD   AI0               / AUTO INDEX REGISTER                   @@0322=1010
  187 00323 7001      IAC                     /                                       @@0323=7001
  188 00324 7421      MQL                     /                                       @@0324=7421
  189 00325 4567      JMS I C0167             / long call to S2111                    @@0325=4567
  190 00326 7501      MQA                     /                                       @@0326=7501
  191 00327 7001      IAC                     /                                       @@0327=7001
  192 00330 7575  C0330,  7575                / MQA SCA MQL ASR +                     
  193 00331 4770      JMS I C0370             / long call to S2474                    @@0331=4770
  194 00332 6760  C0332,  6760                / 6760                                  
  195 00333 7451  C0333,  7451                / SCA NMI                               
  196 00334 5337      JMP   L0337             /                                       @@0334=5337
  197 00335 7430      SZL                     /                                       @@0335=7430
  198 00336 5344      JMP   L0344             /                                       @@0336=5344
  199             L0337,
  200 00337 4566      JMS I C0166             / long call to S1760                    @@0337=4566
  201 00340 4565      JMS I C0165             / long call to S2055                    @@0340=4565
  202 00341 4352      JMS   S0352             /                                       @@0341=4352
  203 00342 4564      JMS I C0164             / long call to S2040                    @@0342=4564
  204 00343 7402      HLT                     /                                       @@0343=7402
  205             L0344,
  206 00344 4572      JMS I C0172             / long call to S2120                    @@0344=4572
  207 00345 4563      JMS I C0163             / long call to S2046                    @@0345=4563
  208 00346 4554      JMS I C0154             / long call to S2127                    @@0346=4554
  209 00347 2041      ISZ   D0041             /                                       @@0347=2041
  210 00350 5322      JMP   L0322             /                                       @@0350=5322
  211 00351 5561      JMP I C0161             / long jump to L2064                    @@0351=5561
  212             
  213             ////////////////////////////////////////////////////////////////////////////////
  214             /
  215             /   SUBROUTINE:  S0352
  216             /
  217             /   Called from:
  218             /   0341 
  219             /   Total 0001 (1) calls
  220             ////////////////////////////////////////////////////////////////////////////////
  221             S0352,
  222 00352 0000      0                       / return area
  223 00353 1010      TAD   AI0               / AUTO INDEX REGISTER                   @@0353=1010
  224 00354 4556      JMS I C0156             / long call to S6000                    @@0354=4556
  225 00355 6760  C0355,  6760                / 6760                                  
  226 00356 1010      TAD   AI0               / AUTO INDEX REGISTER                   @@0356=1010
  227 00357 4773      JMS I C0373             / long call to S6033                    @@0357=4773
  228 00360 5752      JMP I S0352             / return                                @@0360=5752

      AUTOMATIC DISASSEMBLY OF MAINDEC-08-DHKEA-A-PB.bin BY D8TAPE        Page 5


  229             
  230       0370  *0370
  231             C0370,
  232 00370 2474  C0370,  2474                / ISZ I C0074                           
  233 00371 7443  C0371,  7443                / SCA SCL +                             
  234 00372 0400  C0372,  0400                / AND I L0000                           
  235             C0373,
  236 00373 6033  C0373,  6033                / 6033                                  
  237 00374 0307  C0374,  0307                / AND   C0307                           
  238             C0375,
  239 00375 2074  C0375,  2074                / ISZ   C0074                           
  240             C0376,
  241 00376 2000  C0376,  2000                / ISZ   L0000                           
  242 00377 0227  C0377,  0227                / AND   C0227                           
  243             
  244       0400  *0400
  245 00400 4571      JMS I C0171             / long call to S2145                    @@0400=4571
  246 00401 7140      CLL CMA                 /                                       @@0401=7140
  247 00402 1153      TAD   C0153             /                                       @@0402=1153
  248 00403 3042      DCA   D0042             /                                       @@0403=3042
  249 00404 7431  C0404,  7431                / MQL NMI                               
  250 00405 1170      TAD   C0170             /                                       @@0405=1170
  251             L0406,
  252 00406 3215      DCA   D0415             /                                       @@0406=3215
  253             L0407,
  254 00407 1215      TAD   D0415             /                                       @@0407=1215
  255 00410 7421      MQL                     /                                       @@0410=7421
  256 00411 4567      JMS I C0167             / long call to S2111                    @@0411=4567
  257 00412 7501      MQA                     /                                       @@0412=7501
  258 00413 7101      CLL IAC                 /                                       @@0413=7101
  259 00414 7445  C0414,  7445                / SCA MUY +                             
  260 00415 0000  D0415,  0000                / AND   L0000                           
  261 00416 4566      JMS I C0166             / long call to S1760                    @@0416=4566
  262 00417 1215      TAD   D0415             /                                       @@0417=1215
  263 00420 7521      MQA MQL                 /                                       @@0420=7521
  264 00421 7457  C0421,  7457                / SCA LSR +                             
  265 00422 7640      SZA CLA                 /                                       @@0422=7640
  266 00423 5244      JMP   L0444             /                                       @@0423=5244
  267 00424 4567      JMS I C0167             / long call to S2111                    @@0424=4567
  268 00425 1615      TAD I D0415             /                                       @@0425=1615
  269 00426 7457  C0426,  7457                / SCA LSR +                             
  270 00427 7640      SZA CLA                 /                                       @@0427=7640
  271 00430 5244      JMP   L0444             /                                       @@0430=5244
  272 00431 7573  C0431,  7573                / MQA SCA MQL SHL +                     
  273 00432 1022      TAD   D0022             /                                       @@0432=1022
  274 00433 7457  C0433,  7457                / SCA LSR +                             
  275 00434 7640      SZA CLA                 /                                       @@0434=7640
  276 00435 5244      JMP   L0444             /                                       @@0435=5244
  277 00436 7501      MQA                     /                                       @@0436=7501
  278 00437 3033      DCA   D0033             /                                       @@0437=3033
  279 00440 1433      TAD I D0033             /                                       @@0440=1433
  280 00441 7457  C0441,  7457                / SCA LSR +                             
  281 00442 7650      SNA CLA                 /                                       @@0442=7650
  282 00443 5251      JMP   L0451             /                                       @@0443=5251
  283             L0444,
  284 00444 4572      JMS I C0172             / long call to S2120                    @@0444=4572
  285 00445 4565      JMS I C0165             / long call to S2055                    @@0445=4565

      AUTOMATIC DISASSEMBLY OF MAINDEC-08-DHKEA-A-PB.bin BY D8TAPE        Page 6


  286 00446 4272      JMS   S0472             /                                       @@0446=4272
  287 00447 4564      JMS I C0164             / long call to S2040                    @@0447=4564
  288 00450 7402      HLT                     /                                       @@0450=7402
  289             L0451,
  290 00451 4572      JMS I C0172             / long call to S2120                    @@0451=4572
  291 00452 4563      JMS I C0163             / long call to S2046                    @@0452=4563
  292 00453 5207      JMP   L0407             /                                       @@0453=5207
  293 00454 1215      TAD   D0415             /                                       @@0454=1215
  294 00455 1162      TAD   C0162             /                                       @@0455=1162
  295 00456 7650      SNA CLA                 /                                       @@0456=7650
  296 00457 5561      JMP I C0161             / long jump to L2064                    @@0457=5561
  297 00460 1215      TAD   D0415             /                                       @@0460=1215
  298 00461 1160      TAD   C0160             /                                       @@0461=1160
  299 00462 3215      DCA   D0415             /                                       @@0462=3215
  300 00463 1215      TAD   D0415             /                                       @@0463=1215
  301 00464 7104      CLL RAL                 /                                       @@0464=7104
  302 00465 7700      SMA CLA                 /                                       @@0465=7700
  303 00466 5207      JMP   L0407             /                                       @@0466=5207
  304 00467 1215      TAD   D0415             /                                       @@0467=1215
  305 00470 1157      TAD   C0157             /                                       @@0470=1157
  306 00471 5206      JMP   L0406             /                                       @@0471=5206
  307             
  308             ////////////////////////////////////////////////////////////////////////////////
  309             /
  310             /   SUBROUTINE:  S0472
  311             /
  312             /   Called from:
  313             /   0446 
  314             /   Total 0001 (1) calls
  315             ////////////////////////////////////////////////////////////////////////////////
  316             S0472,
  317 00472 0000      0                       / return area
  318 00473 1215      TAD   D0415             /                                       @@0473=1215
  319 00474 4556      JMS I C0156             / long call to S6000                    @@0474=4556
  320 00475 6771      DTSF                    / Skip if error flag is a 1 or if DECt  @@0475=6771
  321 00476 1215      TAD   D0415             /                                       @@0476=1215
  322 00477 4777      JMS I C0577             / long call to S6200                    @@0477=4777
  323 00500 5672      JMP I S0472             / return                                @@0500=5672
  324 00501 4571      JMS I C0171             / long call to S2145                    @@0501=4571
  325 00502 7140      CLL CMA                 /                                       @@0502=7140
  326 00503 1152      TAD   C0152             /                                       @@0503=1152
  327 00504 3042      DCA   D0042             /                                       @@0504=3042
  328 00505 1151      TAD   D0151             /                                       @@0505=1151
  329 00506 3007      DCA   D0007             /                                       @@0506=3007
  330 00507 1155      TAD   C0155             /                                       @@0507=1155
  331 00510 3010      DCA   AI0               / AUTO INDEX REGISTER                   @@0510=3010
  332 00511 1157      TAD   C0157             /                                       @@0511=1157
  333 00512 3041      DCA   D0041             /                                       @@0512=3041
  334 00513 7431  C0513,  7431                / MQL NMI                               
  335             L0514,
  336 00514 1010      TAD   AI0               / AUTO INDEX REGISTER                   @@0514=1010
  337 00515 7001      IAC                     /                                       @@0515=7001
  338 00516 7421      MQL                     /                                       @@0516=7421
  339 00517 4567      JMS I C0167             / long call to S2111                    @@0517=4567
  340 00520 7501      MQA                     /                                       @@0520=7501
  341 00521 7001      IAC                     /                                       @@0521=7001
  342 00522 4776      JMS I C0576             / long call to S2474                    @@0522=4776

      AUTOMATIC DISASSEMBLY OF MAINDEC-08-DHKEA-A-PB.bin BY D8TAPE        Page 7


  343 00523 6774      DTLB                    / The memory field portion of status r  @@0523=6774
  344 00524 4566      JMS I C0166             / long call to S1760                    @@0524=4566
  345 00525 1010      TAD   AI0               / AUTO INDEX REGISTER                   @@0525=1010
  346 00526 3033      DCA   D0033             /                                       @@0526=3033
  347 00527 1033      TAD   D0033             /                                       @@0527=1033
  348 00530 7521      MQA MQL                 /                                       @@0530=7521
  349 00531 7457  C0531,  7457                / SCA LSR +                             
  350 00532 7640      SZA CLA                 /                                       @@0532=7640
  351 00533 5354      JMP   L0554             /                                       @@0533=5354
  352 00534 4567      JMS I C0167             / long call to S2111                    @@0534=4567
  353 00535 1433      TAD I D0033             /                                       @@0535=1433
  354 00536 7457  C0536,  7457                / SCA LSR +                             
  355 00537 7640      SZA CLA                 /                                       @@0537=7640
  356 00540 5354      JMP   L0554             /                                       @@0540=5354
  357 00541 7573  C0541,  7573                / MQA SCA MQL SHL +                     
  358 00542 1022      TAD   D0022             /                                       @@0542=1022
  359 00543 7457  C0543,  7457                / SCA LSR +                             
  360 00544 7640      SZA CLA                 /                                       @@0544=7640
  361 00545 5354      JMP   L0554             /                                       @@0545=5354
  362 00546 7501      MQA                     /                                       @@0546=7501
  363 00547 3033      DCA   D0033             /                                       @@0547=3033
  364 00550 1433      TAD I D0033             /                                       @@0550=1433
  365 00551 7457  C0551,  7457                / SCA LSR +                             
  366 00552 7650      SNA CLA                 /                                       @@0552=7650
  367 00553 5361      JMP   L0561             /                                       @@0553=5361
  368             L0554,
  369 00554 4572      JMS I C0172             / long call to S2120                    @@0554=4572
  370 00555 4565      JMS I C0165             / long call to S2055                    @@0555=4565
  371 00556 4367      JMS   S0567             /                                       @@0556=4367
  372 00557 4564      JMS I C0164             / long call to S2040                    @@0557=4564
  373 00560 7402      HLT                     /                                       @@0560=7402
  374             L0561,
  375 00561 4572      JMS I C0172             / long call to S2120                    @@0561=4572
  376 00562 4563      JMS I C0163             / long call to S2046                    @@0562=4563
  377 00563 4554      JMS I C0154             / long call to S2127                    @@0563=4554
  378 00564 2041      ISZ   D0041             /                                       @@0564=2041
  379 00565 5314      JMP   L0514             /                                       @@0565=5314
  380 00566 5561      JMP I C0161             / long jump to L2064                    @@0566=5561
  381             
  382             ////////////////////////////////////////////////////////////////////////////////
  383             /
  384             /   SUBROUTINE:  S0567
  385             /
  386             /   Called from:
  387             /   0556 
  388             /   Total 0001 (1) calls
  389             ////////////////////////////////////////////////////////////////////////////////
  390             S0567,
  391 00567 0000      0                       / return area
  392 00570 1010      TAD   AI0               / AUTO INDEX REGISTER                   @@0570=1010
  393 00571 4556      JMS I C0156             / long call to S6000                    @@0571=4556
  394 00572 6774      DTLB                    / The memory field portion of status r  @@0572=6774
  395 00573 1010      TAD   AI0               / AUTO INDEX REGISTER                   @@0573=1010
  396 00574 4777      JMS I C0577             / long call to S6200                    @@0574=4777
  397 00575 5767      JMP I S0567             / return                                @@0575=5767
  398             C0576,
  399 00576 2474  C0576,  2474                / ISZ I C0074                           

      AUTOMATIC DISASSEMBLY OF MAINDEC-08-DHKEA-A-PB.bin BY D8TAPE        Page 8


  400             C0577,
  401 00577 6200  C0577,  6200                / 6200                                  
  402             
  403       0600  *0600
  404 00600 4571  D0600,  4571                / JMS I C0171                           
  405 00601 7140      CLL CMA                 /                                       @@0601=7140
  406 00602 1150      TAD   C0150             /                                       @@0602=1150
  407 00603 3042      DCA   D0042             /                                       @@0603=3042
  408 00604 4777      JMS I C0777             / long call to S2200                    @@0604=4777
  409 00605 7300      CLA CLL                 / AC = 0000                             @@0605=7300
  410 00606 1170      TAD   C0170             /                                       @@0606=1170
  411 00607 3223      DCA   D0623             /                                       @@0607=3223
  412 00610 1147      TAD   C0147             /                                       @@0610=1147
  413 00611 3230      DCA   D0630             /                                       @@0611=3230
  414 00612 1146      TAD   C0146             /                                       @@0612=1146
  415 00613 3041      DCA   D0041             /                                       @@0613=3041
  416 00614 7431  C0614,  7431                / MQL NMI                               
  417             L0615,
  418 00615 7344      CLA CLL CMA RAL         / AC = 7776 (-0002)                     @@0615=7344
  419 00616 3040      DCA   D0040             /                                       @@0616=3040
  420             L0617,
  421 00617 4567      JMS I C0167             / long call to S2111                    @@0617=4567
  422 00620 1223      TAD   D0623             /                                       @@0620=1223
  423 00621 7100      CLL                     /                                       @@0621=7100
  424 00622 7425  C0622,  7425                / MQL MUY +                             
  425 00623 0000  D0623,  0000                / AND   L0000                           
  426 00624 4566      JMS I C0166             / long call to S1760                    @@0624=4566
  427 00625 1022      TAD   D0022             /                                       @@0625=1022
  428 00626 7575  C0626,  7575                / MQA SCA MQL ASR +                     
  429 00627 7443  C0627,  7443                / SCA SCL +                             
  430 00630 0000  D0630,  0000                / AND   L0000                           
  431 00631 7451  C0631,  7451                / SCA NMI                               
  432 00632 7610      SKP CLA                 /                                       @@0632=7610
  433 00633 5240      JMP   L0640             /                                       @@0633=5240
  434 00634 4565      JMS I C0165             / long call to S2055                    @@0634=4565
  435 00635 4265      JMS   S0665             /                                       @@0635=4265
  436 00636 4564      JMS I C0164             / long call to S2040                    @@0636=4564
  437 00637 7402      HLT                     /                                       @@0637=7402
  438             L0640,
  439 00640 4563      JMS I C0163             / long call to S2046                    @@0640=4563
  440 00641 5217      JMP   L0617             /                                       @@0641=5217
  441 00642 2040      ISZ   D0040             /                                       @@0642=2040
  442 00643 7610      SKP CLA                 /                                       @@0643=7610
  443 00644 5254      JMP   L0654             /                                       @@0644=5254
  444 00645 1145      TAD   D0145             /                                       @@0645=1145
  445 00646 1223      TAD   D0623             /                                       @@0646=1223
  446 00647 3223      DCA   D0623             /                                       @@0647=3223
  447 00650 1145      TAD   D0145             /                                       @@0650=1145
  448 00651 1230      TAD   D0630             /                                       @@0651=1230
  449 00652 3230      DCA   D0630             /                                       @@0652=3230
  450 00653 5217      JMP   L0617             /                                       @@0653=5217
  451             L0654,
  452 00654 1144      TAD   C0144             /                                       @@0654=1144
  453 00655 1223      TAD   D0623             /                                       @@0655=1223
  454 00656 3223      DCA   D0623             /                                       @@0656=3223
  455 00657 1143      TAD   C0143             /                                       @@0657=1143
  456 00660 1230      TAD   D0630             /                                       @@0660=1230

      AUTOMATIC DISASSEMBLY OF MAINDEC-08-DHKEA-A-PB.bin BY D8TAPE        Page 9


  457 00661 3230      DCA   D0630             /                                       @@0661=3230
  458 00662 2041      ISZ   D0041             /                                       @@0662=2041
  459 00663 5215      JMP   L0615             /                                       @@0663=5215
  460 00664 5561      JMP I C0161             / long jump to L2064                    @@0664=5561
  461             
  462             ////////////////////////////////////////////////////////////////////////////////
  463             /
  464             /   SUBROUTINE:  S0665
  465             /
  466             /   Called from:
  467             /   0635 
  468             /   Total 0001 (1) calls
  469             ////////////////////////////////////////////////////////////////////////////////
  470             S0665,
  471 00665 0000      0                       / return area
  472 00666 1223      TAD   D0623             /                                       @@0666=1223
  473 00667 3033      DCA   D0033             /                                       @@0667=3033
  474 00670 4542      JMS I C0142             / long call to S1525                    @@0670=4542
  475 00671 0033      AND   D0033             /                                       @@0671=0033
  476 00672 7156  C0672,  7156                / CLL CMA RTR RTL                       
  477 00673 4542      JMS I C0142             / long call to S1525                    @@0673=4542
  478 00674 0043      AND   C0043             /                                       @@0674=0043
  479 00675 7152      CLL CMA RTR             /                                       @@0675=7152
  480 00676 1223      TAD   D0623             /                                       @@0676=1223
  481 00677 4776      JMS I C0776             / long call to S6400                    @@0677=4776
  482 00700 7005      IAC RAL                 /                                       @@0700=7005
  483 00701 7264      CLA CMA CML RAL         /                                       @@0701=7264
  484 00702 7242      CLA CMA BSW             /                                       @@0702=7242
  485 00703 0630      AND I D0630             /                                       @@0703=0630
  486 00704 7307      CLA CLL IAC RTL         / AC = 0004                             @@0704=7307
  487 00705 5665      JMP I S0665             / return                                @@0705=5665
  488 00706 4571      JMS I C0171             / long call to S2145                    @@0706=4571
  489 00707 7140      CLL CMA                 /                                       @@0707=7140
  490 00710 1141      TAD   C0141             /                                       @@0710=1141
  491 00711 3042      DCA   D0042             /                                       @@0711=3042
  492 00712 1155      TAD   C0155             /                                       @@0712=1155
  493 00713 3010      DCA   AI0               / AUTO INDEX REGISTER                   @@0713=3010
  494 00714 1147      TAD   C0147             /                                       @@0714=1147
  495 00715 3337      DCA   D0737             /                                       @@0715=3337
  496 00716 7431  C0716,  7431                / MQL NMI                               
  497 00717 4777      JMS I C0777             / long call to S2200                    @@0717=4777
  498 00720 7344      CLA CLL CMA RAL         / AC = 7776 (-0002)                     @@0720=7344
  499 00721 3040      DCA   D0040             /                                       @@0721=3040
  500 00722 1140      TAD   D0140             /                                       @@0722=1140
  501 00723 3007      DCA   D0007             /                                       @@0723=3007
  502             L0724,
  503 00724 1146      TAD   C0146             /                                       @@0724=1146
  504 00725 3041      DCA   D0041             /                                       @@0725=3041
  505             L0726,
  506 00726 4567      JMS I C0167             / long call to S2111                    @@0726=4567
  507 00727 1010      TAD   AI0               / AUTO INDEX REGISTER                   @@0727=1010
  508 00730 7101      CLL IAC                 /                                       @@0730=7101
  509 00731 4775      JMS I C0775             / long call to S2474                    @@0731=4775
  510 00732 7010      RAR                     /                                       @@0732=7010
  511 00733 4566      JMS I C0166             / long call to S1760                    @@0733=4566
  512 00734 1022      TAD   D0022             /                                       @@0734=1022
  513 00735 7575  C0735,  7575                / MQA SCA MQL ASR +                     

      AUTOMATIC DISASSEMBLY OF MAINDEC-08-DHKEA-A-PB.bin BY D8TAPE       Page 10


  514 00736 7443  C0736,  7443                / SCA SCL +                             
  515 00737 0000  D0737,  0000                / AND   L0000                           
  516 00740 7451  C0740,  7451                / SCA NMI                               
  517 00741 7610      SKP CLA                 /                                       @@0741=7610
  518 00742 5347      JMP   L0747             /                                       @@0742=5347
  519 00743 4565      JMS I C0165             / long call to S2055                    @@0743=4565
  520 00744 4774      JMS I C0774             / long call to S1000                    @@0744=4774
  521 00745 4564      JMS I C0164             / long call to S2040                    @@0745=4564
  522 00746 7402      HLT                     /                                       @@0746=7402
  523             L0747,
  524 00747 4563      JMS I C0163             / long call to S2046                    @@0747=4563
  525 00750 7610      SKP CLA                 /                                       @@0750=7610
  526 00751 5356      JMP   L0756             /                                       @@0751=5356
  527 00752 7240      STA                     / AC = 7777 (-0001)                     @@0752=7240
  528 00753 1010      TAD   AI0               / AUTO INDEX REGISTER                   @@0753=1010
  529 00754 3010      DCA   AI0               / AUTO INDEX REGISTER                   @@0754=3010
  530 00755 5326      JMP   L0726             /                                       @@0755=5326
  531             L0756,
  532 00756 2337      ISZ   D0737             /                                       @@0756=2337
  533 00757 2337      ISZ   D0737             /                                       @@0757=2337
  534 00760 2041      ISZ   D0041             /                                       @@0760=2041
  535 00761 5326      JMP   L0726             /                                       @@0761=5326
  536 00762 2040      ISZ   D0040             /                                       @@0762=2040
  537 00763 5365      JMP   L0765             /                                       @@0763=5365
  538 00764 5561      JMP I C0161             / long jump to L2064                    @@0764=5561
  539             L0765,
  540 00765 1137      TAD   C0137             /                                       @@0765=1137
  541 00766 3010      DCA   AI0               / AUTO INDEX REGISTER                   @@0766=3010
  542 00767 1136      TAD   C0136             /                                       @@0767=1136
  543 00770 3337      DCA   D0737             /                                       @@0770=3337
  544 00771 5324      JMP   L0724             /                                       @@0771=5324
  545             
  546       0774  *0774
  547             C0774,
  548 00774 1000  C0774,  1000                / TAD   L0000                           
  549             C0775,
  550 00775 2474  C0775,  2474                / ISZ I C0074                           
  551             C0776,
  552 00776 6400  C0776,  6400                / 6400                                  
  553             C0777,
  554 00777 2200  C0777,  2200                / ISZ   D0600                           
  555             
  556       1000  *1000
  557             
  558             ////////////////////////////////////////////////////////////////////////////////
  559             /
  560             /   SUBROUTINE:  S1000
  561             /
  562             /   Called from:
  563             /   0744 
  564             /   Total 0001 (1) calls
  565             ////////////////////////////////////////////////////////////////////////////////
  566             S1000,
  567 01000 0000      0                       / return area
  568 01001 1010      TAD   AI0               / AUTO INDEX REGISTER                   @@1001=1010
  569 01002 3033      DCA   D0033             /                                       @@1002=3033
  570 01003 4542      JMS I C0142             / long call to S1525                    @@1003=4542

      AUTOMATIC DISASSEMBLY OF MAINDEC-08-DHKEA-A-PB.bin BY D8TAPE       Page 11


  571 01004 0033      AND   D0033             /                                       @@1004=0033
  572 01005 7156  D1005,  7156                / CLL CMA RTR RTL                       
  573 01006 4542      JMS I C0142             / long call to S1525                    @@1006=4542
  574 01007 0043      AND   C0043             /                                       @@1007=0043
  575 01010 7152      CLL CMA RTR             /                                       @@1010=7152
  576 01011 1010      TAD   AI0               / AUTO INDEX REGISTER                   @@1011=1010
  577 01012 4777      JMS I C1177             / long call to S6400                    @@1012=4777
  578 01013 7010      RAR                     /                                       @@1013=7010
  579 01014 7264      CLA CMA CML RAL         /                                       @@1014=7264
  580 01015 7242      CLA CMA BSW             /                                       @@1015=7242
  581 01016 0737      AND I C1137             /                                       @@1016=0737
  582 01017 7307      CLA CLL IAC RTL         / AC = 0004                             @@1017=7307
  583 01020 5600      JMP I S1000             / return                                @@1020=5600
  584 01021 4571      JMS I C0171             / long call to S2145                    @@1021=4571
  585 01022 7140      CLL CMA                 /                                       @@1022=7140
  586 01023 1376      TAD   C1176             /                                       @@1023=1376
  587 01024 3042      DCA   D0042             /                                       @@1024=3042
  588 01025 4775      JMS I C1175             / long call to S2242                    @@1025=4775
  589 01026 1170      TAD   C0170             /                                       @@1026=1170
  590 01027 3247      DCA   D1047             /                                       @@1027=3247
  591 01030 1147      TAD   C0147             /                                       @@1030=1147
  592 01031 3257      DCA   D1057             /                                       @@1031=3257
  593 01032 1146      TAD   C0146             /                                       @@1032=1146
  594 01033 3041      DCA   D0041             /                                       @@1033=3041
  595 01034 7431  C1034,  7431                / MQL NMI                               
  596             L1035,
  597 01035 7344      CLA CLL CMA RAL         / AC = 7776 (-0002)                     @@1035=7344
  598 01036 3040      DCA   D0040             /                                       @@1036=3040
  599             L1037,
  600 01037 4567      JMS I C0167             / long call to S2111                    @@1037=4567
  601 01040 1247      TAD   D1047             /                                       @@1040=1247
  602 01041 7001      IAC                     /                                       @@1041=7001
  603 01042 7421  D1042,  7421                / MQL                                   
  604 01043 7501      MQA                     /                                       @@1043=7501
  605 01044 7150      CLL CMA RAR             /                                       @@1044=7150
  606 01045 7100      CLL                     /                                       @@1045=7100
  607 01046 7407  C1046,  7407                / DVI +                                 
  608 01047 0000  D1047,  0000                / AND   L0000                           
  609 01050 4566      JMS I C0166             / long call to S1760                    @@1050=4566
  610 01051 1020      TAD   D0020             /                                       @@1051=1020
  611 01052 7710      SPA CLA                 /                                       @@1052=7710
  612 01053 5263      JMP   L1063             /                                       @@1053=5263
  613 01054 1022      TAD   D0022             /                                       @@1054=1022
  614 01055 7575  C1055,  7575                / MQA SCA MQL ASR +                     
  615 01056 7443  C1056,  7443                / SCA SCL +                             
  616 01057 0000  D1057,  0000                / AND   L0000                           
  617 01060 7451  C1060,  7451                / SCA NMI                               
  618 01061 7610      SKP CLA                 /                                       @@1061=7610
  619 01062 5267      JMP   L1067             /                                       @@1062=5267
  620             L1063,
  621 01063 4565      JMS I C0165             / long call to S2055                    @@1063=4565
  622 01064 4314      JMS   S1114             /                                       @@1064=4314
  623 01065 4564      JMS I C0164             / long call to S2040                    @@1065=4564
  624 01066 7402      HLT                     /                                       @@1066=7402
  625             L1067,
  626 01067 4563      JMS I C0163             / long call to S2046                    @@1067=4563
  627 01070 5237      JMP   L1037             /                                       @@1070=5237

      AUTOMATIC DISASSEMBLY OF MAINDEC-08-DHKEA-A-PB.bin BY D8TAPE       Page 12


  628 01071 2040      ISZ   D0040             /                                       @@1071=2040
  629 01072 7610      SKP CLA                 /                                       @@1072=7610
  630 01073 5303      JMP   L1103             /                                       @@1073=5303
  631 01074 1145      TAD   D0145             /                                       @@1074=1145
  632 01075 1247      TAD   D1047             /                                       @@1075=1247
  633 01076 3247      DCA   D1047             /                                       @@1076=3247
  634 01077 1145      TAD   D0145             /                                       @@1077=1145
  635 01100 1257      TAD   D1057             /                                       @@1100=1257
  636 01101 3257      DCA   D1057             /                                       @@1101=3257
  637 01102 5237      JMP   L1037             /                                       @@1102=5237
  638             L1103,
  639 01103 1144      TAD   C0144             /                                       @@1103=1144
  640 01104 1247      TAD   D1047             /                                       @@1104=1247
  641 01105 3247      DCA   D1047             /                                       @@1105=3247
  642 01106 1143      TAD   C0143             /                                       @@1106=1143
  643 01107 1257      TAD   D1057             /                                       @@1107=1257
  644 01110 3257      DCA   D1057             /                                       @@1110=3257
  645 01111 2041      ISZ   D0041             /                                       @@1111=2041
  646 01112 5235      JMP   L1035             /                                       @@1112=5235
  647 01113 5561      JMP I C0161             / long jump to L2064                    @@1113=5561
  648             
  649             ////////////////////////////////////////////////////////////////////////////////
  650             /
  651             /   SUBROUTINE:  S1114
  652             /
  653             /   Called from:
  654             /   1064 
  655             /   Total 0001 (1) calls
  656             ////////////////////////////////////////////////////////////////////////////////
  657             S1114,
  658 01114 0000      0                       / return area
  659 01115 1247      TAD   D1047             /                                       @@1115=1247
  660 01116 7041      CIA                     /                                       @@1116=7041
  661 01117 3033      DCA   D0033             /                                       @@1117=3033
  662 01120 4542      JMS I C0142             / long call to S1525                    @@1120=4542
  663 01121 0033      AND   D0033             /                                       @@1121=0033
  664 01122 7156  C1122,  7156                / CLL CMA RTR RTL                       
  665 01123 1033      TAD   D0033             /                                       @@1123=1033
  666 01124 7150      CLL CMA RAR             /                                       @@1124=7150
  667 01125 3033      DCA   D0033             /                                       @@1125=3033
  668 01126 4542      JMS I C0142             / long call to S1525                    @@1126=4542
  669 01127 0033      AND   D0033             /                                       @@1127=0033
  670 01130 7152      CLL CMA RTR             /                                       @@1130=7152
  671 01131 1247      TAD   D1047             /                                       @@1131=1247
  672 01132 4777      JMS I C1177             / long call to S6400                    @@1132=4777
  673 01133 7021      CML IAC                 /                                       @@1133=7021
  674 01134 7274  C1134,  7274                / CLA CMA CML RAR RAL                   
  675 01135 7246      CLA CMA RTL             /                                       @@1135=7246
  676 01136 1057  C1136,  1057                / TAD   C0057                           
  677 01137 7313  C1137,  7313                / CLA CLL IAC RTR                       
  678 01140 5714      JMP I S1114             / return                                @@1140=5714
  679             
  680       1175  *1175
  681             C1175,
  682 01175 2242  C1175,  2242                / ISZ   D1042                           
  683 01176 1200  C1176,  1200                / TAD   S1000                           
  684             C1177,

      AUTOMATIC DISASSEMBLY OF MAINDEC-08-DHKEA-A-PB.bin BY D8TAPE       Page 13


  685 01177 6400  C1177,  6400                / 6400                                  
  686             
  687       1200  *1200
  688 01200 4571      JMS I C0171             / long call to S2145                    @@1200=4571
  689 01201 7140      CLL CMA                 /                                       @@1201=7140
  690 01202 1377      TAD   C1377             /                                       @@1202=1377
  691 01203 3042      DCA   D0042             /                                       @@1203=3042
  692 01204 4776      JMS I C1376             / long call to S2242                    @@1204=4776
  693 01205 1155      TAD   C0155             /                                       @@1205=1155
  694 01206 3010      DCA   AI0               / AUTO INDEX REGISTER                   @@1206=3010
  695 01207 1147      TAD   C0147             /                                       @@1207=1147
  696 01210 3241      DCA   D1241             /                                       @@1210=3241
  697 01211 7431  C1211,  7431                / MQL NMI                               
  698 01212 7344      CLA CLL CMA RAL         / AC = 7776 (-0002)                     @@1212=7344
  699 01213 3040      DCA   D0040             /                                       @@1213=3040
  700 01214 1135      TAD   D0135             /                                       @@1214=1135
  701 01215 3007      DCA   D0007             /                                       @@1215=3007
  702             L1216,
  703 01216 1146      TAD   C0146             /                                       @@1216=1146
  704 01217 3041      DCA   D0041             /                                       @@1217=3041
  705             L1220,
  706 01220 4567      JMS I C0167             / long call to S2111                    @@1220=4567
  707 01221 7101      CLL IAC                 /                                       @@1221=7101
  708 01222 7001      IAC                     /                                       @@1222=7001
  709 01223 1010      TAD   AI0               / AUTO INDEX REGISTER                   @@1223=1010
  710 01224 7421      MQL                     /                                       @@1224=7421
  711 01225 7501      MQA                     /                                       @@1225=7501
  712 01226 7150      CLL CMA RAR             /                                       @@1226=7150
  713 01227 7100      CLL                     /                                       @@1227=7100
  714 01230 4775      JMS I C1375             / long call to S2474                    @@1230=4775
  715 01231 7024      CML RAL                 /                                       @@1231=7024
  716 01232 4566      JMS I C0166             / long call to S1760                    @@1232=4566
  717 01233 1020      TAD   D0020             /                                       @@1233=1020
  718 01234 7710      SPA CLA                 /                                       @@1234=7710
  719 01235 5245      JMP   L1245             /                                       @@1235=5245
  720 01236 1022      TAD   D0022             /                                       @@1236=1022
  721 01237 7575  C1237,  7575                / MQA SCA MQL ASR +                     
  722 01240 7443  C1240,  7443                / SCA SCL +                             
  723 01241 0000  D1241,  0000                / AND   L0000                           
  724 01242 7451  D1242,  7451                / SCA NMI                               
  725 01243 7610      SKP CLA                 /                                       @@1243=7610
  726 01244 5251      JMP   L1251             /                                       @@1244=5251
  727             L1245,
  728 01245 4565      JMS I C0165             / long call to S2055                    @@1245=4565
  729 01246 4274      JMS   S1274             /                                       @@1246=4274
  730 01247 4564      JMS I C0164             / long call to S2040                    @@1247=4564
  731 01250 7402      HLT                     /                                       @@1250=7402
  732             L1251,
  733 01251 4563      JMS I C0163             / long call to S2046                    @@1251=4563
  734 01252 7610      SKP CLA                 /                                       @@1252=7610
  735 01253 5260      JMP   L1260             /                                       @@1253=5260
  736 01254 7240      STA                     / AC = 7777 (-0001)                     @@1254=7240
  737 01255 1010      TAD   AI0               / AUTO INDEX REGISTER                   @@1255=1010
  738 01256 3010      DCA   AI0               / AUTO INDEX REGISTER                   @@1256=3010
  739 01257 5220      JMP   L1220             /                                       @@1257=5220
  740             L1260,
  741 01260 2241      ISZ   D1241             /                                       @@1260=2241

      AUTOMATIC DISASSEMBLY OF MAINDEC-08-DHKEA-A-PB.bin BY D8TAPE       Page 14


  742 01261 2241      ISZ   D1241             /                                       @@1261=2241
  743 01262 2041      ISZ   D0041             /                                       @@1262=2041
  744 01263 5220      JMP   L1220             /                                       @@1263=5220
  745 01264 2040      ISZ   D0040             /                                       @@1264=2040
  746 01265 5267      JMP   L1267             /                                       @@1265=5267
  747 01266 5561      JMP I C0161             / long jump to L2064                    @@1266=5561
  748             L1267,
  749 01267 1137      TAD   C0137             /                                       @@1267=1137
  750 01270 3010      DCA   AI0               / AUTO INDEX REGISTER                   @@1270=3010
  751 01271 1136      TAD   C0136             /                                       @@1271=1136
  752 01272 3241      DCA   D1241             /                                       @@1272=3241
  753 01273 5216      JMP   L1216             /                                       @@1273=5216
  754             
  755             ////////////////////////////////////////////////////////////////////////////////
  756             /
  757             /   SUBROUTINE:  S1274
  758             /
  759             /   Called from:
  760             /   1246 
  761             /   Total 0001 (1) calls
  762             ////////////////////////////////////////////////////////////////////////////////
  763             S1274,
  764 01274 0000      0                       / return area
  765 01275 1010      TAD   AI0               / AUTO INDEX REGISTER                   @@1275=1010
  766 01276 7041      CIA                     /                                       @@1276=7041
  767 01277 3033      DCA   D0033             /                                       @@1277=3033
  768 01300 4542      JMS I C0142             / long call to S1525                    @@1300=4542
  769 01301 0033      AND   D0033             /                                       @@1301=0033
  770 01302 7156  C1302,  7156                / CLL CMA RTR RTL                       
  771 01303 1033      TAD   D0033             /                                       @@1303=1033
  772 01304 7150      CLL CMA RAR             /                                       @@1304=7150
  773 01305 3033      DCA   D0033             /                                       @@1305=3033
  774 01306 4542      JMS I C0142             / long call to S1525                    @@1306=4542
  775 01307 0033      AND   D0033             /                                       @@1307=0033
  776 01310 7152      CLL CMA RTR             /                                       @@1310=7152
  777 01311 1010      TAD   AI0               / AUTO INDEX REGISTER                   @@1311=1010
  778 01312 4774      JMS I C1374             / long call to S6400                    @@1312=4774
  779 01313 7024      CML RAL                 /                                       @@1313=7024
  780 01314 7274  C1314,  7274                / CLA CMA CML RAR RAL                   
  781 01315 7246      CLA CMA RTL             /                                       @@1315=7246
  782 01316 1241      TAD   D1241             /                                       @@1316=1241
  783 01317 7313      CLA CLL IAC RTR         /                                       @@1317=7313
  784 01320 5674      JMP I S1274             / return                                @@1320=5674
  785             
  786       1374  *1374
  787             C1374,
  788 01374 6400  C1374,  6400                / 6400                                  
  789             C1375,
  790 01375 2474  C1375,  2474                / ISZ I C0074                           
  791             C1376,
  792 01376 2242  C1376,  2242                / ISZ   D1242                           
  793 01377 1400  C1377,  1400                / TAD I L0000                           
  794             
  795       1400  *1400
  796 01400 7300      CLA CLL                 / AC = 0000                             @@1400=7300
  797 01401 1377      TAD   C1577             /                                       @@1401=1377
  798 01402 3042      DCA   D0042             /                                       @@1402=3042

      AUTOMATIC DISASSEMBLY OF MAINDEC-08-DHKEA-A-PB.bin BY D8TAPE       Page 15


  799 01403 7604      LAS                     /                                       @@1403=7604
  800 01404 7112      CLL RTR                 /                                       @@1404=7112
  801 01405 7012      RTR                     /                                       @@1405=7012
  802 01406 7430      SZL                     /                                       @@1406=7430
  803 01407 5776      JMP I C1576             / long jump to L2074                    @@1407=5776
  804 01410 0375      AND   C1575             /                                       @@1410=0375
  805 01411 7640      SZA CLA                 /                                       @@1411=7640
  806 01412 5776      JMP I C1576             / long jump to L2074                    @@1412=5776
  807 01413 1026      TAD   D0026             /                                       @@1413=1026
  808 01414 7650      SNA CLA                 /                                       @@1414=7650
  809 01415 5774      JMP I C1574             / long jump to L2135                    @@1415=5774
  810 01416 1032      TAD   D0032             /                                       @@1416=1032
  811 01417 1134      TAD   C0134             /                                       @@1417=1134
  812 01420 7421      MQL                     /                                       @@1420=7421
  813 01421 7501      MQA                     /                                       @@1421=7501
  814 01422 7041      CIA                     /                                       @@1422=7041
  815 01423 1026      TAD   D0026             /                                       @@1423=1026
  816 01424 7710      SPA CLA                 /                                       @@1424=7710
  817 01425 7621      CAM                     /                                       @@1425=7621
  818 01426 7501      MQA                     /                                       @@1426=7501
  819 01427 7041      CIA                     /                                       @@1427=7041
  820 01430 1030      TAD   D0030             /                                       @@1430=1030
  821 01431 7650      SNA CLA                 /                                       @@1431=7650
  822 01432 5236      JMP   L1436             /                                       @@1432=5236
  823             L1433,
  824 01433 7501      MQA                     /                                       @@1433=7501
  825 01434 3032      DCA   D0032             /                                       @@1434=3032
  826 01435 5776      JMP I C1576             / long jump to L2074                    @@1435=5776
  827             L1436,
  828 01436 7604      LAS                     /                                       @@1436=7604
  829 01437 7102      CLL BSW                 /                                       @@1437=7102
  830 01440 7006      RTL                     /                                       @@1440=7006
  831 01441 7630      SZL CLA                 /                                       @@1441=7630
  832 01442 5233      JMP   L1433             /                                       @@1442=5233
  833 01443 7501      MQA                     /                                       @@1443=7501
  834 01444 3032      DCA   D0032             /                                       @@1444=3032
  835 01445 1031      TAD   D0031             /                                       @@1445=1031
  836 01446 1134      TAD   C0134             /                                       @@1446=1134
  837 01447 7421      MQL                     /                                       @@1447=7421
  838 01450 7501      MQA                     /                                       @@1450=7501
  839 01451 7041      CIA                     /                                       @@1451=7041
  840 01452 1026      TAD   D0026             /                                       @@1452=1026
  841 01453 7710      SPA CLA                 /                                       @@1453=7710
  842 01454 7621      CAM                     /                                       @@1454=7621
  843 01455 7501      MQA                     /                                       @@1455=7501
  844 01456 1133      TAD   C0133             /                                       @@1456=1133
  845 01457 3276      DCA   D1476             /                                       @@1457=3276
  846 01460 7501      MQA                     /                                       @@1460=7501
  847 01461 3031      DCA   D0031             /                                       @@1461=3031
  848 01462 3015      DCA   L0015             /                                       @@1462=3015
  849 01463 3016      DCA   AI6               / AUTO INDEX REGISTER                   @@1463=3016
  850 01464 3017      DCA   AI7               / AUTO INDEX REGISTER                   @@1464=3017
  851 01465 1132      TAD   C0132             /                                       @@1465=1132
  852 01466 3033      DCA   D0033             /                                       @@1466=3033
  853             L1467,
  854 01467 6224      RIF                     / Same as RDF except reads the instruc  @@1467=6224
  855 01470 1133      TAD   C0133             /                                       @@1470=1133

      AUTOMATIC DISASSEMBLY OF MAINDEC-08-DHKEA-A-PB.bin BY D8TAPE       Page 16


  856 01471 3272      DCA   D1472             /                                       @@1471=3272
  857 01472 0000  D1472,  0000                / AND   L0000                           
  858 01473 1416      TAD I AI6               / AUTO INDEX REGISTER                   @@1473=1416
  859 01474 3037      DCA   D0037             /                                       @@1474=3037
  860 01475 1037      TAD   D0037             /                                       @@1475=1037
  861 01476 0000  D1476,  0000                / AND   L0000                           
  862 01477 3417      DCA I AI7               / AUTO INDEX REGISTER                   @@1477=3417
  863 01500 1415      TAD I L0015             /                                       @@1500=1415
  864 01501 7041      CIA                     /                                       @@1501=7041
  865 01502 1037      TAD   D0037             /                                       @@1502=1037
  866 01503 7650      SNA CLA                 /                                       @@1503=7650
  867 01504 5307      JMP   L1507             /                                       @@1504=5307
  868             L1505,
  869 01505 7402      HLT                     /                                       @@1505=7402
  870 01506 5305      JMP   L1505             /                                       @@1506=5305
  871             L1507,
  872 01507 2033      ISZ   D0033             /                                       @@1507=2033
  873 01510 5267      JMP   L1467             /                                       @@1510=5267
  874 01511 7501      MQA                     /                                       @@1511=7501
  875 01512 1131      TAD   C0131             /                                       @@1512=1131
  876 01513 3314      DCA   D1514             /                                       @@1513=3314
  877 01514 0000  D1514,  0000                / AND   L0000                           
  878 01515 5316      JMP   L1516             /                                       @@1515=5316
  879             L1516,
  880 01516 4572      JMS I C0172             / long call to S2120                    @@1516=4572
  881 01517 7501      MQA                     /                                       @@1517=7501
  882 01520 7041      CIA                     /                                       @@1520=7041
  883 01521 1027      TAD   D0027             /                                       @@1521=1027
  884 01522 7650      SNA CLA                 /                                       @@1522=7650
  885 01523 5774      JMP I C1574             / long jump to L2135                    @@1523=5774
  886 01524 5776      JMP I C1576             / long jump to L2074                    @@1524=5776
  887             
  888             ////////////////////////////////////////////////////////////////////////////////
  889             /
  890             /   SUBROUTINE:  S1525
  891             /
  892             /   Called from:
  893             /   0670 0673 1003 1006 1120 1126 1300 1306 2526 2533 6002 6006 6050 6053 6073 
  894             /   6076 6115 6120 6233 6236 6257 6271 6274 6315 6411 6443 6477 6502 6516 6521 
  895             /   6524 
  896             /   Total 0037 (31) calls
  897             ////////////////////////////////////////////////////////////////////////////////
  898             S1525,
  899 01525 0000      0                       / return area
  900 01526 7200      CLA                     /                                       @@1526=7200
  901 01527 1725      TAD I S1525             /                                       @@1527=1725
  902 01530 3362      DCA   D1562             /                                       @@1530=3362
  903 01531 2325      ISZ   S1525             /                                       @@1531=2325
  904 01532 1725      TAD I S1525             /                                       @@1532=1725
  905 01533 3363      DCA   D1563             /                                       @@1533=3363
  906 01534 2325      ISZ   S1525             /                                       @@1534=2325
  907 01535 1365      TAD   C1565             /                                       @@1535=1365
  908 01536 0762      AND I D1562             /                                       @@1536=0762
  909 01537 7102      CLL BSW                 /                                       @@1537=7102
  910 01540 4347      JMS   S1547             /                                       @@1540=4347
  911 01541 2363      ISZ   D1563             /                                       @@1541=2363
  912 01542 1365      TAD   C1565             /                                       @@1542=1365

      AUTOMATIC DISASSEMBLY OF MAINDEC-08-DHKEA-A-PB.bin BY D8TAPE       Page 17


  913 01543 7040      CMA                     /                                       @@1543=7040
  914 01544 0762      AND I D1562             /                                       @@1544=0762
  915 01545 4347      JMS   S1547             /                                       @@1545=4347
  916 01546 5725      JMP I S1525             / return                                @@1546=5725
  917             
  918             ////////////////////////////////////////////////////////////////////////////////
  919             /
  920             /   SUBROUTINE:  S1547
  921             /
  922             /   Called from:
  923             /   1540 1545 
  924             /   Total 0002 (2) calls
  925             ////////////////////////////////////////////////////////////////////////////////
  926             S1547,
  927 01547 0000      0                       / return area
  928 01550 3364      DCA   D1564             /                                       @@1550=3364
  929 01551 1364      TAD   D1564             /                                       @@1551=1364
  930 01552 7006      RTL                     /                                       @@1552=7006
  931 01553 7004      RAL                     /                                       @@1553=7004
  932 01554 0366      AND   C1566             /                                       @@1554=0366
  933 01555 1364      TAD   D1564             /                                       @@1555=1364
  934 01556 0366      AND   C1566             /                                       @@1556=0366
  935 01557 1367      TAD   C1567             /                                       @@1557=1367
  936 01560 3763      DCA I D1563             /                                       @@1560=3763
  937 01561 5747      JMP I S1547             / return                                @@1561=5747
  938 01562 0000  D1562,  0000                / AND   L0000                           
  939 01563 0000  D1563,  0000                / AND   L0000                           
  940 01564 0000  D1564,  0000                / AND   L0000                           
  941 01565 7700  C1565,  7700                / SMA CLA                               
  942 01566 0707  C1566,  0707                / AND I L1507                           
  943 01567 6060  C1567,  6060                / 6060                                  
  944             
  945       1574  *1574
  946             C1574,
  947 01574 2135  C1574,  2135                / ISZ   D0135                           
  948 01575 0020  C1575,  0020                / AND   D0020                           
  949             C1576,
  950 01576 2074  C1576,  2074                / ISZ   C0074                           
  951 01577 0227  C1577,  0227                / AND   C1427                           
  952             
  953       1600  *1600
  954 01600 0000  D1600,  0000                / AND   L0000                           
  955 01601 7200      CLA                     /                                       @@1601=7200
  956 01602 1600      TAD I D1600             /                                       @@1602=1600
  957 01603 3266      DCA   D1666             /                                       @@1603=3266
  958 01604 3270      DCA   D1670             /                                       @@1604=3270
  959 01605 2200      ISZ   D1600             /                                       @@1605=2200
  960             L1606,
  961 01606 1666      TAD I D1666             /                                       @@1606=1666
  962 01607 7002      BSW                     /                                       @@1607=7002
  963 01610 4215      JMS   S1615             /                                       @@1610=4215
  964 01611 1666      TAD I D1666             /                                       @@1611=1666
  965 01612 4215      JMS   S1615             /                                       @@1612=4215
  966 01613 2266      ISZ   D1666             /                                       @@1613=2266
  967 01614 5206      JMP   L1606             /                                       @@1614=5206
  968             
  969             ////////////////////////////////////////////////////////////////////////////////

      AUTOMATIC DISASSEMBLY OF MAINDEC-08-DHKEA-A-PB.bin BY D8TAPE       Page 18


  970             /
  971             /   SUBROUTINE:  S1615
  972             /
  973             /   Called from:
  974             /   1610 1612 
  975             /   Total 0002 (2) calls
  976             ////////////////////////////////////////////////////////////////////////////////
  977             S1615,
  978 01615 0000      0                       / return area
  979 01616 0130      AND   C0130             /                                       @@1616=0130
  980 01617 3267      DCA   D1667             /                                       @@1617=3267
  981 01620 1270      TAD   D1670             /                                       @@1620=1270
  982 01621 7640      SZA CLA                 /                                       @@1621=7640
  983 01622 5232      JMP   L1632             /                                       @@1622=5232
  984 01623 1267      TAD   D1667             /                                       @@1623=1267
  985 01624 7450      SNA                     /                                       @@1624=7450
  986 01625 5230      JMP   L1630             /                                       @@1625=5230
  987             L1626,
  988 01626 4243      JMS   S1643             /                                       @@1626=4243
  989 01627 5615      JMP I S1615             / return                                @@1627=5615
  990             L1630,
  991 01630 2270      ISZ   D1670             /                                       @@1630=2270
  992 01631 5615      JMP I S1615             / return                                @@1631=5615
  993             L1632,
  994 01632 3270      DCA   D1670             /                                       @@1632=3270
  995 01633 1267      TAD   D1667             /                                       @@1633=1267
  996 01634 7450      SNA                     /                                       @@1634=7450
  997 01635 5615      JMP I S1615             / return                                @@1635=5615
  998 01636 1272      TAD   C1672             /                                       @@1636=1272
  999 01637 7650      SNA CLA                 /                                       @@1637=7650
 1000 01640 5600      JMP I D1600             / long jump to L0000                    @@1640=5600
 1001 01641 1267      TAD   D1667             /                                       @@1641=1267
 1002 01642 5226      JMP   L1626             /                                       @@1642=5226
 1003             
 1004             ////////////////////////////////////////////////////////////////////////////////
 1005             /
 1006             /   SUBROUTINE:  S1643
 1007             /
 1008             /   Called from:
 1009             /   1626 
 1010             /   Total 0001 (1) calls
 1011             ////////////////////////////////////////////////////////////////////////////////
 1012             S1643,
 1013 01643 0000      0                       / return area
 1014 01644 1273      TAD   C1673             /                                       @@1644=1273
 1015 01645 7640      SZA CLA                 /                                       @@1645=7640
 1016 01646 5252      JMP   L1652             /                                       @@1646=5252
 1017 01647 1300      TAD   C1700             /                                       @@1647=1300
 1018             L1650,
 1019 01650 4302      JMS   S1702             /                                       @@1650=4302
 1020 01651 5643      JMP I S1643             / return                                @@1651=5643
 1021             L1652,
 1022 01652 1267      TAD   D1667             /                                       @@1652=1267
 1023 01653 1274      TAD   C1674             /                                       @@1653=1274
 1024 01654 7640      SZA CLA                 /                                       @@1654=7640
 1025 01655 5260      JMP   L1660             /                                       @@1655=5260
 1026 01656 1277      TAD   C1677             /                                       @@1656=1277

      AUTOMATIC DISASSEMBLY OF MAINDEC-08-DHKEA-A-PB.bin BY D8TAPE       Page 19


 1027 01657 5250      JMP   L1650             /                                       @@1657=5250
 1028             L1660,
 1029 01660 1267      TAD   D1667             /                                       @@1660=1267
 1030 01661 1275      TAD   C1675             /                                       @@1661=1275
 1031 01662 7510      SPA                     /                                       @@1662=7510
 1032 01663 1276      TAD   C1676             /                                       @@1663=1276
 1033 01664 1301      TAD   C1701             /                                       @@1664=1301
 1034 01665 5250      JMP   L1650             /                                       @@1665=5250
 1035 01666 0000  D1666,  0000                / AND   L0000                           
 1036 01667 0000  D1667,  0000                / AND   L0000                           
 1037 01670 0000  D1670,  0000                / AND   L0000                           
 1038 01671 0000      AND   L0000             /                                       @@1671=0000
 1039 01672 7701  C1672,  7701                / CLA MQA                               
 1040 01673 7733  C1673,  7733                / CLA MQA MQL SHL +                     
 1041 01674 7735  C1674,  7735                / CLA MQA MQL ASR +                     
 1042 01675 7740  C1675,  7740                / SMA SZA CLA                           
 1043 01676 0100  C1676,  0100                / AND   C0100                           
 1044 01677 0212  C1677,  0212                / AND   C1612                           
 1045 01700 0215  C1700,  0215                / AND   S1615                           
 1046 01701 0240  C1701,  0240                / AND   C1640                           
 1047             
 1048             ////////////////////////////////////////////////////////////////////////////////
 1049             /
 1050             /   SUBROUTINE:  S1702
 1051             /
 1052             /   Called from:
 1053             /   1650 2024 2140 
 1054             /   Total 0003 (3) calls
 1055             ////////////////////////////////////////////////////////////////////////////////
 1056             S1702,
 1057 01702 0000      0                       / return area
 1058 01703 6046      TLS                     / Load the TTO from the content of AC4  @@1703=6046
 1059             L1704,
 1060 01704 6041      TSF                     / Skip if teleprinter flag is a 1.      @@1704=6041
 1061 01705 5304      JMP   L1704             /                                       @@1705=5304
 1062 01706 6042      TCF                     / Clear teleprinter flag.               @@1706=6042
 1063 01707 7300      CLA CLL                 / AC = 0000                             @@1707=7300
 1064 01710 5702      JMP I S1702             / return                                @@1710=5702
 1065             
 1066             ////////////////////////////////////////////////////////////////////////////////
 1067             /
 1068             /   SUBROUTINE:  S1711
 1069             /
 1070             /   Called from:
 1071             /   1721 
 1072             /   Total 0001 (1) calls
 1073             ////////////////////////////////////////////////////////////////////////////////
 1074             S1711,
 1075 01711 0000      0                       / return area
 1076 01712 4577      JMS I D0177             / long call to S1600                    @@1712=4577
 1077 01713 6661      6661                    / Skip if the printer done flag is a 1  @@1713=6661
 1078 01714 5711      JMP I S1711             / return                                @@1714=5711
 1079             
 1080             ////////////////////////////////////////////////////////////////////////////////
 1081             /
 1082             /   SUBROUTINE:  S1715
 1083             /

      AUTOMATIC DISASSEMBLY OF MAINDEC-08-DHKEA-A-PB.bin BY D8TAPE       Page 20


 1084             /   Called from:
 1085             /   2551 6035 6204 6217 6223 6231 6243 6251 6266 6301 6307 6432 6460 6514 
 1086             /   Total 0016 (14) calls
 1087             ////////////////////////////////////////////////////////////////////////////////
 1088             S1715,
 1089 01715 0000      0                       / return area
 1090 01716 1715      TAD I S1715             /                                       @@1716=1715
 1091 01717 7041      CIA                     /                                       @@1717=7041
 1092 01720 3037      DCA   D0037             /                                       @@1720=3037
 1093             L1721,
 1094 01721 4311      JMS   S1711             /                                       @@1721=4311
 1095 01722 2037      ISZ   D0037             /                                       @@1722=2037
 1096 01723 5321      JMP   L1721             /                                       @@1723=5321
 1097 01724 5715      JMP I S1715             / return                                @@1724=5715
 1098             
 1099             ////////////////////////////////////////////////////////////////////////////////
 1100             /
 1101             /   SUBROUTINE:  S1725
 1102             /
 1103             /   Called from:
 1104             /   6114 6226 6513 
 1105             /   Total 0003 (3) calls
 1106             ////////////////////////////////////////////////////////////////////////////////
 1107             S1725,
 1108 01725 0000      0                       / return area
 1109 01726 7640      SZA CLA                 /                                       @@1726=7640
 1110 01727 7001      IAC                     /                                       @@1727=7001
 1111 01730 1127      TAD   D0127             /                                       @@1730=1127
 1112 01731 3777      DCA I C1777             /                                       @@1731=3777
 1113 01732 4577      JMS I D0177             / long call to S1600                    @@1732=4577
 1114 01733 7142      CLL CMA BSW             /                                       @@1733=7142
 1115 01734 5725      JMP I S1725             / return                                @@1734=5725
 1116             
 1117             ////////////////////////////////////////////////////////////////////////////////
 1118             /
 1119             /   SUBROUTINE:  S1735
 1120             /
 1121             /   Called from:
 1122             /   2536 6015 6056 6101 6123 6206 6245 6262 6303 6414 6446 6505 6527 
 1123             /   Total 0015 (13) calls
 1124             ////////////////////////////////////////////////////////////////////////////////
 1125             S1735,
 1126 01735 0000      0                       / return area
 1127 01736 1735      TAD I S1735             /                                       @@1736=1735
 1128 01737 7041      CIA                     /                                       @@1737=7041
 1129 01740 3352      DCA   S1752             /                                       @@1740=3352
 1130             L1741,
 1131 01741 2335      ISZ   S1735             /                                       @@1741=2335
 1132 01742 1735      TAD I S1735             /                                       @@1742=1735
 1133 01743 3345      DCA   D1745             /                                       @@1743=3345
 1134 01744 4577      JMS I D0177             / long call to S1600                    @@1744=4577
 1135 01745 0000  D1745,  0000                / AND   L0000                           
 1136 01746 2352      ISZ   S1752             /                                       @@1746=2352
 1137 01747 5341      JMP   L1741             /                                       @@1747=5341
 1138 01750 2335      ISZ   S1735             /                                       @@1750=2335
 1139 01751 5735      JMP I S1735             / return                                @@1751=5735
 1140             

      AUTOMATIC DISASSEMBLY OF MAINDEC-08-DHKEA-A-PB.bin BY D8TAPE       Page 21


 1141             ////////////////////////////////////////////////////////////////////////////////
 1142             /
 1143             /   SUBROUTINE:  S1752
 1144             /
 1145             /   Called from:
 1146             /   2003 2025 
 1147             /   Total 0002 (2) calls
 1148             ////////////////////////////////////////////////////////////////////////////////
 1149             S1752,
 1150 01752 0000      0                       / return area
 1151 01753 6032      KCC                     / Clear AC and clear keyboard flag.     @@1753=6032
 1152             L1754,
 1153 01754 6031      KSF                     / Skip if keyboard flag is a 1.         @@1754=6031
 1154 01755 5354      JMP   L1754             /                                       @@1755=5354
 1155 01756 6036      KRB                     / Clear AC, clear keyboard flag, and r  @@1756=6036
 1156 01757 5752      JMP I S1752             / return                                @@1757=5752
 1157             
 1158             ////////////////////////////////////////////////////////////////////////////////
 1159             /
 1160             /   SUBROUTINE:  S1760
 1161             /
 1162             /   Called from:
 1163             /   0252 0337 0416 0524 0624 0733 1050 1232 
 1164             /   Total 0010 (8) calls
 1165             ////////////////////////////////////////////////////////////////////////////////
 1166             S1760,
 1167 01760 0000      0                       / return area
 1168 01761 3022      DCA   D0022             /                                       @@1761=3022
 1169 01762 7010      RAR                     /                                       @@1762=7010
 1170 01763 3020      DCA   D0020             /                                       @@1763=3020
 1171 01764 7501      MQA                     /                                       @@1764=7501
 1172 01765 3021      DCA   D0021             /                                       @@1765=3021
 1173 01766 6214      RDF                     / Read data field into AC6-8.  Bit 0-5  @@1766=6214
 1174 01767 3024      DCA   D0024             /                                       @@1767=3024
 1175 01770 6224      RIF                     / Same as RDF except reads the instruc  @@1770=6224
 1176 01771 3025      DCA   D0025             /                                       @@1771=3025
 1177 01772 7441  C1772,  7441                / SCA                                   
 1178 01773 3023      DCA   D0023             /                                       @@1773=3023
 1179 01774 4572      JMS I C0172             / long call to S2120                    @@1774=4572
 1180 01775 5760      JMP I S1760             / return                                @@1775=5760
 1181             
 1182       1777  *1777
 1183 01777 7142  C1777,  7142                / CLL CMA BSW                           
 1184             
 1185       2000  *2000
 1186             
 1187             ////////////////////////////////////////////////////////////////////////////////
 1188             /
 1189             /   SUBROUTINE:  S2000
 1190             /
 1191             /   Called from:
 1192             /   0217 
 1193             /   Total 0001 (1) calls
 1194             ////////////////////////////////////////////////////////////////////////////////
 1195             S2000,
 1196 02000 0000      0                       / return area
 1197             L2001,

      AUTOMATIC DISASSEMBLY OF MAINDEC-08-DHKEA-A-PB.bin BY D8TAPE       Page 22


 1198 02001 4577      JMS I D0177             / long call to S1600                    @@2001=4577
 1199 02002 7220      CLA CML                 /                                       @@2002=7220
 1200 02003 4574      JMS I C0174             / long call to S1752                    @@2003=4574
 1201 02004 1377      TAD   C2177             /                                       @@2004=1377
 1202 02005 7710      SPA CLA                 /                                       @@2005=7710
 1203 02006 5201      JMP   L2001             /                                       @@2006=5201
 1204 02007 6034      KRS                     / Read keyboard buffer static. This is  @@2007=6034
 1205 02010 1376      TAD   C2176             /                                       @@2010=1376
 1206 02011 7700      SMA CLA                 /                                       @@2011=7700
 1207 02012 5201      JMP   L2001             /                                       @@2012=5201
 1208 02013 6034      KRS                     / Read keyboard buffer static. This is  @@2013=6034
 1209 02014 0173      AND   C0173             /                                       @@2014=0173
 1210 02015 7106      CLL RTL                 /                                       @@2015=7106
 1211 02016 7004      RAL                     /                                       @@2016=7004
 1212 02017 3026      DCA   D0026             /                                       @@2017=3026
 1213 02020 1026      TAD   D0026             /                                       @@2020=1026
 1214 02021 7112      CLL RTR                 /                                       @@2021=7112
 1215 02022 7010      RAR                     /                                       @@2022=7010
 1216 02023 1127      TAD   D0127             /                                       @@2023=1127
 1217 02024 4775      JMS I C2175             / long call to S1702                    @@2024=4775
 1218             L2025,
 1219 02025 4574      JMS I C0174             / long call to S1752                    @@2025=4574
 1220 02026 1374      TAD   C2174             /                                       @@2026=1374
 1221 02027 7650      SNA CLA                 /                                       @@2027=7650
 1222 02030 5201      JMP   L2001             /                                       @@2030=5201
 1223 02031 6036      KRB                     / Clear AC, clear keyboard flag, and r  @@2031=6036
 1224 02032 1373      TAD   C2173             /                                       @@2032=1373
 1225 02033 7640      SZA CLA                 /                                       @@2033=7640
 1226 02034 5225      JMP   L2025             /                                       @@2034=5225
 1227 02035 4577      JMS I D0177             / long call to S1600                    @@2035=4577
 1228 02036 6610  C2036,  6610                / 6610                                  
 1229 02037 5600      JMP I S2000             / return                                @@2037=5600
 1230             
 1231             ////////////////////////////////////////////////////////////////////////////////
 1232             /
 1233             /   SUBROUTINE:  S2040
 1234             /
 1235             /   Called from:
 1236             /   0255 0342 0447 0557 0636 0745 1065 1247 
 1237             /   Total 0010 (8) calls
 1238             ////////////////////////////////////////////////////////////////////////////////
 1239             S2040,
 1240 02040 0000      0                       / return area
 1241 02041 7604      LAS                     /                                       @@2041=7604
 1242 02042 7700      SMA CLA                 /                                       @@2042=7700
 1243 02043 5640      JMP I S2040             / return                                @@2043=5640
 1244 02044 2240      ISZ   S2040             /                                       @@2044=2240
 1245 02045 5640      JMP I S2040             / return                                @@2045=5640
 1246             
 1247             ////////////////////////////////////////////////////////////////////////////////
 1248             /
 1249             /   SUBROUTINE:  S2046
 1250             /
 1251             /   Called from:
 1252             /   0260 0345 0452 0562 0640 0747 1067 1251 
 1253             /   Total 0010 (8) calls
 1254             ////////////////////////////////////////////////////////////////////////////////

      AUTOMATIC DISASSEMBLY OF MAINDEC-08-DHKEA-A-PB.bin BY D8TAPE       Page 23


 1255             S2046,
 1256 02046 0000      0                       / return area
 1257 02047 7604      LAS                     /                                       @@2047=7604
 1258 02050 7104      CLL RAL                 /                                       @@2050=7104
 1259 02051 7710      SPA CLA                 /                                       @@2051=7710
 1260 02052 5646      JMP I S2046             / return                                @@2052=5646
 1261 02053 2246      ISZ   S2046             /                                       @@2053=2246
 1262 02054 5646      JMP I S2046             / return                                @@2054=5646
 1263             
 1264             ////////////////////////////////////////////////////////////////////////////////
 1265             /
 1266             /   SUBROUTINE:  S2055
 1267             /
 1268             /   Called from:
 1269             /   0253 0340 0445 0555 0634 0743 1063 1245 2135 
 1270             /   Total 0011 (9) calls
 1271             ////////////////////////////////////////////////////////////////////////////////
 1272             S2055,
 1273 02055 0000      0                       / return area
 1274 02056 7604      LAS                     /                                       @@2056=7604
 1275 02057 7106      CLL RTL                 /                                       @@2057=7106
 1276 02060 7700      SMA CLA                 /                                       @@2060=7700
 1277 02061 5655      JMP I S2055             / return                                @@2061=5655
 1278 02062 2255      ISZ   S2055             /                                       @@2062=2255
 1279 02063 5655      JMP I S2055             / return                                @@2063=5655
 1280             L2064,
 1281 02064 7604      LAS                     /                                       @@2064=7604
 1282 02065 0372      AND   C2172             /                                       @@2065=0372
 1283 02066 7640      SZA CLA                 /                                       @@2066=7640
 1284 02067 5526      JMP I C0126             / long jump to L2074                    @@2067=5526
 1285 02070 1042      TAD   D0042             /                                       @@2070=1042
 1286 02071 3273      DCA   D2073             /                                       @@2071=3273
 1287 02072 5673      JMP I D2073             / long jump to L0000                    @@2072=5673
 1288 02073 0000  D2073,  0000                / AND   L0000                           
 1289             L2074,
 1290 02074 7604      LAS                     /                                       @@2074=7604
 1291 02075 7106      CLL RTL                 /                                       @@2075=7106
 1292 02076 7004      RAL                     /                                       @@2076=7004
 1293 02077 7500      SMA                     /                                       @@2077=7500
 1294 02100 5264      JMP   L2064             /                                       @@2100=5264
 1295 02101 7102      CLL BSW                 /                                       @@2101=7102
 1296 02102 7012  C2102,  7012                / RTR                                   
 1297 02103 0173      AND   C0173             /                                       @@2103=0173
 1298 02104 1125      TAD   C0125             /                                       @@2104=1125
 1299 02105 3037      DCA   D0037             /                                       @@2105=3037
 1300 02106 1437      TAD I D0037             /                                       @@2106=1437
 1301 02107 3037      DCA   D0037             /                                       @@2107=3037
 1302 02110 5437      JMP I D0037             / long jump to L0000                    @@2110=5437
 1303             
 1304             ////////////////////////////////////////////////////////////////////////////////
 1305             /
 1306             /   SUBROUTINE:  S2111
 1307             /
 1308             /   Called from:
 1309             /   0240 0325 0411 0424 0517 0534 0617 0726 1037 1220 2156 2455 2556 6037 6253 
 1310             /   6311 6437 
 1311             /   Total 0021 (17) calls

      AUTOMATIC DISASSEMBLY OF MAINDEC-08-DHKEA-A-PB.bin BY D8TAPE       Page 24


 1312             ////////////////////////////////////////////////////////////////////////////////
 1313             S2111,
 1314 02111 0000      0                       / return area
 1315 02112 7300      CLA CLL                 / AC = 0000                             @@2112=7300
 1316 02113 1032      TAD   D0032             /                                       @@2113=1032
 1317 02114 1133      TAD   C0133             /                                       @@2114=1133
 1318 02115 3316      DCA   D2116             /                                       @@2115=3316
 1319 02116 0000  D2116,  0000                / AND   L0000                           
 1320 02117 5711      JMP I S2111             / return                                @@2117=5711
 1321             
 1322             ////////////////////////////////////////////////////////////////////////////////
 1323             /
 1324             /   SUBROUTINE:  S2120
 1325             /
 1326             /   Called from:
 1327             /   0212 0257 0344 0444 0451 0554 0561 1516 1774 2165 2472 2517 6047 6256 6314 
 1328             /   6442 
 1329             /   Total 0020 (16) calls
 1330             ////////////////////////////////////////////////////////////////////////////////
 1331             S2120,
 1332 02120 0000      0                       / return area
 1333 02121 7200      CLA                     /                                       @@2121=7200
 1334 02122 6224      RIF                     / Same as RDF except reads the instruc  @@2122=6224
 1335 02123 1133      TAD   C0133             /                                       @@2123=1133
 1336 02124 3325      DCA   D2125             /                                       @@2124=3325
 1337 02125 0000  D2125,  0000                / AND   L0000                           
 1338 02126 5720      JMP I S2120             / return                                @@2126=5720
 1339             
 1340             ////////////////////////////////////////////////////////////////////////////////
 1341             /
 1342             /   SUBROUTINE:  S2127
 1343             /
 1344             /   Called from:
 1345             /   0346 0563 
 1346             /   Total 0002 (2) calls
 1347             ////////////////////////////////////////////////////////////////////////////////
 1348             S2127,
 1349 02127 0000      0                       / return area
 1350 02130 7240      STA                     / AC = 7777 (-0001)                     @@2130=7240
 1351 02131 1010      TAD   AI0               / AUTO INDEX REGISTER                   @@2131=1010
 1352 02132 3010      DCA   AI0               / AUTO INDEX REGISTER                   @@2132=3010
 1353 02133 2327      ISZ   S2127             /                                       @@2133=2327
 1354 02134 5727      JMP I S2127             / return                                @@2134=5727
 1355             L2135,
 1356 02135 4565      JMS I C0165             / long call to S2055                    @@2135=4565
 1357 02136 5342      JMP   L2142             /                                       @@2136=5342
 1358 02137 1124      TAD   C0124             /                                       @@2137=1124
 1359 02140 4775      JMS I C2175             / long call to S1702                    @@2140=4775
 1360 02141 5264      JMP   L2064             /                                       @@2141=5264
 1361             L2142,
 1362 02142 4577      JMS I D0177             / long call to S1600                    @@2142=4577
 1363 02143 7212      CLA RTR                 /                                       @@2143=7212
 1364 02144 5264      JMP   L2064             /                                       @@2144=5264
 1365             
 1366             ////////////////////////////////////////////////////////////////////////////////
 1367             /
 1368             /   SUBROUTINE:  S2145

      AUTOMATIC DISASSEMBLY OF MAINDEC-08-DHKEA-A-PB.bin BY D8TAPE       Page 25


 1369             /
 1370             /   Called from:
 1371             /   0227 0400 0501 0706 1021 1200 
 1372             /   Total 0006 (6) calls
 1373             ////////////////////////////////////////////////////////////////////////////////
 1374             S2145,
 1375 02145 0000      0                       / return area
 1376 02146 7300      CLA CLL                 / AC = 0000                             @@2146=7300
 1377 02147 4523      JMS I C0123             / long call to S2437                    @@2147=4523
 1378 02150 1136      TAD   C0136             /                                       @@2150=1136
 1379 02151 3041      DCA   D0041             /                                       @@2151=3041
 1380 02152 1745      TAD I S2145             /                                       @@2152=1745
 1381 02153 3361      DCA   D2161             /                                       @@2153=3361
 1382 02154 1371      TAD   C2171             /                                       @@2154=1371
 1383 02155 3016      DCA   AI6               / AUTO INDEX REGISTER                   @@2155=3016
 1384 02156 4567      JMS I C0167             / long call to S2111                    @@2156=4567
 1385             L2157,
 1386 02157 1016      TAD   AI6               / AUTO INDEX REGISTER                   @@2157=1016
 1387 02160 7001      IAC                     /                                       @@2160=7001
 1388 02161 0000  D2161,  0000                / AND   L0000                           
 1389 02162 3416      DCA I AI6               / AUTO INDEX REGISTER                   @@2162=3416
 1390 02163 2041      ISZ   D0041             /                                       @@2163=2041
 1391 02164 5357      JMP   L2157             /                                       @@2164=5357
 1392 02165 4572      JMS I C0172             / long call to S2120                    @@2165=4572
 1393 02166 2345      ISZ   S2145             /                                       @@2166=2345
 1394 02167 5745      JMP I S2145             / return                                @@2167=5745
 1395             
 1396       2171  *2171
 1397 02171 2777  C2171,  2777                / ISZ I C2177                           
 1398 02172 0400  C2172,  0400                / AND I L0000                           
 1399 02173 7563  C2173,  7563                / MQA SCA MQL SCL +                     
 1400 02174 7401  C2174,  7401                / 7401                                  
 1401             C2175,
 1402 02175 1702  C2175,  1702                / TAD I C2102                           
 1403 02176 7510  C2176,  7510                / SPA                                   
 1404 02177 7520  C2177,  7520                / SMA SNL                               
 1405             
 1406       2200  *2200
 1407             
 1408             ////////////////////////////////////////////////////////////////////////////////
 1409             /
 1410             /   SUBROUTINE:  S2200
 1411             /
 1412             /   Called from:
 1413             /   0604 0717 
 1414             /   Total 0002 (2) calls
 1415             ////////////////////////////////////////////////////////////////////////////////
 1416             S2200,
 1417 02200 0000      0                       / return area
 1418 02201 7431  C2201,  7431                / MQL NMI                               
 1419 02202 7300      CLA CLL                 / AC = 0000                             @@2202=7300
 1420 02203 1170      TAD   C0170             /                                       @@2203=1170
 1421 02204 3217      DCA   D2217             /                                       @@2204=3217
 1422 02205 1147      TAD   C0147             /                                       @@2205=1147
 1423 02206 3221      DCA   D2221             /                                       @@2206=3221
 1424 02207 7344      CLA CLL CMA RAL         / AC = 7776 (-0002)                     @@2207=7344
 1425 02210 3040      DCA   D0040             /                                       @@2210=3040

      AUTOMATIC DISASSEMBLY OF MAINDEC-08-DHKEA-A-PB.bin BY D8TAPE       Page 26


 1426             L2211,
 1427 02211 1146      TAD   C0146             /                                       @@2211=1146
 1428 02212 3041      DCA   D0041             /                                       @@2212=3041
 1429             L2213,
 1430 02213 7300      CLA CLL                 / AC = 0000                             @@2213=7300
 1431 02214 1217      TAD   D2217             /                                       @@2214=1217
 1432 02215 7140      CLL CMA                 /                                       @@2215=7140
 1433 02216 4306      JMS   D2306             /                                       @@2216=4306
 1434 02217 0000  D2217,  0000                / AND   L0000                           
 1435 02220 7445  C2220,  7445                / SCA MUY +                             
 1436 02221 0000  D2221,  0000                / AND   L0000                           
 1437 02222 2217      ISZ   D2217             /                                       @@2222=2217
 1438 02223 2221      ISZ   D2221             /                                       @@2223=2221
 1439 02224 2221      ISZ   D2221             /                                       @@2224=2221
 1440 02225 2041      ISZ   D0041             /                                       @@2225=2041
 1441 02226 5213      JMP   L2213             /                                       @@2226=5213
 1442 02227 2040      ISZ   D0040             /                                       @@2227=2040
 1443 02230 7610      SKP CLA                 /                                       @@2230=7610
 1444 02231 5600      JMP I S2200             / return                                @@2231=5600
 1445 02232 1122      TAD   C0122             /                                       @@2232=1122
 1446 02233 3217      DCA   D2217             /                                       @@2233=3217
 1447 02234 1136      TAD   C0136             /                                       @@2234=1136
 1448 02235 3221      DCA   D2221             /                                       @@2235=3221
 1449 02236 5211      JMP   L2211             /                                       @@2236=5211
 1450 02237 0000  D2237,  0000                / AND   L0000                           
 1451 02240 0000  D2240,  0000                / AND   L0000                           
 1452 02241 0000      AND   L0000             /                                       @@2241=0000
 1453             
 1454             ////////////////////////////////////////////////////////////////////////////////
 1455             /
 1456             /   SUBROUTINE:  S2242
 1457             /
 1458             /   Called from:
 1459             /   1025 1204 
 1460             /   Total 0002 (2) calls
 1461             ////////////////////////////////////////////////////////////////////////////////
 1462             S2242,
 1463 02242 0000      0                       / return area
 1464 02243 7431  C2243,  7431                / MQL NMI                               
 1465 02244 7300      CLA CLL                 / AC = 0000                             @@2244=7300
 1466 02245 1121      TAD   C0121             /                                       @@2245=1121
 1467 02246 3264      DCA   D2264             /                                       @@2246=3264
 1468 02247 1147      TAD   C0147             /                                       @@2247=1147
 1469 02250 3266      DCA   D2266             /                                       @@2250=3266
 1470 02251 7344      CLA CLL CMA RAL         / AC = 7776 (-0002)                     @@2251=7344
 1471 02252 3040      DCA   D0040             /                                       @@2252=3040
 1472             L2253,
 1473 02253 1146      TAD   C0146             /                                       @@2253=1146
 1474 02254 3041      DCA   D0041             /                                       @@2254=3041
 1475             L2255,
 1476 02255 7300      CLA CLL                 / AC = 0000                             @@2255=7300
 1477 02256 1264      TAD   D2264             /                                       @@2256=1264
 1478 02257 7041      CIA                     /                                       @@2257=7041
 1479 02260 3237      DCA   D2237             /                                       @@2260=3237
 1480 02261 1237      TAD   D2237             /                                       @@2261=1237
 1481 02262 7150      CLL CMA RAR             /                                       @@2262=7150
 1482 02263 4777      JMS I C2377             / long call to S2400                    @@2263=4777

      AUTOMATIC DISASSEMBLY OF MAINDEC-08-DHKEA-A-PB.bin BY D8TAPE       Page 27


 1483 02264 0000  D2264,  0000                / AND   L0000                           
 1484 02265 7445  C2265,  7445                / SCA MUY +                             
 1485 02266 0000  D2266,  0000                / AND   L0000                           
 1486 02267 7340      CLA CLL CMA             / AC = 7777 (-0001)                     @@2267=7340
 1487 02270 1264      TAD   D2264             /                                       @@2270=1264
 1488 02271 3264      DCA   D2264             /                                       @@2271=3264
 1489 02272 2266      ISZ   D2266             /                                       @@2272=2266
 1490 02273 2266      ISZ   D2266             /                                       @@2273=2266
 1491 02274 2041      ISZ   D0041             /                                       @@2274=2041
 1492 02275 5255      JMP   L2255             /                                       @@2275=5255
 1493 02276 2040      ISZ   D0040             /                                       @@2276=2040
 1494 02277 7610      SKP CLA                 /                                       @@2277=7610
 1495 02300 5642      JMP I S2242             / return                                @@2300=5642
 1496 02301 1120      TAD   D0120             /                                       @@2301=1120
 1497 02302 3264      DCA   D2264             /                                       @@2302=3264
 1498 02303 1136      TAD   C0136             /                                       @@2303=1136
 1499 02304 3266      DCA   D2266             /                                       @@2304=3266
 1500 02305 5253      JMP   L2253             /                                       @@2305=5253
 1501 02306 0000  D2306,  0000                / AND   L0000                           
 1502 02307 3237      DCA   D2237             /                                       @@2307=3237
 1503 02310 1306      TAD   D2306             /                                       @@2310=1306
 1504 02311 3313      DCA   D2313             /                                       @@2311=3313
 1505 02312 5314      JMP   L2314             /                                       @@2312=5314
 1506 02313 0000  D2313,  0000                / AND   L0000                           
 1507             L2314,
 1508 02314 3240      DCA   D2240             /                                       @@2314=3240
 1509 02315 1376      TAD   C2376             /                                       @@2315=1376
 1510 02316 3343      DCA   D2343             /                                       @@2316=3343
 1511 02317 1713      TAD I D2313             /                                       @@2317=1713
 1512 02320 3344      DCA   D2344             /                                       @@2320=3344
 1513 02321 2313      ISZ   D2313             /                                       @@2321=2313
 1514 02322 5332      JMP   L2332             /                                       @@2322=5332
 1515             L2323,
 1516 02323 1240      TAD   D2240             /                                       @@2323=1240
 1517 02324 7420      SNL                     /                                       @@2324=7420
 1518 02325 5330      JMP   L2330             /                                       @@2325=5330
 1519 02326 7100      CLL                     /                                       @@2326=7100
 1520 02327 1344      TAD   D2344             /                                       @@2327=1344
 1521             L2330,
 1522 02330 7010      RAR                     /                                       @@2330=7010
 1523 02331 3240      DCA   D2240             /                                       @@2331=3240
 1524             L2332,
 1525 02332 1237      TAD   D2237             /                                       @@2332=1237
 1526 02333 7010      RAR                     /                                       @@2333=7010
 1527 02334 3237      DCA   D2237             /                                       @@2334=3237
 1528 02335 2343      ISZ   D2343             /                                       @@2335=2343
 1529 02336 5323      JMP   L2323             /                                       @@2336=5323
 1530 02337 1237      TAD   D2237             /                                       @@2337=1237
 1531 02340 7421      MQL                     /                                       @@2340=7421
 1532 02341 1240      TAD   D2240             /                                       @@2341=1240
 1533 02342 5713      JMP I D2313             / long jump to L0000                    @@2342=5713
 1534 02343 0000  D2343,  0000                / AND   L0000                           
 1535 02344 0000  D2344,  0000                / AND   L0000                           
 1536             
 1537             ////////////////////////////////////////////////////////////////////////////////
 1538             /
 1539             /   SUBROUTINE:  S2345

      AUTOMATIC DISASSEMBLY OF MAINDEC-08-DHKEA-A-PB.bin BY D8TAPE       Page 28


 1540             /
 1541             /   Called from:
 1542             /   2520 6011 6405 
 1543             /   Total 0003 (3) calls
 1544             ////////////////////////////////////////////////////////////////////////////////
 1545             S2345,
 1546 02345 0000      0                       / return area
 1547 02346 1032      TAD   D0032             /                                       @@2346=1032
 1548 02347 7110      CLL RAR                 /                                       @@2347=7110
 1549 02350 7012      RTR                     /                                       @@2350=7012
 1550 02351 1127      TAD   D0127             /                                       @@2351=1127
 1551 02352 3775      DCA I C2375             /                                       @@2352=3775
 1552 02353 1031      TAD   D0031             /                                       @@2353=1031
 1553 02354 7110      CLL RAR                 /                                       @@2354=7110
 1554 02355 7012      RTR                     /                                       @@2355=7012
 1555 02356 1127      TAD   D0127             /                                       @@2356=1127
 1556 02357 3774      DCA I C2374             /                                       @@2357=3774
 1557 02360 5745      JMP I S2345             / return                                @@2360=5745
 1558             
 1559       2374  *2374
 1560 02374 7114  C2374,  7114                / CLL RAR RAL                           
 1561 02375 7117  C2375,  7117                / CLL IAC RTR RTL                       
 1562 02376 7763  C2376,  7763                / CLA MQA SCA MQL SCL +                 
 1563             C2377,
 1564 02377 2400  C2377,  2400                / ISZ I L0000                           
 1565             
 1566       2400  *2400
 1567             
 1568             ////////////////////////////////////////////////////////////////////////////////
 1569             /
 1570             /   SUBROUTINE:  S2400
 1571             /
 1572             /   Called from:
 1573             /   2263 
 1574             /   Total 0001 (1) calls
 1575             ////////////////////////////////////////////////////////////////////////////////
 1576             S2400,
 1577 02400 0000      0                       / return area
 1578 02401 3236      DCA   D2436             /                                       @@2401=3236
 1579 02402 1600      TAD I S2400             /                                       @@2402=1600
 1580 02403 2200      ISZ   S2400             /                                       @@2403=2200
 1581 02404 7141      CLL CMA IAC             /                                       @@2404=7141
 1582 02405 3777      DCA I C2577             /                                       @@2405=3777
 1583 02406 1236      TAD   D2436             /                                       @@2406=1236
 1584 02407 1777      TAD I C2577             /                                       @@2407=1777
 1585 02410 7630      SZL CLA                 /                                       @@2410=7630
 1586 02411 7402      HLT                     /                                       @@2411=7402
 1587 02412 1376      TAD   C2576             /                                       @@2412=1376
 1588 02413 3775      DCA I C2575             /                                       @@2413=3775
 1589 02414 5225      JMP   L2425             /                                       @@2414=5225
 1590             L2415,
 1591 02415 1236      TAD   D2436             /                                       @@2415=1236
 1592 02416 7004      RAL                     /                                       @@2416=7004
 1593 02417 3236      DCA   D2436             /                                       @@2417=3236
 1594 02420 1236      TAD   D2436             /                                       @@2420=1236
 1595 02421 1777      TAD I C2577             /                                       @@2421=1777
 1596 02422 7430      SZL                     /                                       @@2422=7430

      AUTOMATIC DISASSEMBLY OF MAINDEC-08-DHKEA-A-PB.bin BY D8TAPE       Page 29


 1597 02423 3236      DCA   D2436             /                                       @@2423=3236
 1598 02424 7200      CLA                     /                                       @@2424=7200
 1599             L2425,
 1600 02425 1774      TAD I C2574             /                                       @@2425=1774
 1601 02426 7004      RAL                     /                                       @@2426=7004
 1602 02427 3774      DCA I C2574             /                                       @@2427=3774
 1603 02430 2775      ISZ I C2575             /                                       @@2430=2775
 1604 02431 5215      JMP   L2415             /                                       @@2431=5215
 1605 02432 1774      TAD I C2574             /                                       @@2432=1774
 1606 02433 7421      MQL                     /                                       @@2433=7421
 1607 02434 1236      TAD   D2436             /                                       @@2434=1236
 1608 02435 5600      JMP I S2400             / return                                @@2435=5600
 1609 02436 0000  D2436,  0000                / AND   L0000                           
 1610             
 1611             ////////////////////////////////////////////////////////////////////////////////
 1612             /
 1613             /   SUBROUTINE:  S2437
 1614             /
 1615             /   Called from:
 1616             /   2147 
 1617             /   Total 0001 (1) calls
 1618             ////////////////////////////////////////////////////////////////////////////////
 1619             S2437,
 1620 02437 0000      0                       / return area
 1621 02440 7300      CLA CLL                 / AC = 0000                             @@2440=7300
 1622 02441 1032      TAD   D0032             /                                       @@2441=1032
 1623 02442 3033      DCA   D0033             /                                       @@2442=3033
 1624 02443 3032      DCA   D0032             /                                       @@2443=3032
 1625 02444 1026      TAD   D0026             /                                       @@2444=1026
 1626 02445 7112      CLL RTR                 /                                       @@2445=7112
 1627 02446 7010      RAR                     /                                       @@2446=7010
 1628 02447 7040      CMA                     /                                       @@2447=7040
 1629 02450 3034      DCA   D0034             /                                       @@2450=3034
 1630             L2451,
 1631 02451 1136      TAD   C0136             /                                       @@2451=1136
 1632 02452 3041      DCA   D0041             /                                       @@2452=3041
 1633 02453 1155      TAD   C0155             /                                       @@2453=1155
 1634 02454 3016      DCA   AI6               / AUTO INDEX REGISTER                   @@2454=3016
 1635 02455 4567      JMS I C0167             / long call to S2111                    @@2455=4567
 1636             L2456,
 1637 02456 3416      DCA I AI6               / AUTO INDEX REGISTER                   @@2456=3416
 1638 02457 2041      ISZ   D0041             /                                       @@2457=2041
 1639 02460 5256      JMP   L2456             /                                       @@2460=5256
 1640 02461 2034      ISZ   D0034             /                                       @@2461=2034
 1641 02462 7610      SKP CLA                 /                                       @@2462=7610
 1642 02463 5270      JMP   L2470             /                                       @@2463=5270
 1643 02464 1032      TAD   D0032             /                                       @@2464=1032
 1644 02465 1134      TAD   C0134             /                                       @@2465=1134
 1645 02466 3032      DCA   D0032             /                                       @@2466=3032
 1646 02467 5251      JMP   L2451             /                                       @@2467=5251
 1647             L2470,
 1648 02470 1033      TAD   D0033             /                                       @@2470=1033
 1649 02471 3032      DCA   D0032             /                                       @@2471=3032
 1650 02472 4572      JMS I C0172             / long call to S2120                    @@2472=4572
 1651 02473 5637      JMP I S2437             / return                                @@2473=5637
 1652             
 1653             ////////////////////////////////////////////////////////////////////////////////

      AUTOMATIC DISASSEMBLY OF MAINDEC-08-DHKEA-A-PB.bin BY D8TAPE       Page 30


 1654             /
 1655             /   SUBROUTINE:  S2474
 1656             /
 1657             /   Called from:
 1658             /   0331 0522 0731 1230 
 1659             /   Total 0004 (4) calls
 1660             ////////////////////////////////////////////////////////////////////////////////
 1661             S2474,
 1662 02474 0000      0                       / return area
 1663 02475 3044      DCA   D0044             /                                       @@2475=3044
 1664 02476 1010      TAD   AI0               / AUTO INDEX REGISTER                   @@2476=1010
 1665 02477 3045      DCA   D0045             /                                       @@2477=3045
 1666 02500 1044      TAD   D0044             /                                       @@2500=1044
 1667 02501 4006      JMS   S0006             /                                       @@2501=4006
 1668 02502 3046      DCA   D0046             /                                       @@2502=3046
 1669 02503 7010      RAR                     /                                       @@2503=7010
 1670 02504 3047      DCA   D0047             /                                       @@2504=3047
 1671 02505 1045      TAD   D0045             /                                       @@2505=1045
 1672 02506 7040      CMA                     /                                       @@2506=7040
 1673 02507 1010      TAD   AI0               / AUTO INDEX REGISTER                   @@2507=1010
 1674 02510 7640      SZA CLA                 /                                       @@2510=7640
 1675 02511 5317      JMP   L2517             /                                       @@2511=5317
 1676 02512 2274      ISZ   S2474             /                                       @@2512=2274
 1677 02513 1047      TAD   D0047             /                                       @@2513=1047
 1678 02514 7104      CLL RAL                 /                                       @@2514=7104
 1679 02515 1046      TAD   D0046             /                                       @@2515=1046
 1680 02516 5674      JMP I S2474             / return                                @@2516=5674
 1681             L2517,
 1682 02517 4572      JMS I C0172             / long call to S2120                    @@2517=4572
 1683 02520 4517      JMS I C0117             / long call to S2345                    @@2520=4517
 1684 02521 1674      TAD I S2474             /                                       @@2521=1674
 1685 02522 3341      DCA   D2541             /                                       @@2522=3341
 1686 02523 1045      TAD   D0045             /                                       @@2523=1045
 1687 02524 7001      IAC                     /                                       @@2524=7001
 1688 02525 3034      DCA   D0034             /                                       @@2525=3034
 1689 02526 4542      JMS I C0142             / long call to S1525                    @@2526=4542
 1690 02527 0034      AND   D0034             /                                       @@2527=0034
 1691 02530 7200      CLA                     /                                       @@2530=7200
 1692 02531 1010      TAD   AI0               / AUTO INDEX REGISTER                   @@2531=1010
 1693 02532 3034      DCA   D0034             /                                       @@2532=3034
 1694 02533 4542      JMS I C0142             / long call to S1525                    @@2533=4542
 1695 02534 0034      AND   D0034             /                                       @@2534=0034
 1696 02535 7163      CLL CMA CML IAC BSW     /                                       @@2535=7163
 1697 02536 4575      JMS I C0175             / long call to S1735                    @@2536=4575
 1698 02537 0011      AND   AI1               / AUTO INDEX REGISTER                   @@2537=0011
 1699 02540 6613  C2540,  6613                / 6613                                  
 1700 02541 0000  D2541,  0000                / AND   L0000                           
 1701 02542 6621      DFSE                    / Skip next instruction if the complet  @@2542=6621
 1702 02543 6613  C2543,  6613                / 6613                                  
 1703 02544 6637  C2544,  6637                / 6637                                  
 1704 02545 7114  C2545,  7114                / CLL RAR RAL                           
 1705 02546 6643  C2546,  6643                / 6643                                  
 1706 02547 7117  C2547,  7117                / CLL IAC RTR RTL                       
 1707 02550 7167      CLL CMA CML IAC RTL     /                                       @@2550=7167
 1708 02551 4576      JMS I C0176             / long call to S1715                    @@2551=4576
 1709 02552 0011      AND   AI1               / AUTO INDEX REGISTER                   @@2552=0011
 1710 02553 4577      JMS I D0177             / long call to S1600                    @@2553=4577

      AUTOMATIC DISASSEMBLY OF MAINDEC-08-DHKEA-A-PB.bin BY D8TAPE       Page 31


 1711 02554 7163      CLL CMA CML IAC BSW     /                                       @@2554=7163
 1712 02555 7402      HLT                     /                                       @@2555=7402
 1713 02556 4567      JMS I C0167             / long call to S2111                    @@2556=4567
 1714             L2557,
 1715 02557 7300      CLA CLL                 / AC = 0000                             @@2557=7300
 1716 02560 1045      TAD   D0045             /                                       @@2560=1045
 1717 02561 3010      DCA   AI0               / AUTO INDEX REGISTER                   @@2561=3010
 1718 02562 1044      TAD   D0044             /                                       @@2562=1044
 1719 02563 4006      JMS   S0006             /                                       @@2563=4006
 1720 02564 5357      JMP   L2557             /                                       @@2564=5357
 1721             
 1722       2574  *2574
 1723 02574 2237  C2574,  2237                / ISZ   S2437                           
 1724 02575 2343  C2575,  2343                / ISZ   C2543                           
 1725 02576 7763  C2576,  7763                / CLA MQA SCA MQL SCL +                 
 1726 02577 2306  C2577,  2306                / ISZ   C2506                           
 1727             
 1728       3000  *3000
 1729             
 1730       6000  *6000
 1731             
 1732             ////////////////////////////////////////////////////////////////////////////////
 1733             /
 1734             /   SUBROUTINE:  S6000
 1735             /
 1736             /   Called from:
 1737             /   0302 0354 0474 0571 
 1738             /   Total 0004 (4) calls
 1739             ////////////////////////////////////////////////////////////////////////////////
 1740             S6000,
 1741 06000 0000      0                       / return area
 1742 06001 3033      DCA   D0033             /                                       @@6001=3033
 1743 06002 4542      JMS I C0142             / long call to S1525                    @@6002=4542
 1744 06003 0033      AND   D0033             /                                       @@6003=0033
 1745 06004 6647  C6004,  6647                / 6647                                  
 1746 06005 2033      ISZ   D0033             /                                       @@6005=2033
 1747 06006 4542      JMS I C0142             / long call to S1525                    @@6006=4542
 1748 06007 0033      AND   D0033             /                                       @@6007=0033
 1749 06010 7123      CLL CML IAC BSW         /                                       @@6010=7123
 1750 06011 4517      JMS I C0117             / long call to S2345                    @@6011=4517
 1751 06012 1600      TAD I S6000             /                                       @@6012=1600
 1752 06013 3220      DCA   D6020             /                                       @@6013=3220
 1753 06014 2200      ISZ   S6000             /                                       @@6014=2200
 1754 06015 4575      JMS I C0175             / long call to S1735                    @@6015=4575
 1755 06016 0013      AND   AI3               / AUTO INDEX REGISTER                   @@6016=0013
 1756 06017 6613  C6017,  6613                / 6613                                  
 1757 06020 0000  D6020,  0000                / AND   L0000                           
 1758 06021 6621      DFSE                    / Skip next instruction if the complet  @@6021=6621
 1759 06022 6613  C6022,  6613                / 6613                                  
 1760 06023 6637  C6023,  6637                / 6637                                  
 1761 06024 7114  C6024,  7114                / CLL RAR RAL                           
 1762 06025 6643  C6025,  6643                / 6643                                  
 1763 06026 7117  C6026,  7117                / CLL IAC RTR RTL                       
 1764 06027 6630  C6027,  6630                / 6630                                  
 1765 06030 6647  C6030,  6647                / 6647                                  
 1766 06031 7123      CLL CML IAC BSW         /                                       @@6031=7123
 1767 06032 5600      JMP I S6000             / return                                @@6032=5600

      AUTOMATIC DISASSEMBLY OF MAINDEC-08-DHKEA-A-PB.bin BY D8TAPE       Page 32


 1768             
 1769             ////////////////////////////////////////////////////////////////////////////////
 1770             /
 1771             /   SUBROUTINE:  S6033
 1772             /
 1773             /   Called from:
 1774             /   0305 0357 
 1775             /   Total 0002 (2) calls
 1776             ////////////////////////////////////////////////////////////////////////////////
 1777             S6033,
 1778 06033 0000      0                       / return area
 1779 06034 3033      DCA   D0033             /                                       @@6034=3033
 1780 06035 4576      JMS I C0176             / long call to S1715                    @@6035=4576
 1781 06036 0015      AND   L0015             /                                       @@6036=0015
 1782 06037 4567      JMS I C0167             / long call to S2111                    @@6037=4567
 1783 06040 1433      TAD I D0033             /                                       @@6040=1433
 1784 06041 7041      CIA                     /                                       @@6041=7041
 1785 06042 3034      DCA   D0034             /                                       @@6042=3034
 1786 06043 2033      ISZ   D0033             /                                       @@6043=2033
 1787 06044 1433      TAD I D0033             /                                       @@6044=1433
 1788 06045 7040      CMA                     /                                       @@6045=7040
 1789 06046 3035      DCA   D0035             /                                       @@6046=3035
 1790 06047 4572      JMS I C0172             / long call to S2120                    @@6047=4572
 1791 06050 4542      JMS I C0142             / long call to S1525                    @@6050=4542
 1792 06051 0034      AND   D0034             /                                       @@6051=0034
 1793 06052 7135  C6052,  7135                / CLL CML IAC RAR RAL                   
 1794 06053 4542      JMS I C0142             / long call to S1525                    @@6053=4542
 1795 06054 0035      AND   D0035             /                                       @@6054=0035
 1796 06055 7130      CLL CML RAR             /                                       @@6055=7130
 1797 06056 4575      JMS I C0175             / long call to S1735                    @@6056=4575
 1798 06057 0005      AND   D0005             /                                       @@6057=0005
 1799 06060 6700      6700                    / Clear All; clear the status A and B   @@6060=6700
 1800 06061 6663  C6061,  6663                / 6663                                  
 1801 06062 6675  C6062,  6675                / 6675                                  
 1802 06063 7130      CLL CML RAR             /                                       @@6063=7130
 1803 06064 7135  C6064,  7135                / CLL CML IAC RAR RAL                   
 1804 06065 1034      TAD   D0034             /                                       @@6065=1034
 1805 06066 7041      CIA                     /                                       @@6066=7041
 1806 06067 3034      DCA   D0034             /                                       @@6067=3034
 1807 06070 1035      TAD   D0035             /                                       @@6070=1035
 1808 06071 7040      CMA                     /                                       @@6071=7040
 1809 06072 3035      DCA   D0035             /                                       @@6072=3035
 1810 06073 4542      JMS I C0142             / long call to S1525                    @@6073=4542
 1811 06074 0034      AND   D0034             /                                       @@6074=0034
 1812 06075 7135  C6075,  7135                / CLL CML IAC RAR RAL                   
 1813 06076 4542      JMS I C0142             / long call to S1525                    @@6076=4542
 1814 06077 0035      AND   D0035             /                                       @@6077=0035
 1815 06100 7130      CLL CML RAR             /                                       @@6100=7130
 1816 06101 4575      JMS I C0175             / long call to S1735                    @@6101=4575
 1817 06102 0010      AND   AI0               / AUTO INDEX REGISTER                   @@6102=0010
 1818 06103 6710  C6103,  6710                / 6710                                  
 1819 06104 7130      CLL CML RAR             /                                       @@6104=7130
 1820 06105 7135  C6105,  7135                / CLL CML IAC RAR RAL                   
 1821 06106 6723  C6106,  6723                / 6723                                  
 1822 06107 6741  C6107,  6741                / 6741                                  
 1823 06110 6734  C6110,  6734                / 6734                                  
 1824 06111 6734  C6111,  6734                / 6734                                  

      AUTOMATIC DISASSEMBLY OF MAINDEC-08-DHKEA-A-PB.bin BY D8TAPE       Page 33


 1825 06112 6744  C6112,  6744                / 6744                                  
 1826 06113 1020      TAD   D0020             /                                       @@6113=1020
 1827 06114 4516      JMS I C0116             / long call to S1725                    @@6114=4516
 1828 06115 4542      JMS I C0142             / long call to S1525                    @@6115=4542
 1829 06116 0022      AND   D0022             /                                       @@6116=0022
 1830 06117 7130      CLL CML RAR             /                                       @@6117=7130
 1831 06120 4542      JMS I C0142             / long call to S1525                    @@6120=4542
 1832 06121 0021      AND   D0021             /                                       @@6121=0021
 1833 06122 7135  C6122,  7135                / CLL CML IAC RAR RAL                   
 1834 06123 4575      JMS I C0175             / long call to S1735                    @@6123=4575
 1835 06124 0002      AND   D0002             /                                       @@6124=0002
 1836 06125 7130      CLL CML RAR             /                                       @@6125=7130
 1837 06126 7135  C6126,  7135                / CLL CML IAC RAR RAL                   
 1838 06127 5633      JMP I S6033             / return                                @@6127=5633
 1839             
 1840       6200  *6200
 1841             
 1842             ////////////////////////////////////////////////////////////////////////////////
 1843             /
 1844             /   SUBROUTINE:  S6200
 1845             /
 1846             /   Called from:
 1847             /   0477 0574 
 1848             /   Total 0002 (2) calls
 1849             ////////////////////////////////////////////////////////////////////////////////
 1850             S6200,
 1851 06200 0000      0                       / return area
 1852 06201 3033      DCA   D0033             /                                       @@6201=3033
 1853 06202 4577      JMS I D0177             / long call to S1600                    @@6202=4577
 1854 06203 7035  C6203,  7035                / CML IAC RAR RAL                       
 1855 06204 4576      JMS I C0176             / long call to S1715                    @@6204=4576
 1856 06205 0010      AND   AI0               / AUTO INDEX REGISTER                   @@6205=0010
 1857 06206 4575      JMS I C0175             / long call to S1735                    @@6206=4575
 1858 06207 0007      AND   D0007             /                                       @@6207=0007
 1859 06210 7041      CIA                     /                                       @@6210=7041
 1860 06211 6771      DTSF                    / Skip if error flag is a 1 or if DECt  @@6211=6771
 1861 06212 6616      DEAC                    / Clear the AC then loads the contents  @@6212=6616
 1862 06213 7046      CMA RTL                 /                                       @@6213=7046
 1863 06214 6771      DTSF                    / Skip if error flag is a 1 or if DECt  @@6214=6771
 1864 06215 6610  C6215,  6610                / 6610                                  
 1865 06216 7053      CMA IAC RTR             /                                       @@6216=7053
 1866 06217 4576      JMS I C0176             / long call to S1715                    @@6217=4576
 1867 06220 0012      AND   AI2               / AUTO INDEX REGISTER                   @@6220=0012
 1868 06221 4577      JMS I D0177             / long call to S1600                    @@6221=4577
 1869 06222 6675  C6222,  6675                / 6675                                  
 1870 06223 4576      JMS I C0176             / long call to S1715                    @@6223=4576
 1871 06224 0012      AND   AI2               / AUTO INDEX REGISTER                   @@6224=0012
 1872 06225 1020      TAD   D0020             /                                       @@6225=1020
 1873 06226 4516      JMS I C0116             / long call to S1725                    @@6226=4516
 1874 06227 4577      JMS I D0177             / long call to S1600                    @@6227=4577
 1875 06230 7060      CMA CML                 /                                       @@6230=7060
 1876 06231 4576      JMS I C0176             / long call to S1715                    @@6231=4576
 1877 06232 0011      AND   AI1               / AUTO INDEX REGISTER                   @@6232=0011
 1878 06233 4542      JMS I C0142             / long call to S1525                    @@6233=4542
 1879 06234 0033      AND   D0033             /                                       @@6234=0033
 1880 06235 7130      CLL CML RAR             /                                       @@6235=7130
 1881 06236 4542      JMS I C0142             / long call to S1525                    @@6236=4542

      AUTOMATIC DISASSEMBLY OF MAINDEC-08-DHKEA-A-PB.bin BY D8TAPE       Page 34


 1882 06237 0021      AND   D0021             /                                       @@6237=0021
 1883 06240 7135  C6240,  7135                / CLL CML IAC RAR RAL                   
 1884 06241 4577      JMS I D0177             / long call to S1600                    @@6241=4577
 1885 06242 7130      CLL CML RAR             /                                       @@6242=7130
 1886 06243 4576      JMS I C0176             / long call to S1715                    @@6243=4576
 1887 06244 0007      AND   D0007             /                                       @@6244=0007
 1888 06245 4575      JMS I C0175             / long call to S1735                    @@6245=4575
 1889 06246 0002      AND   D0002             /                                       @@6246=0002
 1890 06247 7135  C6247,  7135                / CLL CML IAC RAR RAL                   
 1891 06250 7066      CMA CML RTL             /                                       @@6250=7066
 1892 06251 4576      JMS I C0176             / long call to S1715                    @@6251=4576
 1893 06252 0021      AND   D0021             /                                       @@6252=0021
 1894 06253 4567      JMS I C0167             / long call to S2111                    @@6253=4567
 1895 06254 1433      TAD I D0033             /                                       @@6254=1433
 1896 06255 3035      DCA   D0035             /                                       @@6255=3035
 1897 06256 4572      JMS I C0172             / long call to S2120                    @@6256=4572
 1898 06257 4542      JMS I C0142             / long call to S1525                    @@6257=4542
 1899 06260 0035      AND   D0035             /                                       @@6260=0035
 1900 06261 7135  C6261,  7135                / CLL CML IAC RAR RAL                   
 1901 06262 4575      JMS I C0175             / long call to S1735                    @@6262=4575
 1902 06263 0002      AND   D0002             /                                       @@6263=0002
 1903 06264 7135  C6264,  7135                / CLL CML IAC RAR RAL                   
 1904 06265 7076  C6265,  7076                / CMA CML RTR RTL                       
 1905 06266 4576      JMS I C0176             / long call to S1715                    @@6266=4576
 1906 06267 0011      AND   AI1               / AUTO INDEX REGISTER                   @@6267=0011
 1907 06270 2033      ISZ   D0033             /                                       @@6270=2033
 1908 06271 4542      JMS I C0142             / long call to S1525                    @@6271=4542
 1909 06272 0033      AND   D0033             /                                       @@6272=0033
 1910 06273 7135  C6273,  7135                / CLL CML IAC RAR RAL                   
 1911 06274 4542      JMS I C0142             / long call to S1525                    @@6274=4542
 1912 06275 0022      AND   D0022             /                                       @@6275=0022
 1913 06276 7130      CLL CML RAR             /                                       @@6276=7130
 1914 06277 4577      JMS I D0177             / long call to S1600                    @@6277=4577
 1915 06300 7135  C6300,  7135                / CLL CML IAC RAR RAL                   
 1916 06301 4576      JMS I C0176             / long call to S1715                    @@6301=4576
 1917 06302 0007      AND   D0007             /                                       @@6302=0007
 1918 06303 4575      JMS I C0175             / long call to S1735                    @@6303=4575
 1919 06304 0002      AND   D0002             /                                       @@6304=0002
 1920 06305 7130      CLL CML RAR             /                                       @@6305=7130
 1921 06306 7104      CLL RAL                 /                                       @@6306=7104
 1922 06307 4576      JMS I C0176             / long call to S1715                    @@6307=4576
 1923 06310 0021      AND   D0021             /                                       @@6310=0021
 1924 06311 4567      JMS I C0167             / long call to S2111                    @@6311=4567
 1925 06312 1433      TAD I D0033             /                                       @@6312=1433
 1926 06313 3034      DCA   D0034             /                                       @@6313=3034
 1927 06314 4572      JMS I C0172             / long call to S2120                    @@6314=4572
 1928 06315 4542      JMS I C0142             / long call to S1525                    @@6315=4542
 1929 06316 0034      AND   D0034             /                                       @@6316=0034
 1930 06317 7130      CLL CML RAR             /                                       @@6317=7130
 1931 06320 4577      JMS I D0177             / long call to S1600                    @@6320=4577
 1932 06321 7130      CLL CML RAR             /                                       @@6321=7130
 1933 06322 5600      JMP I S6200             / return                                @@6322=5600
 1934             
 1935       6400  *6400
 1936             
 1937             ////////////////////////////////////////////////////////////////////////////////
 1938             /

      AUTOMATIC DISASSEMBLY OF MAINDEC-08-DHKEA-A-PB.bin BY D8TAPE       Page 35


 1939             /   SUBROUTINE:  S6400
 1940             /
 1941             /   Called from:
 1942             /   0677 1012 1132 1312 
 1943             /   Total 0004 (4) calls
 1944             ////////////////////////////////////////////////////////////////////////////////
 1945             S6400,
 1946 06400 0000      0                       / return area
 1947 06401 3033      DCA   D0033             /                                       @@6401=3033
 1948 06402 1600      TAD I S6400             /                                       @@6402=1600
 1949 06403 2200      ISZ   S6400             /                                       @@6403=2200
 1950 06404 3217      DCA   D6417             /                                       @@6404=3217
 1951 06405 4517      JMS I C0117             / long call to S2345                    @@6405=4517
 1952 06406 1600      TAD I S6400             /                                       @@6406=1600
 1953 06407 2200      ISZ   S6400             /                                       @@6407=2200
 1954 06410 3226      DCA   D6426             /                                       @@6410=3226
 1955 06411 4542      JMS I C0142             / long call to S1525                    @@6411=4542
 1956 06412 0033      AND   D0033             /                                       @@6412=0033
 1957 06413 7135  C6413,  7135                / CLL CML IAC RAR RAL                   
 1958 06414 4575      JMS I C0175             / long call to S1735                    @@6414=4575
 1959 06415 0014      AND   L0014             /                                       @@6415=0014
 1960 06416 6613  C6416,  6613                / 6613                                  
 1961 06417 0000  D6417,  0000                / AND   L0000                           
 1962 06420 6621      DFSE                    / Skip next instruction if the complet  @@6420=6621
 1963 06421 6613  C6421,  6613                / 6613                                  
 1964 06422 6637  C6422,  6637                / 6637                                  
 1965 06423 7114  C6423,  7114                / CLL RAR RAL                           
 1966 06424 6643  C6424,  6643                / 6643                                  
 1967 06425 7117  C6425,  7117                / CLL IAC RTR RTL                       
 1968 06426 0000  D6426,  0000                / AND   L0000                           
 1969 06427 7302          7302                /                                       @@6427=7302
 1970 06430 7135  C6430,  7135                / CLL CML IAC RAR RAL                   
 1971 06431 6610  C6431,  6610                / 6610                                  
 1972 06432 4576      JMS I C0176             / long call to S1715                    @@6432=4576
 1973 06433 0015      AND   L0015             /                                       @@6433=0015
 1974 06434 1600      TAD I S6400             /                                       @@6434=1600
 1975 06435 3251      DCA   D6451             /                                       @@6435=3251
 1976 06436 2200      ISZ   S6400             /                                       @@6436=2200
 1977 06437 4567      JMS I C0167             / long call to S2111                    @@6437=4567
 1978 06440 1433      TAD I D0033             /                                       @@6440=1433
 1979 06441 3033      DCA   D0033             /                                       @@6441=3033
 1980 06442 4572      JMS I C0172             / long call to S2120                    @@6442=4572
 1981 06443 4542      JMS I C0142             / long call to S1525                    @@6443=4542
 1982 06444 0033      AND   D0033             /                                       @@6444=0033
 1983 06445 7146      CLL CMA RTL             /                                       @@6445=7146
 1984 06446 4575      JMS I C0175             / long call to S1735                    @@6446=4575
 1985 06447 0010      AND   AI0               / AUTO INDEX REGISTER                   @@6447=0010
 1986 06450 7236  C6450,  7236                / CLA CML RTR RTL                       
 1987 06451 0000  D6451,  0000                / AND   L0000                           
 1988 06452 7252      CLA CMA RTR             /                                       @@6452=7252
 1989 06453 6663  C6453,  6663                / 6663                                  
 1990 06454 6675  C6454,  6675                / 6675                                  
 1991 06455 7146      CLL CMA RTL             /                                       @@6455=7146
 1992 06456 6723  C6456,  6723                / 6723                                  
 1993 06457 6675  C6457,  6675                / 6675                                  
 1994 06460 4576      JMS I C0176             / long call to S1715                    @@6460=4576
 1995 06461 0006      AND   S0006             /                                       @@6461=0006

      AUTOMATIC DISASSEMBLY OF MAINDEC-08-DHKEA-A-PB.bin BY D8TAPE       Page 36


 1996 06462 1600      TAD I S6400             /                                       @@6462=1600
 1997 06463 2200      ISZ   S6400             /                                       @@6463=2200
 1998 06464 3034      DCA   D0034             /                                       @@6464=3034
 1999 06465 1434      TAD I D0034             /                                       @@6465=1434
 2000 06466 3034      DCA   D0034             /                                       @@6466=3034
 2001 06467 1434      TAD I D0034             /                                       @@6467=1434
 2002 06470 3035      DCA   D0035             /                                       @@6470=3035
 2003 06471 2034      ISZ   D0034             /                                       @@6471=2034
 2004 06472 1434      TAD I D0034             /                                       @@6472=1434
 2005 06473 3036      DCA   D0036             /                                       @@6473=3036
 2006 06474 1600      TAD I S6400             /                                       @@6474=1600
 2007 06475 3310      DCA   D6510             /                                       @@6475=3310
 2008 06476 2200      ISZ   S6400             /                                       @@6476=2200
 2009 06477 4542      JMS I C0142             / long call to S1525                    @@6477=4542
 2010 06500 0035      AND   D0035             /                                       @@6500=0035
 2011 06501 7156  C6501,  7156                / CLL CMA RTR RTL                       
 2012 06502 4542      JMS I C0142             / long call to S1525                    @@6502=4542
 2013 06503 0036      AND   D0036             /                                       @@6503=0036
 2014 06504 7152      CLL CMA RTR             /                                       @@6504=7152
 2015 06505 4575      JMS I C0175             / long call to S1735                    @@6505=4575
 2016 06506 0003      AND   D0003             /                                       @@6506=0003
 2017 06507 7152      CLL CMA RTR             /                                       @@6507=7152
 2018 06510 0000  D6510,  0000                / AND   L0000                           
 2019 06511 6744  C6511,  6744                / 6744                                  
 2020 06512 1020      TAD   D0020             /                                       @@6512=1020
 2021 06513 4516      JMS I C0116             / long call to S1725                    @@6513=4516
 2022 06514 4576      JMS I C0176             / long call to S1715                    @@6514=4576
 2023 06515 0006      AND   S0006             /                                       @@6515=0006
 2024 06516 4542      JMS I C0142             / long call to S1525                    @@6516=4542
 2025 06517 0022      AND   D0022             /                                       @@6517=0022
 2026 06520 7152      CLL CMA RTR             /                                       @@6520=7152
 2027 06521 4542      JMS I C0142             / long call to S1525                    @@6521=4542
 2028 06522 0021      AND   D0021             /                                       @@6522=0021
 2029 06523 7156  C6523,  7156                / CLL CMA RTR RTL                       
 2030 06524 4542      JMS I C0142             / long call to S1525                    @@6524=4542
 2031 06525 0023      AND   D0023             /                                       @@6525=0023
 2032 06526 7163      CLL CMA CML IAC BSW     /                                       @@6526=7163
 2033 06527 4575      JMS I C0175             / long call to S1735                    @@6527=4575
 2034 06530 0002      AND   D0002             /                                       @@6530=0002
 2035 06531 7152      CLL CMA RTR             /                                       @@6531=7152
 2036 06532 7163      CLL CMA CML IAC BSW     /                                       @@6532=7163
 2037 06533 5600      JMP I S6400             / return                                @@6533=5600
 2038             
 2039       6600  *6600
 2040 06600 0227  D6600,  0227                / AND   C6627                           
 2041 06601 0400      AND I L0000             /                                       @@6601=0400
 2042 06602 0600      AND I D6600             /                                       @@6602=0600
 2043 06603 1021      TAD   D0021             /                                       @@6603=1021
 2044 06604 0307  C6604,  0307                / AND   C6707                           
 2045 06605 0501  C6605,  0501                / AND I C0101                           
 2046 06606 0706      AND I C6706             /                                       @@6606=0706
 2047 06607 1200      TAD   D6600             /                                       @@6607=1200
 2048 06610 4543  C6610,  4543                / JMS I C0143                           
 2049 06611 0077  C6611,  0077                / AND   C0077                           
 2050 06612 0000      AND   L0000             /                                       @@6612=0000
 2051 06613 4543  C6613,  4543                / JMS I C0143                           
 2052 06614 4300  C6614,  4300                / JMS   C6700                           

      AUTOMATIC DISASSEMBLY OF MAINDEC-08-DHKEA-A-PB.bin BY D8TAPE       Page 37


 2053 06615 7700      SMA CLA                 /                                       @@6615=7700
 2054 06616 4040      JMS   D0040             /                                       @@6616=4040
 2055 06617 0077  D6617,  0077                / AND   C0077                           
 2056 06620 0000      AND   L0000             /                                       @@6620=0000
 2057 06621 4024      JMS   D0024             /                                       @@6621=4024
 2058 06622 0523      AND I C0123             /                                       @@6622=0523
 2059 06623 2440      ISZ I D0040             /                                       @@6623=2440
 2060 06624 0522      AND I C0122             /                                       @@6624=0522
 2061 06625 2217      ISZ   D6617             /                                       @@6625=2217
 2062 06626 2200      ISZ   D6600             /                                       @@6626=2200
 2063 06627 7700  C6627,  7700                / SMA CLA                               
 2064 06630 4015      JMS   L0015             /                                       @@6630=4015
 2065 06631 2140      ISZ   D0140             /                                       @@6631=2140
 2066 06632 0104  C6632,  0104                / AND   C0104                           
 2067 06633 0422      AND I D0022             /                                       @@6633=0422
 2068 06634 4040      JMS   D0040             /                                       @@6634=4040
 2069 06635 0077  C6635,  0077                / AND   C0077                           
 2070 06636 0000      AND   L0000             /                                       @@6636=0000
 2071 06637 4011  C6637,  4011                / JMS   AI1                             
 2072 06640 0640  C6640,  0640                / AND I C6640                           
 2073 06641 0077  C6641,  0077                / AND   C0077                           
 2074 06642 0000      AND   L0000             /                                       @@6642=0000
 2075 06643 4040      JMS   D0040             /                                       @@6643=4040
 2076 06644 0406      AND I S0006             /                                       @@6644=0406
 2077 06645 4000      JMS   L0000             /                                       @@6645=4000
 2078 06646 7700      SMA CLA                 /                                       @@6646=7700
 2079 06647 3030      DCA   D0030             /                                       @@6647=3030
 2080 06650 3030      DCA   D0030             /                                       @@6650=3030
 2081 06651 4543  C6651,  4543                / JMS I C0143                           
 2082 06652 4001  C6652,  4001                / JMS   L0001                           
 2083 06653 0340      AND   D6740             /                                       @@6653=0340
 2084 06654 0104  C6654,  0104                / AND   C0104                           
 2085 06655 0422      AND I D0022             /                                       @@6655=0422
 2086 06656 4040      JMS   D0040             /                                       @@6656=4040
 2087 06657 0077  C6657,  0077                / AND   C0077                           
 2088 06660 0000      AND   L0000             /                                       @@6660=0000
 2089 06661 4000      JMS   L0000             /                                       @@6661=4000
 2090 06662 7700      SMA CLA                 /                                       @@6662=7700
 2091 06663 4543  C6663,  4543                / JMS I C0143                           
 2092 06664 4340      JMS   D6740             /                                       @@6664=4340
 2093 06665 1722      TAD I C6722             /                                       @@6665=1722
 2094 06666 1107  C6666,  1107                / TAD   C0107                           
 2095 06667 1116      TAD   C0116             /                                       @@6667=1116
 2096 06670 0114  C6670,  0114                / AND   C0114                           
 2097 06671 4040      JMS   D0040             /                                       @@6671=4040
 2098 06672 4040      JMS   D0040             /                                       @@6672=4040
 2099 06673 0077  C6673,  0077                / AND   C0077                           
 2100 06674 0000      AND   L0000             /                                       @@6674=0000
 2101 06675 6040  C6675,  6040                / 6040                                  
 2102 06676 4000      JMS   L0000             /                                       @@6676=4000
 2103 06677 7700      SMA CLA                 /                                       @@6677=7700
 2104 06700 1440      TAD I D0040             /                                       @@6700=1440
 2105 06701 4040      JMS   D0040             /                                       @@6701=4040
 2106 06702 0103  C6702,  0103                / AND   C0103                           
 2107 06703 4040      JMS   D0040             /                                       @@6703=4040
 2108 06704 4040      JMS   D0040             /                                       @@6704=4040
 2109 06705 1521      TAD I C0121             /                                       @@6705=1521

      AUTOMATIC DISASSEMBLY OF MAINDEC-08-DHKEA-A-PB.bin BY D8TAPE       Page 38


 2110 06706 0077  C6706,  0077                / AND   C0077                           
 2111 06707 0000  C6707,  0000                / AND   L0000                           
 2112 06710 4543  C6710,  4543                / JMS I C0143                           
 2113 06711 4024      JMS   D0024             /                                       @@6711=4024
 2114 06712 1740      TAD I D6740             /                                       @@6712=1740
 2115 06713 0205      AND   C6605             /                                       @@6713=0205
 2116 06714 4001  C6714,  4001                / JMS   L0001                           
 2117 06715 0404      AND I D0004             /                                       @@6715=0404
 2118 06716 0504  C6716,  0504                / AND I C0104                           
 2119 06717 4040      JMS   D0040             /                                       @@6717=4040
 2120 06720 4040      JMS   D0040             /                                       @@6720=4040
 2121 06721 0077  C6721,  0077                / AND   C0077                           
 2122 06722 0000  C6722,  0000                / AND   L0000                           
 2123 06723 4543  C6723,  4543                / JMS I C0143                           
 2124 06724 4023  C6724,  4023                / JMS   D0023                           
 2125 06725 1115  C6725,  1115                / TAD   C0115                           
 2126 06726 2514  C6726,  2514                / ISZ I C0114                           
 2127 06727 0124      AND   C0124             /                                       @@6727=0124
 2128 06730 0504  C6730,  0504                / AND I C0104                           
 2129 06731 4040      JMS   D0040             /                                       @@6731=4040
 2130 06732 4000      JMS   L0000             /                                       @@6732=4000
 2131 06733 7700      SMA CLA                 /                                       @@6733=7700
 2132 06734 6060  C6734,  6060                / 6060                                  
 2133 06735 6060  C6735,  6060                / 6060                                  
 2134 06736 4040      JMS   D0040             /                                       @@6736=4040
 2135 06737 0077  C6737,  0077                / AND   C0077                           
 2136 06740 0000  D6740,  0000                / AND   L0000                           
 2137 06741 6140  C6741,  6140                / 6140                                  
 2138 06742 4000      JMS   L0000             /                                       @@6742=4000
 2139 06743 7700      SMA CLA                 /                                       @@6743=7700
 2140 06744 4543  C6744,  4543                / JMS I C0143                           
 2141 06745 4001  C6745,  4001                / JMS   L0001                           
 2142 06746 0324      AND   C6724             /                                       @@6746=0324
 2143 06747 2501  C6747,  2501                / ISZ I C0101                           
 2144 06750 1440      TAD I D0040             /                                       @@6750=1440
 2145 06751 4040      JMS   D0040             /                                       @@6751=4040
 2146 06752 4040      JMS   D0040             /                                       @@6752=4040
 2147 06753 4000      JMS   L0000             /                                       @@6753=4000
 2148 06754 7700      SMA CLA                 /                                       @@6754=7700
 2149 06755 0401      AND I L0001             /                                       @@6755=0401
 2150 06756 0400      AND I L0000             /                                       @@6756=0400
 2151 06757 7700      SMA CLA                 /                                       @@6757=7700
 2152 06760 0401      AND I L0001             /                                       @@6760=0401
 2153 06761 0440      AND I D0040             /                                       @@6761=0440
 2154 06762 0125      AND   C0125             /                                       @@6762=0125
 2155 06763 2417      ISZ I AI7               / AUTO INDEX REGISTER                   @@6763=2417
 2156 06764 4011  C6764,  4011                / JMS   AI1                             
 2157 06765 1604      TAD I C6604             /                                       @@6765=1604
 2158 06766 0530      AND I C0130             /                                       @@6766=0530
 2159 06767 0077  C6767,  0077                / AND   C0077                           
 2160 06770 0000      AND   L0000             /                                       @@6770=0000
 2161 06771 0423      AND I D0023             /                                       @@6771=0423
 2162 06772 2400      ISZ I L0000             /                                       @@6772=2400
 2163 06773 7700      SMA CLA                 /                                       @@6773=7700
 2164 06774 0423      AND I D0023             /                                       @@6774=0423
 2165 06775 2440      ISZ I D0040             /                                       @@6775=2440
 2166 06776 0125      AND   C0125             /                                       @@6776=0125

      AUTOMATIC DISASSEMBLY OF MAINDEC-08-DHKEA-A-PB.bin BY D8TAPE       Page 39


 2167 06777 2417      ISZ I AI7               / AUTO INDEX REGISTER                   @@6777=2417
 2168 07000 4011  C7000,  4011                / JMS   AI1                             
 2169 07001 1604      TAD I C7004             /                                       @@7001=1604
 2170 07002 0530      AND I C0130             /                                       @@7002=0530
 2171 07003 0077  C7003,  0077                / AND   C0077                           
 2172 07004 0000  C7004,  0000                / AND   L0000                           
 2173 07005 1525  D7005,  1525                / TAD I C0125                           
 2174 07006 3100  C7006,  3100                / DCA   C0100                           
 2175 07007 7700      SMA CLA                 /                                       @@7007=7700
 2176 07010 1525      TAD I C0125             /                                       @@7010=1525
 2177 07011 3140      DCA   D0140             /                                       @@7011=3140
 2178 07012 0125      AND   C0125             /                                       @@7012=0125
 2179 07013 2417      ISZ I AI7               / AUTO INDEX REGISTER                   @@7013=2417
 2180 07014 4011  C7014,  4011                / JMS   AI1                             
 2181 07015 1604      TAD I C7004             /                                       @@7015=1604
 2182 07016 0530      AND I C0130             /                                       @@7016=0530
 2183 07017 0077  C7017,  0077                / AND   C0077                           
 2184 07020 0000      AND   L0000             /                                       @@7020=0000
 2185 07021 0411      AND I AI1               / AUTO INDEX REGISTER                   @@7021=0411
 2186 07022 2600      ISZ I C7000             /                                       @@7022=2600
 2187 07023 7700      SMA CLA                 /                                       @@7023=7700
 2188 07024 0411      AND I AI1               / AUTO INDEX REGISTER                   @@7024=0411
 2189 07025 2640      ISZ I D7040             /                                       @@7025=2640
 2190 07026 0125      AND   C0125             /                                       @@7026=0125
 2191 07027 2417      ISZ I AI7               / AUTO INDEX REGISTER                   @@7027=2417
 2192 07030 4011  C7030,  4011                / JMS   AI1                             
 2193 07031 1604      TAD I C7004             /                                       @@7031=1604
 2194 07032 0530      AND I C0130             /                                       @@7032=0530
 2195 07033 0077  C7033,  0077                / AND   C0077                           
 2196 07034 0000      AND   L0000             /                                       @@7034=0000
 2197 07035 4022      JMS   D0022             /                                       @@7035=4022
 2198 07036 0507  C7036,  0507                / AND I C0107                           
 2199 07037 0077  C7037,  0077                / AND   C0077                           
 2200 07040 0000  D7040,  0000                / AND   L0000                           
 2201 07041 0205      AND   D7005             /                                       @@7041=0205
 2202 07042 0617      AND I C7017             /                                       @@7042=0617
 2203 07043 2205      ISZ   D7005             /                                       @@7043=2205
 2204 07044 4000      JMS   L0000             /                                       @@7044=4000
 2205 07045 7700      SMA CLA                 /                                       @@7045=7700
 2206 07046 0106  C7046,  0106                / AND   C0106                           
 2207 07047 2405      ISZ I D0005             /                                       @@7047=2405
 2208 07050 2240      ISZ   D7040             /                                       @@7050=2240
 2209 07051 0077  C7051,  0077                / AND   C0077                           
 2210 07052 0000      AND   L0000             /                                       @@7052=0000
 2211 07053 4543  C7053,  4543                / JMS I C0143                           
 2212 07054 4003      JMS   D0003             /                                       @@7054=4003
 2213 07055 5014      JMP   L0014             /                                       @@7055=5014
 2214 07056 5100  C7056,  5100                / JMP   C0100                           
 2215 07057 7700      SMA CLA                 /                                       @@7057=7700
 2216 07060 4543  C7060,  4543                / JMS I C0143                           
 2217 07061 4003      JMS   D0003             /                                       @@7061=4003
 2218 07062 5015      JMP   L0015             /                                       @@7062=5015
 2219 07063 2151      ISZ   D0151             /                                       @@7063=2151
 2220 07064 0077  C7064,  0077                / AND   C0077                           
 2221 07065 0000      AND   L0000             /                                       @@7065=0000
 2222 07066 4543  C7066,  4543                / JMS I C0143                           
 2223 07067 4003      JMS   D0003             /                                       @@7067=4003

      AUTOMATIC DISASSEMBLY OF MAINDEC-08-DHKEA-A-PB.bin BY D8TAPE       Page 40


 2224 07070 5015      JMP   L0015             /                                       @@7070=5015
 2225 07071 2140      ISZ   D0140             /                                       @@7071=2140
 2226 07072 0104  C7072,  0104                / AND   C0104                           
 2227 07073 0422      AND I D0022             /                                       @@7073=0422
 2228 07074 5100  C7074,  5100                / JMP   C0100                           
 2229 07075 7700      SMA CLA                 /                                       @@7075=7700
 2230 07076 4543  C7076,  4543                / JMS I C0143                           
 2231 07077 4003      JMS   D0003             /                                       @@7077=4003
 2232 07100 5001      JMP   L0001             /                                       @@7100=5001
 2233 07101 0351      AND   C7151             /                                       @@7101=0351
 2234 07102 0077  C7102,  0077                / AND   C0077                           
 2235 07103 0000      AND   L0000             /                                       @@7103=0000
 2236 07104 4543  C7104,  4543                / JMS I C0143                           
 2237 07105 4003      JMS   D0003             /                                       @@7105=4003
 2238 07106 5001      JMP   L0001             /                                       @@7106=5001
 2239 07107 0340      AND   C7140             /                                       @@7107=0340
 2240 07110 0104  D7110,  0104                / AND   C0104                           
 2241 07111 0422      AND I D0022             /                                       @@7111=0422
 2242 07112 5100  C7112,  5100                / JMP   C0100                           
 2243 07113 7700      SMA CLA                 /                                       @@7113=7700
 2244 07114 3030  D7114,  3030                / DCA   D0030                           
 2245 07115 0077  C7115,  0077                / AND   C0077                           
 2246 07116 0000      AND   L0000             /                                       @@7116=0000
 2247 07117 3030  D7117,  3030                / DCA   D0030                           
 2248 07120 4543  C7120,  4543                / JMS I C0143                           
 2249 07121 4300  C7121,  4300                / JMS   C7100                           
 2250 07122 7700      SMA CLA                 /                                       @@7122=7700
 2251 07123 3030      DCA   D0030             /                                       @@7123=3030
 2252 07124 3030      DCA   D0030             /                                       @@7124=3030
 2253 07125 4543  C7125,  4543                / JMS I C0143                           
 2254 07126 4300  C7126,  4300                / JMS   C7100                           
 2255 07127 7700      SMA CLA                 /                                       @@7127=7700
 2256 07130 3030      DCA   D0030             /                                       @@7130=3030
 2257 07131 3030      DCA   D0030             /                                       @@7131=3030
 2258 07132 4040      JMS   D0040             /                                       @@7132=4040
 2259 07133 0077  C7133,  0077                / AND   C0077                           
 2260 07134 0000      AND   L0000             /                                       @@7134=0000
 2261 07135 3030      DCA   D0030             /                                       @@7135=3030
 2262 07136 3030      DCA   D0030             /                                       @@7136=3030
 2263 07137 4040      JMS   D0040             /                                       @@7137=4040
 2264 07140 0077  C7140,  0077                / AND   C0077                           
 2265 07141 0000      AND   L0000             /                                       @@7141=0000
 2266 07142 3030  D7142,  3030                / DCA   D0030                           
 2267 07143 4040      JMS   D0040             /                                       @@7143=4040
 2268 07144 0077  C7144,  0077                / AND   C0077                           
 2269 07145 0000      AND   L0000             /                                       @@7145=0000
 2270 07146 3030      DCA   D0030             /                                       @@7146=3030
 2271 07147 3030      DCA   D0030             /                                       @@7147=3030
 2272 07150 4040      JMS   D0040             /                                       @@7150=4040
 2273 07151 0000  C7151,  0000                / AND   L0000                           
 2274 07152 3030      DCA   D0030             /                                       @@7152=3030
 2275 07153 3030      DCA   D0030             /                                       @@7153=3030
 2276 07154 4040      JMS   D0040             /                                       @@7154=4040
 2277 07155 0000      AND   L0000             /                                       @@7155=0000
 2278 07156 3030      DCA   D0030             /                                       @@7156=3030
 2279 07157 3030      DCA   D0030             /                                       @@7157=3030
 2280 07160 4040      JMS   D0040             /                                       @@7160=4040

      AUTOMATIC DISASSEMBLY OF MAINDEC-08-DHKEA-A-PB.bin BY D8TAPE       Page 41


 2281 07161 0077  C7161,  0077                / AND   C0077                           
 2282 07162 0000      AND   L0000             /                                       @@7162=0000
 2283 07163 3030      DCA   D0030             /                                       @@7163=3030
 2284 07164 3030      DCA   D0030             /                                       @@7164=3030
 2285 07165 0077  C7165,  0077                / AND   C0077                           
 2286 07166 0000      AND   L0000             /                                       @@7166=0000
 2287 07167 4001  C7167,  4001                / JMS   L0001                           
 2288 07170 1161      TAD   C0161             /                                       @@7170=1161
 2289 07171 6040  C7171,  6040                / 6040                                  
 2290 07172 2310      ISZ   D7110             /                                       @@7172=2310
 2291 07173 1725      TAD I C7125             /                                       @@7173=1725
 2292 07174 1404      TAD I D0004             /                                       @@7174=1404
 2293 07175 4002      JMS   D0002             /                                       @@7175=4002
 2294 07176 0540      AND I D0140             /                                       @@7176=0540
 2295 07177 4000      JMS   L0000             /                                       @@7177=4000
 2296 07200 3030      DCA   D0030             /                                       @@7200=3030
 2297 07201 3030      DCA   D0030             /                                       @@7201=3030
 2298 07202 4543  C7202,  4543                / JMS I C0143                           
 2299 07203 0000      AND   L0000             /                                       @@7203=0000
 2300 07204 4001  C7204,  4001                / JMS   L0001                           
 2301 07205 1161      TAD   C0161             /                                       @@7205=1161
 2302 07206 6040  C7206,  6040                / 6040                                  
 2303 07207 1123      TAD   C0123             /                                       @@7207=1123
 2304 07210 0077  C7210,  0077                / AND   C0077                           
 2305 07211 0000      AND   L0000             /                                       @@7211=0000
 2306 07212 4543  C7212,  4543                / JMS I C0143                           
 2307 07213 1305      TAD   C7305             /                                       @@7213=1305
 2308 07214 7040      CMA                     /                                       @@7214=7040
 2309 07215 0515  C7215,  0515                / AND I C0115                           
 2310 07216 0500  C7216,  0500                / AND I C0100                           
 2311 07217 7700      SMA CLA                 /                                       @@7217=7700
 2312 07220 4543  C7220,  4543                / JMS I C0143                           
 2313 07221 4310  C7221,  4310                / JMS   C7310                           
 2314 07222 1107  C7222,  1107                / TAD   C0107                           
 2315 07223 1005  C7223,  1005                / TAD   D0005                           
 2316 07224 2324  C7224,  2324                / ISZ   C7324                           
 2317 07225 4006      JMS   S0006             /                                       @@7225=4006
 2318 07226 1105  C7226,  1105                / TAD   C0105                           
 2319 07227 1404      TAD I D0004             /                                       @@7227=1404
 2320 07230 4050  C7230,  4050                / JMS   C0050                           
 2321 07231 6055  C7231,  6055                / 6055                                  
 2322 07232 6751  C7232,  6751                / 6751                                  
 2323 07233 7740      SMA SZA CLA             /                                       @@7233=7740
 2324 07234 4000      JMS   L0000             /                                       @@7234=4000
 2325 07235 7700      SMA CLA                 /                                       @@7235=7700
 2326 07236 4314  C7236,  4314                / JMS   C7314                           
 2327 07237 4040      JMS   D0040             /                                       @@7237=4040
 2328 07240 0077  D7240,  0077                / AND   C0077                           
 2329 07241 0000      AND   L0000             /                                       @@7241=0000
 2330 07242 1524      TAD I C0124             /                                       @@7242=1524
 2331 07243 2014      ISZ   L0014             /                                       @@7243=2014
 2332 07244 0077  C7244,  0077                / AND   C0077                           
 2333 07245 0000      AND   L0000             /                                       @@7245=0000
 2334 07246 0411      AND I AI1               / AUTO INDEX REGISTER                   @@7246=0411
 2335 07247 2623      ISZ I C7223             /                                       @@7247=2623
 2336 07250 0077  C7250,  0077                / AND   C0077                           
 2337 07251 0000      AND   L0000             /                                       @@7251=0000

      AUTOMATIC DISASSEMBLY OF MAINDEC-08-DHKEA-A-PB.bin BY D8TAPE       Page 42


 2338 07252 4040      JMS   D0040             /                                       @@7252=4040
 2339 07253 4001  C7253,  4001                / JMS   L0001                           
 2340 07254 0340  C7254,  0340                / AND   C7340                           
 2341 07255 4040      JMS   D0040             /                                       @@7255=4040
 2342 07256 4015      JMS   L0015             /                                       @@7256=4015
 2343 07257 2140      ISZ   D0140             /                                       @@7257=2140
 2344 07260 4040      JMS   D0040             /                                       @@7260=4040
 2345 07261 4023      JMS   D0023             /                                       @@7261=4023
 2346 07262 0300      AND   C7300             /                                       @@7262=0300
 2347 07263 7700      SMA CLA                 /                                       @@7263=7700
 2348 07264 4015      JMS   L0015             /                                       @@7264=4015
 2349 07265 2514  C7265,  2514                / ISZ I C0114                           
 2350 07266 2411      ISZ I AI1               / AUTO INDEX REGISTER                   @@7266=2411
 2351 07267 2014      ISZ   L0014             /                                       @@7267=2014
 2352 07270 1103  C7270,  1103                / TAD   C0103                           
 2353 07271 0116      AND   C0116             /                                       @@7271=0116
 2354 07272 0400      AND I L0000             /                                       @@7272=0400
 2355 07273 7700      SMA CLA                 /                                       @@7273=7700
 2356 07274 4004      JMS   D0004             /                                       @@7274=4004
 2357 07275 1126      TAD   C0126             /                                       @@7275=1126
 2358 07276 1123      TAD   C0123             /                                       @@7276=1123
 2359 07277 1722  C7277,  1722                / TAD I C7322                           
 2360 07300 0077  C7300,  0077                / AND   C0077                           
 2361 07301 0000      AND   L0000             /                                       @@7301=0000
 2362 07302 4001  C7302,  4001                / JMS   L0001                           
 2363 07303 0404      AND I D0004             /                                       @@7303=0404
 2364 07304 2240      ISZ   D7240             /                                       @@7304=2240
 2365 07305 4000  C7305,  4000                / JMS   L0000                           
 2366 07306 7700      SMA CLA                 /                                       @@7306=7700
 2367 07307 6060  C7307,  6060                / 6060                                  
 2368 07310 6164  C7310,  6164                / 6164                                  
 2369 07311 0077  C7311,  0077                / AND   C0077                           
 2370 07312 0000      AND   L0000             /                                       @@7312=0000
 2371 07313 6060  C7313,  6060                / 6060                                  
 2372 07314 6165  C7314,  6165                / 6165                                  
 2373 07315 0077  C7315,  0077                / AND   C0077                           
 2374 07316 0000      AND   L0000             /                                       @@7316=0000
 2375             
 2376       0116  *0116
 2377             C0116,
 2378 00116 1725  C0116,  1725                / TAD I C0125                           
 2379             C0117,
 2380 00117 2345  C0117,  2345                / ISZ   D0145                           
 2381 00120 3377  D0120,  3377                / DCA   D0177                           
 2382 00121 4777  C0121,  4777                / JMS I D0177                           
 2383 00122 4400  C0122,  4400                / JMS I L0000                           
 2384             C0123,
 2385 00123 2437  C0123,  2437                / ISZ I D0037                           
 2386 00124 0207  C0124,  0207                / AND   D0007                           
 2387 00125 6600  C0125,  6600                / 6600                                  
 2388             C0126,
 2389 00126 2074  C0126,  2074                / ISZ   C0074                           
 2390 00127 0060  D0127,  0060                / AND   C0060                           
 2391 00130 0077  C0130,  0077                / AND   C0077                           
 2392 00131 6202  C0131,  6202                / CIF0                                  
 2393 00132 0200  C0132,  0200                / AND   L0000                           
 2394 00133 6201  C0133,  6201                / CDF0                                  

      AUTOMATIC DISASSEMBLY OF MAINDEC-08-DHKEA-A-PB.bin BY D8TAPE       Page 43


 2395 00134 0010  C0134,  0010                / AND   AI0                             
 2396 00135 7407  D0135,  7407                / DVI +                                 
 2397 00136 5000  C0136,  5000                / JMP   L0000                           
 2398 00137 4377  C0137,  4377                / JMS   D0177                           
 2399 00140 7425  D0140,  7425                / MQL MUY +                             
 2400 00141 1021  C0141,  1021                / TAD   D0021                           
 2401             C0142,
 2402 00142 1525  C0142,  1525                / TAD I C0125                           
 2403 00143 6402  C0143,  6402                / TTI                                   
 2404 00144 6401  C0144,  6401                / TTINCR                                
 2405 00145 1400  D0145,  1400                / TAD I L0000                           
 2406 00146 7400  C0146,  7400                / 7400                                  
 2407 00147 3400  C0147,  3400                / DCA I L0000                           
 2408 00150 0706  C0150,  0706                / AND I C0106                           
 2409 00151 7445  D0151,  7445                / SCA MUY +                             
 2410 00152 0600  C0152,  0600                / AND I L0000                           
 2411 00153 0501  C0153,  0501                / AND I C0101                           
 2412             C0154,
 2413 00154 2127  C0154,  2127                / ISZ   D0127                           
 2414 00155 2777  C0155,  2777                / ISZ I D0177                           
 2415             C0156,
 2416 00156 6000  C0156,  6000                / 6000                                  
 2417 00157 5001  C0157,  5001                / JMP   L0001                           
 2418 00160 1000  C0160,  1000                / TAD   L0000                           
 2419             C0161,
 2420 00161 2064  C0161,  2064                / ISZ   C0064                           
 2421 00162 2002  C0162,  2002                / ISZ   D0002                           
 2422             C0163,
 2423 00163 2046  C0163,  2046                / ISZ   D0046                           
 2424             C0164,
 2425 00164 2040  C0164,  2040                / ISZ   D0040                           
 2426             C0165,
 2427 00165 2055  C0165,  2055                / ISZ   C0055                           
 2428             C0166,
 2429 00166 1760  C0166,  1760                / TAD I C0160                           
 2430             C0167,
 2431 00167 2111  C0167,  2111                / ISZ   C0111                           
 2432 00170 3000  C0170,  3000                / DCA   L0000                           
 2433             C0171,
 2434 00171 2145  C0171,  2145                / ISZ   D0145                           
 2435             C0172,
 2436 00172 2120  C0172,  2120                / ISZ   D0120                           
 2437 00173 0007  C0173,  0007                / AND   D0007                           
 2438             C0174,
 2439 00174 1752  C0174,  1752                / TAD I C0152                           
 2440             C0175,
 2441 00175 1735  C0175,  1735                / TAD I D0135                           
 2442             C0176,
 2443 00176 1715  C0176,  1715                / TAD I C0115                           
 2444 00177 1600  D0177,  1600                / TAD I L0000                           
 2445             

      No detected errors

      AUTOMATIC DISASSEMBLY OF MAINDEC-08-DHKEA-A-PB.bin BY D8TAPE       Page 44
                                                                    Symbol Table

    1  AI0    00010   C0244  00244   C1177  01177   C6023  06023   C6640  06640 
    2  AI1    00011   C0246  00246   C1211  01211   C6024  06024   C6641  06641 
    3  AI2    00012   C0303  00303   C1237  01237   C6025  06025   C6651  06651 
    4  AI3    00013   C0307  00307   C1240  01240   C6026  06026   C6652  06652 
    5  AI4    00014   C0321  00321   C1302  01302   C6027  06027   C6654  06654 
    6  AI5    00015   C0330  00330   C1314  01314   C6030  06030   C6657  06657 
    7  AI6    00016   C0332  00332   C1374  01374   C6052  06052   C6663  06663 
    8  AI7    00017   C0333  00333   C1375  01375   C6061  06061   C6666  06666 
    9  C0001  00001   C0355  00355   C1376  01376   C6062  06062   C6670  06670 
   10  C0043  00043   C0370  00370   C1377  01377   C6064  06064   C6673  06673 
   11  C0116  00116   C0371  00371   C1565  01565   C6075  06075   C6675  06675 
   12  C0117  00117   C0372  00372   C1566  01566   C6103  06103   C6702  06702 
   13  C0121  00121   C0373  00373   C1567  01567   C6105  06105   C6706  06706 
   14  C0122  00122   C0374  00374   C1574  01574   C6106  06106   C6707  06707 
   15  C0123  00123   C0375  00375   C1575  01575   C6107  06107   C6710  06710 
   16  C0124  00124   C0376  00376   C1576  01576   C6110  06110   C6714  06714 
   17  C0125  00125   C0377  00377   C1577  01577   C6111  06111   C6716  06716 
   18  C0126  00126   C0404  00404   C1672  01672   C6112  06112   C6721  06721 
   19  C0130  00130   C0414  00414   C1673  01673   C6122  06122   C6722  06722 
   20  C0131  00131   C0421  00421   C1674  01674   C6126  06126   C6723  06723 
   21  C0132  00132   C0426  00426   C1675  01675   C6203  06203   C6724  06724 
   22  C0133  00133   C0431  00431   C1676  01676   C6215  06215   C6725  06725 
   23  C0134  00134   C0433  00433   C1677  01677   C6222  06222   C6726  06726 
   24  C0136  00136   C0441  00441   C1700  01700   C6240  06240   C6730  06730 
   25  C0137  00137   C0513  00513   C1701  01701   C6247  06247   C6734  06734 
   26  C0141  00141   C0531  00531   C1772  01772   C6261  06261   C6735  06735 
   27  C0142  00142   C0536  00536   C1777  01777   C6264  06264   C6737  06737 
   28  C0143  00143   C0541  00541   C2036  02036   C6265  06265   C6741  06741 
   29  C0144  00144   C0543  00543   C2102  02102   C6273  06273   C6744  06744 
   30  C0146  00146   C0551  00551   C2171  02171   C6300  06300   C6745  06745 
   31  C0147  00147   C0576  00576   C2172  02172   C6413  06413   C6747  06747 
   32  C0150  00150   C0577  00577   C2173  02173   C6416  06416   C6764  06764 
   33  C0152  00152   C0614  00614   C2174  02174   C6421  06421   C6767  06767 
   34  C0153  00153   C0622  00622   C2175  02175   C6422  06422   C7000  07000 
   35  C0154  00154   C0626  00626   C2176  02176   C6423  06423   C7003  07003 
   36  C0155  00155   C0627  00627   C2177  02177   C6424  06424   C7004  07004 
   37  C0156  00156   C0631  00631   C2201  02201   C6425  06425   C7006  07006 
   38  C0157  00157   C0672  00672   C2220  02220   C6430  06430   C7014  07014 
   39  C0160  00160   C0716  00716   C2243  02243   C6431  06431   C7017  07017 
   40  C0161  00161   C0735  00735   C2265  02265   C6450  06450   C7030  07030 
   41  C0162  00162   C0736  00736   C2374  02374   C6453  06453   C7033  07033 
   42  C0163  00163   C0740  00740   C2375  02375   C6454  06454   C7036  07036 
   43  C0164  00164   C0774  00774   C2376  02376   C6456  06456   C7037  07037 
   44  C0165  00165   C0775  00775   C2377  02377   C6457  06457   C7046  07046 
   45  C0166  00166   C0776  00776   C2540  02540   C6501  06501   C7051  07051 
   46  C0167  00167   C0777  00777   C2543  02543   C6511  06511   C7053  07053 
   47  C0170  00170   C1034  01034   C2544  02544   C6523  06523   C7056  07056 
   48  C0171  00171   C1046  01046   C2545  02545   C6604  06604   C7060  07060 
   49  C0172  00172   C1055  01055   C2546  02546   C6605  06605   C7064  07064 
   50  C0173  00173   C1056  01056   C2547  02547   C6610  06610   C7066  07066 
   51  C0174  00174   C1060  01060   C2574  02574   C6611  06611   C7072  07072 
   52  C0175  00175   C1122  01122   C2575  02575   C6613  06613   C7074  07074 
   53  C0176  00176   C1134  01134   C2576  02576   C6614  06614   C7076  07076 
   54  C0200  00200   C1136  01136   C2577  02577   C6627  06627   C7102  07102 
   55  C0207  00207   C1137  01137   C6004  06004   C6632  06632   C7104  07104 
   56  C0233  00233   C1175  01175   C6017  06017   C6635  06635   C7112  07112 
   57  C0243  00243   C1176  01176   C6022  06022   C6637  06637   C7115  07115 

      AUTOMATIC DISASSEMBLY OF MAINDEC-08-DHKEA-A-PB.bin BY D8TAPE       Page 45
                                                                    Symbol Table

   58  C7120  07120   D0026  00026   D2306  02306   L1251  01251   S1715  01715 
   59  C7121  07121   D0027  00027   D2313  02313   L1260  01260   S1725  01725 
   60  C7125  07125   D0030  00030   D2343  02343   L1267  01267   S1735  01735 
   61  C7126  07126   D0031  00031   D2344  02344   L1433  01433   S1752  01752 
   62  C7133  07133   D0032  00032   D2436  02436   L1436  01436   S1760  01760 
   63  C7140  07140   D0033  00033   D2541  02541   L1467  01467   S2000  02000 
   64  C7144  07144   D0034  00034   D6020  06020   L1505  01505   S2040  02040 
   65  C7151  07151   D0035  00035   D6417  06417   L1507  01507   S2046  02046 
   66  C7161  07161   D0036  00036   D6426  06426   L1516  01516   S2055  02055 
   67  C7165  07165   D0037  00037   D6451  06451   L1606  01606   S2111  02111 
   68  C7167  07167   D0040  00040   D6510  06510   L1626  01626   S2120  02120 
   69  C7171  07171   D0041  00041   D6600  06600   L1630  01630   S2127  02127 
   70  C7202  07202   D0042  00042   D6617  06617   L1632  01632   S2145  02145 
   71  C7204  07204   D0044  00044   D6740  06740   L1650  01650   S2200  02200 
   72  C7206  07206   D0045  00045   D7005  07005   L1652  01652   S2242  02242 
   73  C7210  07210   D0046  00046   D7040  07040   L1660  01660   S2345  02345 
   74  C7212  07212   D0047  00047   D7110  07110   L1704  01704   S2400  02400 
   75  C7215  07215   D0120  00120   D7114  07114   L1721  01721   S2437  02437 
   76  C7216  07216   D0127  00127   D7117  07117   L1741  01741   S2474  02474 
   77  C7220  07220   D0135  00135   D7142  07142   L1754  01754   S6000  06000 
   78  C7221  07221   D0140  00140   D7240  07240   L2001  02001   S6033  06033 
   79  C7222  07222   D0145  00145   L0000  00000   L2025  02025   S6200  06200 
   80  C7223  07223   D0151  00151   L0001  00001   L2064  02064   S6400  06400 
   81  C7224  07224   D0177  00177   L0014  00014   L2074  02074 
   82  C7226  07226   D0245  00245   L0015  00015   L2135  02135 
   83  C7230  07230   D0415  00415   L0200  00200   L2142  02142 
   84  C7231  07231   D0600  00600   L0235  00235   L2157  02157 
   85  C7232  07232   D0623  00623   L0236  00236   L2211  02211 
   86  C7236  07236   D0630  00630   L0252  00252   L2213  02213 
   87  C7244  07244   D0737  00737   L0257  00257   L2253  02253 
   88  C7250  07250   D1005  01005   L0322  00322   L2255  02255 
   89  C7253  07253   D1042  01042   L0337  00337   L2314  02314 
   90  C7254  07254   D1047  01047   L0344  00344   L2323  02323 
   91  C7265  07265   D1057  01057   L0406  00406   L2330  02330 
   92  C7270  07270   D1241  01241   L0407  00407   L2332  02332 
   93  C7277  07277   D1242  01242   L0444  00444   L2415  02415 
   94  C7300  07300   D1472  01472   L0451  00451   L2425  02425 
   95  C7302  07302   D1476  01476   L0514  00514   L2451  02451 
   96  C7305  07305   D1514  01514   L0554  00554   L2456  02456 
   97  C7307  07307   D1562  01562   L0561  00561   L2470  02470 
   98  C7310  07310   D1563  01563   L0615  00615   L2517  02517 
   99  C7311  07311   D1564  01564   L0617  00617   L2557  02557 
  100  C7313  07313   D1600  01600   L0640  00640   S0006  00006 
  101  C7314  07314   D1666  01666   L0654  00654   S0300  00300 
  102  C7315  07315   D1667  01667   L0724  00724   S0352  00352 
  103  D0000  00000   D1670  01670   L0726  00726   S0472  00472 
  104  D0002  00002   D1745  01745   L0747  00747   S0567  00567 
  105  D0003  00003   D2073  02073   L0756  00756   S0665  00665 
  106  D0004  00004   D2116  02116   L0765  00765   S1000  01000 
  107  D0005  00005   D2125  02125   L1035  01035   S1114  01114 
  108  D0007  00007   D2161  02161   L1037  01037   S1274  01274 
  109  D0020  00020   D2217  02217   L1063  01063   S1525  01525 
  110  D0021  00021   D2221  02221   L1067  01067   S1547  01547 
  111  D0022  00022   D2237  02237   L1103  01103   S1615  01615 
  112  D0023  00023   D2240  02240   L1216  01216   S1643  01643 
  113  D0024  00024   D2264  02264   L1220  01220   S1702  01702 
  114  D0025  00025   D2266  02266   L1245  01245   S1711  01711 

      AUTOMATIC DISASSEMBLY OF MAINDEC-08-DHKEA-A-PB.bin BY D8TAPE       Page 46
                                                                 Cross Reference

    1 A     50  AI0         181    186    223    226    331    336    345    392
    2                       395    493    507    528    529    541    568    576
    3                       694    709    737    738    750    765    777   1351
    4                      1352   1664   1673   1692   1717   1817   1856   1985
    5 A     51  AI1        1698   1709   1877   1906   2185   2188   2334   2350
    6 A     52  AI2        1867   1871
    7 A     53  AI3        1755
    8 A     55  AI4     
    9 A     57  AI5     
   10 A     58  AI6         849    858   1383   1386   1389   1634   1637
   11 A     59  AI7         850    862   2155   2167   2179   2191
   12 A     31  C0001   
   13 A     81  C0043       478    574
   14 A   2378  C0116      1827   1873   2021   2095   2353
   15 A   2380  C0117      1683   1750   1951
   16 A   2382  C0121      1466   2109
   17 A   2383  C0122      1445   2060
   18 A   2385  C0123      1377   2058   2303   2358
   19 A   2386  C0124      1358   2127   2330
   20 A   2387  C0125      1298   2154   2166   2176   2178   2190
   21 A   2389  C0126      1284   2357
   22 A   2391  C0130       979   2158   2170   2182   2194
   23 A   2392  C0131       875
   24 A   2393  C0132       851
   25 A   2394  C0133       844    855   1317   1335
   26 A   2395  C0134       811    836   1644
   27 A   2397  C0136       542    751   1378   1447   1498   1631
   28 A   2398  C0137       540    749
   29 A   2400  C0141       490
   30 A   2402  C0142       474    477    570    573    662    668    768    774
   31                      1689   1694   1743   1747   1791   1794   1810   1813
   32                      1828   1831   1878   1881   1898   1908   1911   1928
   33                      1955   1981   2009   2012   2024   2027   2030
   34 A   2403  C0143       455    642
   35 A   2404  C0144       452    639
   36 A   2406  C0146       414    503    593    703   1427   1473
   37 A   2407  C0147       412    494    591    695   1422   1468
   38 A   2408  C0150       406
   39 A   2410  C0152       326
   40 A   2411  C0153       247
   41 A   2413  C0154       208    377
   42 A   2414  C0155       180    330    492    693   1633
   43 A   2416  C0156       169    224    319    393
   44 A   2417  C0157       155    182    305    332
   45 A   2418  C0160       148    298
   46 A   2420  C0161       146    211    296    380    460    538    647    747
   47                      2288   2301
   48 A   2421  C0162       144    294
   49 A   2423  C0163       141    207    291    376    439    524    626    733
   50 A   2425  C0164       137    203    287    372    436    521    623    730
   51 A   2427  C0165       135    201    285    370    434    519    621    728
   52                      1356
   53 A   2429  C0166       134    200    261    344    426    511    609    716
   54 A   2431  C0167       123    189    256    267    339    352    421    506
   55                       600    706   1384   1635   1713   1782   1894   1924
   56                      1977
   57 A   2432  C0170       117    250    410    589   1420

      AUTOMATIC DISASSEMBLY OF MAINDEC-08-DHKEA-A-PB.bin BY D8TAPE       Page 47
                                                                 Cross Reference

   58 A   2434  C0171       112    245    324    488    584    688
   59 A   2436  C0172        99    140    206    284    290    369    375    880
   60                      1179   1392   1650   1682   1790   1897   1927   1980
   61 A   2437  C0173        95   1209   1297
   62 A   2439  C0174      1200   1219
   63 A   2441  C0175      1697   1754   1797   1816   1834   1857   1888   1901
   64                      1918   1958   1984   2015   2033
   65 A   2443  C0176      1708   1780   1855   1866   1870   1876   1886   1892
   66                      1905   1916   1922   1972   1994   2022
   67 A     89  C0200   
   68 A     96  C0207   
   69 A    116  C0233   
   70 A    126  C0243   
   71 A    127  C0244   
   72 A    129  C0246   
   73 A    170  C0303   
   74 A    174  C0307   
   75 A    184  C0321   
   76 A    192  C0330   
   77 A    194  C0332   
   78 A    195  C0333   
   79 A    225  C0355   
   80 A    232  C0370       193
   81 A    233  C0371       178
   82 A    234  C0372       176
   83 A    236  C0373       172    227
   84 A    237  C0374       114
   85 A    239  C0375       109
   86 A    241  C0376       104
   87 A    242  C0377        90
   88 A    249  C0404   
   89 A    259  C0414   
   90 A    264  C0421   
   91 A    269  C0426   
   92 A    272  C0431   
   93 A    274  C0433   
   94 A    280  C0441   
   95 A    334  C0513   
   96 A    349  C0531   
   97 A    354  C0536   
   98 A    357  C0541   
   99 A    359  C0543   
  100 A    365  C0551   
  101 A    399  C0576       342
  102 A    401  C0577       322    396
  103 A    416  C0614   
  104 A    424  C0622   
  105 A    428  C0626   
  106 A    429  C0627   
  107 A    431  C0631   
  108 A    476  C0672   
  109 A    496  C0716   
  110 A    513  C0735   
  111 A    514  C0736   
  112 A    516  C0740   
  113 A    548  C0774       520
  114 A    550  C0775       509

      AUTOMATIC DISASSEMBLY OF MAINDEC-08-DHKEA-A-PB.bin BY D8TAPE       Page 48
                                                                 Cross Reference

  115 A    552  C0776       481
  116 A    554  C0777       408    497
  117 A    595  C1034   
  118 A    607  C1046   
  119 A    614  C1055   
  120 A    615  C1056   
  121 A    617  C1060   
  122 A    664  C1122   
  123 A    674  C1134   
  124 A    676  C1136   
  125 A    677  C1137       581
  126 A    682  C1175       588
  127 A    683  C1176       586
  128 A    685  C1177       577    672
  129 A    697  C1211   
  130 A    721  C1237   
  131 A    722  C1240   
  132 A    770  C1302   
  133 A    780  C1314   
  134 A    788  C1374       778
  135 A    790  C1375       714
  136 A    792  C1376       692
  137 A    793  C1377       690
  138 A    941  C1565       907    912
  139 A    942  C1566       932    934
  140 A    943  C1567       935
  141 A    947  C1574       809    885
  142 A    948  C1575       804
  143 A    950  C1576       803    806    826    886
  144 A    951  C1577       797
  145 A   1039  C1672       998
  146 A   1040  C1673      1014
  147 A   1041  C1674      1023
  148 A   1042  C1675      1030
  149 A   1043  C1676      1032
  150 A   1044  C1677      1026
  151 A   1045  C1700      1017
  152 A   1046  C1701      1033
  153 A   1177  C1772   
  154 A   1183  C1777      1112
  155 A   1228  C2036   
  156 A   1296  C2102   
  157 A   1397  C2171      1382
  158 A   1398  C2172      1282
  159 A   1399  C2173      1224
  160 A   1400  C2174      1220
  161 A   1402  C2175      1217   1359
  162 A   1403  C2176      1205
  163 A   1404  C2177      1201
  164 A   1418  C2201   
  165 A   1435  C2220   
  166 A   1464  C2243   
  167 A   1484  C2265   
  168 A   1560  C2374      1556
  169 A   1561  C2375      1551
  170 A   1562  C2376      1509
  171 A   1564  C2377      1482

      AUTOMATIC DISASSEMBLY OF MAINDEC-08-DHKEA-A-PB.bin BY D8TAPE       Page 49
                                                                 Cross Reference

  172 A   1699  C2540   
  173 A   1702  C2543   
  174 A   1703  C2544   
  175 A   1704  C2545   
  176 A   1705  C2546   
  177 A   1706  C2547   
  178 A   1723  C2574      1600   1602   1605
  179 A   1724  C2575      1588   1603
  180 A   1725  C2576      1587
  181 A   1726  C2577      1582   1584   1595
  182 A   1745  C6004   
  183 A   1756  C6017   
  184 A   1759  C6022   
  185 A   1760  C6023   
  186 A   1761  C6024   
  187 A   1762  C6025   
  188 A   1763  C6026   
  189 A   1764  C6027   
  190 A   1765  C6030   
  191 A   1793  C6052   
  192 A   1800  C6061   
  193 A   1801  C6062   
  194 A   1803  C6064   
  195 A   1812  C6075   
  196 A   1818  C6103   
  197 A   1820  C6105   
  198 A   1821  C6106   
  199 A   1822  C6107   
  200 A   1823  C6110   
  201 A   1824  C6111   
  202 A   1825  C6112   
  203 A   1833  C6122   
  204 A   1837  C6126   
  205 A   1854  C6203   
  206 A   1864  C6215   
  207 A   1869  C6222   
  208 A   1883  C6240   
  209 A   1890  C6247   
  210 A   1900  C6261   
  211 A   1903  C6264   
  212 A   1904  C6265   
  213 A   1910  C6273   
  214 A   1915  C6300   
  215 A   1957  C6413   
  216 A   1960  C6416   
  217 A   1963  C6421   
  218 A   1964  C6422   
  219 A   1965  C6423   
  220 A   1966  C6424   
  221 A   1967  C6425   
  222 A   1970  C6430   
  223 A   1971  C6431   
  224 A   1986  C6450   
  225 A   1989  C6453   
  226 A   1990  C6454   
  227 A   1992  C6456   
  228 A   1993  C6457   

      AUTOMATIC DISASSEMBLY OF MAINDEC-08-DHKEA-A-PB.bin BY D8TAPE       Page 50
                                                                 Cross Reference

  229 A   2011  C6501   
  230 A   2019  C6511   
  231 A   2029  C6523   
  232 A   2044  C6604      2157
  233 A   2045  C6605      2115
  234 A   2048  C6610   
  235 A   2049  C6611   
  236 A   2051  C6613   
  237 A   2052  C6614   
  238 A   2063  C6627   
  239 A   2066  C6632   
  240 A   2069  C6635   
  241 A   2071  C6637   
  242 A   2072  C6640   
  243 A   2073  C6641   
  244 A   2081  C6651   
  245 A   2082  C6652   
  246 A   2084  C6654   
  247 A   2087  C6657   
  248 A   2091  C6663   
  249 A   2094  C6666   
  250 A   2096  C6670   
  251 A   2099  C6673   
  252 A   2101  C6675   
  253 A   2106  C6702   
  254 A   2110  C6706      2046
  255 A   2111  C6707   
  256 A   2112  C6710   
  257 A   2116  C6714   
  258 A   2118  C6716   
  259 A   2121  C6721   
  260 A   2122  C6722      2093
  261 A   2123  C6723   
  262 A   2124  C6724      2142
  263 A   2125  C6725   
  264 A   2126  C6726   
  265 A   2128  C6730   
  266 A   2132  C6734   
  267 A   2133  C6735   
  268 A   2135  C6737   
  269 A   2137  C6741   
  270 A   2140  C6744   
  271 A   2141  C6745   
  272 A   2143  C6747   
  273 A   2156  C6764   
  274 A   2159  C6767   
  275 A   2168  C7000      2186
  276 A   2171  C7003   
  277 A   2172  C7004      2169   2181   2193
  278 A   2174  C7006   
  279 A   2180  C7014   
  280 A   2183  C7017      2202
  281 A   2192  C7030   
  282 A   2195  C7033   
  283 A   2198  C7036   
  284 A   2199  C7037   
  285 A   2206  C7046   

      AUTOMATIC DISASSEMBLY OF MAINDEC-08-DHKEA-A-PB.bin BY D8TAPE       Page 51
                                                                 Cross Reference

  286 A   2209  C7051   
  287 A   2211  C7053   
  288 A   2214  C7056   
  289 A   2216  C7060   
  290 A   2220  C7064   
  291 A   2222  C7066   
  292 A   2226  C7072   
  293 A   2228  C7074   
  294 A   2230  C7076   
  295 A   2234  C7102   
  296 A   2236  C7104   
  297 A   2242  C7112   
  298 A   2245  C7115   
  299 A   2248  C7120   
  300 A   2249  C7121   
  301 A   2253  C7125      2291
  302 A   2254  C7126   
  303 A   2259  C7133   
  304 A   2264  C7140      2239
  305 A   2268  C7144   
  306 A   2273  C7151      2233
  307 A   2281  C7161   
  308 A   2285  C7165   
  309 A   2287  C7167   
  310 A   2289  C7171   
  311 A   2298  C7202   
  312 A   2300  C7204   
  313 A   2302  C7206   
  314 A   2304  C7210   
  315 A   2306  C7212   
  316 A   2309  C7215   
  317 A   2310  C7216   
  318 A   2312  C7220   
  319 A   2313  C7221   
  320 A   2314  C7222   
  321 A   2315  C7223      2335
  322 A   2316  C7224   
  323 A   2318  C7226   
  324 A   2320  C7230   
  325 A   2321  C7231   
  326 A   2322  C7232   
  327 A   2326  C7236   
  328 A   2332  C7244   
  329 A   2336  C7250   
  330 A   2339  C7253   
  331 A   2340  C7254   
  332 A   2349  C7265   
  333 A   2352  C7270   
  334 A   2359  C7277   
  335 A   2360  C7300      2346
  336 A   2362  C7302   
  337 A   2365  C7305      2307
  338 A   2367  C7307   
  339 A   2368  C7310   
  340 A   2369  C7311   
  341 A   2371  C7313   
  342 A   2372  C7314   

      AUTOMATIC DISASSEMBLY OF MAINDEC-08-DHKEA-A-PB.bin BY D8TAPE       Page 52
                                                                 Cross Reference

  343 A   2373  C7315   
  344 A     29  D0000   
  345 A     32  D0002      1835   1889   1902   1919   2034   2293
  346 A     33  D0003      2016   2212   2217   2223   2231   2237
  347 A     34  D0004      2117   2292   2319   2356   2363
  348 A     35  D0005      1798   2207
  349 A     47  D0007       179    329    501    701   1858   1887   1917
  350 A     62  D0020       610    717   1170   1826   1872   2020
  351 A     63  D0021      1172   1832   1882   1893   1923   2028   2043
  352 A     64  D0022       273    358    427    512    613    720   1168   1829
  353                      1912   2025   2067   2085   2197   2227   2241
  354 A     65  D0023      1178   2031   2161   2164   2345
  355 A     66  D0024      1174   2057   2113
  356 A     67  D0025      1176
  357 A     68  D0026       105    807    815    840   1212   1213   1625
  358 A     69  D0027        93    883
  359 A     70  D0030        98    102    107    820   2079   2080   2251   2252
  360                      2256   2257   2261   2262   2270   2271   2274   2275
  361                      2278   2279   2283   2284   2296   2297
  362 A     71  D0031       101    835    847   1552
  363 A     72  D0032       103    810    825    834   1316   1547   1622   1624
  364                      1643   1645   1649
  365 A     73  D0033       278    279    346    347    353    363    364    473
  366                       475    569    571    661    663    665    667    669
  367                       767    769    771    773    775    852    872   1623
  368                      1648   1742   1744   1746   1748   1779   1783   1786
  369                      1787   1852   1879   1895   1907   1909   1925   1947
  370                      1956   1978   1979   1982
  371 A     74  D0034      1629   1640   1688   1690   1693   1695   1785   1792
  372                      1804   1806   1811   1926   1929   1998   1999   2000
  373                      2001   2003   2004
  374 A     75  D0035      1789   1795   1807   1809   1814   1896   1899   2002
  375                      2010
  376 A     76  D0036      2005   2013
  377 A     77  D0037       859    860    865   1092   1095   1299   1300   1301
  378                      1302
  379 A     78  D0040       419    441    499    536    598    628    699    745
  380                      1425   1442   1471   1493   2054   2059   2068   2075
  381                      2086   2097   2098   2104   2105   2107   2108   2119
  382                      2120   2129   2134   2144   2145   2146   2153   2165
  383                      2258   2263   2267   2272   2276   2280   2327   2338
  384                      2341   2344
  385 A     79  D0041       183    209    333    378    415    458    504    534
  386                       594    645    704    743   1379   1390   1428   1440
  387                      1474   1491   1632   1638
  388 A     80  D0042        91    115    177    248    327    407    491    587
  389                       691    798   1285
  390 A     82  D0044      1663   1666   1718
  391 A     83  D0045      1665   1671   1686   1716
  392 A     84  D0046      1668   1679
  393 A     85  D0047      1670   1677
  394 A   2381  D0120      1496
  395 A   2390  D0127      1111   1216   1550   1555
  396 A   2396  D0135       700
  397 A   2399  D0140       500   2065   2177   2225   2294   2343
  398 A   2405  D0145       444    447    631    634
  399 A   2409  D0151       328   2219

      AUTOMATIC DISASSEMBLY OF MAINDEC-08-DHKEA-A-PB.bin BY D8TAPE       Page 53
                                                                 Cross Reference

  400 A   2444  D0177      1076   1113   1134   1198   1227   1362   1710   1853
  401                      1868   1874   1884   1914   1931
  402 A    128  D0245       119    121    143    147    149    150    154    168
  403                       171
  404 A    260  D0415       252    254    262    268    293    297    299    300
  405                       304    318    321
  406 A    404  D0600   
  407 A    425  D0623       411    422    445    446    453    454    472    480
  408 A    430  D0630       413    448    449    456    457    485
  409 A    515  D0737       495    532    533    543
  410 A    572  D1005   
  411 A    603  D1042   
  412 A    608  D1047       590    601    632    633    640    641    659    671
  413 A    616  D1057       592    635    636    643    644
  414 A    723  D1241       696    741    742    752    782
  415 A    724  D1242   
  416 A    857  D1472       856
  417 A    861  D1476       845
  418 A    877  D1514       876
  419 A    938  D1562       902    908    914
  420 A    939  D1563       905    911    936
  421 A    940  D1564       928    929    933
  422 A    954  D1600       956    959   1000
  423 A   1035  D1666       957    961    964    966
  424 A   1036  D1667       980    984    995   1001   1022   1029
  425 A   1037  D1670       958    981    991    994
  426 A   1135  D1745      1133
  427 A   1288  D2073      1286   1287
  428 A   1319  D2116      1318
  429 A   1337  D2125      1336
  430 A   1388  D2161      1381
  431 A   1434  D2217      1421   1431   1437   1446
  432 A   1436  D2221      1423   1438   1439   1448
  433 A   1450  D2237      1479   1480   1502   1525   1527   1530
  434 A   1451  D2240      1508   1516   1523   1532
  435 A   1483  D2264      1467   1477   1487   1488   1497
  436 A   1485  D2266      1469   1489   1490   1499
  437 A   1501  D2306      1433   1503
  438 A   1506  D2313      1504   1511   1513   1533
  439 A   1534  D2343      1510   1528
  440 A   1535  D2344      1512   1520
  441 A   1609  D2436      1578   1583   1591   1593   1594   1597   1607
  442 A   1700  D2541      1685
  443 A   1757  D6020      1752
  444 A   1961  D6417      1950
  445 A   1968  D6426      1954
  446 A   1987  D6451      1975
  447 A   2018  D6510      2007
  448 A   2040  D6600      2042   2047   2062
  449 A   2055  D6617      2061
  450 A   2136  D6740      2083   2092   2114
  451 A   2173  D7005      2201   2203
  452 A   2200  D7040      2189   2208
  453 A   2240  D7110      2290
  454 A   2244  D7114   
  455 A   2247  D7117   
  456 A   2266  D7142   

      AUTOMATIC DISASSEMBLY OF MAINDEC-08-DHKEA-A-PB.bin BY D8TAPE       Page 54
                                                                 Cross Reference

  457 A   2328  D7240      2364
  458 A     28  L0000      1038   1452   2041   2050   2056   2070   2074   2077
  459                      2088   2089   2100   2102   2130   2138   2147   2150
  460                      2160   2162   2184   2196   2204   2210   2221   2235
  461                      2246   2260   2265   2269   2277   2282   2286   2295
  462                      2299   2305   2324   2329   2333   2337   2354   2361
  463                      2370   2374
  464 A     30  L0001      2149   2152   2232   2238
  465 A     54  L0014      1959   2213   2331   2351
  466 A     56  L0015       848    863   1781   1973   2064   2218   2224   2342
  467                      2348
  468 A     88  L0200       111
  469 A    118  L0235       156
  470 A    120  L0236       142    153
  471 A    133  L0252       130
  472 A    139  L0257       132
  473 A    185  L0322       210
  474 A    199  L0337       196
  475 A    205  L0344       198
  476 A    251  L0406       306
  477 A    253  L0407       292    303
  478 A    283  L0444       266    271    276
  479 A    289  L0451       282
  480 A    335  L0514       379
  481 A    368  L0554       351    356    361
  482 A    374  L0561       367
  483 A    417  L0615       459
  484 A    420  L0617       440    450
  485 A    438  L0640       433
  486 A    451  L0654       443
  487 A    502  L0724       544
  488 A    505  L0726       530    535
  489 A    523  L0747       518
  490 A    531  L0756       526
  491 A    539  L0765       537
  492 A    596  L1035       646
  493 A    599  L1037       627    637
  494 A    620  L1063       612
  495 A    625  L1067       619
  496 A    638  L1103       630
  497 A    702  L1216       753
  498 A    705  L1220       739    744
  499 A    727  L1245       719
  500 A    732  L1251       726
  501 A    740  L1260       735
  502 A    748  L1267       746
  503 A    823  L1433       832
  504 A    827  L1436       822
  505 A    853  L1467       873
  506 A    868  L1505       870
  507 A    871  L1507       867
  508 A    879  L1516       878
  509 A    960  L1606       967
  510 A    987  L1626      1002
  511 A    990  L1630       986
  512 A    993  L1632       983
  513 A   1018  L1650      1027   1034

      AUTOMATIC DISASSEMBLY OF MAINDEC-08-DHKEA-A-PB.bin BY D8TAPE       Page 55
                                                                 Cross Reference

  514 A   1021  L1652      1016
  515 A   1028  L1660      1025
  516 A   1059  L1704      1061
  517 A   1093  L1721      1096
  518 A   1130  L1741      1137
  519 A   1152  L1754      1154
  520 A   1197  L2001      1203   1207   1222
  521 A   1218  L2025      1226
  522 A   1280  L2064      1294   1360   1364
  523 A   1289  L2074   
  524 A   1355  L2135   
  525 A   1361  L2142      1357
  526 A   1385  L2157      1391
  527 A   1426  L2211      1449
  528 A   1429  L2213      1441
  529 A   1472  L2253      1500
  530 A   1475  L2255      1492
  531 A   1507  L2314      1505
  532 A   1515  L2323      1529
  533 A   1521  L2330      1518
  534 A   1524  L2332      1514
  535 A   1590  L2415      1604
  536 A   1599  L2425      1589
  537 A   1630  L2451      1646
  538 A   1636  L2456      1639
  539 A   1647  L2470      1642
  540 A   1681  L2517      1675
  541 A   1714  L2557      1720
  542 A     45  S0006      1667   1719   1995   2023   2076   2317
  543 A    166  S0300       136    173
  544 A    221  S0352       202    228
  545 A    316  S0472       286    323
  546 A    390  S0567       371    397
  547 A    470  S0665       435    487
  548 A    566  S1000       583
  549 A    657  S1114       622    678
  550 A    763  S1274       729    784
  551 A    898  S1525       901    903    904    906    916
  552 A    926  S1547       910    915    937
  553 A    977  S1615       963    965    989    992    997
  554 A   1012  S1643       988   1020
  555 A   1056  S1702      1019   1064
  556 A   1074  S1711      1078   1094
  557 A   1088  S1715      1090   1097
  558 A   1107  S1725      1115
  559 A   1125  S1735      1127   1131   1132   1138   1139
  560 A   1149  S1752      1129   1136   1156
  561 A   1166  S1760      1180
  562 A   1195  S2000      1229
  563 A   1239  S2040      1243   1244   1245
  564 A   1255  S2046      1260   1261   1262
  565 A   1272  S2055      1277   1278   1279
  566 A   1313  S2111      1320
  567 A   1331  S2120      1338
  568 A   1348  S2127      1353   1354
  569 A   1374  S2145      1380   1393   1394
  570 A   1416  S2200      1444

      AUTOMATIC DISASSEMBLY OF MAINDEC-08-DHKEA-A-PB.bin BY D8TAPE       Page 56
                                                                 Cross Reference

  571 A   1462  S2242      1495
  572 A   1545  S2345      1557
  573 A   1576  S2400      1579   1580   1608
  574 A   1619  S2437      1651
  575 A   1661  S2474      1676   1680   1684
  576 A   1740  S6000      1751   1753   1767
  577 A   1777  S6033      1838
  578 A   1850  S6200      1933
  579 A   1945  S6400      1948   1949   1952   1953   1974   1976   1996   1997
  580                      2006   2008   2037

      AUTOMATIC DISASSEMBLY OF MAINDEC-08-DHKEA-A-PB.bin BY D8TAPE       Page 57
                                                                      Memory Map

    1 00000/ XXXXXXXX XXXXXXXX XXXXXXXX XXXXXXXX XXXXXXXX ........ ........ ........
    2 00100/ ........ ......XX XXXXXXXX XXXXXXXX XXXXXXXX XXXXXXXX XXXXXXXX XXXXXXXX
    3
    4 00200/ XXXXXXXX XXXXXXXX XXXXXXXX XXXXXXXX XXXXXXXX XXXXXXXX XXXXXXXX XXXXXXXX
    5 00300/ XXXXXXXX XXXXXXXX XXXXXXXX XXXXXXXX XXXXXXXX XXXXXXXX X....... XXXXXXXX
    6
    7 00400/ XXXXXXXX XXXXXXXX XXXXXXXX XXXXXXXX XXXXXXXX XXXXXXXX XXXXXXXX XXXXXXXX
    8 00500/ XXXXXXXX XXXXXXXX XXXXXXXX XXXXXXXX XXXXXXXX XXXXXXXX XXXXXXXX XXXXXXXX
    9
   10 00600/ XXXXXXXX XXXXXXXX XXXXXXXX XXXXXXXX XXXXXXXX XXXXXXXX XXXXXXXX XXXXXXXX
   11 00700/ XXXXXXXX XXXXXXXX XXXXXXXX XXXXXXXX XXXXXXXX XXXXXXXX XXXXXXXX XX..XXXX
   12
   13 01000/ XXXXXXXX XXXXXXXX XXXXXXXX XXXXXXXX XXXXXXXX XXXXXXXX XXXXXXXX XXXXXXXX
   14 01100/ XXXXXXXX XXXXXXXX XXXXXXXX XXXXXXXX X....... ........ ........ .....XXX
   15
   16 01200/ XXXXXXXX XXXXXXXX XXXXXXXX XXXXXXXX XXXXXXXX XXXXXXXX XXXXXXXX XXXXXXXX
   17 01300/ XXXXXXXX XXXXXXXX X....... ........ ........ ........ ........ ....XXXX
   18
   19 01400/ XXXXXXXX XXXXXXXX XXXXXXXX XXXXXXXX XXXXXXXX XXXXXXXX XXXXXXXX XXXXXXXX
   20 01500/ XXXXXXXX XXXXXXXX XXXXXXXX XXXXXXXX XXXXXXXX XXXXXXXX XXXXXXXX ....XXXX
   21
   22 01600/ XXXXXXXX XXXXXXXX XXXXXXXX XXXXXXXX XXXXXXXX XXXXXXXX XXXXXXXX XXXXXXXX
   23 01700/ XXXXXXXX XXXXXXXX XXXXXXXX XXXXXXXX XXXXXXXX XXXXXXXX XXXXXXXX XXXXXX.X
   24
   25 02000/ XXXXXXXX XXXXXXXX XXXXXXXX XXXXXXXX XXXXXXXX XXXXXXXX XXXXXXXX XXXXXXXX
   26 02100/ XXXXXXXX XXXXXXXX XXXXXXXX XXXXXXXX XXXXXXXX XXXXXXXX XXXXXXXX .XXXXXXX
   27
   28 02200/ XXXXXXXX XXXXXXXX XXXXXXXX XXXXXXXX XXXXXXXX XXXXXXXX XXXXXXXX XXXXXXXX
   29 02300/ XXXXXXXX XXXXXXXX XXXXXXXX XXXXXXXX XXXXXXXX XXXXXXXX X....... ....XXXX
   30
   31 02400/ XXXXXXXX XXXXXXXX XXXXXXXX XXXXXXXX XXXXXXXX XXXXXXXX XXXXXXXX XXXXXXXX
   32 02500/ XXXXXXXX XXXXXXXX XXXXXXXX XXXXXXXX XXXXXXXX XXXXXXXX XXXXX... ....XXXX
   33
   34 02600/ ........ ........ ........ ........ ........ ........ ........ ........
   35 02700/ ........ ........ ........ ........ ........ ........ ........ ........
   36
   37 03000/ ........ ........ ........ ........ ........ ........ ........ ........
   38 03100/ ........ ........ ........ ........ ........ ........ ........ ........
   39
   40 03200/ ........ ........ ........ ........ ........ ........ ........ ........
   41 03300/ ........ ........ ........ ........ ........ ........ ........ ........
   42
   43 03400/ ........ ........ ........ ........ ........ ........ ........ ........
   44 03500/ ........ ........ ........ ........ ........ ........ ........ ........
   45
   46 03600/ ........ ........ ........ ........ ........ ........ ........ ........
   47 03700/ ........ ........ ........ ........ ........ ........ ........ ........
   48

      AUTOMATIC DISASSEMBLY OF MAINDEC-08-DHKEA-A-PB.bin BY D8TAPE       Page 58
                                                                      Memory Map

   49 04000/ ........ ........ ........ ........ ........ ........ ........ ........
   50 04100/ ........ ........ ........ ........ ........ ........ ........ ........
   51
   52 04200/ ........ ........ ........ ........ ........ ........ ........ ........
   53 04300/ ........ ........ ........ ........ ........ ........ ........ ........
   54
   55 04400/ ........ ........ ........ ........ ........ ........ ........ ........
   56 04500/ ........ ........ ........ ........ ........ ........ ........ ........
   57
   58 04600/ ........ ........ ........ ........ ........ ........ ........ ........
   59 04700/ ........ ........ ........ ........ ........ ........ ........ ........
   60
   61 05000/ ........ ........ ........ ........ ........ ........ ........ ........
   62 05100/ ........ ........ ........ ........ ........ ........ ........ ........
   63
   64 05200/ ........ ........ ........ ........ ........ ........ ........ ........
   65 05300/ ........ ........ ........ ........ ........ ........ ........ ........
   66
   67 05400/ ........ ........ ........ ........ ........ ........ ........ ........
   68 05500/ ........ ........ ........ ........ ........ ........ ........ ........
   69
   70 05600/ ........ ........ ........ ........ ........ ........ ........ ........
   71 05700/ ........ ........ ........ ........ ........ ........ ........ ........
   72
   73 06000/ XXXXXXXX XXXXXXXX XXXXXXXX XXXXXXXX XXXXXXXX XXXXXXXX XXXXXXXX XXXXXXXX
   74 06100/ XXXXXXXX XXXXXXXX XXXXXXXX ........ ........ ........ ........ ........
   75
   76 06200/ XXXXXXXX XXXXXXXX XXXXXXXX XXXXXXXX XXXXXXXX XXXXXXXX XXXXXXXX XXXXXXXX
   77 06300/ XXXXXXXX XXXXXXXX XXX..... ........ ........ ........ ........ ........
   78
   79 06400/ XXXXXXXX XXXXXXXX XXXXXXXX XXXXXXXX XXXXXXXX XXXXXXXX XXXXXXXX XXXXXXXX
   80 06500/ XXXXXXXX XXXXXXXX XXXXXXXX XXXX.... ........ ........ ........ ........
   81
   82 06600/ XXXXXXXX XXXXXXXX XXXXXXXX XXXXXXXX XXXXXXXX XXXXXXXX XXXXXXXX XXXXXXXX
   83 06700/ XXXXXXXX XXXXXXXX XXXXXXXX XXXXXXXX XXXXXXXX XXXXXXXX XXXXXXXX XXXXXXXX
   84
   85 07000/ XXXXXXXX XXXXXXXX XXXXXXXX XXXXXXXX XXXXXXXX XXXXXXXX XXXXXXXX XXXXXXXX
   86 07100/ XXXXXXXX XXXXXXXX XXXXXXXX XXXXXXXX XXXXXXXX XXXXXXXX XXXXXXXX XXXXXXXX
   87
   88 07200/ XXXXXXXX XXXXXXXX XXXXXXXX XXXXXXXX XXXXXXXX XXXXXXXX XXXXXXXX XXXXXXXX
   89 07300/ XXXXXXXX XXXXXXX. ........ ........ ........ ........ ........ ........
   90
