
      AUTOMATIC DISASSEMBLY OF MAINDEC-8E-D0LB-D-PB.bin BY D8TAPE         Page 1


    1             TITLE "AUTOMATIC DISASSEMBLY OF MAINDEC-8E-D0LB-D-PB.bin BY D8TAPE"
    2             ////////////////////////////////////////////////////////////////////////////////
    3             /
    4             /   Automatic Disassembly of MAINDEC-8E-D0LB-D-PB.bin
    5             /   Generated 2015 10 28 22:41:28
    6             /   Generated by d8tape version 0.347
    7             /   Visit http://www.pdp12.org/pdp8/software/index.html for updates
    8             /
    9             /   Symbol format:
   10             /       AIx   -- Auto-index variables (address range 001x)
   11             /       Caaaa -- Constants (non-unique)
   12             /       Daaaa -- Data (read/write variables)
   13             /       Kvvvv -- Program-wide unique constants
   14             /       Laaaa -- Labels for control flow targets
   15             /       Saaaa -- Subroutines
   16             /
   17             /   Where:
   18             /       aaaa is the definition address
   19             /       vvvv is the value of the constant
   20             /       x    is the last digit of the address 001x for auto-index variables
   21             /
   22             /   6655 locations used, 5251 code and 1404 data
   23             ////////////////////////////////////////////////////////////////////////////////
   24             
   25       0200  *0200
   26             
   27       0000  *0000
   28             L0000,
   29             
   30             ////////////////////////////////////////////////////////////////////////////////
   31             /
   32             /   SUBROUTINE:  S0000
   33             /
   34             /   Called from:
   35             /   4110 6701 7247 7266 7271 7277 7310 7313 7324 7334 7341 7353 7360 
   36             /   Total 0015 (13) calls
   37             ////////////////////////////////////////////////////////////////////////////////
   38             S0000,
   39 00000 0000      0                       / return area
   40             L0001,
   41 00001 5001  C0001,  5001                / JMP   L0001                           
   42 00002 0002  D0002,  0002                / AND   D0002                           
   43 00003 0003  C0003,  0003                / AND   C0003                           
   44             
   45       0020  *0020
   46 00020 0000  C0020,  0000                / AND   S0000                           
   47 00021 0000  D0021,  0000                / AND   S0000                           
   48 00022 0000  D0022,  0000                / AND   S0000                           
   49 00023 0000  D0023,  0000                / AND   S0000                           
   50 00024 0000  D0024,  0000                / AND   S0000                           
   51 00025 0000  D0025,  0000                / AND   S0000                           
   52 00026 0000  C0026,  0000                / AND   S0000                           
   53 00027 0000  C0027,  0000                / AND   S0000                           
   54 00030 0000  C0030,  0000                / AND   S0000                           
   55 00031 0000  C0031,  0000                / AND   S0000                           
   56             C0032,
   57 00032 0000  C0032,  0000                / AND   S0000                           

      AUTOMATIC DISASSEMBLY OF MAINDEC-8E-D0LB-D-PB.bin BY D8TAPE         Page 2


   58             L0033,
   59 00033 0000  D0033,  0000                / AND   S0000                           
   60 00034 0000  D0034,  0000                / AND   S0000                           
   61 00035 0000  D0035,  0000                / AND   S0000                           
   62 00036 0000  D0036,  0000                / AND   S0000                           
   63 00037 0000  D0037,  0000                / AND   S0000                           
   64 00040 0000  D0040,  0000                / AND   S0000                           
   65 00041 0000  D0041,  0000                / AND   S0000                           
   66 00042 0000  D0042,  0000                / AND   S0000                           
   67 00043 0000  D0043,  0000                / AND   S0000                           
   68 00044 0000  D0044,  0000                / AND   S0000                           
   69 00045 0000  D0045,  0000                / AND   S0000                           
   70 00046 0000  D0046,  0000                / AND   S0000                           
   71 00047 0000      AND   S0000             /                                       @@0047=0000
   72             C0050,
   73 00050 6600  C0050,  6600                / 6600                                  
   74             C0051,
   75 00051 6670  C0051,  6670                / 6670                                  
   76             L0052,
   77             C0052,
   78 00052 6345  C0052,  6345                / 6345                                  
   79             C0053,
   80 00053 6400  C0053,  6400                / 6400                                  
   81             C0054,
   82 00054 6723  C0054,  6723                / 6723                                  
   83             C0055,
   84 00055 6727  C0055,  6727                / 6727                                  
   85 00056 0000  D0056,  0000                / AND   S0000                           
   86 00057 0000  D0057,  0000                / AND   S0000                           
   87 00060 0400  C0060,  0400                / AND I S0000                           
   88 00061 0503  C0061,  0503                / AND I C0103                           
   89 00062 0650  C0062,  0650                / AND I C0050                           
   90 00063 0000  D0063,  0000                / AND   S0000                           
   91 00064 0000  D0064,  0000                / AND   S0000                           
   92 00065 0000  D0065,  0000                / AND   S0000                           
   93 00066 0000  D0066,  0000                / AND   S0000                           
   94 00067 0000  D0067,  0000                / AND   S0000                           
   95 00070 0215  C0070,  0215                / AND   AI5                             
   96 00071 0212  C0071,  0212                / AND   AI2                             
   97 00072 0315  C0072,  0315                / AND   D0115                           
   98 00073 0321  C0073,  0321                / AND   D0121                           
   99 00074 0314  C0074,  0314                / AND   D0114                           
  100 00075 0324  C0075,  0324                / AND   C0124                           
  101 00076 0301  C0076,  0301                / AND   C0101                           
  102 00077 0303  C0077,  0303                / AND   C0103                           
  103             L0100,
  104 00100 0261  C0100,  0261                / AND   C0061                           
  105 00101 0260  C0101,  0260                / AND   C0060                           
  106 00102 0000  D0102,  0000                / AND   S0000                           
  107             C0103,
  108 00103 0255  C0103,  0255                / AND   C0055                           
  109 00104 7763  C0104,  7763                / CLA MQA SCA MQL SCL +                 
  110 00105 0000  D0105,  0000                / AND   S0000                           
  111 00106 0000  D0106,  0000                / AND   S0000                           
  112 00107 1000  D0107,  1000                / TAD   S0000                           
  113 00110 1135  C0110,  1135                / TAD   C0135                           
  114 00111 0326  C0111,  0326                / AND   C0126                           

      AUTOMATIC DISASSEMBLY OF MAINDEC-8E-D0LB-D-PB.bin BY D8TAPE         Page 3


  115 00112 0263  C0112,  0263                / AND   D0063                           
  116 00113 0262  C0113,  0262                / AND   C0062                           
  117 00114 0000  D0114,  0000                / AND   S0000                           
  118 00115 0000  D0115,  0000                / AND   S0000                           
  119 00116 0000  D0116,  0000                / AND   S0000                           
  120             L0117,
  121 00117 0000  D0117,  0000                / AND   S0000                           
  122 00120 0000  D0120,  0000                / AND   S0000                           
  123 00121 0000  D0121,  0000                / AND   S0000                           
  124 00122 0000  D0122,  0000                / AND   S0000                           
  125 00123 7740  C0123,  7740                / SMA SZA CLA                           
  126             C0124,
  127 00124 5600  C0124,  5600                / JMP I S0000                           
  128             L0125,
  129             C0125,
  130 00125 5607  C0125,  5607                / JMP I C0007                           
  131             C0126,
  132 00126 5613  C0126,  5613                / JMP I AI3                             
  133             C0127,
  134 00127 5640  C0127,  5640                / JMP I D0040                           
  135             C0130,
  136 00130 5656  C0130,  5656                / JMP I D0056                           
  137             C0131,
  138 00131 5663  C0131,  5663                / JMP I D0063                           
  139             C0132,
  140 00132 5645  C0132,  5645                / JMP I D0045                           
  141 00133 5652  L0133,  5652
  142             C0134,
  143 00134 5707  C0134,  5707                / JMP I D0107                           
  144             C0135,
  145 00135 5274  C0135,  5274                / JMP   C0074                           
  146             C0136,
  147 00136 5317  C0136,  5317                / JMP   L0117                           
  148             C0137,
  149 00137 7000  C0137,  7000                / NOP                                   
  150             C0140,
  151 00140 5520  C0140,  5520                / JMP I D0120                           
  152             C0141,
  153 00141 5410  C0141,  5410                / JMP I AI0                             
  154             L0142,
  155             C0142,
  156 00142 5546  C0142,  5546                / JMP I C0146                           
  157             C0143,
  158 00143 5325  C0143,  5325                / JMP   L0125                           
  159             C0144,
  160 00144 5333  C0144,  5333                / JMP   L0133                           
  161             C0145,
  162 00145 5342  C0145,  5342                / JMP   L0142                           
  163             C0146,
  164 00146 5400  C0146,  5400                / JMP I S0000                           
  165             C0147,
  166 00147 7070  C0147,  7070                / CMA CML RAR                           
  167             C0150,
  168 00150 6525  C0150,  6525                / 6525                                  
  169             C0151,
  170 00151 5751  C0151,  5751                / JMP I C0151                           
  171             C0152,

      AUTOMATIC DISASSEMBLY OF MAINDEC-8E-D0LB-D-PB.bin BY D8TAPE         Page 4


  172 00152 5732  C0152,  5732                / JMP I C0132                           
  173             C0153,
  174 00153 5761  C0153,  5761                / JMP I C0161                           
  175             C0154,
  176 00154 6000  C0154,  6000                / 6000                                  
  177             C0155,
  178 00155 5726  C0155,  5726                / JMP I C0126                           
  179             C0156,
  180 00156 5503  C0156,  5503                / JMP I C0103                           
  181             
  182       0010  *0010
  183 00010 0000  AI0,    0000                / AUTO-INDEX REGISTER AND   S0000                           
  184 00011 0000  AI1,    0000                / AUTO-INDEX REGISTER AND   S0000                           
  185 00012 0000  AI2,    0000                / AUTO-INDEX REGISTER AND   S0000                           
  186 00013 0000  AI3,    0000                / AUTO-INDEX REGISTER AND   S0000                           
  187             
  188       0200  *0200
  189 00200 6007  C0200,  6007                / 6007                                  
  190 00201 3115      DCA   D0115             /                                       @@0201=3115
  191             L0202,
  192 00202 7621      CAM                     /                                       @@0202=7621
  193 00203 4577      JMS I C0177             / long call to S5000                    @@0203=4577
  194             L0204,
  195 00204 5244      JMP   L0244             /                                       @@0204=5244
  196             L0205,
  197 00205 4542      JMS I L0142             / long call to S5546                    @@0205=4542
  198             L0206,
  199 00206 7360      CLA CLL CMA CML         /                                       @@0206=7360
  200 00207 0065      AND   D0065             /                                       @@0207=0065
  201 00210 3063      DCA   D0063             /                                       @@0210=3063
  202 00211 7240      STA                     / AC = 7777 (-0001)                     @@0211=7240
  203 00212 3064      DCA   D0064             /                                       @@0212=3064
  204 00213 1063      TAD   D0063             /                                       @@0213=1063
  205 00214 7421      MQL                     /                                       @@0214=7421
  206 00215 3067      DCA   D0067             /                                       @@0215=3067
  207 00216 7620      SNL CLA                 /                                       @@0216=7620
  208 00217 5345      JMP   L0345             /                                       @@0217=5345
  209 00220 7240      STA                     / AC = 7777 (-0001)                     @@0220=7240
  210 00221 3066      DCA   D0066             /                                       @@0221=3066
  211             L0222,
  212 00222 1067      TAD   D0067             /                                       @@0222=1067
  213 00223 7640      SZA CLA                 /                                       @@0223=7640
  214 00224 5231      JMP   L0231             /                                       @@0224=5231
  215 00225 1066      TAD   D0066             /                                       @@0225=1066
  216 00226 7450      SNA                     /                                       @@0226=7450
  217 00227 5231      JMP   L0231             /                                       @@0227=5231
  218 00230 5237      JMP   L0237             /                                       @@0230=5237
  219             L0231,
  220 00231 4545      JMS I C0145             / long call to S5342                    @@0231=4545
  221 00232 4254      JMS   S0254             /                                       @@0232=4254
  222 00233 7704      SMA CLA OSR             /                                       @@0233=7704
  223 00234 7004      RAL                     /                                       @@0234=7004
  224 00235 7430      SZL                     /                                       @@0235=7430
  225 00236 7402      HLT                     /                                       @@0236=7402
  226             L0237,
  227 00237 7604      LAS                     /                                       @@0237=7604
  228 00240 7106      CLL RTL                 /                                       @@0240=7106

      AUTOMATIC DISASSEMBLY OF MAINDEC-8E-D0LB-D-PB.bin BY D8TAPE         Page 5


  229 00241 7430      SZL                     /                                       @@0241=7430
  230 00242 5206      JMP   L0206             /                                       @@0242=5206
  231 00243 5205      JMP   L0205             /                                       @@0243=5205
  232             L0244,
  233 00244 7300      CLA CLL                 / AC = 0000                             @@0244=7300
  234 00245 3065      DCA   D0065             /                                       @@0245=3065
  235 00246 1344      TAD   C0344             /                                       @@0246=1344
  236 00247 3056      DCA   D0056             /                                       @@0247=3056
  237 00250 1060      TAD   C0060             /                                       @@0250=1060
  238 00251 3057      DCA   D0057             /                                       @@0251=3057
  239 00252 4535      JMS I C0135             / long call to S5274                    @@0252=4535
  240 00253 5205      JMP   L0205             /                                       @@0253=5205
  241             
  242             ////////////////////////////////////////////////////////////////////////////////
  243             /
  244             /   SUBROUTINE:  S0254
  245             /
  246             /   Called from:
  247             /   0232 
  248             /   Total 0001 (1) calls
  249             ////////////////////////////////////////////////////////////////////////////////
  250             S0254,
  251 00254 0000      0                       / return area
  252             L0255,
  253 00255 4525      JMS I L0125             / long call to S5607                    @@0255=4525
  254 00256 4302      JMS   S0302             /                                       @@0256=4302
  255 00257 4311      JMS   S0311             /                                       @@0257=4311
  256 00260 4316      JMS   S0316             /                                       @@0260=4316
  257             L0261,
  258 00261 4576  C0261,  4576                / JMS I C0176                           
  259 00262 4524      JMS I C0124             / long call to S5600                    @@0262=4524
  260 00263 4455  D0263,  4455                / JMS I C0055                           
  261 00264 4323      JMS   S0323             /                                       @@0264=4323
  262 00265 4455      JMS I C0055             / long call to S6727                    @@0265=4455
  263 00266 4332      JMS   S0332             /                                       @@0266=4332
  264 00267 4454      JMS I C0054             / long call to S6723                    @@0267=4454
  265 00270 4740      JMS I C0340             / long call to S0362                    @@0270=4740
  266 00271 4524      JMS I C0124             / long call to S5600                    @@0271=4524
  267 00272 4530      JMS I C0130             / long call to S5656                    @@0272=4530
  268 00273 4741      JMS I C0341             / long call to S0355                    @@0273=4741
  269 00274 4323      JMS   S0323             /                                       @@0274=4323
  270 00275 4455      JMS I C0055             / long call to S6727                    @@0275=4455
  271 00276 4742      JMS I C0342             / long call to S0347                    @@0276=4742
  272 00277 4454      JMS I C0054             / long call to S6723                    @@0277=4454
  273 00300 4743      JMS I C0343             / long call to S0370                    @@0300=4743
  274 00301 5654      JMP I S0254             / return                                @@0301=5654
  275             
  276             ////////////////////////////////////////////////////////////////////////////////
  277             /
  278             /   SUBROUTINE:  S0302
  279             /
  280             /   Called from:
  281             /   0256 0462 0602 0620 0623 1101 1111 4015 
  282             /   Total 0010 (8) calls
  283             ////////////////////////////////////////////////////////////////////////////////
  284             S0302,
  285 00302 0000      0                       / return area

      AUTOMATIC DISASSEMBLY OF MAINDEC-8E-D0LB-D-PB.bin BY D8TAPE         Page 6


  286 00303 7240      STA                     / AC = 7777 (-0001)                     @@0303=7240
  287 00304 0072      AND   C0072             /                                       @@0304=0072
  288 00305 4526      JMS I C0126             / long call to S5613                    @@0305=4526
  289 00306 1073      TAD   C0073             /                                       @@0306=1073
  290 00307 4526      JMS I C0126             / long call to S5613                    @@0307=4526
  291 00310 5702      JMP I S0302             / return                                @@0310=5702
  292             
  293             ////////////////////////////////////////////////////////////////////////////////
  294             /
  295             /   SUBROUTINE:  S0311
  296             /
  297             /   Called from:
  298             /   0257 0463 0621 
  299             /   Total 0003 (3) calls
  300             ////////////////////////////////////////////////////////////////////////////////
  301             S0311,
  302 00311 0000      0                       / return area
  303 00312 7240      STA                     / AC = 7777 (-0001)                     @@0312=7240
  304 00313 0074      AND   C0074             /                                       @@0313=0074
  305 00314 4526      JMS I C0126             / long call to S5613                    @@0314=4526
  306 00315 5711      JMP I S0311             / return                                @@0315=5711
  307             
  308             ////////////////////////////////////////////////////////////////////////////////
  309             /
  310             /   SUBROUTINE:  S0316
  311             /
  312             /   Called from:
  313             /   0260 0464 
  314             /   Total 0002 (2) calls
  315             ////////////////////////////////////////////////////////////////////////////////
  316             S0316,
  317 00316 0000      0                       / return area
  318 00317 7240      STA                     / AC = 7777 (-0001)                     @@0317=7240
  319 00320 0075      AND   C0075             /                                       @@0320=0075
  320 00321 4526      JMS I C0126             / long call to S5613                    @@0321=4526
  321 00322 5716      JMP I S0316             / return                                @@0322=5716
  322             
  323             ////////////////////////////////////////////////////////////////////////////////
  324             /
  325             /   SUBROUTINE:  S0323
  326             /
  327             /   Called from:
  328             /   0264 0274 0612 1071 1113 4007 
  329             /   Total 0006 (6) calls
  330             ////////////////////////////////////////////////////////////////////////////////
  331             S0323,
  332 00323 0000      0                       / return area
  333 00324 7240      STA                     / AC = 7777 (-0001)                     @@0324=7240
  334 00325 0076      AND   C0076             /                                       @@0325=0076
  335 00326 4526      JMS I C0126             / long call to S5613                    @@0326=4526
  336 00327 1077      TAD   C0077             /                                       @@0327=1077
  337 00330 4526      JMS I C0126             / long call to S5613                    @@0330=4526
  338 00331 5723      JMP I S0323             / return                                @@0331=5723
  339             
  340             ////////////////////////////////////////////////////////////////////////////////
  341             /
  342             /   SUBROUTINE:  S0332

      AUTOMATIC DISASSEMBLY OF MAINDEC-8E-D0LB-D-PB.bin BY D8TAPE         Page 7


  343             /
  344             /   Called from:
  345             /   0266 0614 1073 
  346             /   Total 0003 (3) calls
  347             ////////////////////////////////////////////////////////////////////////////////
  348             S0332,
  349 00332 0000      0                       / return area
  350 00333 7240      STA                     / AC = 7777 (-0001)                     @@0333=7240
  351 00334 0064      AND   D0064             /                                       @@0334=0064
  352 00335 3102      DCA   D0102             /                                       @@0335=3102
  353 00336 4527      JMS I C0127             / long call to S5640                    @@0336=4527
  354 00337 5732      JMP I S0332             / return                                @@0337=5732
  355             C0340,
  356 00340 0362  C0340,  0362                / AND   S0362                           
  357             C0341,
  358 00341 0355  C0341,  0355                / AND   S0355                           
  359             C0342,
  360 00342 0347  C0342,  0347                / AND   S0347                           
  361             C0343,
  362 00343 0370  C0343,  0370                / AND   S0370                           
  363 00344 0204  C0344,  0204                / AND   L0204                           
  364             L0345,
  365 00345 3066      DCA   D0066             /                                       @@0345=3066
  366 00346 5222      JMP   L0222             /                                       @@0346=5222
  367             
  368             ////////////////////////////////////////////////////////////////////////////////
  369             /
  370             /   SUBROUTINE:  S0347
  371             /
  372             /   Called from:
  373             /   0276 0626 1115 
  374             /   Total 0003 (3) calls
  375             ////////////////////////////////////////////////////////////////////////////////
  376             S0347,
  377 00347 0000      0                       / return area
  378 00350 7240  D0350,  7240                / STA                                   
  379 00351 0066      AND   D0066             /                                       @@0351=0066
  380 00352 3102      DCA   D0102             /                                       @@0352=3102
  381 00353 4527      JMS I C0127             / long call to S5640                    @@0353=4527
  382 00354 5747      JMP I S0347             / return                                @@0354=5747
  383             
  384             ////////////////////////////////////////////////////////////////////////////////
  385             /
  386             /   SUBROUTINE:  S0355
  387             /
  388             /   Called from:
  389             /   0273 
  390             /   Total 0001 (1) calls
  391             ////////////////////////////////////////////////////////////////////////////////
  392             S0355,
  393 00355 0000      0                       / return area
  394 00356 7240      STA                     / AC = 7777 (-0001)                     @@0356=7240
  395 00357 0103      AND   C0103             /                                       @@0357=0103
  396 00360 4526      JMS I C0126             / long call to S5613                    @@0360=4526
  397 00361 5755      JMP I S0355             / return                                @@0361=5755
  398             
  399             ////////////////////////////////////////////////////////////////////////////////

      AUTOMATIC DISASSEMBLY OF MAINDEC-8E-D0LB-D-PB.bin BY D8TAPE         Page 8


  400             /
  401             /   SUBROUTINE:  S0362
  402             /
  403             /   Called from:
  404             /   0270 0616 1075 1107 
  405             /   Total 0004 (4) calls
  406             ////////////////////////////////////////////////////////////////////////////////
  407             S0362,
  408 00362 0000      0                       / return area
  409 00363 7240      STA                     / AC = 7777 (-0001)                     @@0363=7240
  410 00364 0063      AND   D0063             /                                       @@0364=0063
  411 00365 3106      DCA   D0106             /                                       @@0365=3106
  412 00366 4531      JMS I C0131             / long call to S5663                    @@0366=4531
  413 00367 5762      JMP I S0362             / return                                @@0367=5762
  414             
  415             ////////////////////////////////////////////////////////////////////////////////
  416             /
  417             /   SUBROUTINE:  S0370
  418             /
  419             /   Called from:
  420             /   0300 0630 1117 
  421             /   Total 0003 (3) calls
  422             ////////////////////////////////////////////////////////////////////////////////
  423             S0370,
  424 00370 0000      0                       / return area
  425 00371 7240      STA                     / AC = 7777 (-0001)                     @@0371=7240
  426 00372 0067      AND   D0067             /                                       @@0372=0067
  427 00373 3106      DCA   D0106             /                                       @@0373=3106
  428 00374 4531      JMS I C0131             / long call to S5663                    @@0374=4531
  429 00375 5770      JMP I S0370             / return                                @@0375=5770
  430             
  431       0400  *0400
  432 00400 5227  C0400,  5227                / JMP   L0427                           
  433             L0401,
  434 00401 4542      JMS I L0142             / long call to S5546                    @@0401=4542
  435             L0402,
  436 00402 7340      CLA CLL CMA             / AC = 7777 (-0001)                     @@0402=7340
  437 00403 0065      AND   D0065             /                                       @@0403=0065
  438 00404 3063      DCA   D0063             /                                       @@0404=3063
  439 00405 3064  C0405,  3064                / DCA   D0064                           
  440 00406 7040      CMA                     /                                       @@0406=7040
  441 00407 0063      AND   D0063             /                                       @@0407=0063
  442 00410 7421      MQL                     /                                       @@0410=7421
  443 00411 3067      DCA   D0067             /                                       @@0411=3067
  444 00412 7620      SNL CLA                 /                                       @@0412=7620
  445 00413 5301      JMP   L0501             /                                       @@0413=5301
  446 00414 7240      STA                     / AC = 7777 (-0001)                     @@0414=7240
  447 00415 3066      DCA   D0066             /                                       @@0415=3066
  448 00416 7040      CMA                     /                                       @@0416=7040
  449 00417 0067      AND   D0067             /                                       @@0417=0067
  450 00420 7440      SZA                     /                                       @@0420=7440
  451 00421 5237      JMP   L0437             /                                       @@0421=5237
  452 00422 7240      STA                     / AC = 7777 (-0001)                     @@0422=7240
  453 00423 0066      AND   D0066             /                                       @@0423=0066
  454 00424 7440      SZA                     /                                       @@0424=7440
  455 00425 5237      JMP   L0437             /                                       @@0425=5237
  456 00426 5250      JMP   L0450             /                                       @@0426=5250

      AUTOMATIC DISASSEMBLY OF MAINDEC-8E-D0LB-D-PB.bin BY D8TAPE         Page 9


  457             L0427,
  458 00427 7300      CLA CLL                 / AC = 0000                             @@0427=7300
  459 00430 3065      DCA   D0065             /                                       @@0430=3065
  460 00431 1060      TAD   C0060             /                                       @@0431=1060
  461 00432 3056      DCA   D0056             /                                       @@0432=3056
  462 00433 1061      TAD   C0061             /                                       @@0433=1061
  463 00434 3057      DCA   D0057             /                                       @@0434=3057
  464 00435 4535      JMS I C0135             / long call to S5274                    @@0435=4535
  465 00436 5201      JMP   L0401             /                                       @@0436=5201
  466             L0437,
  467 00437 7604      LAS                     /                                       @@0437=7604
  468 00440 7106      CLL RTL                 /                                       @@0440=7106
  469 00441 7004      RAL                     /                                       @@0441=7004
  470 00442 7430      SZL                     /                                       @@0442=7430
  471 00443 5256      JMP   L0456             /                                       @@0443=5256
  472 00444 7604      LAS                     /                                       @@0444=7604
  473 00445 7104      CLL RAL                 /                                       @@0445=7104
  474 00446 7430  C0446,  7430                / SZL                                   
  475 00447 7402      HLT                     /                                       @@0447=7402
  476             L0450,
  477 00450 7604      LAS                     /                                       @@0450=7604
  478 00451 7106      CLL RTL                 /                                       @@0451=7106
  479 00452 7430      SZL                     /                                       @@0452=7430
  480 00453 5202      JMP   L0402             /                                       @@0453=5202
  481 00454 5201      JMP   L0401             /                                       @@0454=5201
  482 00455 0444  C0455,  0444                / AND I D0044                           
  483             L0456,
  484 00456 7240      STA                     / AC = 7777 (-0001)                     @@0456=7240
  485 00457 0255      AND   C0455             /                                       @@0457=0255
  486 00460 3700      DCA I C0500             /                                       @@0460=3700
  487 00461 4525  C0461,  4525                / JMS I L0125                           
  488 00462 4670      JMS I C0470             / long call to S0302                    @@0462=4670
  489 00463 4671      JMS I C0471             / long call to S0311                    @@0463=4671
  490 00464 4672      JMS I C0472             / long call to S0316                    @@0464=4672
  491 00465 4273      JMS   S0473             /                                       @@0465=4273
  492 00466 5667      JMP I C0467             / long jump to L0261                    @@0466=5667
  493             C0467,
  494 00467 0261  C0467,  0261                / AND   C0461                           
  495             C0470,
  496 00470 0302  C0470,  0302                / AND   C0502                           
  497             C0471,
  498 00471 0311  C0471,  0311                / AND   C0511                           
  499             C0472,
  500 00472 0316  C0472,  0316                / AND   C0516                           
  501             
  502             ////////////////////////////////////////////////////////////////////////////////
  503             /
  504             /   SUBROUTINE:  S0473
  505             /
  506             /   Called from:
  507             /   0465 0722 
  508             /   Total 0002 (2) calls
  509             ////////////////////////////////////////////////////////////////////////////////
  510             S0473,
  511 00473 0000      0                       / return area
  512 00474 7240      STA                     / AC = 7777 (-0001)                     @@0474=7240
  513 00475 0100      AND   L0100             /                                       @@0475=0100

      AUTOMATIC DISASSEMBLY OF MAINDEC-8E-D0LB-D-PB.bin BY D8TAPE        Page 10


  514 00476 4526      JMS I C0126             / long call to S5613                    @@0476=4526
  515 00477 5673      JMP I S0473             / return                                @@0477=5673
  516 00500 0254  C0500,  0254                / AND   C0454                           
  517             L0501,
  518 00501 3066      DCA   D0066             /                                       @@0501=3066
  519 00502 5216  C0502,  5216                / JMP   C0416                           
  520 00503 5340      JMP   L0540             /                                       @@0503=5340
  521             L0504,
  522 00504 4542      JMS I L0142             / long call to S5546                    @@0504=4542
  523             L0505,
  524 00505 7360      CLA CLL CMA CML         /                                       @@0505=7360
  525 00506 0065      AND   D0065             /                                       @@0506=0065
  526 00507 3063      DCA   D0063             /                                       @@0507=3063
  527 00510 7240      STA                     / AC = 7777 (-0001)                     @@0510=7240
  528 00511 3064  C0511,  3064                / DCA   D0064                           
  529 00512 7040      CMA                     /                                       @@0512=7040
  530 00513 0063      AND   D0063             /                                       @@0513=0063
  531 00514 7421      MQL                     /                                       @@0514=7421
  532 00515 7501      MQA                     /                                       @@0515=7501
  533 00516 3067  C0516,  3067                / DCA   D0067                           
  534 00517 7620      SNL CLA                 /                                       @@0517=7620
  535 00520 5777      JMP I C0577             / long jump to L0646                    @@0520=5777
  536 00521 7240      STA                     / AC = 7777 (-0001)                     @@0521=7240
  537 00522 3066      DCA   D0066             /                                       @@0522=3066
  538             L0523,
  539 00523 7040      CMA                     /                                       @@0523=7040
  540 00524 0063      AND   D0063             /                                       @@0524=0063
  541 00525 7140      CLL CMA                 /                                       @@0525=7140
  542 00526 1067      TAD   D0067             /                                       @@0526=1067
  543 00527 7040      CMA                     /                                       @@0527=7040
  544 00530 7450      SNA                     /                                       @@0530=7450
  545 00531 7430      SZL                     /                                       @@0531=7430
  546 00532 5350      JMP   L0550             /                                       @@0532=5350
  547 00533 7240      STA                     / AC = 7777 (-0001)                     @@0533=7240
  548 00534 0066      AND   D0066             /                                       @@0534=0066
  549 00535 7450      SNA                     /                                       @@0535=7450
  550 00536 5350      JMP   L0550             /                                       @@0536=5350
  551 00537 5363      JMP   L0563             /                                       @@0537=5363
  552             L0540,
  553 00540 7300  C0540,  7300                / CLA CLL                               
  554 00541 3065      DCA   D0065             /                                       @@0541=3065
  555 00542 1061      TAD   C0061             /                                       @@0542=1061
  556 00543 3056      DCA   D0056             /                                       @@0543=3056
  557 00544 1062      TAD   C0062             /                                       @@0544=1062
  558 00545 3057      DCA   D0057             /                                       @@0545=3057
  559 00546 4535      JMS I C0135             / long call to S5274                    @@0546=4535
  560 00547 5304      JMP   L0504             /                                       @@0547=5304
  561             L0550,
  562 00550 7604      LAS                     /                                       @@0550=7604
  563 00551 7106      CLL RTL                 /                                       @@0551=7106
  564 00552 7004      RAL                     /                                       @@0552=7004
  565 00553 7420      SNL                     /                                       @@0553=7420
  566 00554 5357      JMP   L0557             /                                       @@0554=5357
  567 00555 4776      JMS I C0576             / long call to S0600                    @@0555=4776
  568 00556 4775      JMS I C0575             / long call to S0605                    @@0556=4775
  569             L0557,
  570 00557 7604      LAS                     /                                       @@0557=7604

      AUTOMATIC DISASSEMBLY OF MAINDEC-8E-D0LB-D-PB.bin BY D8TAPE        Page 11


  571 00560 7104      CLL RAL                 /                                       @@0560=7104
  572 00561 7430      SZL                     /                                       @@0561=7430
  573 00562 7402      HLT                     /                                       @@0562=7402
  574             L0563,
  575 00563 7604      LAS                     /                                       @@0563=7604
  576 00564 7106      CLL RTL                 /                                       @@0564=7106
  577 00565 7430      SZL                     /                                       @@0565=7430
  578 00566 5305      JMP   L0505             /                                       @@0566=5305
  579 00567 5304      JMP   L0504             /                                       @@0567=5304
  580             
  581       0575  *0575
  582             C0575,
  583 00575 0605  C0575,  0605                / AND I C0405                           
  584             C0576,
  585 00576 0600  C0576,  0600                / AND I C0400                           
  586             C0577,
  587 00577 0646  C0577,  0646                / AND I C0446                           
  588             
  589       0600  *0600
  590             
  591             ////////////////////////////////////////////////////////////////////////////////
  592             /
  593             /   SUBROUTINE:  S0600
  594             /
  595             /   Called from:
  596             /   0555 0721 1047 1215 
  597             /   Total 0004 (4) calls
  598             ////////////////////////////////////////////////////////////////////////////////
  599             S0600,
  600 00600 0000      0                       / return area
  601 00601 4525      JMS I L0125             / long call to S5607                    @@0601=4525
  602 00602 4777      JMS I C0777             / long call to S0302                    @@0602=4777
  603 00603 4232      JMS   S0632             /                                       @@0603=4232
  604 00604 5600      JMP I S0600             / return                                @@0604=5600
  605             
  606             ////////////////////////////////////////////////////////////////////////////////
  607             /
  608             /   SUBROUTINE:  S0605
  609             /
  610             /   Called from:
  611             /   0556 
  612             /   Total 0001 (1) calls
  613             ////////////////////////////////////////////////////////////////////////////////
  614             S0605,
  615 00605 0000      0                       / return area
  616 00606 4576      JMS I C0176             / long call to S6704                    @@0606=4576
  617 00607 4524      JMS I C0124             / long call to S5600                    @@0607=4524
  618 00610 4451      JMS I C0051             / long call to S6670                    @@0610=4451
  619 00611 7773  C0611,  7773                / CLA MQA SCA MQL SHL +                 
  620 00612 4776      JMS I C0776             / long call to S0323                    @@0612=4776
  621 00613 4455      JMS I C0055             / long call to S6727                    @@0613=4455
  622 00614 4775      JMS I C0775             / long call to S0332                    @@0614=4775
  623 00615 4454      JMS I C0054             / long call to S6723                    @@0615=4454
  624 00616 4774      JMS I C0774             / long call to S0362                    @@0616=4774
  625 00617 4524      JMS I C0124             / long call to S5600                    @@0617=4524
  626 00620 4777      JMS I C0777             / long call to S0302                    @@0620=4777
  627 00621 4773      JMS I C0773             / long call to S0311                    @@0621=4773

      AUTOMATIC DISASSEMBLY OF MAINDEC-8E-D0LB-D-PB.bin BY D8TAPE        Page 12


  628 00622 4454      JMS I C0054             / long call to S6723                    @@0622=4454
  629 00623 4777      JMS I C0777             / long call to S0302                    @@0623=4777
  630 00624 4241      JMS   S0641             /                                       @@0624=4241
  631 00625 4455      JMS I C0055             / long call to S6727                    @@0625=4455
  632 00626 4772      JMS I C0772             / long call to S0347                    @@0626=4772
  633 00627 4454      JMS I C0054             / long call to S6723                    @@0627=4454
  634 00630 4771      JMS I C0771             / long call to S0370                    @@0630=4771
  635 00631 5605      JMP I S0605             / return                                @@0631=5605
  636             
  637             ////////////////////////////////////////////////////////////////////////////////
  638             /
  639             /   SUBROUTINE:  S0632
  640             /
  641             /   Called from:
  642             /   0603 
  643             /   Total 0001 (1) calls
  644             ////////////////////////////////////////////////////////////////////////////////
  645             S0632,
  646 00632 0000      0                       / return area
  647 00633 7240      STA                     / AC = 7777 (-0001)                     @@0633=7240
  648 00634 0076      AND   C0076             /                                       @@0634=0076
  649 00635 4526      JMS I C0126             / long call to S5613                    @@0635=4526
  650 00636 1075      TAD   C0075             /                                       @@0636=1075
  651 00637 4526      JMS I C0126             / long call to S5613                    @@0637=4526
  652 00640 5632      JMP I S0632             / return                                @@0640=5632
  653             
  654             ////////////////////////////////////////////////////////////////////////////////
  655             /
  656             /   SUBROUTINE:  S0641
  657             /
  658             /   Called from:
  659             /   0624 
  660             /   Total 0001 (1) calls
  661             ////////////////////////////////////////////////////////////////////////////////
  662             S0641,
  663 00641 0000      0                       / return area
  664 00642 7240      STA                     / AC = 7777 (-0001)                     @@0642=7240
  665 00643 0076      AND   C0076             /                                       @@0643=0076
  666 00644 4526      JMS I C0126             / long call to S5613                    @@0644=4526
  667 00645 5641      JMP I S0641             / return                                @@0645=5641
  668             L0646,
  669 00646 3066      DCA   D0066             /                                       @@0646=3066
  670 00647 5770      JMP I C0770             / long jump to L0523                    @@0647=5770
  671 00650 4304  C0650,  4304                / JMS   C0704                           
  672             L0651,
  673 00651 4542      JMS I L0142             / long call to S5546                    @@0651=4542
  674             L0652,
  675 00652 7340      CLA CLL CMA             / AC = 7777 (-0001)                     @@0652=7340
  676 00653 0065      AND   D0065             /                                       @@0653=0065
  677 00654 3063      DCA   D0063             /                                       @@0654=3063
  678 00655 3064      DCA   D0064             /                                       @@0655=3064
  679 00656 7040      CMA                     /                                       @@0656=7040
  680 00657 0063      AND   D0063             /                                       @@0657=0063
  681 00660 7421      MQL                     /                                       @@0660=7421
  682 00661 7501      MQA                     /                                       @@0661=7501
  683 00662 3067      DCA   D0067             /                                       @@0662=3067
  684 00663 7620      SNL CLA                 /                                       @@0663=7620

      AUTOMATIC DISASSEMBLY OF MAINDEC-8E-D0LB-D-PB.bin BY D8TAPE        Page 13


  685 00664 5340      JMP   L0740             /                                       @@0664=5340
  686 00665 7240      STA                     / AC = 7777 (-0001)                     @@0665=7240
  687 00666 3066      DCA   D0066             /                                       @@0666=3066
  688             L0667,
  689 00667 7040      CMA                     /                                       @@0667=7040
  690 00670 0063      AND   D0063             /                                       @@0670=0063
  691 00671 7140      CLL CMA                 /                                       @@0671=7140
  692 00672 1067      TAD   D0067             /                                       @@0672=1067
  693 00673 7040      CMA                     /                                       @@0673=7040
  694 00674 7450      SNA                     /                                       @@0674=7450
  695 00675 7430      SZL                     /                                       @@0675=7430
  696 00676 5314      JMP   L0714             /                                       @@0676=5314
  697 00677 7240      STA                     / AC = 7777 (-0001)                     @@0677=7240
  698 00700 0066      AND   D0066             /                                       @@0700=0066
  699 00701 7440      SZA                     /                                       @@0701=7440
  700 00702 5314  C0702,  5314                / JMP   L0714                           
  701 00703 5330      JMP   L0730             /                                       @@0703=5330
  702 00704 7300      CLA CLL                 / AC = 0000                             @@0704=7300
  703 00705 3065      DCA   D0065             /                                       @@0705=3065
  704 00706 1062      TAD   C0062             /                                       @@0706=1062
  705 00707 3056      DCA   D0056             /                                       @@0707=3056
  706 00710 1107      TAD   D0107             /                                       @@0710=1107
  707 00711 3057  C0711,  3057                / DCA   D0057                           
  708 00712 4535      JMS I C0135             / long call to S5274                    @@0712=4535
  709 00713 5251      JMP   L0651             /                                       @@0713=5251
  710             L0714,
  711 00714 7604      LAS                     /                                       @@0714=7604
  712 00715 7106      CLL RTL                 /                                       @@0715=7106
  713 00716 7004      RAL                     /                                       @@0716=7004
  714 00717 7420      SNL                     /                                       @@0717=7420
  715 00720 5324      JMP   L0724             /                                       @@0720=5324
  716 00721 4735      JMS I C0735             / long call to S0600                    @@0721=4735
  717 00722 4736      JMS I C0736             / long call to S0473                    @@0722=4736
  718 00723 4737  C0723,  4737                / JMS I C0737                           
  719             L0724,
  720 00724 7604      LAS                     /                                       @@0724=7604
  721 00725 7104      CLL RAL                 /                                       @@0725=7104
  722 00726 7430      SZL                     /                                       @@0726=7430
  723 00727 7402      HLT                     /                                       @@0727=7402
  724             L0730,
  725 00730 7604      LAS                     /                                       @@0730=7604
  726 00731 7106      CLL RTL                 /                                       @@0731=7106
  727 00732 7430  C0732,  7430                / SZL                                   
  728 00733 5252      JMP   L0652             /                                       @@0733=5252
  729 00734 5251      JMP   L0651             /                                       @@0734=5251
  730             C0735,
  731 00735 0600  C0735,  0600                / AND I S0600                           
  732             C0736,
  733 00736 0473  C0736,  0473                / AND I C0073                           
  734 00737 0605      AND I S0605             /                                       @@0737=0605
  735             L0740,
  736 00740 3066      DCA   D0066             /                                       @@0740=3066
  737 00741 5267      JMP   L0667             /                                       @@0741=5267
  738             
  739       0770  *0770
  740             C0770,
  741 00770 0523  C0770,  0523                / AND I C0123                           

      AUTOMATIC DISASSEMBLY OF MAINDEC-8E-D0LB-D-PB.bin BY D8TAPE        Page 14


  742             C0771,
  743 00771 0370  C0771,  0370                / AND   C0770                           
  744             C0772,
  745 00772 0347  C0772,  0347                / AND   C0747                           
  746             C0773,
  747 00773 0311  C0773,  0311                / AND   C0711                           
  748             C0774,
  749 00774 0362  C0774,  0362                / AND   C0762                           
  750             C0775,
  751 00775 0332  C0775,  0332                / AND   C0732                           
  752             C0776,
  753 00776 0323  C0776,  0323                / AND   C0723                           
  754             C0777,
  755 00777 0302  C0777,  0302                / AND   C0702                           
  756             
  757       1000  *1000
  758 01000 5232  C1000,  5232                / JMP   L1032                           
  759             L1001,
  760 01001 4542      JMS I L0142             / long call to S5546                    @@1001=4542
  761             L1002,
  762 01002 7360      CLA CLL CMA CML         /                                       @@1002=7360
  763 01003 0065      AND   D0065             /                                       @@1003=0065
  764 01004 7040      CMA                     /                                       @@1004=7040
  765 01005 3063      DCA   D0063             /                                       @@1005=3063
  766 01006 7040      CMA                     /                                       @@1006=7040
  767 01007 3064      DCA   D0064             /                                       @@1007=3064
  768 01010 1065  C1010,  1065                / TAD   D0065                           
  769 01011 7421      MQL                     /                                       @@1011=7421
  770 01012 1063      TAD   D0063             /                                       @@1012=1063
  771 01013 7501      MQA                     /                                       @@1013=7501
  772 01014 3067      DCA   D0067             /                                       @@1014=3067
  773 01015 7620      SNL CLA                 /                                       @@1015=7620
  774 01016 5333      JMP   L1133             /                                       @@1016=5333
  775 01017 7240      STA                     / AC = 7777 (-0001)                     @@1017=7240
  776 01020 3066      DCA   D0066             /                                       @@1020=3066
  777             L1021,
  778 01021 1067      TAD   D0067             /                                       @@1021=1067
  779 01022 7040      CMA                     /                                       @@1022=7040
  780 01023 7440  C1023,  7440                / SZA                                   
  781 01024 5242      JMP   L1042             /                                       @@1024=5242
  782 01025 7040      CMA                     /                                       @@1025=7040
  783 01026 0066      AND   D0066             /                                       @@1026=0066
  784 01027 7450      SNA                     /                                       @@1027=7450
  785 01030 5242      JMP   L1042             /                                       @@1030=5242
  786 01031 5255      JMP   L1055             /                                       @@1031=5255
  787             L1032,
  788 01032 7300      CLA CLL                 / AC = 0000                             @@1032=7300
  789 01033 3065      DCA   D0065             /                                       @@1033=3065
  790 01034 1107      TAD   D0107             /                                       @@1034=1107
  791 01035 3056      DCA   D0056             /                                       @@1035=3056
  792 01036 1110      TAD   C0110             /                                       @@1036=1110
  793 01037 3057      DCA   D0057             /                                       @@1037=3057
  794 01040 4535      JMS I C0135             / long call to S5274                    @@1040=4535
  795 01041 5201      JMP   L1001             /                                       @@1041=5201
  796             L1042,
  797 01042 7604      LAS                     /                                       @@1042=7604
  798 01043 7106      CLL RTL                 /                                       @@1043=7106

      AUTOMATIC DISASSEMBLY OF MAINDEC-8E-D0LB-D-PB.bin BY D8TAPE        Page 15


  799 01044 7004      RAL                     /                                       @@1044=7004
  800 01045 7420      SNL                     /                                       @@1045=7420
  801 01046 5251      JMP   L1051             /                                       @@1046=5251
  802 01047 4662      JMS I C1062             / long call to S0600                    @@1047=4662
  803 01050 4263      JMS   S1063             /                                       @@1050=4263
  804             L1051,
  805 01051 7604      LAS                     /                                       @@1051=7604
  806 01052 7104      CLL RAL                 /                                       @@1052=7104
  807 01053 7430      SZL                     /                                       @@1053=7430
  808 01054 7402      HLT                     /                                       @@1054=7402
  809             L1055,
  810 01055 7604      LAS                     /                                       @@1055=7604
  811 01056 7106      CLL RTL                 /                                       @@1056=7106
  812 01057 7430      SZL                     /                                       @@1057=7430
  813 01060 5202      JMP   L1002             /                                       @@1060=5202
  814 01061 5201      JMP   L1001             /                                       @@1061=5201
  815             C1062,
  816 01062 0600  C1062,  0600                / AND I C1000                           
  817             
  818             ////////////////////////////////////////////////////////////////////////////////
  819             /
  820             /   SUBROUTINE:  S1063
  821             /
  822             /   Called from:
  823             /   1050 
  824             /   Total 0001 (1) calls
  825             ////////////////////////////////////////////////////////////////////////////////
  826             S1063,
  827 01063 0000      0                       / return area
  828 01064 4326      JMS   S1126             /                                       @@1064=4326
  829 01065 4576      JMS I C0176             / long call to S6704                    @@1065=4576
  830             L1066,
  831 01066 4524      JMS I C0124             / long call to S5600                    @@1066=4524
  832 01067 4455      JMS I C0055             / long call to S6727                    @@1067=4455
  833 01070 4454      JMS I C0054             / long call to S6723                    @@1070=4454
  834 01071 4777      JMS I C1177             / long call to S0323                    @@1071=4777
  835 01072 4455      JMS I C0055             / long call to S6727                    @@1072=4455
  836 01073 4776      JMS I C1176             / long call to S0332                    @@1073=4776
  837 01074 4454      JMS I C0054             / long call to S6723                    @@1074=4454
  838 01075 4775      JMS I C1175             / long call to S0362                    @@1075=4775
  839 01076 4524      JMS I C0124             / long call to S5600                    @@1076=4524
  840 01077 4455      JMS I C0055             / long call to S6727                    @@1077=4455
  841 01100 4454      JMS I C0054             / long call to S6723                    @@1100=4454
  842 01101 4774      JMS I C1174             / long call to S0302                    @@1101=4774
  843 01102 4455  C1102,  4455                / JMS I C0055                           
  844 01103 4455      JMS I C0055             / long call to S6727                    @@1103=4455
  845 01104 7200      CLA                     /                                       @@1104=7200
  846 01105 1065      TAD   D0065             /                                       @@1105=1065
  847 01106 3063      DCA   D0063             /                                       @@1106=3063
  848 01107 4775      JMS I C1175             / long call to S0362                    @@1107=4775
  849 01110 4524      JMS I C0124             / long call to S5600                    @@1110=4524
  850 01111 4774      JMS I C1174             / long call to S0302                    @@1111=4774
  851 01112 4321      JMS   S1121             /                                       @@1112=4321
  852 01113 4777      JMS I C1177             / long call to S0323                    @@1113=4777
  853 01114 4455      JMS I C0055             / long call to S6727                    @@1114=4455
  854 01115 4773      JMS I C1173             / long call to S0347                    @@1115=4773
  855 01116 4454      JMS I C0054             / long call to S6723                    @@1116=4454

      AUTOMATIC DISASSEMBLY OF MAINDEC-8E-D0LB-D-PB.bin BY D8TAPE        Page 16


  856 01117 4772      JMS I C1172             / long call to S0370                    @@1117=4772
  857 01120 5663      JMP I S1063             / return                                @@1120=5663
  858             
  859             ////////////////////////////////////////////////////////////////////////////////
  860             /
  861             /   SUBROUTINE:  S1121
  862             /
  863             /   Called from:
  864             /   1112 
  865             /   Total 0001 (1) calls
  866             ////////////////////////////////////////////////////////////////////////////////
  867             S1121,
  868 01121 0000      0                       / return area
  869 01122 7240      STA                     / AC = 7777 (-0001)                     @@1122=7240
  870 01123 0111  C1123,  0111                / AND   C0111                           
  871 01124 4526      JMS I C0126             / long call to S5613                    @@1124=4526
  872 01125 5721      JMP I S1121             / return                                @@1125=5721
  873             
  874             ////////////////////////////////////////////////////////////////////////////////
  875             /
  876             /   SUBROUTINE:  S1126
  877             /
  878             /   Called from:
  879             /   1064 
  880             /   Total 0001 (1) calls
  881             ////////////////////////////////////////////////////////////////////////////////
  882             S1126,
  883 01126 0000      0                       / return area
  884 01127 7240      STA                     / AC = 7777 (-0001)                     @@1127=7240
  885 01130 0113      AND   C0113             /                                       @@1130=0113
  886 01131 4526      JMS I C0126             / long call to S5613                    @@1131=4526
  887 01132 5726  C1132,  5726                / JMP I S1126                           
  888             L1133,
  889 01133 3066      DCA   D0066             /                                       @@1133=3066
  890 01134 5221      JMP   L1021             /                                       @@1134=5221
  891 01135 5771      JMP I C1171             / long jump to L1200                    @@1135=5771
  892             L1136,
  893 01136 4542      JMS I L0142             / long call to S5546                    @@1136=4542
  894             L1137,
  895 01137 7340      CLA CLL CMA             / AC = 7777 (-0001)                     @@1137=7340
  896 01140 0065      AND   D0065             /                                       @@1140=0065
  897 01141 7040      CMA                     /                                       @@1141=7040
  898 01142 3063      DCA   D0063             /                                       @@1142=3063
  899 01143 3064      DCA   D0064             /                                       @@1143=3064
  900 01144 7040      CMA                     /                                       @@1144=7040
  901 01145 0065      AND   D0065             /                                       @@1145=0065
  902 01146 7421      MQL                     /                                       @@1146=7421
  903 01147 1063  C1147,  1063                / TAD   D0063                           
  904 01150 7501      MQA                     /                                       @@1150=7501
  905 01151 3067      DCA   D0067             /                                       @@1151=3067
  906 01152 7620      SNL CLA                 /                                       @@1152=7620
  907 01153 7410      SKP                     /                                       @@1153=7410
  908 01154 7240      STA                     / AC = 7777 (-0001)                     @@1154=7240
  909 01155 3066      DCA   D0066             /                                       @@1155=3066
  910 01156 1067      TAD   D0067             /                                       @@1156=1067
  911 01157 7040      CMA                     /                                       @@1157=7040
  912 01160 7440      SZA                     /                                       @@1160=7440

      AUTOMATIC DISASSEMBLY OF MAINDEC-8E-D0LB-D-PB.bin BY D8TAPE        Page 17


  913 01161 5770      JMP I C1170             / long jump to L1210                    @@1161=5770
  914 01162 7040  C1162,  7040                / CMA                                   
  915 01163 0066      AND   D0066             /                                       @@1163=0066
  916 01164 7440      SZA                     /                                       @@1164=7440
  917 01165 5770      JMP I C1170             / long jump to L1210                    @@1165=5770
  918 01166 5767      JMP I C1167             / long jump to L1223                    @@1166=5767
  919             C1167,
  920 01167 1223  C1167,  1223                / TAD   C1023                           
  921             C1170,
  922 01170 1210  C1170,  1210                / TAD   C1010                           
  923             C1171,
  924 01171 1200  C1171,  1200                / TAD   C1000                           
  925             C1172,
  926 01172 0370  C1172,  0370                / AND   C1170                           
  927             C1173,
  928 01173 0347  C1173,  0347                / AND   C1147                           
  929             C1174,
  930 01174 0302  C1174,  0302                / AND   C1102                           
  931             C1175,
  932 01175 0362  C1175,  0362                / AND   C1162                           
  933             C1176,
  934 01176 0332  C1176,  0332                / AND   C1132                           
  935             C1177,
  936 01177 0323  C1177,  0323                / AND   C1123                           
  937             
  938       1200  *1200
  939             L1200,
  940 01200 7300  C1200,  7300                / CLA CLL                               
  941 01201 3065      DCA   D0065             /                                       @@1201=3065
  942 01202 1110      TAD   C0110             /                                       @@1202=1110
  943 01203 3056      DCA   D0056             /                                       @@1203=3056
  944 01204 1377      TAD   C1377             /                                       @@1204=1377
  945 01205 3057      DCA   D0057             /                                       @@1205=3057
  946 01206 4535      JMS I C0135             / long call to S5274                    @@1206=4535
  947 01207 5776      JMP I C1376             / long jump to L1136                    @@1207=5776
  948             L1210,
  949 01210 7604      LAS                     /                                       @@1210=7604
  950 01211 7106      CLL RTL                 /                                       @@1211=7106
  951 01212 7004      RAL                     /                                       @@1212=7004
  952 01213 7420      SNL                     /                                       @@1213=7420
  953 01214 5217      JMP   L1217             /                                       @@1214=5217
  954 01215 4630      JMS I C1230             / long call to S0600                    @@1215=4630
  955 01216 5233      JMP   L1233             /                                       @@1216=5233
  956             L1217,
  957 01217 7604  C1217,  7604                / LAS                                   
  958 01220 7104      CLL RAL                 /                                       @@1220=7104
  959 01221 7430      SZL                     /                                       @@1221=7430
  960 01222 7402      HLT                     /                                       @@1222=7402
  961             L1223,
  962 01223 7604      LAS                     /                                       @@1223=7604
  963 01224 7106      CLL RTL                 /                                       @@1224=7106
  964 01225 7430      SZL                     /                                       @@1225=7430
  965 01226 5775      JMP I C1375             / long jump to L1137                    @@1226=5775
  966 01227 5776      JMP I C1376             / long jump to L1136                    @@1227=5776
  967             C1230,
  968 01230 0600  C1230,  0600                / AND I L1200                           
  969 01231 1217  C1231,  1217                / TAD   L1217                           

      AUTOMATIC DISASSEMBLY OF MAINDEC-8E-D0LB-D-PB.bin BY D8TAPE        Page 18


  970 01232 1063  C1232,  1063                / TAD   D0063                           
  971             L1233,
  972 01233 4240      JMS   S1240             /                                       @@1233=4240
  973 01234 4576      JMS I C0176             / long call to S6704                    @@1234=4576
  974 01235 1231      TAD   C1231             /                                       @@1235=1231
  975 01236 3632      DCA I C1232             /                                       @@1236=3632
  976 01237 5774      JMP I C1374             / long jump to L1066                    @@1237=5774
  977             
  978             ////////////////////////////////////////////////////////////////////////////////
  979             /
  980             /   SUBROUTINE:  S1240
  981             /
  982             /   Called from:
  983             /   1233 
  984             /   Total 0001 (1) calls
  985             ////////////////////////////////////////////////////////////////////////////////
  986             S1240,
  987 01240 0000      0                       / return area
  988 01241 7240      STA                     / AC = 7777 (-0001)                     @@1241=7240
  989 01242 0112      AND   C0112             /                                       @@1242=0112
  990 01243 4526      JMS I C0126             / long call to S5613                    @@1243=4526
  991 01244 5640      JMP I S1240             / return                                @@1244=5640
  992 01245 4315      JMS   S1315             /                                       @@1245=4315
  993             L1246,
  994 01246 4263      JMS   S1263             /                                       @@1246=4263
  995             L1247,
  996 01247 1021      TAD   D0021             /                                       @@1247=1021
  997 01250 7104      CLL RAL                 /                                       @@1250=7104
  998 01251 1023      TAD   D0023             /                                       @@1251=1023
  999 01252 7421      MQL                     /                                       @@1252=7421
 1000 01253 1022      TAD   D0022             /                                       @@1253=1022
 1001 01254 7457  C1254,  7457                / SCA LSR +                             
 1002 01255 4541      JMS I C0141             / long call to S5410                    @@1255=4541
 1003 01256 4773      JMS I C1373             / long call to S6013                    @@1256=4773
 1004 01257 4452      JMS I L0052             / long call to S6345                    @@1257=4452
 1005 01260 7773  C1260,  7773                / CLA MQA SCA MQL SHL +                 
 1006 01261 5276      JMP   L1276             /                                       @@1261=5276
 1007 01262 5302      JMP   L1302             /                                       @@1262=5302
 1008             
 1009             ////////////////////////////////////////////////////////////////////////////////
 1010             /
 1011             /   SUBROUTINE:  S1263
 1012             /
 1013             /   Called from:
 1014             /   1246 
 1015             /   Total 0001 (1) calls
 1016             ////////////////////////////////////////////////////////////////////////////////
 1017             S1263,
 1018 01263 0000      0                       / return area
 1019 01264 4453      JMS I C0053             / long call to S6400                    @@1264=4453
 1020 01265 0000  D1265,  0000                / AND   S0000                           
 1021 01266 0021      AND   D0021             /                                       @@1266=0021
 1022 01267 7775  C1267,  7775                / CLA MQA SCA MQL ASR +                 
 1023 01270 7325      CLA CLL CML IAC RAL     / AC = 0003                             @@1270=7325
 1024 01271 1265      TAD   D1265             /                                       @@1271=1265
 1025 01272 3265      DCA   D1265             /                                       @@1272=3265
 1026 01273 2114      ISZ   D0114             /                                       @@1273=2114

      AUTOMATIC DISASSEMBLY OF MAINDEC-8E-D0LB-D-PB.bin BY D8TAPE        Page 19


 1027 01274 5663      JMP I S1263             / return                                @@1274=5663
 1028 01275 5575      JMP I C0175             / long jump to L5551                    @@1275=5575
 1029             L1276,
 1030 01276 4545      JMS I C0145             / long call to S5342                    @@1276=4545
 1031 01277 4305      JMS   S1305             /                                       @@1277=4305
 1032 01300 4543      JMS I C0143             / long call to S5325                    @@1300=4543
 1033 01301 7402      HLT                     /                                       @@1301=7402
 1034             L1302,
 1035 01302 4544      JMS I C0144             / long call to S5333                    @@1302=4544
 1036 01303 5247      JMP   L1247             /                                       @@1303=5247
 1037 01304 5246      JMP   L1246             /                                       @@1304=5246
 1038             
 1039             ////////////////////////////////////////////////////////////////////////////////
 1040             /
 1041             /   SUBROUTINE:  S1305
 1042             /
 1043             /   Called from:
 1044             /   1277 
 1045             /   Total 0001 (1) calls
 1046             ////////////////////////////////////////////////////////////////////////////////
 1047             S1305,
 1048 01305 0000      0                       / return area
 1049 01306 4534      JMS I C0134             / long call to S5707                    @@1306=4534
 1050 01307 7775  C1307,  7775                / CLA MQA SCA MQL ASR +                 
 1051 01310 7524      SMA SNL OSR             /                                       @@1310=7524
 1052 01311 7440      SZA                     /                                       @@1311=7440
 1053 01312 7443  C1312,  7443                / SCA SCL +                             
 1054 01313 4537      JMS I C0137             / long call to S7000                    @@1313=4537
 1055 01314 5705      JMP I S1305             / return                                @@1314=5705
 1056             
 1057             ////////////////////////////////////////////////////////////////////////////////
 1058             /
 1059             /   SUBROUTINE:  S1315
 1060             /
 1061             /   Called from:
 1062             /   1245 
 1063             /   Total 0001 (1) calls
 1064             ////////////////////////////////////////////////////////////////////////////////
 1065             S1315,
 1066 01315 0000      0                       / return area
 1067 01316 4540      JMS I C0140             / long call to S5520                    @@1316=4540
 1068 01317 1372      TAD   C1372             /                                       @@1317=1372
 1069 01320 3265      DCA   D1265             /                                       @@1320=3265
 1070 01321 1377      TAD   C1377             /                                       @@1321=1377
 1071 01322 3056      DCA   D0056             /                                       @@1322=3056
 1072 01323 1371      TAD   C1371             /                                       @@1323=1371
 1073 01324 3057      DCA   D0057             /                                       @@1324=3057
 1074 01325 1370      TAD   C1370             /                                       @@1325=1370
 1075 01326 3114      DCA   D0114             /                                       @@1326=3114
 1076 01327 4535      JMS I C0135             / long call to S5274                    @@1327=4535
 1077 01330 4536      JMS I C0136             / long call to S5317                    @@1330=4536
 1078 01331 7403  C1331,  7403                / SCL +                                 
 1079 01332 5715      JMP I S1315             / return                                @@1332=5715
 1080 01333 4767      JMS I C1367             / long call to S1400                    @@1333=4767
 1081             L1334,
 1082 01334 4552      JMS I C0152             / long call to S5732                    @@1334=4552
 1083             L1335,

      AUTOMATIC DISASSEMBLY OF MAINDEC-8E-D0LB-D-PB.bin BY D8TAPE        Page 20


 1084 01335 1023      TAD   D0023             /                                       @@1335=1023
 1085 01336 7421      MQL                     /                                       @@1336=7421
 1086 01337 4553      JMS I C0153             / long call to S5761                    @@1337=4553
 1087 01340 4556      JMS I C0156             / long call to S5503                    @@1340=4556
 1088 01341 1021      TAD   D0021             /                                       @@1341=1021
 1089 01342 7104      CLL RAL                 /                                       @@1342=7104
 1090 01343 1022      TAD   D0022             /                                       @@1343=1022
 1091 01344 7457  C1344,  7457                / SCA LSR +                             
 1092 01345 4541      JMS I C0141             / long call to S5410                    @@1345=4541
 1093 01346 4773      JMS I C1373             / long call to S6013                    @@1346=4773
 1094 01347 4452      JMS I L0052             / long call to S6345                    @@1347=4452
 1095 01350 7773  C1350,  7773                / CLA MQA SCA MQL SHL +                 
 1096 01351 5766      JMP I C1366             / long jump to L1411                    @@1351=5766
 1097 01352 5765      JMP I C1365             / long jump to L1415                    @@1352=5765
 1098             
 1099       1365  *1365
 1100             C1365,
 1101 01365 1415  C1365,  1415                / TAD I AI5                             
 1102             C1366,
 1103 01366 1411  C1366,  1411                / TAD I AI1                             
 1104             C1367,
 1105 01367 1400  C1367,  1400                / TAD I S0000                           
 1106 01370 7764  C1370,  7764                / SMA SZA SNL CLA OSR                   
 1107 01371 1333  C1371,  1333                / TAD   C1333                           
 1108 01372 7244  C1372,  7244                / CLA CMA RAL                           
 1109             C1373,
 1110 01373 6013  C1373,  6013                / 6013                                  
 1111             C1374,
 1112 01374 1066  C1374,  1066                / TAD   D0066                           
 1113             C1375,
 1114 01375 1137  C1375,  1137                / TAD   C0137                           
 1115             C1376,
 1116 01376 1136  C1376,  1136                / TAD   C0136                           
 1117 01377 1245  C1377,  1245                / TAD   C1245                           
 1118             
 1119       1400  *1400
 1120             
 1121             ////////////////////////////////////////////////////////////////////////////////
 1122             /
 1123             /   SUBROUTINE:  S1400
 1124             /
 1125             /   Called from:
 1126             /   1333 
 1127             /   Total 0001 (1) calls
 1128             ////////////////////////////////////////////////////////////////////////////////
 1129             S1400,
 1130 01400 0000      0                       / return area
 1131 01401 4540      JMS I C0140             / long call to S5520                    @@1401=4540
 1132 01402 1377      TAD   C1577             /                                       @@1402=1377
 1133 01403 3057      DCA   D0057             /                                       @@1403=3057
 1134 01404 1376      TAD   C1576             /                                       @@1404=1376
 1135 01405 3056      DCA   D0056             /                                       @@1405=3056
 1136 01406 4535      JMS I C0135             / long call to S5274                    @@1406=4535
 1137 01407 4536      JMS I C0136             / long call to S5317                    @@1407=4536
 1138 01410 5600      JMP I S1400             / return                                @@1410=5600
 1139             L1411,
 1140 01411 4545      JMS I C0145             / long call to S5342                    @@1411=4545

      AUTOMATIC DISASSEMBLY OF MAINDEC-8E-D0LB-D-PB.bin BY D8TAPE        Page 21


 1141 01412 4220      JMS   S1420             /                                       @@1412=4220
 1142 01413 4543      JMS I C0143             / long call to S5325                    @@1413=4543
 1143 01414 7402      HLT                     /                                       @@1414=7402
 1144             L1415,
 1145 01415 4544      JMS I C0144             / long call to S5333                    @@1415=4544
 1146 01416 5775      JMP I C1575             / long jump to L1335                    @@1416=5775
 1147 01417 5774      JMP I C1574             / long jump to L1334                    @@1417=5774
 1148             
 1149             ////////////////////////////////////////////////////////////////////////////////
 1150             /
 1151             /   SUBROUTINE:  S1420
 1152             /
 1153             /   Called from:
 1154             /   1412 
 1155             /   Total 0001 (1) calls
 1156             ////////////////////////////////////////////////////////////////////////////////
 1157             S1420,
 1158 01420 0000      0                       / return area
 1159 01421 4534      JMS I C0134             / long call to S5707                    @@1421=4534
 1160 01422 7775  C1422,  7775                / CLA MQA SCA MQL ASR +                 
 1161 01423 7524      SMA SNL OSR             /                                       @@1423=7524
 1162 01424 7440      SZA                     /                                       @@1424=7440
 1163 01425 7445  C1425,  7445                / SCA MUY +                             
 1164 01426 4537      JMS I C0137             / long call to S7000                    @@1426=4537
 1165 01427 5620      JMP I S1420             / return                                @@1427=5620
 1166 01430 4253      JMS   S1453             /                                       @@1430=4253
 1167             L1431,
 1168 01431 4542      JMS I L0142             / long call to S5546                    @@1431=4542
 1169             L1432,
 1170 01432 7331      CLA CLL CML IAC RAR     /                                       @@1432=7331
 1171 01433 3021      DCA   D0021             /                                       @@1433=3021
 1172 01434 1065      TAD   D0065             /                                       @@1434=1065
 1173 01435 3023      DCA   D0023             /                                       @@1435=3023
 1174 01436 3022      DCA   D0022             /                                       @@1436=3022
 1175 01437 1244      TAD   D1444             /                                       @@1437=1244
 1176 01440 3024      DCA   D0024             /                                       @@1440=3024
 1177 01441 1065      TAD   D0065             /                                       @@1441=1065
 1178 01442 7421      MQL                     /                                       @@1442=7421
 1179 01443 7413  C1443,  7413                / SHL +                                 
 1180 01444 0000  D1444,  0000                / AND   S0000                           
 1181 01445 4541      JMS I C0141             / long call to S5410                    @@1445=4541
 1182 01446 4773      JMS I C1573             / long call to S6042                    @@1446=4773
 1183 01447 4452      JMS I L0052             / long call to S6345                    @@1447=4452
 1184 01450 7773  C1450,  7773                / CLA MQA SCA MQL SHL +                 
 1185 01451 5274      JMP   L1474             /                                       @@1451=5274
 1186 01452 5300      JMP   L1500             /                                       @@1452=5300
 1187             
 1188             ////////////////////////////////////////////////////////////////////////////////
 1189             /
 1190             /   SUBROUTINE:  S1453
 1191             /
 1192             /   Called from:
 1193             /   1430 
 1194             /   Total 0001 (1) calls
 1195             ////////////////////////////////////////////////////////////////////////////////
 1196             S1453,
 1197 01453 0000      0                       / return area

      AUTOMATIC DISASSEMBLY OF MAINDEC-8E-D0LB-D-PB.bin BY D8TAPE        Page 22


 1198 01454 4540      JMS I C0140             / long call to S5520                    @@1454=4540
 1199 01455 3065      DCA   D0065             /                                       @@1455=3065
 1200 01456 3244      DCA   D1444             /                                       @@1456=3244
 1201 01457 1372      TAD   C1572             /                                       @@1457=1372
 1202 01460 3056      DCA   D0056             /                                       @@1460=3056
 1203 01461 1371      TAD   C1571             /                                       @@1461=1371
 1204 01462 3057      DCA   D0057             /                                       @@1462=3057
 1205 01463 1174      TAD   C0174             /                                       @@1463=1174
 1206 01464 3114      DCA   D0114             /                                       @@1464=3114
 1207 01465 4535      JMS I C0135             / long call to S5274                    @@1465=4535
 1208 01466 5653      JMP I S1453             / return                                @@1466=5653
 1209 01467 2244      ISZ   D1444             /                                       @@1467=2244
 1210 01470 2114      ISZ   D0114             /                                       @@1470=2114
 1211 01471 5231      JMP   L1431             /                                       @@1471=5231
 1212 01472 5673      JMP I C1473             / long jump to L1600                    @@1472=5673
 1213             C1473,
 1214 01473 1600  C1473,  1600                / TAD I S1400                           
 1215             L1474,
 1216 01474 4545      JMS I C0145             / long call to S5342                    @@1474=4545
 1217 01475 4303      JMS   S1503             /                                       @@1475=4303
 1218 01476 4543      JMS I C0143             / long call to S5325                    @@1476=4543
 1219 01477 7402      HLT                     /                                       @@1477=7402
 1220             L1500,
 1221 01500 4544      JMS I C0144             / long call to S5333                    @@1500=4544
 1222 01501 5232      JMP   L1432             /                                       @@1501=5232
 1223 01502 5231      JMP   L1431             /                                       @@1502=5231
 1224             
 1225             ////////////////////////////////////////////////////////////////////////////////
 1226             /
 1227             /   SUBROUTINE:  S1503
 1228             /
 1229             /   Called from:
 1230             /   1475 
 1231             /   Total 0001 (1) calls
 1232             ////////////////////////////////////////////////////////////////////////////////
 1233             S1503,
 1234 01503 0000      0                       / return area
 1235 01504 4534      JMS I C0134             / long call to S5707                    @@1504=4534
 1236 01505 7775  C1505,  7775                / CLA MQA SCA MQL ASR +                 
 1237 01506 7435  C1506,  7435                / MQL ASR +                             
 1238 01507 7440      SZA                     /                                       @@1507=7440
 1239 01510 7443  C1510,  7443                / SCA SCL +                             
 1240 01511 4547      JMS I C0147             / long call to S7070                    @@1511=4547
 1241 01512 4537      JMS I C0137             / long call to S7000                    @@1512=4537
 1242 01513 5703      JMP I S1503             / return                                @@1513=5703
 1243             
 1244       1571  *1571
 1245 01571 1467  C1571,  1467                / TAD I D0067                           
 1246 01572 1431  C1572,  1431                / TAD I C0031                           
 1247             C1573,
 1248 01573 6042  C1573,  6042                / TCF                                   
 1249             C1574,
 1250 01574 1334  C1574,  1334                / TAD   C1534                           
 1251             C1575,
 1252 01575 1335  C1575,  1335                / TAD   C1535                           
 1253 01576 1333  C1576,  1333                / TAD   C1533                           
 1254 01577 1430  C1577,  1430                / TAD I C0030                           

      AUTOMATIC DISASSEMBLY OF MAINDEC-8E-D0LB-D-PB.bin BY D8TAPE        Page 23


 1255             
 1256       1600  *1600
 1257             L1600,
 1258 01600 4216      JMS   S1616             /                                       @@1600=4216
 1259             L1601,
 1260 01601 4552      JMS I C0152             / long call to S5732                    @@1601=4552
 1261             L1602,
 1262 01602 4551      JMS I C0151             / long call to S5751                    @@1602=4551
 1263 01603 1024      TAD   D0024             /                                       @@1603=1024
 1264 01604 3207      DCA   D1607             /                                       @@1604=3207
 1265 01605 1022      TAD   D0022             /                                       @@1605=1022
 1266 01606 7413  C1606,  7413                / SHL +                                 
 1267 01607 0000  D1607,  0000                / AND   S0000                           
 1268 01610 4541      JMS I C0141             / long call to S5410                    @@1610=4541
 1269 01611 4777      JMS I C1777             / long call to S6042                    @@1611=4777
 1270 01612 4452      JMS I L0052             / long call to S6345                    @@1612=4452
 1271 01613 7773  C1613,  7773                / CLA MQA SCA MQL SHL +                 
 1272 01614 5226      JMP   L1626             /                                       @@1614=5226
 1273 01615 5232      JMP   L1632             /                                       @@1615=5232
 1274             
 1275             ////////////////////////////////////////////////////////////////////////////////
 1276             /
 1277             /   SUBROUTINE:  S1616
 1278             /
 1279             /   Called from:
 1280             /   1600 
 1281             /   Total 0001 (1) calls
 1282             ////////////////////////////////////////////////////////////////////////////////
 1283             S1616,
 1284 01616 0000      0                       / return area
 1285 01617 4540      JMS I C0140             / long call to S5520                    @@1617=4540
 1286 01620 1376      TAD   C1776             /                                       @@1620=1376
 1287 01621 3056      DCA   D0056             /                                       @@1621=3056
 1288 01622 1375      TAD   C1775             /                                       @@1622=1375
 1289 01623 3057      DCA   D0057             /                                       @@1623=3057
 1290 01624 4535      JMS I C0135             / long call to S5274                    @@1624=4535
 1291 01625 5616      JMP I S1616             / return                                @@1625=5616
 1292             L1626,
 1293 01626 4545      JMS I C0145             / long call to S5342                    @@1626=4545
 1294 01627 4235      JMS   S1635             /                                       @@1627=4235
 1295 01630 4543      JMS I C0143             / long call to S5325                    @@1630=4543
 1296 01631 7402      HLT                     /                                       @@1631=7402
 1297             L1632,
 1298 01632 4544      JMS I C0144             / long call to S5333                    @@1632=4544
 1299 01633 5202      JMP   L1602             /                                       @@1633=5202
 1300 01634 5201      JMP   L1601             /                                       @@1634=5201
 1301             
 1302             ////////////////////////////////////////////////////////////////////////////////
 1303             /
 1304             /   SUBROUTINE:  S1635
 1305             /
 1306             /   Called from:
 1307             /   1627 
 1308             /   Total 0001 (1) calls
 1309             ////////////////////////////////////////////////////////////////////////////////
 1310             S1635,
 1311 01635 0000      0                       / return area

      AUTOMATIC DISASSEMBLY OF MAINDEC-8E-D0LB-D-PB.bin BY D8TAPE        Page 24


 1312 01636 4534      JMS I C0134             / long call to S5707                    @@1636=4534
 1313 01637 7775  C1637,  7775                / CLA MQA SCA MQL ASR +                 
 1314 01640 7435  C1640,  7435                / MQL ASR +                             
 1315 01641 7440      SZA                     /                                       @@1641=7440
 1316 01642 7445  C1642,  7445                / SCA MUY +                             
 1317 01643 4547      JMS I C0147             / long call to S7070                    @@1643=4547
 1318 01644 4537      JMS I C0137             / long call to S7000                    @@1644=4537
 1319 01645 5635      JMP I S1635             / return                                @@1645=5635
 1320 01646 4272      JMS   S1672             /                                       @@1646=4272
 1321             L1647,
 1322 01647 4542      JMS I L0142             / long call to S5546                    @@1647=4542
 1323             L1650,
 1324 01650 1065      TAD   D0065             /                                       @@1650=1065
 1325 01651 4774      JMS I C1774             / long call to S6473                    @@1651=4774
 1326 01652 3022      DCA   D0022             /                                       @@1652=3022
 1327 01653 3023      DCA   D0023             /                                       @@1653=3023
 1328 01654 1263      TAD   D1663             /                                       @@1654=1263
 1329 01655 3024      DCA   D0024             /                                       @@1655=3024
 1330 01656 7331      CLA CLL CML IAC RAR     /                                       @@1656=7331
 1331 01657 3021      DCA   D0021             /                                       @@1657=3021
 1332 01660 7421      MQL                     /                                       @@1660=7421
 1333 01661 1022      TAD   D0022             /                                       @@1661=1022
 1334 01662 7417  C1662,  7417                / LSR +                                 
 1335 01663 0000  D1663,  0000                / AND   S0000                           
 1336 01664 4541      JMS I C0141             / long call to S5410                    @@1664=4541
 1337 01665 4773      JMS I C1773             / long call to S6120                    @@1665=4773
 1338 01666 4452      JMS I L0052             / long call to S6345                    @@1666=4452
 1339 01667 7773  C1667,  7773                / CLA MQA SCA MQL SHL +                 
 1340 01670 5313      JMP   L1713             /                                       @@1670=5313
 1341 01671 5317      JMP   L1717             /                                       @@1671=5317
 1342             
 1343             ////////////////////////////////////////////////////////////////////////////////
 1344             /
 1345             /   SUBROUTINE:  S1672
 1346             /
 1347             /   Called from:
 1348             /   1646 
 1349             /   Total 0001 (1) calls
 1350             ////////////////////////////////////////////////////////////////////////////////
 1351             S1672,
 1352 01672 0000      0                       / return area
 1353 01673 4540      JMS I C0140             / long call to S5520                    @@1673=4540
 1354 01674 3065      DCA   D0065             /                                       @@1674=3065
 1355 01675 3263      DCA   D1663             /                                       @@1675=3263
 1356 01676 1372      TAD   C1772             /                                       @@1676=1372
 1357 01677 3056      DCA   D0056             /                                       @@1677=3056
 1358 01700 1371      TAD   C1771             /                                       @@1700=1371
 1359 01701 3057      DCA   D0057             /                                       @@1701=3057
 1360 01702 1174      TAD   C0174             /                                       @@1702=1174
 1361 01703 3114      DCA   D0114             /                                       @@1703=3114
 1362 01704 4535      JMS I C0135             / long call to S5274                    @@1704=4535
 1363 01705 5672      JMP I S1672             / return                                @@1705=5672
 1364 01706 2263      ISZ   D1663             /                                       @@1706=2263
 1365 01707 2114      ISZ   D0114             /                                       @@1707=2114
 1366 01710 5247      JMP   L1647             /                                       @@1710=5247
 1367 01711 5712      JMP I C1712             / long jump to L2000                    @@1711=5712
 1368             C1712,

      AUTOMATIC DISASSEMBLY OF MAINDEC-8E-D0LB-D-PB.bin BY D8TAPE        Page 25


 1369 01712 2000  C1712,  2000                / ISZ   S0000                           
 1370             L1713,
 1371 01713 4545      JMS I C0145             / long call to S5342                    @@1713=4545
 1372 01714 4322      JMS   S1722             /                                       @@1714=4322
 1373 01715 4543      JMS I C0143             / long call to S5325                    @@1715=4543
 1374 01716 7402      HLT                     /                                       @@1716=7402
 1375             L1717,
 1376 01717 4544      JMS I C0144             / long call to S5333                    @@1717=4544
 1377 01720 5250      JMP   L1650             /                                       @@1720=5250
 1378 01721 5247      JMP   L1647             /                                       @@1721=5247
 1379             
 1380             ////////////////////////////////////////////////////////////////////////////////
 1381             /
 1382             /   SUBROUTINE:  S1722
 1383             /
 1384             /   Called from:
 1385             /   1714 
 1386             /   Total 0001 (1) calls
 1387             ////////////////////////////////////////////////////////////////////////////////
 1388             S1722,
 1389 01722 0000      0                       / return area
 1390 01723 4534      JMS I C0134             / long call to S5707                    @@1723=4534
 1391 01724 7775  C1724,  7775                / CLA MQA SCA MQL ASR +                 
 1392 01725 7453  C1725,  7453                / SCA SHL +                             
 1393 01726 7440      SZA                     /                                       @@1726=7440
 1394 01727 7443  C1727,  7443                / SCA SCL +                             
 1395 01730 4547      JMS I C0147             / long call to S7070                    @@1730=4547
 1396 01731 4537      JMS I C0137             / long call to S7000                    @@1731=4537
 1397 01732 5722      JMP I S1722             / return                                @@1732=5722
 1398             
 1399       1771  *1771
 1400 01771 1706  C1771,  1706                / TAD I C1706                           
 1401 01772 1647  C1772,  1647                / TAD I L1647                           
 1402             C1773,
 1403 01773 6120  C1773,  6120                / 6120                                  
 1404             C1774,
 1405 01774 6473  C1774,  6473                / 6473                                  
 1406 01775 1646  C1775,  1646                / TAD I C1646                           
 1407 01776 1600  C1776,  1600                / TAD I L1600                           
 1408             C1777,
 1409 01777 6042  C1777,  6042                / TCF                                   
 1410             
 1411       2000  *2000
 1412             L2000,
 1413 02000 4216  D2000,  4216                / JMS   S2016                           
 1414             L2001,
 1415 02001 4552      JMS I C0152             / long call to S5732                    @@2001=4552
 1416             L2002,
 1417 02002 4551      JMS I C0151             / long call to S5751                    @@2002=4551
 1418 02003 1024      TAD   D0024             /                                       @@2003=1024
 1419 02004 3207      DCA   D2007             /                                       @@2004=3207
 1420 02005 1022      TAD   D0022             /                                       @@2005=1022
 1421 02006 7417  C2006,  7417                / LSR +                                 
 1422 02007 0000  D2007,  0000                / AND   S0000                           
 1423 02010 4541      JMS I C0141             / long call to S5410                    @@2010=4541
 1424 02011 4777      JMS I C2177             / long call to S6120                    @@2011=4777
 1425 02012 4452      JMS I L0052             / long call to S6345                    @@2012=4452

      AUTOMATIC DISASSEMBLY OF MAINDEC-8E-D0LB-D-PB.bin BY D8TAPE        Page 26


 1426 02013 7773  C2013,  7773                / CLA MQA SCA MQL SHL +                 
 1427 02014 5226      JMP   L2026             /                                       @@2014=5226
 1428 02015 5232      JMP   L2032             /                                       @@2015=5232
 1429             
 1430             ////////////////////////////////////////////////////////////////////////////////
 1431             /
 1432             /   SUBROUTINE:  S2016
 1433             /
 1434             /   Never called
 1435             ////////////////////////////////////////////////////////////////////////////////
 1436             S2016,
 1437 02016 0000      0                       / return area
 1438 02017 4540      JMS I C0140             / long call to S5520                    @@2017=4540
 1439 02020 1376      TAD   C2176             /                                       @@2020=1376
 1440 02021 3056      DCA   D0056             /                                       @@2021=3056
 1441 02022 1375      TAD   C2175             /                                       @@2022=1375
 1442 02023 3057      DCA   D0057             /                                       @@2023=3057
 1443 02024 4535      JMS I C0135             / long call to S5274                    @@2024=4535
 1444 02025 5616      JMP I S2016             / return                                @@2025=5616
 1445             L2026,
 1446 02026 4545      JMS I C0145             / long call to S5342                    @@2026=4545
 1447 02027 4235      JMS   S2035             /                                       @@2027=4235
 1448 02030 4543      JMS I C0143             / long call to S5325                    @@2030=4543
 1449 02031 7402      HLT                     /                                       @@2031=7402
 1450             L2032,
 1451 02032 4544      JMS I C0144             / long call to S5333                    @@2032=4544
 1452 02033 5202      JMP   L2002             /                                       @@2033=5202
 1453 02034 5201      JMP   L2001             /                                       @@2034=5201
 1454             
 1455             ////////////////////////////////////////////////////////////////////////////////
 1456             /
 1457             /   SUBROUTINE:  S2035
 1458             /
 1459             /   Called from:
 1460             /   2027 
 1461             /   Total 0001 (1) calls
 1462             ////////////////////////////////////////////////////////////////////////////////
 1463             S2035,
 1464 02035 0000      0                       / return area
 1465 02036 4534      JMS I C0134             / long call to S5707                    @@2036=4534
 1466 02037 7775  C2037,  7775                / CLA MQA SCA MQL ASR +                 
 1467 02040 7453  C2040,  7453                / SCA SHL +                             
 1468 02041 7440      SZA                     /                                       @@2041=7440
 1469 02042 7445  C2042,  7445                / SCA MUY +                             
 1470 02043 4547      JMS I C0147             / long call to S7070                    @@2043=4547
 1471 02044 4537      JMS I C0137             / long call to S7000                    @@2044=4537
 1472 02045 5635      JMP I S2035             / return                                @@2045=5635
 1473 02046 4272      JMS   S2072             /                                       @@2046=4272
 1474             L2047,
 1475 02047 4542      JMS I L0142             / long call to S5546                    @@2047=4542
 1476             L2050,
 1477 02050 1065      TAD   D0065             /                                       @@2050=1065
 1478 02051 4774      JMS I C2174             / long call to S6473                    @@2051=4774
 1479 02052 3022      DCA   D0022             /                                       @@2052=3022
 1480 02053 3023      DCA   D0023             /                                       @@2053=3023
 1481 02054 1263      TAD   D2063             /                                       @@2054=1263
 1482 02055 3024      DCA   D0024             /                                       @@2055=3024

      AUTOMATIC DISASSEMBLY OF MAINDEC-8E-D0LB-D-PB.bin BY D8TAPE        Page 27


 1483 02056 7331      CLA CLL CML IAC RAR     /                                       @@2056=7331
 1484 02057 3021      DCA   D0021             /                                       @@2057=3021
 1485 02060 7421      MQL                     /                                       @@2060=7421
 1486 02061 1022      TAD   D0022             /                                       @@2061=1022
 1487 02062 7415  C2062,  7415                / ASR +                                 
 1488 02063 0000  D2063,  0000                / AND   S0000                           
 1489 02064 4541      JMS I C0141             / long call to S5410                    @@2064=4541
 1490 02065 4773      JMS I C2173             / long call to S6200                    @@2065=4773
 1491 02066 4452      JMS I L0052             / long call to S6345                    @@2066=4452
 1492 02067 7773  C2067,  7773                / CLA MQA SCA MQL SHL +                 
 1493 02070 5313      JMP   L2113             /                                       @@2070=5313
 1494 02071 5317      JMP   L2117             /                                       @@2071=5317
 1495             
 1496             ////////////////////////////////////////////////////////////////////////////////
 1497             /
 1498             /   SUBROUTINE:  S2072
 1499             /
 1500             /   Called from:
 1501             /   2046 
 1502             /   Total 0001 (1) calls
 1503             ////////////////////////////////////////////////////////////////////////////////
 1504             S2072,
 1505 02072 0000      0                       / return area
 1506 02073 4540      JMS I C0140             / long call to S5520                    @@2073=4540
 1507 02074 3065      DCA   D0065             /                                       @@2074=3065
 1508 02075 3263      DCA   D2063             /                                       @@2075=3263
 1509 02076 1372      TAD   C2172             /                                       @@2076=1372
 1510 02077 3056      DCA   D0056             /                                       @@2077=3056
 1511 02100 1371      TAD   C2171             /                                       @@2100=1371
 1512 02101 3057      DCA   D0057             /                                       @@2101=3057
 1513 02102 1174      TAD   C0174             /                                       @@2102=1174
 1514 02103 3114      DCA   D0114             /                                       @@2103=3114
 1515 02104 4535      JMS I C0135             / long call to S5274                    @@2104=4535
 1516 02105 5672      JMP I S2072             / return                                @@2105=5672
 1517 02106 2263      ISZ   D2063             /                                       @@2106=2263
 1518 02107 2114      ISZ   D0114             /                                       @@2107=2114
 1519 02110 5247      JMP   L2047             /                                       @@2110=5247
 1520 02111 5712      JMP I C2112             / long jump to L2200                    @@2111=5712
 1521             C2112,
 1522 02112 2200  C2112,  2200                / ISZ   L2000                           
 1523             L2113,
 1524 02113 4545      JMS I C0145             / long call to S5342                    @@2113=4545
 1525 02114 4322      JMS   S2122             /                                       @@2114=4322
 1526 02115 4543      JMS I C0143             / long call to S5325                    @@2115=4543
 1527 02116 7402      HLT                     /                                       @@2116=7402
 1528             L2117,
 1529 02117 4544      JMS I C0144             / long call to S5333                    @@2117=4544
 1530 02120 5250      JMP   L2050             /                                       @@2120=5250
 1531 02121 5247      JMP   L2047             /                                       @@2121=5247
 1532             
 1533             ////////////////////////////////////////////////////////////////////////////////
 1534             /
 1535             /   SUBROUTINE:  S2122
 1536             /
 1537             /   Called from:
 1538             /   2114 
 1539             /   Total 0001 (1) calls

      AUTOMATIC DISASSEMBLY OF MAINDEC-8E-D0LB-D-PB.bin BY D8TAPE        Page 28


 1540             ////////////////////////////////////////////////////////////////////////////////
 1541             S2122,
 1542 02122 0000      0                       / return area
 1543 02123 4534      JMS I C0134             / long call to S5707                    @@2123=4534
 1544 02124 7775  C2124,  7775                / CLA MQA SCA MQL ASR +                 
 1545 02125 7462      SZA SNL HLT             /                                       @@2125=7462
 1546 02126 7440      SZA                     /                                       @@2126=7440
 1547 02127 7443  C2127,  7443                / SCA SCL +                             
 1548 02130 4547      JMS I C0147             / long call to S7070                    @@2130=4547
 1549 02131 4537      JMS I C0137             / long call to S7000                    @@2131=4537
 1550 02132 5722      JMP I S2122             / return                                @@2132=5722
 1551             
 1552       2171  *2171
 1553 02171 2106  C2171,  2106                / ISZ   D0106                           
 1554 02172 2047  C2172,  2047                / ISZ   C0047                           
 1555             C2173,
 1556 02173 6200  C2173,  6200                / 6200                                  
 1557             C2174,
 1558 02174 6473  C2174,  6473                / 6473                                  
 1559 02175 2046  C2175,  2046                / ISZ   D0046                           
 1560 02176 2000  C2176,  2000                / ISZ   S0000                           
 1561             C2177,
 1562 02177 6120  C2177,  6120                / 6120                                  
 1563             
 1564       2200  *2200
 1565             L2200,
 1566 02200 4216      JMS   S2216             /                                       @@2200=4216
 1567             L2201,
 1568 02201 4552      JMS I C0152             / long call to S5732                    @@2201=4552
 1569             L2202,
 1570 02202 4551      JMS I C0151             / long call to S5751                    @@2202=4551
 1571 02203 1024      TAD   D0024             /                                       @@2203=1024
 1572 02204 3207      DCA   D2207             /                                       @@2204=3207
 1573 02205 1022      TAD   D0022             /                                       @@2205=1022
 1574 02206 7415  C2206,  7415                / ASR +                                 
 1575 02207 0000  D2207,  0000                / AND   S0000                           
 1576 02210 4541      JMS I C0141             / long call to S5410                    @@2210=4541
 1577 02211 4777      JMS I C2377             / long call to S6200                    @@2211=4777
 1578 02212 4452      JMS I L0052             / long call to S6345                    @@2212=4452
 1579 02213 7773  C2213,  7773                / CLA MQA SCA MQL SHL +                 
 1580 02214 5226      JMP   L2226             /                                       @@2214=5226
 1581 02215 5232      JMP   L2232             /                                       @@2215=5232
 1582             
 1583             ////////////////////////////////////////////////////////////////////////////////
 1584             /
 1585             /   SUBROUTINE:  S2216
 1586             /
 1587             /   Called from:
 1588             /   2200 
 1589             /   Total 0001 (1) calls
 1590             ////////////////////////////////////////////////////////////////////////////////
 1591             S2216,
 1592 02216 0000      0                       / return area
 1593 02217 4540      JMS I C0140             / long call to S5520                    @@2217=4540
 1594 02220 1376      TAD   C2376             /                                       @@2220=1376
 1595 02221 3056      DCA   D0056             /                                       @@2221=3056
 1596 02222 1375      TAD   C2375             /                                       @@2222=1375

      AUTOMATIC DISASSEMBLY OF MAINDEC-8E-D0LB-D-PB.bin BY D8TAPE        Page 29


 1597 02223 3057      DCA   D0057             /                                       @@2223=3057
 1598 02224 4535      JMS I C0135             / long call to S5274                    @@2224=4535
 1599 02225 5616      JMP I S2216             / return                                @@2225=5616
 1600             L2226,
 1601 02226 4545      JMS I C0145             / long call to S5342                    @@2226=4545
 1602 02227 4235      JMS   S2235             /                                       @@2227=4235
 1603 02230 4543      JMS I C0143             / long call to S5325                    @@2230=4543
 1604 02231 7402      HLT                     /                                       @@2231=7402
 1605             L2232,
 1606 02232 4544      JMS I C0144             / long call to S5333                    @@2232=4544
 1607 02233 5202      JMP   L2202             /                                       @@2233=5202
 1608 02234 5201      JMP   L2201             /                                       @@2234=5201
 1609             
 1610             ////////////////////////////////////////////////////////////////////////////////
 1611             /
 1612             /   SUBROUTINE:  S2235
 1613             /
 1614             /   Called from:
 1615             /   2227 
 1616             /   Total 0001 (1) calls
 1617             ////////////////////////////////////////////////////////////////////////////////
 1618             S2235,
 1619 02235 0000      0                       / return area
 1620 02236 4534      JMS I C0134             / long call to S5707                    @@2236=4534
 1621 02237 7775  C2237,  7775                / CLA MQA SCA MQL ASR +                 
 1622 02240 7462      SZA SNL HLT             /                                       @@2240=7462
 1623 02241 7440      SZA                     /                                       @@2241=7440
 1624 02242 7445  C2242,  7445                / SCA MUY +                             
 1625 02243 4547      JMS I C0147             / long call to S7070                    @@2243=4547
 1626 02244 4537      JMS I C0137             / long call to S7000                    @@2244=4537
 1627 02245 5635      JMP I S2235             / return                                @@2245=5635
 1628             L2246,
 1629 02246 4774      JMS I C2374             / long call to S2400                    @@2246=4774
 1630 02247 7320      CLA CLL CML             /                                       @@2247=7320
 1631             L2250,
 1632 02250 4773      JMS I C2373             / long call to S2476                    @@2250=4773
 1633             L2251,
 1634 02251 7300      CLA CLL                 / AC = 0000                             @@2251=7300
 1635 02252 1044      TAD   D0044             /                                       @@2252=1044
 1636 02253 1043      TAD   D0043             /                                       @@2253=1043
 1637 02254 7650      SNA CLA                 /                                       @@2254=7650
 1638 02255 7430      SZL                     /                                       @@2255=7430
 1639 02256 4302      JMS   S2302             /                                       @@2256=4302
 1640 02257 4313      JMS   S2313             /                                       @@2257=4313
 1641 02260 7331      CLA CLL CML IAC RAR     /                                       @@2260=7331
 1642 02261 3042      DCA   D0042             /                                       @@2261=3042
 1643 02262 1042      TAD   D0042             /                                       @@2262=1042
 1644 02263 3021      DCA   D0021             /                                       @@2263=3021
 1645 02264 1044      TAD   D0044             /                                       @@2264=1044
 1646 02265 7421      MQL                     /                                       @@2265=7421
 1647 02266 1043      TAD   D0043             /                                       @@2266=1043
 1648 02267 7451  C2267,  7451                / SCA NMI                               
 1649 02270 0000  D2270,  0000                / AND   S0000                           
 1650 02271 0000  D2271,  0000                / AND   S0000                           
 1651 02272 4541      JMS I C0141             / long call to S5410                    @@2272=4541
 1652 02273 4452      JMS I L0052             / long call to S6345                    @@2273=4452
 1653 02274 7775  C2274,  7775                / CLA MQA SCA MQL ASR +                 

      AUTOMATIC DISASSEMBLY OF MAINDEC-8E-D0LB-D-PB.bin BY D8TAPE        Page 30


 1654 02275 7610      SKP CLA                 /                                       @@2275=7610
 1655 02276 5772      JMP I C2372             / long jump to L2517                    @@2276=5772
 1656 02277 1371      TAD   C2371             /                                       @@2277=1371
 1657 02300 3770      DCA I C2370             /                                       @@2300=3770
 1658 02301 5767      JMP I C2367             / long jump to L2513                    @@2301=5767
 1659             
 1660             ////////////////////////////////////////////////////////////////////////////////
 1661             /
 1662             /   SUBROUTINE:  S2302
 1663             /
 1664             /   Called from:
 1665             /   2256 
 1666             /   Total 0001 (1) calls
 1667             ////////////////////////////////////////////////////////////////////////////////
 1668             S2302,
 1669 02302 0000      0                       / return area
 1670 02303 1366      TAD   C2366             /                                       @@2303=1366
 1671 02304 3270      DCA   D2270             /                                       @@2304=3270
 1672 02305 1364      TAD   C2364             /                                       @@2305=1364
 1673 02306 3271      DCA   D2271             /                                       @@2306=3271
 1674 02307 1363      TAD   C2363             /                                       @@2307=1363
 1675 02310 3770      DCA I C2370             /                                       @@2310=3770
 1676 02311 2302  C2311,  2302                / ISZ   S2302                           
 1677 02312 5702      JMP I S2302             / return                                @@2312=5702
 1678             
 1679             ////////////////////////////////////////////////////////////////////////////////
 1680             /
 1681             /   SUBROUTINE:  S2313
 1682             /
 1683             /   Called from:
 1684             /   2257 
 1685             /   Total 0001 (1) calls
 1686             ////////////////////////////////////////////////////////////////////////////////
 1687             S2313,
 1688 02313 0000      0                       / return area
 1689 02314 1366      TAD   C2366             /                                       @@2314=1366
 1690 02315 3271      DCA   D2271             /                                       @@2315=3271
 1691 02316 1364      TAD   C2364             /                                       @@2316=1364
 1692 02317 3270      DCA   D2270             /                                       @@2317=3270
 1693 02320 1362      TAD   C2362             /                                       @@2320=1362
 1694 02321 3770      DCA I C2370             /                                       @@2321=3770
 1695 02322 5713      JMP I S2313             / return                                @@2322=5713
 1696             
 1697       2362  *2362
 1698 02362 7554  C2362,  7554                / SPA SNA OSR                           
 1699 02363 7545  C2363,  7545                / MQA SCA MUY +                         
 1700 02364 5765  C2364,  5765                / JMP I C2365                           
 1701 02365 2512      ISZ I C0112             /                                       @@2365=2512
 1702 02366 5272  C2366,  5272                / JMP   C2272                           
 1703             C2367,
 1704 02367 2513  C2367,  2513                / ISZ I C0113                           
 1705 02370 5544  C2370,  5544                / JMP I C0144                           
 1706 02371 7565  C2371,  7565                / MQA SCA MQL MUY +                     
 1707             C2372,
 1708 02372 2517  C2372,  2517                / ISZ I L0117                           
 1709             C2373,
 1710 02373 2476  C2373,  2476                / ISZ I C0076                           

      AUTOMATIC DISASSEMBLY OF MAINDEC-8E-D0LB-D-PB.bin BY D8TAPE        Page 31


 1711             C2374,
 1712 02374 2400  C2374,  2400                / ISZ I S0000                           
 1713 02375 2246  C2375,  2246                / ISZ   L2246                           
 1714 02376 2200  C2376,  2200                / ISZ   L2200                           
 1715             C2377,
 1716 02377 6200  C2377,  6200                / 6200                                  
 1717             
 1718       2400  *2400
 1719             
 1720             ////////////////////////////////////////////////////////////////////////////////
 1721             /
 1722             /   SUBROUTINE:  S2400
 1723             /
 1724             /   Called from:
 1725             /   2246 
 1726             /   Total 0001 (1) calls
 1727             ////////////////////////////////////////////////////////////////////////////////
 1728             S2400,
 1729 02400 0000      0                       / return area
 1730 02401 4540      JMS I C0140             / long call to S5520                    @@2401=4540
 1731 02402 1377      TAD   C2577             /                                       @@2402=1377
 1732 02403 3056      DCA   D0056             /                                       @@2403=3056
 1733 02404 1376      TAD   C2576             /                                       @@2404=1376
 1734 02405 3057      DCA   D0057             /                                       @@2405=3057
 1735 02406 1775      TAD I C2575             /                                       @@2406=1775
 1736 02407 3774      DCA I C2574             /                                       @@2407=3774
 1737 02410 7344      CLA CLL CMA RAL         / AC = 7776 (-0002)                     @@2410=7344
 1738 02411 3273      DCA   D2473             /                                       @@2411=3273
 1739 02412 7344      CLA CLL CMA RAL         / AC = 7776 (-0002)                     @@2412=7344
 1740 02413 3274      DCA   D2474             /                                       @@2413=3274
 1741 02414 7344      CLA CLL CMA RAL         / AC = 7776 (-0002)                     @@2414=7344
 1742 02415 3275      DCA   D2475             /                                       @@2415=3275
 1743 02416 1373      TAD   C2573             /                                       @@2416=1373
 1744 02417 3114      DCA   D0114             /                                       @@2417=3114
 1745 02420 4535      JMS I C0135             / long call to S5274                    @@2420=4535
 1746 02421 1115      TAD   D0115             /                                       @@2421=1115
 1747 02422 7700      SMA CLA                 /                                       @@2422=7700
 1748 02423 5264      JMP   L2464             /                                       @@2423=5264
 1749 02424 7403  C2424,  7403                / SCL +                                 
 1750 02425 5600      JMP I S2400             / return                                @@2425=5600
 1751             L2426,
 1752 02426 2114      ISZ   D0114             /                                       @@2426=2114
 1753 02427 5772      JMP I C2572             / long jump to L2251                    @@2427=5772
 1754 02430 7340      CLA CLL CMA             / AC = 7777 (-0001)                     @@2430=7340
 1755 02431 3114      DCA   D0114             /                                       @@2431=3114
 1756 02432 7240      STA                     / AC = 7777 (-0001)                     @@2432=7240
 1757 02433 3043      DCA   D0043             /                                       @@2433=3043
 1758 02434 3044      DCA   D0044             /                                       @@2434=3044
 1759 02435 2273      ISZ   D2473             /                                       @@2435=2273
 1760 02436 5772      JMP I C2572             / long jump to L2251                    @@2436=5772
 1761 02437 7240      STA                     / AC = 7777 (-0001)                     @@2437=7240
 1762 02440 3114      DCA   D0114             /                                       @@2440=3114
 1763 02441 7240      STA                     / AC = 7777 (-0001)                     @@2441=7240
 1764 02442 3273      DCA   D2473             /                                       @@2442=3273
 1765 02443 7240      STA                     / AC = 7777 (-0001)                     @@2443=7240
 1766 02444 3044      DCA   D0044             /                                       @@2444=3044
 1767 02445 3043      DCA   D0043             /                                       @@2445=3043

      AUTOMATIC DISASSEMBLY OF MAINDEC-8E-D0LB-D-PB.bin BY D8TAPE        Page 32


 1768 02446 2274      ISZ   D2474             /                                       @@2446=2274
 1769 02447 5772      JMP I C2572             / long jump to L2251                    @@2447=5772
 1770 02450 7240  D2450,  7240                / STA                                   
 1771 02451 3114  D2451,  3114                / DCA   D0114                           
 1772 02452 7040      CMA                     /                                       @@2452=7040
 1773 02453 3273      DCA   D2473             /                                       @@2453=3273
 1774 02454 7040      CMA                     /                                       @@2454=7040
 1775 02455 3274      DCA   D2474             /                                       @@2455=3274
 1776 02456 7040      CMA                     /                                       @@2456=7040
 1777 02457 3044      DCA   D0044             /                                       @@2457=3044
 1778 02460 7040      CMA                     /                                       @@2460=7040
 1779 02461 3043      DCA   D0043             /                                       @@2461=3043
 1780 02462 2275      ISZ   D2475             /                                       @@2462=2275
 1781 02463 5772      JMP I C2572             / long jump to L2251                    @@2463=5772
 1782             L2464,
 1783 02464 7604      LAS                     /                                       @@2464=7604
 1784 02465 7006      RTL                     /                                       @@2465=7006
 1785 02466 7004      RAL                     /                                       @@2466=7004
 1786 02467 7710      SPA CLA                 /                                       @@2467=7710
 1787 02470 5777      JMP I C2577             / long jump to L2246                    @@2470=5777
 1788 02471 5672      JMP I C2472             / long jump to L2600                    @@2471=5672
 1789             C2472,
 1790 02472 2600  C2472,  2600                / ISZ I S2400                           
 1791 02473 0000  D2473,  0000                / AND   S0000                           
 1792 02474 0000  D2474,  0000                / AND   S0000                           
 1793 02475 0000  D2475,  0000                / AND   S0000                           
 1794 02476 0000      AND   S0000             /                                       @@2476=0000
 1795 02477 1044      TAD   D0044             /                                       @@2477=1044
 1796 02500 7004      RAL                     /                                       @@2500=7004
 1797 02501 3044      DCA   D0044             /                                       @@2501=3044
 1798 02502 1043      TAD   D0043             /                                       @@2502=1043
 1799 02503 7004      RAL                     /                                       @@2503=7004
 1800 02504 3043      DCA   D0043             /                                       @@2504=3043
 1801 02505 1043      TAD   D0043             /                                       @@2505=1043
 1802 02506 3022      DCA   D0022             /                                       @@2506=3022
 1803 02507 1044      TAD   D0044             /                                       @@2507=1044
 1804 02510 3023      DCA   D0023             /                                       @@2510=3023
 1805 02511 5226      JMP   L2426             /                                       @@2511=5226
 1806 02512 4541      JMS I C0141             / long call to S5410                    @@2512=4541
 1807             L2513,
 1808 02513 4545      JMS I C0145             / long call to S5342                    @@2513=4545
 1809 02514 4323      JMS   S2523             /                                       @@2514=4323
 1810 02515 4543      JMS I C0143             / long call to S5325                    @@2515=4543
 1811 02516 7402      HLT                     /                                       @@2516=7402
 1812             L2517,
 1813 02517 4544      JMS I C0144             / long call to S5333                    @@2517=4544
 1814 02520 5772      JMP I C2572             / long jump to L2251                    @@2520=5772
 1815 02521 7100      CLL                     /                                       @@2521=7100
 1816 02522 5771      JMP I C2571             / long jump to L2250                    @@2522=5771
 1817             
 1818             ////////////////////////////////////////////////////////////////////////////////
 1819             /
 1820             /   SUBROUTINE:  S2523
 1821             /
 1822             /   Called from:
 1823             /   2514 
 1824             /   Total 0001 (1) calls

      AUTOMATIC DISASSEMBLY OF MAINDEC-8E-D0LB-D-PB.bin BY D8TAPE        Page 33


 1825             ////////////////////////////////////////////////////////////////////////////////
 1826             S2523,
 1827 02523 0000      0                       / return area
 1828 02524 4534      JMS I C0134             / long call to S5707                    @@2524=4534
 1829 02525 7775  C2525,  7775                / CLA MQA SCA MQL ASR +                 
 1830 02526 7465  C2526,  7465                / SCA MQL MUY +                         
 1831 02527 7440      SZA                     /                                       @@2527=7440
 1832 02530 7443  C2530,  7443                / SCA SCL +                             
 1833 02531 4537      JMS I C0137             / long call to S7000                    @@2531=4537
 1834 02532 5723      JMP I S2523             / return                                @@2532=5723
 1835             
 1836       2571  *2571
 1837             C2571,
 1838 02571 2250  C2571,  2250                / ISZ   D2450                           
 1839             C2572,
 1840 02572 2251  C2572,  2251                / ISZ   D2451                           
 1841 02573 7746  C2573,  7746                / SMA SZA CLA OSR HLT                   
 1842 02574 7002  C2574,  7002                / BSW                                   
 1843 02575 7045  C2575,  7045                / CMA IAC RAL                           
 1844 02576 2426  C2576,  2426                / ISZ I C0026                           
 1845             C2577,
 1846 02577 2246  C2577,  2246                / ISZ   C2446                           
 1847             
 1848       2600  *2600
 1849             L2600,
 1850 02600 4221      JMS   S2621             /                                       @@2600=4221
 1851             L2601,
 1852 02601 4542      JMS I L0142             / long call to S5546                    @@2601=4542
 1853             L2602,
 1854 02602 7240      STA                     / AC = 7777 (-0001)                     @@2602=7240
 1855 02603 3022      DCA   D0022             /                                       @@2603=3022
 1856 02604 3021      DCA   D0021             /                                       @@2604=3021
 1857 02605 1065      TAD   D0065             /                                       @@2605=1065
 1858 02606 7421      MQL                     /                                       @@2606=7421
 1859 02607 7701      CLA MQA                 /                                       @@2607=7701
 1860 02610 3023      DCA   D0023             /                                       @@2610=3023
 1861 02611 7240      STA                     / AC = 7777 (-0001)                     @@2611=7240
 1862 02612 7573  C2612,  7573                / MQA SCA MQL SHL +                     
 1863 02613 4541      JMS I C0141             / long call to S5410                    @@2613=4541
 1864 02614 4777      JMS I C2777             / long call to S6273                    @@2614=4777
 1865 02615 4452      JMS I L0052             / long call to S6345                    @@2615=4452
 1866 02616 7775  C2616,  7775                / CLA MQA SCA MQL ASR +                 
 1867 02617 5234      JMP   L2634             /                                       @@2617=5234
 1868 02620 5240      JMP   L2640             /                                       @@2620=5240
 1869             
 1870             ////////////////////////////////////////////////////////////////////////////////
 1871             /
 1872             /   SUBROUTINE:  S2621
 1873             /
 1874             /   Called from:
 1875             /   2600 
 1876             /   Total 0001 (1) calls
 1877             ////////////////////////////////////////////////////////////////////////////////
 1878             S2621,
 1879 02621 0000      0                       / return area
 1880 02622 4540      JMS I C0140             / long call to S5520                    @@2622=4540
 1881 02623 3065      DCA   D0065             /                                       @@2623=3065

      AUTOMATIC DISASSEMBLY OF MAINDEC-8E-D0LB-D-PB.bin BY D8TAPE        Page 34


 1882 02624 1376      TAD   C2776             /                                       @@2624=1376
 1883 02625 3056      DCA   D0056             /                                       @@2625=3056
 1884 02626 1375      TAD   C2775             /                                       @@2626=1375
 1885 02627 3057      DCA   D0057             /                                       @@2627=3057
 1886 02630 4535      JMS I C0135             / long call to S5274                    @@2630=4535
 1887 02631 4536      JMS I C0136             / long call to S5317                    @@2631=4536
 1888 02632 7403  C2632,  7403                / SCL +                                 
 1889 02633 5621      JMP I S2621             / return                                @@2633=5621
 1890             L2634,
 1891 02634 4545      JMS I C0145             / long call to S5342                    @@2634=4545
 1892 02635 4243      JMS   S2643             /                                       @@2635=4243
 1893 02636 4543      JMS I C0143             / long call to S5325                    @@2636=4543
 1894 02637 7402      HLT                     /                                       @@2637=7402
 1895             L2640,
 1896 02640 4544      JMS I C0144             / long call to S5333                    @@2640=4544
 1897 02641 5202      JMP   L2602             /                                       @@2641=5202
 1898 02642 5201      JMP   L2601             /                                       @@2642=5201
 1899             
 1900             ////////////////////////////////////////////////////////////////////////////////
 1901             /
 1902             /   SUBROUTINE:  S2643
 1903             /
 1904             /   Called from:
 1905             /   2635 
 1906             /   Total 0001 (1) calls
 1907             ////////////////////////////////////////////////////////////////////////////////
 1908             S2643,
 1909 02643 0000      0                       / return area
 1910 02644 4534      JMS I C0134             / long call to S5707                    @@2644=4534
 1911 02645 7775  C2645,  7775                / CLA MQA SCA MQL ASR +                 
 1912 02646 7470      SNA SZL                 /                                       @@2646=7470
 1913 02647 7440      SZA                     /                                       @@2647=7440
 1914 02650 7443  C2650,  7443                / SCA SCL +                             
 1915 02651 4537      JMS I C0137             / long call to S7000                    @@2651=4537
 1916 02652 5643      JMP I S2643             / return                                @@2652=5643
 1917 02653 4267      JMS   S2667             /                                       @@2653=4267
 1918             L2654,
 1919 02654 4552      JMS I C0152             / long call to S5732                    @@2654=4552
 1920             L2655,
 1921 02655 4556      JMS I C0156             / long call to S5503                    @@2655=4556
 1922 02656 4551      JMS I C0151             / long call to S5751                    @@2656=4551
 1923 02657 1022      TAD   D0022             /                                       @@2657=1022
 1924 02660 7573  C2660,  7573                / MQA SCA MQL SHL +                     
 1925 02661 4541      JMS I C0141             / long call to S5410                    @@2661=4541
 1926 02662 4777      JMS I C2777             / long call to S6273                    @@2662=4777
 1927 02663 4452      JMS I L0052             / long call to S6345                    @@2663=4452
 1928 02664 7773  C2664,  7773                / CLA MQA SCA MQL SHL +                 
 1929 02665 5300      JMP   L2700             /                                       @@2665=5300
 1930 02666 5304      JMP   L2704             /                                       @@2666=5304
 1931             
 1932             ////////////////////////////////////////////////////////////////////////////////
 1933             /
 1934             /   SUBROUTINE:  S2667
 1935             /
 1936             /   Called from:
 1937             /   2653 
 1938             /   Total 0001 (1) calls

      AUTOMATIC DISASSEMBLY OF MAINDEC-8E-D0LB-D-PB.bin BY D8TAPE        Page 35


 1939             ////////////////////////////////////////////////////////////////////////////////
 1940             S2667,
 1941 02667 0000      0                       / return area
 1942 02670 4540      JMS I C0140             / long call to S5520                    @@2670=4540
 1943 02671 1375      TAD   C2775             /                                       @@2671=1375
 1944 02672 3056      DCA   D0056             /                                       @@2672=3056
 1945 02673 1374      TAD   C2774             /                                       @@2673=1374
 1946 02674 3057      DCA   D0057             /                                       @@2674=3057
 1947 02675 4535      JMS I C0135             / long call to S5274                    @@2675=4535
 1948 02676 4536      JMS I C0136             / long call to S5317                    @@2676=4536
 1949 02677 5667      JMP I S2667             / return                                @@2677=5667
 1950             L2700,
 1951 02700 4545      JMS I C0145             / long call to S5342                    @@2700=4545
 1952 02701 4307      JMS   S2707             /                                       @@2701=4307
 1953 02702 4543      JMS I C0143             / long call to S5325                    @@2702=4543
 1954 02703 7402      HLT                     /                                       @@2703=7402
 1955             L2704,
 1956 02704 4544      JMS I C0144             / long call to S5333                    @@2704=4544
 1957 02705 5255      JMP   L2655             /                                       @@2705=5255
 1958 02706 5254      JMP   L2654             /                                       @@2706=5254
 1959             
 1960             ////////////////////////////////////////////////////////////////////////////////
 1961             /
 1962             /   SUBROUTINE:  S2707
 1963             /
 1964             /   Called from:
 1965             /   2701 
 1966             /   Total 0001 (1) calls
 1967             ////////////////////////////////////////////////////////////////////////////////
 1968             S2707,
 1969 02707 0000      0                       / return area
 1970 02710 4534      JMS I C0134             / long call to S5707                    @@2710=4534
 1971 02711 7775  C2711,  7775                / CLA MQA SCA MQL ASR +                 
 1972 02712 7470      SNA SZL                 /                                       @@2712=7470
 1973 02713 7440      SZA                     /                                       @@2713=7440
 1974 02714 7445  C2714,  7445                / SCA MUY +                             
 1975 02715 4537      JMS I C0137             / long call to S7000                    @@2715=4537
 1976 02716 5707      JMP I S2707             / return                                @@2716=5707
 1977 02717 4773      JMS I C2773             / long call to S3000                    @@2717=4773
 1978             L2720,
 1979 02720 4552      JMS I C0152             / long call to S5732                    @@2720=4552
 1980             L2721,
 1981 02721 4556      JMS I C0156             / long call to S5503                    @@2721=4556
 1982 02722 4551      JMS I C0151             / long call to S5751                    @@2722=4551
 1983 02723 1022      TAD   D0022             /                                       @@2723=1022
 1984 02724 7575  C2724,  7575                / MQA SCA MQL ASR +                     
 1985 02725 4541      JMS I C0141             / long call to S5410                    @@2725=4541
 1986 02726 4772      JMS I C2772             / long call to S6311                    @@2726=4772
 1987 02727 4452      JMS I L0052             / long call to S6345                    @@2727=4452
 1988 02730 7775  C2730,  7775                / CLA MQA SCA MQL ASR +                 
 1989 02731 5771      JMP I C2771             / long jump to L3011                    @@2731=5771
 1990 02732 5770      JMP I C2770             / long jump to L3015                    @@2732=5770
 1991             
 1992       2770  *2770
 1993             C2770,
 1994 02770 3015  C2770,  3015                / DCA   AI5                             
 1995             C2771,

      AUTOMATIC DISASSEMBLY OF MAINDEC-8E-D0LB-D-PB.bin BY D8TAPE        Page 36


 1996 02771 3011  C2771,  3011                / DCA   AI1                             
 1997             C2772,
 1998 02772 6311  C2772,  6311                / 6311                                  
 1999             C2773,
 2000 02773 3000  C2773,  3000                / DCA   S0000                           
 2001 02774 2717  C2774,  2717                / ISZ I C2717                           
 2002 02775 2653  C2775,  2653                / ISZ I C2653                           
 2003 02776 2601  C2776,  2601                / ISZ I L2601                           
 2004             C2777,
 2005 02777 6273  C2777,  6273                / 6273                                  
 2006             
 2007       3000  *3000
 2008             
 2009             ////////////////////////////////////////////////////////////////////////////////
 2010             /
 2011             /   SUBROUTINE:  S3000
 2012             /
 2013             /   Called from:
 2014             /   2717 
 2015             /   Total 0001 (1) calls
 2016             ////////////////////////////////////////////////////////////////////////////////
 2017             S3000,
 2018 03000 0000      0                       / return area
 2019 03001 4540      JMS I C0140             / long call to S5520                    @@3001=4540
 2020 03002 1377      TAD   C3177             /                                       @@3002=1377
 2021 03003 3056      DCA   D0056             /                                       @@3003=3056
 2022 03004 1376      TAD   C3176             /                                       @@3004=1376
 2023 03005 3057      DCA   D0057             /                                       @@3005=3057
 2024 03006 4535      JMS I C0135             / long call to S5274                    @@3006=4535
 2025 03007 4536      JMS I C0136             / long call to S5317                    @@3007=4536
 2026 03010 5600      JMP I S3000             / return                                @@3010=5600
 2027             L3011,
 2028 03011 4545      JMS I C0145             / long call to S5342                    @@3011=4545
 2029 03012 4220      JMS   S3020             /                                       @@3012=4220
 2030 03013 4543      JMS I C0143             / long call to S5325                    @@3013=4543
 2031 03014 7402      HLT                     /                                       @@3014=7402
 2032             L3015,
 2033 03015 4544      JMS I C0144             / long call to S5333                    @@3015=4544
 2034 03016 5775      JMP I C3175             / long jump to L2721                    @@3016=5775
 2035 03017 5774      JMP I C3174             / long jump to L2720                    @@3017=5774
 2036             
 2037             ////////////////////////////////////////////////////////////////////////////////
 2038             /
 2039             /   SUBROUTINE:  S3020
 2040             /
 2041             /   Called from:
 2042             /   3012 
 2043             /   Total 0001 (1) calls
 2044             ////////////////////////////////////////////////////////////////////////////////
 2045             S3020,
 2046 03020 0000      0                       / return area
 2047 03021 4534      JMS I C0134             / long call to S5707                    @@3021=4534
 2048 03022 7775  C3022,  7775                / CLA MQA SCA MQL ASR +                 
 2049 03023 7473  C3023,  7473                / SCA MQL SHL +                         
 2050 03024 7440      SZA                     /                                       @@3024=7440
 2051 03025 7443  C3025,  7443                / SCA SCL +                             
 2052 03026 4537      JMS I C0137             / long call to S7000                    @@3026=4537

      AUTOMATIC DISASSEMBLY OF MAINDEC-8E-D0LB-D-PB.bin BY D8TAPE        Page 37


 2053 03027 5620      JMP I S3020             / return                                @@3027=5620
 2054 03030 4267      JMS   S3067             /                                       @@3030=4267
 2055             L3031,
 2056 03031 4253      JMS   S3053             /                                       @@3031=4253
 2057             L3032,
 2058 03032 1021      TAD   D0021             /                                       @@3032=1021
 2059 03033 7104      CLL RAL                 /                                       @@3033=7104
 2060 03034 1023      TAD   D0023             /                                       @@3034=1023
 2061 03035 7421      MQL                     /                                       @@3035=7421
 2062 03036 1024      TAD   D0024             /                                       @@3036=1024
 2063 03037 3122      DCA   D0122             /                                       @@3037=3122
 2064 03040 1025      TAD   D0025             /                                       @@3040=1025
 2065 03041 3121      DCA   D0121             /                                       @@3041=3121
 2066 03042 1022      TAD   D0022             /                                       @@3042=1022
 2067 03043 7443  C3043,  7443                / SCA SCL +                             
 2068 03044 0121      AND   D0121             /                                       @@3044=0121
 2069 03045 4541      JMS I C0141             / long call to S5410                    @@3045=4541
 2070 03046 4773      JMS I C3173             / long call to S6332                    @@3046=4773
 2071 03047 4452      JMS I L0052             / long call to S6345                    @@3047=4452
 2072 03050 7775  C3050,  7775                / CLA MQA SCA MQL ASR +                 
 2073 03051 5307      JMP   L3107             /                                       @@3051=5307
 2074 03052 5325      JMP   L3125             /                                       @@3052=5325
 2075             
 2076             ////////////////////////////////////////////////////////////////////////////////
 2077             /
 2078             /   SUBROUTINE:  S3053
 2079             /
 2080             /   Called from:
 2081             /   3031 
 2082             /   Total 0001 (1) calls
 2083             ////////////////////////////////////////////////////////////////////////////////
 2084             S3053,
 2085 03053 0000      0                       / return area
 2086 03054 4453      JMS I C0053             / long call to S6400                    @@3054=4453
 2087 03055 0000  D3055,  0000                / AND   S0000                           
 2088 03056 0021      AND   D0021             /                                       @@3056=0021
 2089 03057 7773  C3057,  7773                / CLA MQA SCA MQL SHL +                 
 2090 03060 7326      CLA CLL CML RTL         / AC = 0002                             @@3060=7326
 2091 03061 7124      CLL CML RAL             /                                       @@3061=7124
 2092 03062 1255      TAD   D3055             /                                       @@3062=1255
 2093 03063 3255      DCA   D3055             /                                       @@3063=3255
 2094 03064 2114      ISZ   D0114             /                                       @@3064=2114
 2095 03065 5653      JMP I S3053             / return                                @@3065=5653
 2096 03066 5575      JMP I C0175             / long jump to L5551                    @@3066=5575
 2097             
 2098             ////////////////////////////////////////////////////////////////////////////////
 2099             /
 2100             /   SUBROUTINE:  S3067
 2101             /
 2102             /   Called from:
 2103             /   3030 
 2104             /   Total 0001 (1) calls
 2105             ////////////////////////////////////////////////////////////////////////////////
 2106             S3067,
 2107 03067 0000      0                       / return area
 2108 03070 4540      JMS I C0140             / long call to S5520                    @@3070=4540
 2109 03071 1372      TAD   C3172             /                                       @@3071=1372

      AUTOMATIC DISASSEMBLY OF MAINDEC-8E-D0LB-D-PB.bin BY D8TAPE        Page 38


 2110 03072 3255      DCA   D3055             /                                       @@3072=3255
 2111 03073 1376      TAD   C3176             /                                       @@3073=1376
 2112 03074 3056      DCA   D0056             /                                       @@3074=3056
 2113 03075 1371      TAD   C3171             /                                       @@3075=1371
 2114 03076 3057      DCA   D0057             /                                       @@3076=3057
 2115 03077 1370      TAD   C3170             /                                       @@3077=1370
 2116 03100 3114      DCA   D0114             /                                       @@3100=3114
 2117 03101 1767      TAD I C3167             /                                       @@3101=1767
 2118 03102 3766      DCA I C3166             /                                       @@3102=3766
 2119 03103 4535      JMS I C0135             / long call to S5274                    @@3103=4535
 2120 03104 4536      JMS I C0136             / long call to S5317                    @@3104=4536
 2121 03105 7403  C3105,  7403                / SCL +                                 
 2122 03106 5667      JMP I S3067             / return                                @@3106=5667
 2123             L3107,
 2124 03107 1024      TAD   D0024             /                                       @@3107=1024
 2125 03110 3040      DCA   D0040             /                                       @@3110=3040
 2126 03111 1025      TAD   D0025             /                                       @@3111=1025
 2127 03112 3041      DCA   D0041             /                                       @@3112=3041
 2128 03113 3024      DCA   D0024             /                                       @@3113=3024
 2129 03114 3025      DCA   D0025             /                                       @@3114=3025
 2130 03115 4545      JMS I C0145             / long call to S5342                    @@3115=4545
 2131 03116 4330      JMS   S3130             /                                       @@3116=4330
 2132 03117 1040      TAD   D0040             /                                       @@3117=1040
 2133 03120 3024  C3120,  3024                / DCA   D0024                           
 2134 03121 1041  C3121,  1041                / TAD   D0041                           
 2135 03122 3025      DCA   D0025             /                                       @@3122=3025
 2136 03123 4543      JMS I C0143             / long call to S5325                    @@3123=4543
 2137 03124 7402      HLT                     /                                       @@3124=7402
 2138             L3125,
 2139 03125 4544      JMS I C0144             / long call to S5333                    @@3125=4544
 2140 03126 5232      JMP   L3032             /                                       @@3126=5232
 2141 03127 5231      JMP   L3031             /                                       @@3127=5231
 2142             
 2143             ////////////////////////////////////////////////////////////////////////////////
 2144             /
 2145             /   SUBROUTINE:  S3130
 2146             /
 2147             /   Called from:
 2148             /   3116 
 2149             /   Total 0001 (1) calls
 2150             ////////////////////////////////////////////////////////////////////////////////
 2151             S3130,
 2152 03130 0000      0                       / return area
 2153 03131 4534      JMS I C0134             / long call to S5707                    @@3131=4534
 2154 03132 7775  C3132,  7775                / CLA MQA SCA MQL ASR +                 
 2155 03133 7476      SNA SZL OSR HLT         /                                       @@3133=7476
 2156 03134 7440      SZA                     /                                       @@3134=7440
 2157 03135 7443  C3135,  7443                / SCA SCL +                             
 2158 03136 4537      JMS I C0137             / long call to S7000                    @@3136=4537
 2159 03137 5730      JMP I S3130             / return                                @@3137=5730
 2160             
 2161       3166  *3166
 2162 03166 7016  C3166,  7016                / RTR RTL                               
 2163 03167 7044  C3167,  7044                / CMA RAL                               
 2164 03170 7767  C3170,  7767                / CLA MQA SCA MQL DVI +                 
 2165 03171 3200  C3171,  3200                / DCA   S3000                           
 2166 03172 7327  C3172,  7327                / CLA CLL CML IAC RTL                   

      AUTOMATIC DISASSEMBLY OF MAINDEC-8E-D0LB-D-PB.bin BY D8TAPE        Page 39


 2167             C3173,
 2168 03173 6332  C3173,  6332                / 6332                                  
 2169             C3174,
 2170 03174 2720  C3174,  2720                / ISZ I C3120                           
 2171             C3175,
 2172 03175 2721  C3175,  2721                / ISZ I C3121                           
 2173 03176 3030  C3176,  3030                / DCA   C0030                           
 2174 03177 2717  C3177,  2717                / ISZ I C3117                           
 2175             
 2176       3200  *3200
 2177 03200 4223      JMS   S3223             /                                       @@3200=4223
 2178             L3201,
 2179 03201 4241      JMS   S3241             /                                       @@3201=4241
 2180             L3202,
 2181 03202 1021      TAD   D0021             /                                       @@3202=1021
 2182 03203 7104      CLL RAL                 /                                       @@3203=7104
 2183 03204 1023      TAD   D0023             /                                       @@3204=1023
 2184 03205 7421      MQL                     /                                       @@3205=7421
 2185 03206 1024      TAD   D0024             /                                       @@3206=1024
 2186 03207 3122      DCA   D0122             /                                       @@3207=3122
 2187 03210 1025      TAD   D0025             /                                       @@3210=1025
 2188 03211 3121      DCA   D0121             /                                       @@3211=3121
 2189 03212 1022      TAD   D0022             /                                       @@3212=1022
 2190 03213 7443  C3213,  7443                / SCA SCL +                             
 2191 03214 0121      AND   D0121             /                                       @@3214=0121
 2192 03215 4541      JMS I C0141             / long call to S5410                    @@3215=4541
 2193 03216 4777      JMS I C3377             / long call to S6332                    @@3216=4777
 2194 03217 4452      JMS I L0052             / long call to S6345                    @@3217=4452
 2195 03220 7775  C3220,  7775                / CLA MQA SCA MQL ASR +                 
 2196 03221 5257      JMP   L3257             /                                       @@3221=5257
 2197 03222 5275      JMP   L3275             /                                       @@3222=5275
 2198             
 2199             ////////////////////////////////////////////////////////////////////////////////
 2200             /
 2201             /   SUBROUTINE:  S3223
 2202             /
 2203             /   Called from:
 2204             /   3200 
 2205             /   Total 0001 (1) calls
 2206             ////////////////////////////////////////////////////////////////////////////////
 2207             S3223,
 2208 03223 0000      0                       / return area
 2209 03224 4540      JMS I C0140             / long call to S5520                    @@3224=4540
 2210 03225 1376      TAD   C3376             /                                       @@3225=1376
 2211 03226 3056      DCA   D0056             /                                       @@3226=3056
 2212 03227 1375      TAD   C3375             /                                       @@3227=1375
 2213 03230 3057      DCA   D0057             /                                       @@3230=3057
 2214 03231 1774      TAD I C3374             /                                       @@3231=1774
 2215 03232 3773      DCA I C3373             /                                       @@3232=3773
 2216 03233 3045      DCA   D0045             /                                       @@3233=3045
 2217 03234 3046      DCA   D0046             /                                       @@3234=3046
 2218 03235 4535      JMS I C0135             / long call to S5274                    @@3235=4535
 2219 03236 4536      JMS I C0136             / long call to S5317                    @@3236=4536
 2220 03237 7403  C3237,  7403                / SCL +                                 
 2221 03240 5623      JMP I S3223             / return                                @@3240=5623
 2222             
 2223             ////////////////////////////////////////////////////////////////////////////////

      AUTOMATIC DISASSEMBLY OF MAINDEC-8E-D0LB-D-PB.bin BY D8TAPE        Page 40


 2224             /
 2225             /   SUBROUTINE:  S3241
 2226             /
 2227             /   Called from:
 2228             /   3201 
 2229             /   Total 0001 (1) calls
 2230             ////////////////////////////////////////////////////////////////////////////////
 2231             S3241,
 2232 03241 0000      0                       / return area
 2233 03242 4772      JMS I C3372             / long call to S6525                    @@3242=4772
 2234 03243 3022      DCA   D0022             /                                       @@3243=3022
 2235 03244 4772      JMS I C3372             / long call to S6525                    @@3244=4772
 2236 03245 3023      DCA   D0023             /                                       @@3245=3023
 2237 03246 4772      JMS I C3372             / long call to S6525                    @@3246=4772
 2238 03247 3024      DCA   D0024             /                                       @@3247=3024
 2239 03250 4772      JMS I C3372             / long call to S6525                    @@3250=4772
 2240 03251 3025      DCA   D0025             /                                       @@3251=3025
 2241 03252 7210      CLA RAR                 /                                       @@3252=7210
 2242 03253 3021      DCA   D0021             /                                       @@3253=3021
 2243 03254 4573      JMS I C0173             / long call to S5767                    @@3254=4573
 2244 03255 5641      JMP I S3241             / return                                @@3255=5641
 2245 03256 5575      JMP I C0175             / long jump to L5551                    @@3256=5575
 2246             L3257,
 2247 03257 1024      TAD   D0024             /                                       @@3257=1024
 2248 03260 3040      DCA   D0040             /                                       @@3260=3040
 2249 03261 1025      TAD   D0025             /                                       @@3261=1025
 2250 03262 3041      DCA   D0041             /                                       @@3262=3041
 2251 03263 3024      DCA   D0024             /                                       @@3263=3024
 2252 03264 3025      DCA   D0025             /                                       @@3264=3025
 2253 03265 4545      JMS I C0145             / long call to S5342                    @@3265=4545
 2254 03266 4300      JMS   S3300             /                                       @@3266=4300
 2255 03267 1040      TAD   D0040             /                                       @@3267=1040
 2256 03270 3024      DCA   D0024             /                                       @@3270=3024
 2257 03271 1041      TAD   D0041             /                                       @@3271=1041
 2258 03272 3025      DCA   D0025             /                                       @@3272=3025
 2259 03273 4543      JMS I C0143             / long call to S5325                    @@3273=4543
 2260 03274 7402      HLT                     /                                       @@3274=7402
 2261             L3275,
 2262 03275 4544      JMS I C0144             / long call to S5333                    @@3275=4544
 2263 03276 5202      JMP   L3202             /                                       @@3276=5202
 2264 03277 5201      JMP   L3201             /                                       @@3277=5201
 2265             
 2266             ////////////////////////////////////////////////////////////////////////////////
 2267             /
 2268             /   SUBROUTINE:  S3300
 2269             /
 2270             /   Called from:
 2271             /   3266 
 2272             /   Total 0001 (1) calls
 2273             ////////////////////////////////////////////////////////////////////////////////
 2274             S3300,
 2275 03300 0000      0                       / return area
 2276 03301 4534      JMS I C0134             / long call to S5707                    @@3301=4534
 2277 03302 7775  C3302,  7775                / CLA MQA SCA MQL ASR +                 
 2278 03303 7476      SNA SZL OSR HLT         /                                       @@3303=7476
 2279 03304 7440      SZA                     /                                       @@3304=7440
 2280 03305 7445  C3305,  7445                / SCA MUY +                             

      AUTOMATIC DISASSEMBLY OF MAINDEC-8E-D0LB-D-PB.bin BY D8TAPE        Page 41


 2281 03306 4537      JMS I C0137             / long call to S7000                    @@3306=4537
 2282 03307 5700      JMP I S3300             / return                                @@3307=5700
 2283 03310 4771      JMS I C3371             / long call to S3413                    @@3310=4771
 2284             L3311,
 2285 03311 4770      JMS I C3370             / long call to S3400                    @@3311=4770
 2286             L3312,
 2287 03312 1042      TAD   D0042             /                                       @@3312=1042
 2288 03313 7104      CLL RAL                 /                                       @@3313=7104
 2289 03314 1044      TAD   D0044             /                                       @@3314=1044
 2290 03315 7421      MQL                     /                                       @@3315=7421
 2291 03316 1043      TAD   D0043             /                                       @@3316=1043
 2292 03317 7445  C3317,  7445                / SCA MUY +                             
 2293 03320 0121      AND   D0121             /                                       @@3320=0121
 2294 03321 4541      JMS I C0141             / long call to S5410                    @@3321=4541
 2295 03322 1121      TAD   D0121             /                                       @@3322=1121
 2296 03323 3037      DCA   D0037             /                                       @@3323=3037
 2297 03324 1122      TAD   D0122             /                                       @@3324=1122
 2298 03325 3036      DCA   D0036             /                                       @@3325=3036
 2299 03326 4452      JMS I L0052             / long call to S6345                    @@3326=4452
 2300 03327 7775  C3327,  7775                / CLA MQA SCA MQL ASR +                 
 2301 03330 5767      JMP I C3367             / long jump to L3431                    @@3330=5767
 2302 03331 1044      TAD   D0044             /                                       @@3331=1044
 2303 03332 7421      MQL                     /                                       @@3332=7421
 2304 03333 1043      TAD   D0043             /                                       @@3333=1043
 2305 03334 7575  C3334,  7575                / MQA SCA MQL ASR +                     
 2306 03335 7443  C3335,  7443                / SCA SCL +                             
 2307 03336 0121      AND   D0121             /                                       @@3336=0121
 2308 03337 7451  C3337,  7451                / SCA NMI                               
 2309 03340 5767      JMP I C3367             / long jump to L3431                    @@3340=5767
 2310 03341 5766      JMP I C3366             / long jump to L3435                    @@3341=5766
 2311             
 2312       3366  *3366
 2313             C3366,
 2314 03366 3435  C3366,  3435                / DCA I D0035                           
 2315             C3367,
 2316 03367 3431  C3367,  3431                / DCA I C0031                           
 2317             C3370,
 2318 03370 3400  C3370,  3400                / DCA I S0000                           
 2319             C3371,
 2320 03371 3413  C3371,  3413                / DCA I AI3                             
 2321             C3372,
 2322 03372 6525  C3372,  6525                / 6525                                  
 2323 03373 7016  C3373,  7016                / RTR RTL                               
 2324 03374 7044  C3374,  7044                / CMA RAL                               
 2325 03375 3310  C3375,  3310                / DCA   C3310                           
 2326 03376 3200  C3376,  3200                / DCA   C3200                           
 2327             C3377,
 2328 03377 6332  C3377,  6332                / 6332                                  
 2329             
 2330       3400  *3400
 2331             
 2332             ////////////////////////////////////////////////////////////////////////////////
 2333             /
 2334             /   SUBROUTINE:  S3400
 2335             /
 2336             /   Called from:
 2337             /   3311 

      AUTOMATIC DISASSEMBLY OF MAINDEC-8E-D0LB-D-PB.bin BY D8TAPE        Page 42


 2338             /   Total 0001 (1) calls
 2339             ////////////////////////////////////////////////////////////////////////////////
 2340             S3400,
 2341 03400 0000      0                       / return area
 2342 03401 4453      JMS I C0053             / long call to S6400                    @@3401=4453
 2343 03402 0000  D3402,  0000                / AND   S0000                           
 2344 03403 0042      AND   D0042             /                                       @@3403=0042
 2345 03404 7775  C3404,  7775                / CLA MQA SCA MQL ASR +                 
 2346 03405 7325      CLA CLL CML IAC RAL     / AC = 0003                             @@3405=7325
 2347 03406 1202      TAD   D3402             /                                       @@3406=1202
 2348 03407 3202      DCA   D3402             /                                       @@3407=3202
 2349 03410 2114      ISZ   D0114             /                                       @@3410=2114
 2350 03411 5600      JMP I S3400             / return                                @@3411=5600
 2351 03412 5575      JMP I C0175             / long jump to L5551                    @@3412=5575
 2352             
 2353             ////////////////////////////////////////////////////////////////////////////////
 2354             /
 2355             /   SUBROUTINE:  S3413
 2356             /
 2357             /   Called from:
 2358             /   3310 
 2359             /   Total 0001 (1) calls
 2360             ////////////////////////////////////////////////////////////////////////////////
 2361             S3413,
 2362 03413 0000      0                       / return area
 2363 03414 4540      JMS I C0140             / long call to S5520                    @@3414=4540
 2364 03415 1377      TAD   C3577             /                                       @@3415=1377
 2365 03416 3202      DCA   D3402             /                                       @@3416=3202
 2366 03417 1376      TAD   C3576             /                                       @@3417=1376
 2367 03420 3056      DCA   D0056             /                                       @@3420=3056
 2368 03421 1375      TAD   C3575             /                                       @@3421=1375
 2369 03422 3057      DCA   D0057             /                                       @@3422=3057
 2370 03423 1374      TAD   C3574             /                                       @@3423=1374
 2371 03424 3114      DCA   D0114             /                                       @@3424=3114
 2372 03425 4535      JMS I C0135             / long call to S5274                    @@3425=4535
 2373 03426 4536      JMS I C0136             / long call to S5317                    @@3426=4536
 2374 03427 7403  C3427,  7403                / SCL +                                 
 2375 03430 5613      JMP I S3413             / return                                @@3430=5613
 2376             L3431,
 2377 03431 4545      JMS I C0145             / long call to S5342                    @@3431=4545
 2378 03432 4240      JMS   S3440             /                                       @@3432=4240
 2379 03433 4543      JMS I C0143             / long call to S5325                    @@3433=4543
 2380 03434 7402      HLT                     /                                       @@3434=7402
 2381             L3435,
 2382 03435 4544      JMS I C0144             / long call to S5333                    @@3435=4544
 2383 03436 5773      JMP I C3573             / long jump to L3312                    @@3436=5773
 2384 03437 5772      JMP I C3572             / long jump to L3311                    @@3437=5772
 2385             
 2386             ////////////////////////////////////////////////////////////////////////////////
 2387             /
 2388             /   SUBROUTINE:  S3440
 2389             /
 2390             /   Called from:
 2391             /   3432 
 2392             /   Total 0001 (1) calls
 2393             ////////////////////////////////////////////////////////////////////////////////
 2394             S3440,

      AUTOMATIC DISASSEMBLY OF MAINDEC-8E-D0LB-D-PB.bin BY D8TAPE        Page 43


 2395 03440 0000      0                       / return area
 2396 03441 4534      JMS I C0134             / long call to S5707                    @@3441=4534
 2397 03442 7775  C3442,  7775                / CLA MQA SCA MQL ASR +                 
 2398 03443 7501      MQA                     /                                       @@3443=7501
 2399 03444 7440      SZA                     /                                       @@3444=7440
 2400 03445 7443  C3445,  7443                / SCA SCL +                             
 2401 03446 4771      JMS I C3571             / long call to S7106                    @@3446=4771
 2402 03447 5640      JMP I S3440             / return                                @@3447=5640
 2403 03450 4314      JMS   S3514             /                                       @@3450=4314
 2404             L3451,
 2405 03451 4302      JMS   S3502             /                                       @@3451=4302
 2406             L3452,
 2407 03452 1042      TAD   D0042             /                                       @@3452=1042
 2408 03453 7104      CLL RAL                 /                                       @@3453=7104
 2409 03454 1044      TAD   D0044             /                                       @@3454=1044
 2410 03455 7421      MQL                     /                                       @@3455=7421
 2411 03456 1043      TAD   D0043             /                                       @@3456=1043
 2412 03457 7445  C3457,  7445                / SCA MUY +                             
 2413 03460 0121      AND   D0121             /                                       @@3460=0121
 2414 03461 4541      JMS I C0141             / long call to S5410                    @@3461=4541
 2415 03462 1121      TAD   D0121             /                                       @@3462=1121
 2416 03463 3037      DCA   D0037             /                                       @@3463=3037
 2417 03464 1122      TAD   D0122             /                                       @@3464=1122
 2418 03465 3036      DCA   D0036             /                                       @@3465=3036
 2419 03466 4452      JMS I L0052             / long call to S6345                    @@3466=4452
 2420 03467 7775  C3467,  7775                / CLA MQA SCA MQL ASR +                 
 2421 03470 5326      JMP   L3526             /                                       @@3470=5326
 2422 03471 1044      TAD   D0044             /                                       @@3471=1044
 2423 03472 7421      MQL                     /                                       @@3472=7421
 2424 03473 1043      TAD   D0043             /                                       @@3473=1043
 2425 03474 7575  C3474,  7575                / MQA SCA MQL ASR +                     
 2426 03475 7443  C3475,  7443                / SCA SCL +                             
 2427 03476 0121      AND   D0121             /                                       @@3476=0121
 2428 03477 7451  C3477,  7451                / SCA NMI                               
 2429 03500 5326      JMP   L3526             /                                       @@3500=5326
 2430 03501 5332      JMP   L3532             /                                       @@3501=5332
 2431             
 2432             ////////////////////////////////////////////////////////////////////////////////
 2433             /
 2434             /   SUBROUTINE:  S3502
 2435             /
 2436             /   Called from:
 2437             /   3451 
 2438             /   Total 0001 (1) calls
 2439             ////////////////////////////////////////////////////////////////////////////////
 2440             S3502,
 2441 03502 0000      0                       / return area
 2442 03503 4770      JMS I C3570             / long call to S6525                    @@3503=4770
 2443 03504 3043      DCA   D0043             /                                       @@3504=3043
 2444 03505 4770      JMS I C3570             / long call to S6525                    @@3505=4770
 2445 03506 3044      DCA   D0044             /                                       @@3506=3044
 2446 03507 7010      RAR                     /                                       @@3507=7010
 2447 03510 3042      DCA   D0042             /                                       @@3510=3042
 2448 03511 4573  D3511,  4573                / JMS I C0173                           
 2449 03512 5702  D3512,  5702                / JMP I S3502                           
 2450 03513 5575      JMP I C0175             / long jump to L5551                    @@3513=5575
 2451             

      AUTOMATIC DISASSEMBLY OF MAINDEC-8E-D0LB-D-PB.bin BY D8TAPE        Page 44


 2452             ////////////////////////////////////////////////////////////////////////////////
 2453             /
 2454             /   SUBROUTINE:  S3514
 2455             /
 2456             /   Called from:
 2457             /   3450 
 2458             /   Total 0001 (1) calls
 2459             ////////////////////////////////////////////////////////////////////////////////
 2460             S3514,
 2461 03514 0000      0                       / return area
 2462 03515 4540      JMS I C0140             / long call to S5520                    @@3515=4540
 2463 03516 1375      TAD   C3575             /                                       @@3516=1375
 2464 03517 3056      DCA   D0056             /                                       @@3517=3056
 2465 03520 1367      TAD   C3567             /                                       @@3520=1367
 2466 03521 3057      DCA   D0057             /                                       @@3521=3057
 2467 03522 4535      JMS I C0135             / long call to S5274                    @@3522=4535
 2468 03523 4536      JMS I C0136             / long call to S5317                    @@3523=4536
 2469 03524 7403  C3524,  7403                / SCL +                                 
 2470 03525 5714      JMP I S3514             / return                                @@3525=5714
 2471             L3526,
 2472 03526 4545      JMS I C0145             / long call to S5342                    @@3526=4545
 2473 03527 4335      JMS   S3535             /                                       @@3527=4335
 2474 03530 4543      JMS I C0143             / long call to S5325                    @@3530=4543
 2475 03531 7402      HLT                     /                                       @@3531=7402
 2476             L3532,
 2477 03532 4544      JMS I C0144             / long call to S5333                    @@3532=4544
 2478 03533 5252      JMP   L3452             /                                       @@3533=5252
 2479 03534 5251      JMP   L3451             /                                       @@3534=5251
 2480             
 2481             ////////////////////////////////////////////////////////////////////////////////
 2482             /
 2483             /   SUBROUTINE:  S3535
 2484             /
 2485             /   Called from:
 2486             /   3527 
 2487             /   Total 0001 (1) calls
 2488             ////////////////////////////////////////////////////////////////////////////////
 2489             S3535,
 2490 03535 0000      0                       / return area
 2491 03536 4534      JMS I C0134             / long call to S5707                    @@3536=4534
 2492 03537 7775  C3537,  7775                / CLA MQA SCA MQL ASR +                 
 2493 03540 7501      MQA                     /                                       @@3540=7501
 2494 03541 7440      SZA                     /                                       @@3541=7440
 2495 03542 7445  C3542,  7445                / SCA MUY +                             
 2496 03543 4771      JMS I C3571             / long call to S7106                    @@3543=4771
 2497 03544 5735      JMP I S3535             / return                                @@3544=5735
 2498             
 2499       3567  *3567
 2500 03567 3600  C3567,  3600                / DCA I S3400                           
 2501             C3570,
 2502 03570 6525  C3570,  6525                / 6525                                  
 2503             C3571,
 2504 03571 7106  C3571,  7106                / CLL RTL                               
 2505             C3572,
 2506 03572 3311  C3572,  3311                / DCA   D3511                           
 2507             C3573,
 2508 03573 3312  C3573,  3312                / DCA   D3512                           

      AUTOMATIC DISASSEMBLY OF MAINDEC-8E-D0LB-D-PB.bin BY D8TAPE        Page 45


 2509 03574 7771  C3574,  7771                / CLA MQA SCA MQL NMI                   
 2510 03575 3450  C3575,  3450                / DCA I C0050                           
 2511 03576 3310  C3576,  3310                / DCA   C3510                           
 2512 03577 7305  C3577,  7305                / CLA CLL IAC RAL                       
 2513             
 2514       3600  *3600
 2515             L3600,
 2516 03600 5257      JMP   L3657             /                                       @@3600=5257
 2517             L3601,
 2518 03601 4312      JMS   S3712             /                                       @@3601=4312
 2519             L3602,
 2520 03602 7240      STA                     / AC = 7777 (-0001)                     @@3602=7240
 2521 03603 0305      AND   D3705             /                                       @@3603=0305
 2522 03604 7421      MQL                     /                                       @@3604=7421
 2523 03605 7040      CMA                     /                                       @@3605=7040
 2524 03606 0304      AND   D3704             /                                       @@3606=0304
 2525 03607 7411  C3607,  7411                / NMI                                   
 2526 03610 3307      DCA   D3707             /                                       @@3610=3307
 2527 03611 7501      MQA                     /                                       @@3611=7501
 2528 03612 3306      DCA   D3706             /                                       @@3612=3306
 2529 03613 7441  C3613,  7441                / SCA                                   
 2530 03614 3300      DCA   D3700             /                                       @@3614=3300
 2531 03615 7040      CMA                     /                                       @@3615=7040
 2532 03616 0307      AND   D3707             /                                       @@3616=0307
 2533 03617 7140      CLL CMA                 /                                       @@3617=7140
 2534 03620 1301      TAD   C3701             /                                       @@3620=1301
 2535 03621 7040      CMA                     /                                       @@3621=7040
 2536 03622 7440      SZA                     /                                       @@3622=7440
 2537 03623 5250      JMP   L3650             /                                       @@3623=5250
 2538 03624 7430      SZL                     /                                       @@3624=7430
 2539 03625 5250      JMP   L3650             /                                       @@3625=5250
 2540 03626 7240      STA                     / AC = 7777 (-0001)                     @@3626=7240
 2541 03627 0306      AND   D3706             /                                       @@3627=0306
 2542 03630 7440      SZA                     /                                       @@3630=7440
 2543 03631 5250      JMP   L3650             /                                       @@3631=5250
 2544 03632 7040      CMA                     /                                       @@3632=7040
 2545 03633 0300      AND   D3700             /                                       @@3633=0300
 2546 03634 7140      CLL CMA                 /                                       @@3634=7140
 2547 03635 1303      TAD   D3703             /                                       @@3635=1303
 2548 03636 7040      CMA                     /                                       @@3636=7040
 2549 03637 7440      SZA                     /                                       @@3637=7440
 2550 03640 5250      JMP   L3650             /                                       @@3640=5250
 2551 03641 7430      SZL                     /                                       @@3641=7430
 2552 03642 5250      JMP   L3650             /                                       @@3642=5250
 2553 03643 7240      STA                     / AC = 7777 (-0001)                     @@3643=7240
 2554 03644 0303      AND   D3703             /                                       @@3644=0303
 2555 03645 7440      SZA                     /                                       @@3645=7440
 2556 03646 5254      JMP   L3654             /                                       @@3646=5254
 2557 03647 5272      JMP   L3672             /                                       @@3647=5272
 2558             L3650,
 2559 03650 4545      JMS I C0145             / long call to S5342                    @@3650=4545
 2560 03651 4711      JMS I C3711             / long call to S4000                    @@3651=4711
 2561 03652 4543      JMS I C0143             / long call to S5325                    @@3652=4543
 2562 03653 7402      HLT                     /                                       @@3653=7402
 2563             L3654,
 2564 03654 4544      JMS I C0144             / long call to S5333                    @@3654=4544
 2565 03655 5202      JMP   L3602             /                                       @@3655=5202

      AUTOMATIC DISASSEMBLY OF MAINDEC-8E-D0LB-D-PB.bin BY D8TAPE        Page 46


 2566 03656 5201      JMP   L3601             /                                       @@3656=5201
 2567             L3657,
 2568 03657 7240      STA                     / AC = 7777 (-0001)                     @@3657=7240
 2569 03660 0327      AND   C3727             /                                       @@3660=0327
 2570 03661 3012      DCA   AI2               / AUTO INDEX REGISTER                   @@3661=3012
 2571 03662 7040      CMA                     /                                       @@3662=7040
 2572 03663 0330      AND   C3730             /                                       @@3663=0330
 2573 03664 3013      DCA   AI3               / AUTO INDEX REGISTER                   @@3664=3013
 2574 03665 7040      CMA                     /                                       @@3665=7040
 2575 03666 0302      AND   C3702             /                                       @@3666=0302
 2576 03667 3303      DCA   D3703             /                                       @@3667=3303
 2577 03670 4535      JMS I C0135             / long call to S5274                    @@3670=4535
 2578 03671 5201      JMP   L3601             /                                       @@3671=5201
 2579             L3672,
 2580 03672 7604      LAS                     /                                       @@3672=7604
 2581 03673 7106      CLL RTL                 /                                       @@3673=7106
 2582 03674 7006      RTL                     /                                       @@3674=7006
 2583 03675 7430      SZL                     /                                       @@3675=7430
 2584 03676 5200      JMP   L3600             /                                       @@3676=5200
 2585 03677 5710      JMP I C3710             / long jump to L4200                    @@3677=5710
 2586 03700 0000  D3700,  0000                / AND   S0000                           
 2587 03701 6000  C3701,  6000                / 6000                                  
 2588 03702 0027  C3702,  0027                / AND   C0027                           
 2589 03703 0000  D3703,  0000                / AND   S0000                           
 2590 03704 0000  D3704,  0000                / AND   S0000                           
 2591 03705 0000  D3705,  0000                / AND   S0000                           
 2592 03706 0000  D3706,  0000                / AND   S0000                           
 2593 03707 0000  D3707,  0000                / AND   S0000                           
 2594             C3710,
 2595 03710 4200  C3710,  4200                / JMS   L3600                           
 2596             C3711,
 2597 03711 4000  C3711,  4000                / JMS   S0000                           
 2598             
 2599             ////////////////////////////////////////////////////////////////////////////////
 2600             /
 2601             /   SUBROUTINE:  S3712
 2602             /
 2603             /   Called from:
 2604             /   3601 
 2605             /   Total 0001 (1) calls
 2606             ////////////////////////////////////////////////////////////////////////////////
 2607             S3712,
 2608 03712 0000      0                       / return area
 2609 03713 7240      STA                     / AC = 7777 (-0001)                     @@3713=7240
 2610 03714 0412      AND I AI2               / AUTO INDEX REGISTER                   @@3714=0412
 2611 03715 3304      DCA   D3704             /                                       @@3715=3304
 2612 03716 7040      CMA                     /                                       @@3716=7040
 2613 03717 0413      AND I AI3               / AUTO INDEX REGISTER                   @@3717=0413
 2614 03720 3305      DCA   D3705             /                                       @@3720=3305
 2615 03721 7040      CMA                     /                                       @@3721=7040
 2616 03722 0303      AND   D3703             /                                       @@3722=0303
 2617 03723 7041      CIA                     /                                       @@3723=7041
 2618 03724 7040      CMA                     /                                       @@3724=7040
 2619 03725 3303      DCA   D3703             /                                       @@3725=3303
 2620 03726 5331      JMP   L3731             /                                       @@3726=5331
 2621 03727 4060  C3727,  4060                / JMS   C0060                           
 2622 03730 4074  C3730,  4074                / JMS   C0074                           

      AUTOMATIC DISASSEMBLY OF MAINDEC-8E-D0LB-D-PB.bin BY D8TAPE        Page 47


 2623             L3731,
 2624 03731 7240      STA                     / AC = 7777 (-0001)                     @@3731=7240
 2625 03732 0303      AND   D3703             /                                       @@3732=0303
 2626 03733 7440      SZA                     /                                       @@3733=7440
 2627 03734 5712      JMP I S3712             / return                                @@3734=5712
 2628 03735 5272      JMP   L3672             /                                       @@3735=5272
 2629             
 2630       4000  *4000
 2631             
 2632             ////////////////////////////////////////////////////////////////////////////////
 2633             /
 2634             /   SUBROUTINE:  S4000
 2635             /
 2636             /   Called from:
 2637             /   3651 4334 4514 
 2638             /   Total 0003 (3) calls
 2639             ////////////////////////////////////////////////////////////////////////////////
 2640             S4000,
 2641 04000 0000      0                       / return area
 2642 04001 4525      JMS I L0125             / long call to S5607                    @@4001=4525
 2643 04002 4326      JMS   S4126             /                                       @@4002=4326
 2644 04003 4451      JMS I C0051             / long call to S6670                    @@4003=4451
 2645 04004 7772      SPA SNA SZL CLA HLT     /                                       @@4004=7772
 2646 04005 4777      JMS I C4177             / long call to S5455                    @@4005=4777
 2647 04006 4776      JMS I C4176             / long call to S5462                    @@4006=4776
 2648 04007 4775      JMS I C4175             / long call to S0323                    @@4007=4775
 2649 04010 4774      JMS I C4174             / long call to S5467                    @@4010=4774
 2650 04011 4451      JMS I C0051             / long call to S6670                    @@4011=4451
 2651 04012 7765  C4012,  7765                / CLA MQA SCA MQL MUY +                 
 2652 04013 4777      JMS I C4177             / long call to S5455                    @@4013=4777
 2653 04014 4776      JMS I C4176             / long call to S5462                    @@4014=4776
 2654 04015 4773      JMS I C4173             / long call to S0302                    @@4015=4773
 2655 04016 4774      JMS I C4174             / long call to S5467                    @@4016=4774
 2656 04017 4576      JMS I C0176             / long call to S6704                    @@4017=4576
 2657 04020 4524      JMS I C0124             / long call to S5600                    @@4020=4524
 2658 04021 4451      JMS I C0051             / long call to S6670                    @@4021=4451
 2659 04022 7772      SPA SNA SZL CLA HLT     /                                       @@4022=7772
 2660 04023 1772      TAD I C4172             /                                       @@4023=1772
 2661 04024 4771      JMS I C4171             / long call to S7200                    @@4024=4771
 2662 04025 4451      JMS I C0051             / long call to S6670                    @@4025=4451
 2663 04026 7775  C4026,  7775                / CLA MQA SCA MQL ASR +                 
 2664 04027 1770      TAD I C4170             /                                       @@4027=1770
 2665 04030 4771      JMS I C4171             / long call to S7200                    @@4030=4771
 2666 04031 4524      JMS I C0124             / long call to S5600                    @@4031=4524
 2667 04032 4767      JMS I C4167             / long call to S5425                    @@4032=4767
 2668 04033 4451      JMS I C0051             / long call to S6670                    @@4033=4451
 2669 04034 7775  C4034,  7775                / CLA MQA SCA MQL ASR +                 
 2670 04035 1766      TAD I C4166             /                                       @@4035=1766
 2671 04036 4771      JMS I C4171             / long call to S7200                    @@4036=4771
 2672 04037 4451      JMS I C0051             / long call to S6670                    @@4037=4451
 2673 04040 7775  C4040,  7775                / CLA MQA SCA MQL ASR +                 
 2674 04041 1765      TAD I C4165             /                                       @@4041=1765
 2675 04042 4771      JMS I C4171             / long call to S7200                    @@4042=4771
 2676 04043 4524      JMS I C0124             / long call to S5600                    @@4043=4524
 2677 04044 4764      JMS I C4164             / long call to S5430                    @@4044=4764
 2678 04045 4455      JMS I C0055             / long call to S6727                    @@4045=4455
 2679 04046 1763      TAD I C4163             /                                       @@4046=1763

      AUTOMATIC DISASSEMBLY OF MAINDEC-8E-D0LB-D-PB.bin BY D8TAPE        Page 48


 2680 04047 4771      JMS I C4171             / long call to S7200                    @@4047=4771
 2681 04050 4524      JMS I C0124             / long call to S5600                    @@4050=4524
 2682 04051 4762      JMS I C4162             / long call to S5434                    @@4051=4762
 2683 04052 4451      JMS I C0051             / long call to S6670                    @@4052=4451
 2684 04053 7775  C4053,  7775                / CLA MQA SCA MQL ASR +                 
 2685 04054 1761      TAD I C4161             /                                       @@4054=1761
 2686 04055 4771      JMS I C4171             / long call to S7200                    @@4055=4771
 2687 04056 4524      JMS I C0124             / long call to S5600                    @@4056=4524
 2688 04057 5600      JMP I S4000             / return                                @@4057=5600
 2689 04060 0000      AND   S0000             /                                       @@4060=0000
 2690 04061 7777  C4061,  7777                / CLA MQA SCA MQL LSR +                 
 2691 04062 7777  C4062,  7777                / CLA MQA SCA MQL LSR +                 
 2692 04063 7777  C4063,  7777                / CLA MQA SCA MQL LSR +                 
 2693 04064 7777  C4064,  7777                / CLA MQA SCA MQL LSR +                 
 2694 04065 7777  C4065,  7777                / CLA MQA SCA MQL LSR +                 
 2695 04066 7777  C4066,  7777                / CLA MQA SCA MQL LSR +                 
 2696 04067 7777  C4067,  7777                / CLA MQA SCA MQL LSR +                 
 2697 04070 7777  C4070,  7777                / CLA MQA SCA MQL LSR +                 
 2698 04071 7777  C4071,  7777                / CLA MQA SCA MQL LSR +                 
 2699 04072 7777  C4072,  7777                / CLA MQA SCA MQL LSR +                 
 2700 04073 7777  C4073,  7777                / CLA MQA SCA MQL LSR +                 
 2701 04074 7777  C4074,  7777                / CLA MQA SCA MQL LSR +                 
 2702 04075 7777  C4075,  7777                / CLA MQA SCA MQL LSR +                 
 2703 04076 7776      SPA SNA SZL CLA OSR HLT /                                       @@4076=7776
 2704 04077 7774      SPA SNA SZL CLA OSR     /                                       @@4077=7774
 2705 04100 7770      SPA SNA SZL CLA         /                                       @@4100=7770
 2706 04101 7760      SMA SZA SNL CLA         /                                       @@4101=7760
 2707 04102 7740  C4102,  7740                / SMA SZA CLA                           
 2708 04103 7700      SMA CLA                 /                                       @@4103=7700
 2709 04104 7600      7600                    /                                       @@4104=7600
 2710 04105 7400      7400                    /                                       @@4105=7400
 2711 04106 7000      NOP                     /                                       @@4106=7000
 2712 04107 6000  C4107,  6000                / 6000                                  
 2713 04110 4000      JMS   S0000             /                                       @@4110=4000
 2714 04111 0000      AND   S0000             /                                       @@4111=0000
 2715 04112 0000      AND   S0000             /                                       @@4112=0000
 2716 04113 0000      AND   S0000             /                                       @@4113=0000
 2717 04114 0000      AND   S0000             /                                       @@4114=0000
 2718 04115 0000      AND   S0000             /                                       @@4115=0000
 2719 04116 0000      AND   S0000             /                                       @@4116=0000
 2720 04117 0000      AND   S0000             /                                       @@4117=0000
 2721 04120 0000      AND   S0000             /                                       @@4120=0000
 2722 04121 0000      AND   S0000             /                                       @@4121=0000
 2723 04122 0000      AND   S0000             /                                       @@4122=0000
 2724 04123 0000  C4123,  0000                / AND   S0000                           
 2725 04124 0000      AND   S0000             /                                       @@4124=0000
 2726 04125 0000      AND   S0000             /                                       @@4125=0000
 2727             
 2728             ////////////////////////////////////////////////////////////////////////////////
 2729             /
 2730             /   SUBROUTINE:  S4126
 2731             /
 2732             /   Called from:
 2733             /   4002 
 2734             /   Total 0001 (1) calls
 2735             ////////////////////////////////////////////////////////////////////////////////
 2736             S4126,

      AUTOMATIC DISASSEMBLY OF MAINDEC-8E-D0LB-D-PB.bin BY D8TAPE        Page 49


 2737 04126 0000      0                       / return area
 2738 04127 4332      JMS   S4132             /                                       @@4127=4332
 2739 04130 4343      JMS   S4143             /                                       @@4130=4343
 2740 04131 5726      JMP I S4126             / return                                @@4131=5726
 2741             
 2742             ////////////////////////////////////////////////////////////////////////////////
 2743             /
 2744             /   SUBROUTINE:  S4132
 2745             /
 2746             /   Called from:
 2747             /   4127 5426 
 2748             /   Total 0002 (2) calls
 2749             ////////////////////////////////////////////////////////////////////////////////
 2750             S4132,
 2751 04132 0000      0                       / return area
 2752 04133 7240      STA                     / AC = 7777 (-0001)                     @@4133=7240
 2753 04134 0760      AND I C4160             /                                       @@4134=0760
 2754 04135 4526      JMS I C0126             / long call to S5613                    @@4135=4526
 2755 04136 1757      TAD I C4157             /                                       @@4136=1757
 2756 04137 4526      JMS I C0126             / long call to S5613                    @@4137=4526
 2757 04140 1756      TAD I C4156             /                                       @@4140=1756
 2758 04141 4526      JMS I C0126             / long call to S5613                    @@4141=4526
 2759 04142 5732      JMP I S4132             / return                                @@4142=5732
 2760             
 2761             ////////////////////////////////////////////////////////////////////////////////
 2762             /
 2763             /   SUBROUTINE:  S4143
 2764             /
 2765             /   Called from:
 2766             /   4130 
 2767             /   Total 0001 (1) calls
 2768             ////////////////////////////////////////////////////////////////////////////////
 2769             S4143,
 2770 04143 0000      0                       / return area
 2771 04144 7240      STA                     / AC = 7777 (-0001)                     @@4144=7240
 2772 04145 0755      AND I C4155             /                                       @@4145=0755
 2773 04146 4526      JMS I C0126             / long call to S5613                    @@4146=4526
 2774 04147 5743      JMP I S4143             / return                                @@4147=5743
 2775             
 2776       4155  *4155
 2777 04155 5477  C4155,  5477                / JMP I C0077                           
 2778 04156 5476  C4156,  5476                / JMP I C0076                           
 2779 04157 5475  C4157,  5475                / JMP I C0075                           
 2780 04160 5474  C4160,  5474                / JMP I C0074                           
 2781 04161 3700  C4161,  3700                / DCA I C4100                           
 2782             C4162,
 2783 04162 5434  C4162,  5434                / JMP I D0034                           
 2784 04163 3703  C4163,  3703                / DCA I C4103                           
 2785             C4164,
 2786 04164 5430  C4164,  5430                / JMP I C0030                           
 2787 04165 3706  C4165,  3706                / DCA I C4106                           
 2788 04166 3707  C4166,  3707                / DCA I C4107                           
 2789             C4167,
 2790 04167 5425  C4167,  5425                / JMP I D0025                           
 2791 04170 3705  C4170,  3705                / DCA I C4105                           
 2792             C4171,
 2793 04171 7200  C4171,  7200                / CLA                                   

      AUTOMATIC DISASSEMBLY OF MAINDEC-8E-D0LB-D-PB.bin BY D8TAPE        Page 50


 2794 04172 3704  C4172,  3704                / DCA I C4104                           
 2795             C4173,
 2796 04173 0302  C4173,  0302                / AND   C4102                           
 2797             C4174,
 2798 04174 5467  C4174,  5467                / JMP I D0067                           
 2799             C4175,
 2800 04175 0323  C4175,  0323                / AND   C4123                           
 2801             C4176,
 2802 04176 5462  C4176,  5462                / JMP I C0062                           
 2803             C4177,
 2804 04177 5455  C4177,  5455                / JMP I C0055                           
 2805             
 2806       4200  *4200
 2807             L4200,
 2808 04200 5261      JMP   L4261             /                                       @@4200=5261
 2809             L4201,
 2810 04201 4273      JMS   S4273             /                                       @@4201=4273
 2811             L4202,
 2812 04202 7240      STA                     / AC = 7777 (-0001)                     @@4202=7240
 2813 04203 0716      AND I C4316             /                                       @@4203=0716
 2814 04204 7421      MQL                     /                                       @@4204=7421
 2815 04205 7240      STA                     / AC = 7777 (-0001)                     @@4205=7240
 2816 04206 0717      AND I C4317             /                                       @@4206=0717
 2817 04207 7411  C4207,  7411                / NMI                                   
 2818 04210 3725      DCA I C4325             /                                       @@4210=3725
 2819 04211 7501      MQA                     /                                       @@4211=7501
 2820 04212 3726      DCA I C4326             /                                       @@4212=3726
 2821 04213 7441  C4213,  7441                / SCA                                   
 2822 04214 3727      DCA I C4327             /                                       @@4214=3727
 2823 04215 7240      STA                     / AC = 7777 (-0001)                     @@4215=7240
 2824 04216 0725      AND I C4325             /                                       @@4216=0725
 2825 04217 7140      CLL CMA                 /                                       @@4217=7140
 2826 04220 1716      TAD I C4316             /                                       @@4220=1716
 2827 04221 7040      CMA                     /                                       @@4221=7040
 2828 04222 7440      SZA                     /                                       @@4222=7440
 2829 04223 5333      JMP   L4333             /                                       @@4223=5333
 2830 04224 7430      SZL                     /                                       @@4224=7430
 2831 04225 5333      JMP   L4333             /                                       @@4225=5333
 2832 04226 7240      STA                     / AC = 7777 (-0001)                     @@4226=7240
 2833 04227 0726      AND I C4326             /                                       @@4227=0726
 2834 04230 7440      SZA                     /                                       @@4230=7440
 2835 04231 5333      JMP   L4333             /                                       @@4231=5333
 2836 04232 7240      STA                     / AC = 7777 (-0001)                     @@4232=7240
 2837 04233 0727      AND I C4327             /                                       @@4233=0727
 2838 04234 7140      CLL CMA                 /                                       @@4234=7140
 2839 04235 1331      TAD   C4331             /                                       @@4235=1331
 2840 04236 7040      CMA                     /                                       @@4236=7040
 2841 04237 7440      SZA                     /                                       @@4237=7440
 2842 04240 5333      JMP   L4333             /                                       @@4240=5333
 2843 04241 7430      SZL                     /                                       @@4241=7430
 2844 04242 5333      JMP   L4333             /                                       @@4242=5333
 2845 04243 2315      ISZ   D4315             /                                       @@4243=2315
 2846 04244 5202      JMP   L4202             /                                       @@4244=5202
 2847 04245 7604      LAS                     /                                       @@4245=7604
 2848 04246 7106      CLL RTL                 /                                       @@4246=7106
 2849 04247 7430      SZL                     /                                       @@4247=7430
 2850 04250 5202      JMP   L4202             /                                       @@4250=5202

      AUTOMATIC DISASSEMBLY OF MAINDEC-8E-D0LB-D-PB.bin BY D8TAPE        Page 51


 2851 04251 2322      ISZ   D4322             /                                       @@4251=2322
 2852 04252 5201      JMP   L4201             /                                       @@4252=5201
 2853 04253 7604      LAS                     /                                       @@4253=7604
 2854 04254 7106      CLL RTL                 /                                       @@4254=7106
 2855 04255 7006      RTL                     /                                       @@4255=7006
 2856 04256 7430      SZL                     /                                       @@4256=7430
 2857 04257 5200      JMP   L4200             /                                       @@4257=5200
 2858 04260 5724      JMP I C4324             / long jump to L4400                    @@4260=5724
 2859             L4261,
 2860 04261 7200      CLA                     /                                       @@4261=7200
 2861 04262 3315      DCA   D4315             /                                       @@4262=3315
 2862 04263 7400      7400                    /                                       @@4263=7400
 2863 04264 7040      CMA                     /                                       @@4264=7040
 2864 04265 0323      AND   C4323             /                                       @@4265=0323
 2865 04266 3322      DCA   D4322             /                                       @@4266=3322
 2866 04267 1331      TAD   C4331             /                                       @@4267=1331
 2867 04270 3730      DCA I C4330             /                                       @@4270=3730
 2868 04271 4535      JMS I C0135             / long call to S5274                    @@4271=4535
 2869 04272 5201      JMP   L4201             /                                       @@4272=5201
 2870             
 2871             ////////////////////////////////////////////////////////////////////////////////
 2872             /
 2873             /   SUBROUTINE:  S4273
 2874             /
 2875             /   Called from:
 2876             /   4201 
 2877             /   Total 0001 (1) calls
 2878             ////////////////////////////////////////////////////////////////////////////////
 2879             S4273,
 2880 04273 0000      0                       / return area
 2881 04274 7240      STA                     / AC = 7777 (-0001)                     @@4274=7240
 2882 04275 0322      AND   D4322             /                                       @@4275=0322
 2883 04276 7040      CMA                     /                                       @@4276=7040
 2884 04277 7440      SZA                     /                                       @@4277=7440
 2885 04300 5302      JMP   L4302             /                                       @@4300=5302
 2886 04301 5307      JMP   L4307             /                                       @@4301=5307
 2887             L4302,
 2888 04302 7240      STA                     / AC = 7777 (-0001)                     @@4302=7240
 2889 04303 0320      AND   C4320             /                                       @@4303=0320
 2890 04304 3716      DCA I C4316             /                                       @@4304=3716
 2891 04305 3717      DCA I C4317             /                                       @@4305=3717
 2892 04306 5673      JMP I S4273             / return                                @@4306=5673
 2893             L4307,
 2894 04307 7240      STA                     / AC = 7777 (-0001)                     @@4307=7240
 2895 04310 0321      AND   C4321             /                                       @@4310=0321
 2896 04311 3716      DCA I C4316             /                                       @@4311=3716
 2897 04312 7040      CMA                     /                                       @@4312=7040
 2898 04313 3717      DCA I C4317             /                                       @@4313=3717
 2899 04314 5673      JMP I S4273             / return                                @@4314=5673
 2900 04315 0000  D4315,  0000                / AND   S0000                           
 2901 04316 3705  C4316,  3705                / DCA I C4305                           
 2902 04317 3704  C4317,  3704                / DCA I C4304                           
 2903 04320 2525  C4320,  2525                / ISZ I L0125                           
 2904 04321 5252  C4321,  5252                / JMP   C4252                           
 2905 04322 0000  D4322,  0000                / AND   S0000                           
 2906 04323 7776  C4323,  7776                / SPA SNA SZL CLA OSR HLT               
 2907             C4324,

      AUTOMATIC DISASSEMBLY OF MAINDEC-8E-D0LB-D-PB.bin BY D8TAPE        Page 52


 2908 04324 4400  C4324,  4400                / JMS I S0000                           
 2909 04325 3707  C4325,  3707                / DCA I L4307                           
 2910 04326 3706  C4326,  3706                / DCA I C4306                           
 2911 04327 3700  C4327,  3700                / DCA I C4300                           
 2912 04330 3703  C4330,  3703                / DCA I C4303                           
 2913 04331 0014  C4331,  0014                / AND   AI4                             
 2914             C4332,
 2915 04332 4000  C4332,  4000                / JMS   S0000                           
 2916             L4333,
 2917 04333 4545      JMS I C0145             / long call to S5342                    @@4333=4545
 2918 04334 4732      JMS I C4332             / long call to S4000                    @@4334=4732
 2919 04335 4543      JMS I C0143             / long call to S5325                    @@4335=4543
 2920 04336 7402      HLT                     /                                       @@4336=7402
 2921 04337 4544      JMS I C0144             / long call to S5333                    @@4337=4544
 2922 04340 7610      SKP CLA                 /                                       @@4340=7610
 2923 04341 5202      JMP   L4202             /                                       @@4341=5202
 2924 04342 3315      DCA   D4315             /                                       @@4342=3315
 2925 04343 5202      JMP   L4202             /                                       @@4343=5202
 2926             
 2927       4400  *4400
 2928             L4400,
 2929 04400 5305      JMP   L4505             /                                       @@4400=5305
 2930             L4401,
 2931 04401 4253      JMS   S4453             /                                       @@4401=4253
 2932             L4402,
 2933 04402 7621      CAM                     /                                       @@4402=7621
 2934 04403 7040      CMA                     /                                       @@4403=7040
 2935 04404 0725      AND I C4525             /                                       @@4404=0725
 2936 04405 7421      MQL                     /                                       @@4405=7421
 2937 04406 7140      CLL CMA                 /                                       @@4406=7140
 2938 04407 0726      AND I C4526             /                                       @@4407=0726
 2939 04410 7411  C4410,  7411                / NMI                                   
 2940 04411 3727      DCA I C4527             /                                       @@4411=3727
 2941 04412 7501      MQA                     /                                       @@4412=7501
 2942 04413 3730      DCA I C4530             /                                       @@4413=3730
 2943 04414 7441  C4414,  7441                / SCA                                   
 2944 04415 3734      DCA I C4534             /                                       @@4415=3734
 2945 04416 7040      CMA                     /                                       @@4416=7040
 2946 04417 0727      AND I C4527             /                                       @@4417=0727
 2947 04420 7040      CMA                     /                                       @@4420=7040
 2948 04421 1331      TAD   D4531             /                                       @@4421=1331
 2949 04422 7040      CMA                     /                                       @@4422=7040
 2950 04423 7440      SZA                     /                                       @@4423=7440
 2951 04424 5313      JMP   L4513             /                                       @@4424=5313
 2952 04425 7430      SZL                     /                                       @@4425=7430
 2953 04426 5313      JMP   L4513             /                                       @@4426=5313
 2954 04427 7040      CMA                     /                                       @@4427=7040
 2955 04430 0730      AND I C4530             /                                       @@4430=0730
 2956 04431 7040      CMA                     /                                       @@4431=7040
 2957 04432 1332      TAD   D4532             /                                       @@4432=1332
 2958 04433 7040      CMA                     /                                       @@4433=7040
 2959 04434 7440      SZA                     /                                       @@4434=7440
 2960 04435 5313      JMP   L4513             /                                       @@4435=5313
 2961 04436 7430      SZL                     /                                       @@4436=7430
 2962 04437 5313      JMP   L4513             /                                       @@4437=5313
 2963 04440 7040      CMA                     /                                       @@4440=7040
 2964 04441 0734      AND I C4534             /                                       @@4441=0734

      AUTOMATIC DISASSEMBLY OF MAINDEC-8E-D0LB-D-PB.bin BY D8TAPE        Page 53


 2965 04442 7041      CIA                     /                                       @@4442=7041
 2966 04443 1733      TAD I C4533             /                                       @@4443=1733
 2967 04444 7420      SNL                     /                                       @@4444=7420
 2968 04445 5313      JMP   L4513             /                                       @@4445=5313
 2969 04446 2336      ISZ   D4536             /                                       @@4446=2336
 2970 04447 5202      JMP   L4402             /                                       @@4447=5202
 2971             L4450,
 2972 04450 4544      JMS I C0144             / long call to S5333                    @@4450=4544
 2973 04451 5202      JMP   L4402             /                                       @@4451=5202
 2974 04452 5345      JMP   L4545             /                                       @@4452=5345
 2975             
 2976             ////////////////////////////////////////////////////////////////////////////////
 2977             /
 2978             /   SUBROUTINE:  S4453
 2979             /
 2980             /   Called from:
 2981             /   4401 
 2982             /   Total 0001 (1) calls
 2983             ////////////////////////////////////////////////////////////////////////////////
 2984             S4453,
 2985 04453 0000      0                       / return area
 2986 04454 7240      STA                     / AC = 7777 (-0001)                     @@4454=7240
 2987 04455 0337      AND   D4537             /                                       @@4455=0337
 2988 04456 7040      CMA                     /                                       @@4456=7040
 2989 04457 7440      SZA                     /                                       @@4457=7440
 2990 04460 5262      JMP   L4462             /                                       @@4460=5262
 2991 04461 5271      JMP   L4471             /                                       @@4461=5271
 2992             L4462,
 2993 04462 7200      CLA                     /                                       @@4462=7200
 2994 04463 3726      DCA I C4526             /                                       @@4463=3726
 2995 04464 3725      DCA I C4525             /                                       @@4464=3725
 2996 04465 3331      DCA   D4531             /                                       @@4465=3331
 2997 04466 3332      DCA   D4532             /                                       @@4466=3332
 2998 04467 3733      DCA I C4533             /                                       @@4467=3733
 2999 04470 5653      JMP I S4453             / return                                @@4470=5653
 3000             L4471,
 3001 04471 7240      STA                     / AC = 7777 (-0001)                     @@4471=7240
 3002 04472 0335      AND   C4535             /                                       @@4472=0335
 3003 04473 3725      DCA I C4525             /                                       @@4473=3725
 3004 04474 7040      CMA                     /                                       @@4474=7040
 3005 04475 0340      AND   C4540             /                                       @@4475=0340
 3006 04476 3733      DCA I C4533             /                                       @@4476=3733
 3007 04477 3726      DCA I C4526             /                                       @@4477=3726
 3008 04500 3332      DCA   D4532             /                                       @@4500=3332
 3009 04501 7040      CMA                     /                                       @@4501=7040
 3010 04502 0341      AND   C4541             /                                       @@4502=0341
 3011 04503 3331      DCA   D4531             /                                       @@4503=3331
 3012 04504 5653      JMP I S4453             / return                                @@4504=5653
 3013             L4505,
 3014 04505 7240      STA                     / AC = 7777 (-0001)                     @@4505=7240
 3015 04506 0342      AND   C4542             /                                       @@4506=0342
 3016 04507 3337      DCA   D4537             /                                       @@4507=3337
 3017 04510 3336      DCA   D4536             /                                       @@4510=3336
 3018 04511 4535      JMS I C0135             / long call to S5274                    @@4511=4535
 3019 04512 5201      JMP   L4401             /                                       @@4512=5201
 3020             L4513,
 3021 04513 4545      JMS I C0145             / long call to S5342                    @@4513=4545

      AUTOMATIC DISASSEMBLY OF MAINDEC-8E-D0LB-D-PB.bin BY D8TAPE        Page 54


 3022 04514 4743      JMS I C4543             / long call to S4000                    @@4514=4743
 3023 04515 7604      LAS                     /                                       @@4515=7604
 3024 04516 7104      CLL RAL                 /                                       @@4516=7104
 3025 04517 7430      SZL                     /                                       @@4517=7430
 3026 04520 7402      HLT                     /                                       @@4520=7402
 3027 04521 5250      JMP   L4450             /                                       @@4521=5250
 3028             L4522,
 3029 04522 4546      JMS I C0146             / long call to S5400                    @@4522=4546
 3030 04523 5200      JMP   L4400             /                                       @@4523=5200
 3031 04524 5744      JMP I C4544             / long jump to L4600                    @@4524=5744
 3032 04525 3705  C4525,  3705                / DCA I L4505                           
 3033 04526 3704  C4526,  3704                / DCA I C4504                           
 3034 04527 3707  C4527,  3707                / DCA I C4507                           
 3035 04530 3706  C4530,  3706                / DCA I C4506                           
 3036 04531 0000  D4531,  0000                / AND   S0000                           
 3037 04532 0000  D4532,  0000                / AND   S0000                           
 3038 04533 3703  C4533,  3703                / DCA I C4503                           
 3039 04534 3700  C4534,  3700                / DCA I C4500                           
 3040 04535 0001  C4535,  0001                / AND   L0001                           
 3041 04536 0000  D4536,  0000                / AND   S0000                           
 3042 04537 0000  D4537,  0000                / AND   S0000                           
 3043 04540 0026  C4540,  0026                / AND   C0026                           
 3044 04541 2000  C4541,  2000                / ISZ   S0000                           
 3045 04542 7776  C4542,  7776                / SPA SNA SZL CLA OSR HLT               
 3046             C4543,
 3047 04543 4000  C4543,  4000                / JMS   S0000                           
 3048             C4544,
 3049 04544 4600  C4544,  4600                / JMS I L4400                           
 3050             L4545,
 3051 04545 2337      ISZ   D4537             /                                       @@4545=2337
 3052 04546 5201      JMP   L4401             /                                       @@4546=5201
 3053 04547 5322      JMP   L4522             /                                       @@4547=5322
 3054             
 3055       4600  *4600
 3056             L4600,
 3057 04600 7240      STA                     / AC = 7777 (-0001)                     @@4600=7240
 3058 04601 7421      MQL                     /                                       @@4601=7421
 3059 04602 7501      MQA                     /                                       @@4602=7501
 3060 04603 7401      7401                    /                                       @@4603=7401
 3061 04604 7410      SKP                     /                                       @@4604=7410
 3062 04605 7402      HLT                     /                                       @@4605=7402
 3063 04606 7040      CMA                     /                                       @@4606=7040
 3064 04607 7640      SZA CLA                 /                                       @@4607=7640
 3065 04610 7402      HLT                     /                                       @@4610=7402
 3066 04611 7501      MQA                     /                                       @@4611=7501
 3067 04612 7040      CMA                     /                                       @@4612=7040
 3068 04613 7440      SZA                     /                                       @@4613=7440
 3069 04614 7402      HLT                     /                                       @@4614=7402
 3070 04615 7240      STA                     / AC = 7777 (-0001)                     @@4615=7240
 3071 04616 7421      MQL                     /                                       @@4616=7421
 3072 04617 7501      MQA                     /                                       @@4617=7501
 3073 04620 7601      7601                    /                                       @@4620=7601
 3074 04621 7410      SKP                     /                                       @@4621=7410
 3075 04622 7402      HLT                     /                                       @@4622=7402
 3076 04623 7640      SZA CLA                 /                                       @@4623=7640
 3077 04624 7402      HLT                     /                                       @@4624=7402
 3078 04625 7501      MQA                     /                                       @@4625=7501

      AUTOMATIC DISASSEMBLY OF MAINDEC-8E-D0LB-D-PB.bin BY D8TAPE        Page 55


 3079 04626 7040      CMA                     /                                       @@4626=7040
 3080 04627 7440      SZA                     /                                       @@4627=7440
 3081 04630 7402      HLT                     /                                       @@4630=7402
 3082 04631 7240      STA                     / AC = 7777 (-0001)                     @@4631=7240
 3083 04632 7421      MQL                     /                                       @@4632=7421
 3084 04633 7501      MQA                     /                                       @@4633=7501
 3085 04634 7621      CAM                     /                                       @@4634=7621
 3086 04635 7501      MQA                     /                                       @@4635=7501
 3087 04636 7440      SZA                     /                                       @@4636=7440
 3088 04637 7402      HLT                     /                                       @@4637=7402
 3089 04640 7200      CLA                     /                                       @@4640=7200
 3090 04641 1172      TAD   C0172             /                                       @@4641=1172
 3091 04642 7421      MQL                     /                                       @@4642=7421
 3092 04643 1171      TAD   C0171             /                                       @@4643=1171
 3093 04644 7521      MQA MQL                 /                                       @@4644=7521
 3094 04645 1171      TAD   C0171             /                                       @@4645=1171
 3095 04646 7040      CMA                     /                                       @@4646=7040
 3096 04647 7440      SZA                     /                                       @@4647=7440
 3097 04650 7402      HLT                     /                                       @@4650=7402
 3098 04651 7501      MQA                     /                                       @@4651=7501
 3099             L4652,
 3100 04652 1172      TAD   C0172             /                                       @@4652=1172
 3101 04653 7040      CMA                     /                                       @@4653=7040
 3102 04654 7440      SZA                     /                                       @@4654=7440
 3103 04655 7402      HLT                     /                                       @@4655=7402
 3104 04656 7621      CAM                     /                                       @@4656=7621
 3105 04657 1171      TAD   C0171             /                                       @@4657=1171
 3106 04660 7421      MQL                     /                                       @@4660=7421
 3107             L4661,
 3108 04661 1172      TAD   C0172             /                                       @@4661=1172
 3109 04662 7701      CLA MQA                 /                                       @@4662=7701
 3110 04663 1172      TAD   C0172             /                                       @@4663=1172
 3111 04664 7040      CMA                     /                                       @@4664=7040
 3112 04665 7440      SZA                     /                                       @@4665=7440
 3113 04666 7402      HLT                     /                                       @@4666=7402
 3114 04667 7621      CAM                     /                                       @@4667=7621
 3115 04670 1115      TAD   D0115             /                                       @@4670=1115
 3116 04671 7650      SNA CLA                 /                                       @@4671=7650
 3117 04672 5353      JMP   L4753             /                                       @@4672=5353
 3118 04673 7431  C4673,  7431                / MQL NMI                               
 3119 04674 7621      CAM                     /                                       @@4674=7621
 3120 04675 1171      TAD   C0171             /                                       @@4675=1171
 3121 04676 7421      MQL                     /                                       @@4676=7421
 3122 04677 1172      TAD   C0172             /                                       @@4677=1172
 3123 04700 7663  C4700,  7663                / CLA SCA MQL SCL +                     
 3124 04701 4703  C4701,  4703                / JMS I C4703                           
 3125 04702 5305      JMP   L4705             /                                       @@4702=5305
 3126 04703 5252      JMP   L4652             /                                       @@4703=5252
 3127 04704 2525      ISZ I L0125             /                                       @@4704=2525
 3128             L4705,
 3129 04705 1172      TAD   C0172             /                                       @@4705=1172
 3130 04706 7040      CMA                     /                                       @@4706=7040
 3131 04707 7440      SZA                     /                                       @@4707=7440
 3132 04710 7402      HLT                     /                                       @@4710=7402
 3133 04711 7501      MQA                     /                                       @@4711=7501
 3134 04712 1171      TAD   C0171             /                                       @@4712=1171
 3135 04713 7040      CMA                     /                                       @@4713=7040

      AUTOMATIC DISASSEMBLY OF MAINDEC-8E-D0LB-D-PB.bin BY D8TAPE        Page 56


 3136 04714 7440      SZA                     /                                       @@4714=7440
 3137 04715 7402      HLT                     /                                       @@4715=7402
 3138 04716 7431  C4716,  7431                / MQL NMI                               
 3139 04717 7621      CAM                     /                                       @@4717=7621
 3140 04720 1171      TAD   C0171             /                                       @@4720=1171
 3141 04721 7421      MQL                     /                                       @@4721=7421
 3142 04722 7501      MQA                     /                                       @@4722=7501
 3143 04723 3332      DCA   D4732             /                                       @@4723=3332
 3144 04724 1172      TAD   C0172             /                                       @@4724=1172
 3145 04725 3333      DCA   D4733             /                                       @@4725=3333
 3146 04726 1172      TAD   C0172             /                                       @@4726=1172
 3147 04727 7665  C4727,  7665                / CLA SCA MQL MUY +                     
 3148 04730 4732      JMS I D4732             / long call to S0000                    @@4730=4732
 3149 04731 5334      JMP   L4734             /                                       @@4731=5334
 3150 04732 0000  D4732,  0000                / AND   S0000                           
 3151 04733 0000  D4733,  0000                / AND   S0000                           
 3152             L4734,
 3153 04734 7501      MQA                     /                                       @@4734=7501
 3154 04735 7440      SZA                     /                                       @@4735=7440
 3155 04736 7402      HLT                     /                                       @@4736=7402
 3156 04737 1332      TAD   D4732             /                                       @@4737=1332
 3157 04740 7440      SZA                     /                                       @@4740=7440
 3158 04741 7402      HLT                     /                                       @@4741=7402
 3159 04742 1333      TAD   D4733             /                                       @@4742=1333
 3160 04743 7440      SZA                     /                                       @@4743=7440
 3161 04744 7402      HLT                     /                                       @@4744=7402
 3162 04745 7431  C4745,  7431                / MQL NMI                               
 3163 04746 7621      CAM                     /                                       @@4746=7621
 3164 04747 7330      CLA CLL CML RAR         / AC = 4000 (-4000 = -2048 dec)         @@4747=7330
 3165 04750 7411  C4750,  7411                / NMI                                   
 3166 04751 7440      SZA                     /                                       @@4751=7440
 3167 04752 7402      HLT                     /                                       @@4752=7402
 3168             L4753,
 3169 04753 7447  C4753,  7447                / SCA DVI +                             
 3170 04754 4546      JMS I C0146             / long call to S5400                    @@4754=4546
 3171 04755 5200      JMP   L4600             /                                       @@4755=5200
 3172 04756 2117      ISZ   L0117             /                                       @@4756=2117
 3173 04757 5200      JMP   L4600             /                                       @@4757=5200
 3174 04760 5777      JMP I C4777             / long jump to L5261                    @@4760=5777
 3175             
 3176       4777  *4777
 3177             C4777,
 3178 04777 5261  C4777,  5261                / JMP   L4661                           
 3179             
 3180       5000  *5000
 3181             L5000,
 3182 05000 0000      AND   S0000             /                                       @@5000=0000
 3183             L5001,
 3184 05001 7621  C5001,  7621                / CAM                                   
 3185 05002 7451  C5002,  7451                / SCA NMI                               
 3186 05003 7410      SKP                     /                                       @@5003=7410
 3187 05004 7402      HLT                     /                                       @@5004=7402
 3188 05005 7431  C5005,  7431                / MQL NMI                               
 3189 05006 7621      CAM                     /                                       @@5006=7621
 3190 05007 7451  C5007,  7451                / SCA NMI                               
 3191 05010 7402      HLT                     /                                       @@5010=7402
 3192 05011 7447  C5011,  7447                / SCA DVI +                             

      AUTOMATIC DISASSEMBLY OF MAINDEC-8E-D0LB-D-PB.bin BY D8TAPE        Page 57


 3193 05012 7621      CAM                     /                                       @@5012=7621
 3194 05013 7451  C5013,  7451                / SCA NMI                               
 3195 05014 7410      SKP                     /                                       @@5014=7410
 3196 05015 7402      HLT                     /                                       @@5015=7402
 3197 05016 7431  C5016,  7431                / MQL NMI                               
 3198 05017 6007  C5017,  6007                / 6007                                  
 3199 05020 7621      CAM                     /                                       @@5020=7621
 3200 05021 7451  C5021,  7451                / SCA NMI                               
 3201 05022 7610      SKP CLA                 /                                       @@5022=7610
 3202 05023 7402      HLT                     /                                       @@5023=7402
 3203 05024 7200      CLA                     /                                       @@5024=7200
 3204 05025 7403  C5025,  7403                / SCL +                                 
 3205 05026 7737  C5026,  7737                / CLA MQA MQL LSR +                     
 3206 05027 7441  C5027,  7441                / SCA                                   
 3207 05030 7640      SZA CLA                 /                                       @@5030=7640
 3208 05031 7402      HLT                     /                                       @@5031=7402
 3209 05032 7403  C5032,  7403                / SCL +                                 
 3210 05033 7776  C5033,  7776                / SPA SNA SZL CLA OSR HLT               
 3211 05034 7441  C5034,  7441                / SCA                                   
 3212 05035 1233      TAD   C5033             /                                       @@5035=1233
 3213 05036 7040      CMA                     /                                       @@5036=7040
 3214 05037 7640      SZA CLA                 /                                       @@5037=7640
 3215 05040 7402      HLT                     /                                       @@5040=7402
 3216 05041 7403  C5041,  7403                / SCL +                                 
 3217 05042 7775  C5042,  7775                / CLA MQA SCA MQL ASR +                 
 3218 05043 7441  C5043,  7441                / SCA                                   
 3219 05044 1242      TAD   C5042             /                                       @@5044=1242
 3220 05045 7040      CMA                     /                                       @@5045=7040
 3221 05046 7640      SZA CLA                 /                                       @@5046=7640
 3222 05047 7402      HLT                     /                                       @@5047=7402
 3223 05050 7403  C5050,  7403                / SCL +                                 
 3224 05051 7773  C5051,  7773                / CLA MQA SCA MQL SHL +                 
 3225 05052 7441  C5052,  7441                / SCA                                   
 3226 05053 1251      TAD   C5051             /                                       @@5053=1251
 3227 05054 7040      CMA                     /                                       @@5054=7040
 3228 05055 7640      SZA CLA                 /                                       @@5055=7640
 3229 05056 7402      HLT                     /                                       @@5056=7402
 3230 05057 7403  C5057,  7403                / SCL +                                 
 3231 05060 7767  C5060,  7767                / CLA MQA SCA MQL DVI +                 
 3232 05061 7441  C5061,  7441                / SCA                                   
 3233 05062 1260      TAD   C5060             /                                       @@5062=1260
 3234 05063 7040      CMA                     /                                       @@5063=7040
 3235 05064 7640      SZA CLA                 /                                       @@5064=7640
 3236 05065 7402      HLT                     /                                       @@5065=7402
 3237 05066 7403  C5066,  7403                / SCL +                                 
 3238 05067 7757  C5067,  7757                / CLA MQA SCA LSR +                     
 3239 05070 7441  C5070,  7441                / SCA                                   
 3240 05071 1267      TAD   C5067             /                                       @@5071=1267
 3241 05072 7040      CMA                     /                                       @@5072=7040
 3242 05073 7640      SZA CLA                 /                                       @@5073=7640
 3243 05074 7402      HLT                     /                                       @@5074=7402
 3244 05075 7403  C5075,  7403                / SCL +                                 
 3245 05076 7765  C5076,  7765                / CLA MQA SCA MQL MUY +                 
 3246 05077 7441  C5077,  7441                / SCA                                   
 3247 05100 1276      TAD   C5076             /                                       @@5100=1276
 3248 05101 7040      CMA                     /                                       @@5101=7040
 3249 05102 7640      SZA CLA                 /                                       @@5102=7640

      AUTOMATIC DISASSEMBLY OF MAINDEC-8E-D0LB-D-PB.bin BY D8TAPE        Page 58


 3250 05103 7402      HLT                     /                                       @@5103=7402
 3251 05104 7403  C5104,  7403                / SCL +                                 
 3252 05105 7752  C5105,  7752                / SPA SNA CLA HLT                       
 3253 05106 7441  C5106,  7441                / SCA                                   
 3254 05107 1305      TAD   C5105             /                                       @@5107=1305
 3255 05110 7040      CMA                     /                                       @@5110=7040
 3256 05111 7640      SZA CLA                 /                                       @@5111=7640
 3257 05112 7402      HLT                     /                                       @@5112=7402
 3258 05113 7403  C5113,  7403                / SCL +                                 
 3259 05114 0077      AND   C0077             /                                       @@5114=0077
 3260 05115 7441  C5115,  7441                / SCA                                   
 3261 05116 7640      SZA CLA                 /                                       @@5116=7640
 3262 05117 7402      HLT                     /                                       @@5117=7402
 3263 05120 7403  C5120,  7403                / SCL +                                 
 3264 05121 7700      SMA CLA                 /                                       @@5121=7700
 3265 05122 7441  C5122,  7441                / SCA                                   
 3266 05123 1123      TAD   C0123             /                                       @@5123=1123
 3267 05124 7040      CMA                     /                                       @@5124=7040
 3268 05125 7640      SZA CLA                 /                                       @@5125=7640
 3269 05126 7402      HLT                     /                                       @@5126=7402
 3270 05127 7403  C5127,  7403                / SCL +                                 
 3271 05130 7777  C5130,  7777                / CLA MQA SCA MQL LSR +                 
 3272 05131 7240      STA                     / AC = 7777 (-0001)                     @@5131=7240
 3273 05132 7441  C5132,  7441                / SCA                                   
 3274 05133 7040      CMA                     /                                       @@5133=7040
 3275 05134 7440      SZA                     /                                       @@5134=7440
 3276 05135 7402      HLT                     /                                       @@5135=7402
 3277 05136 7403  C5136,  7403                / SCL +                                 
 3278 05137 7752  C5137,  7752                / SPA SNA CLA HLT                       
 3279 05140 7200      CLA                     /                                       @@5140=7200
 3280 05141 1337      TAD   C5137             /                                       @@5141=1337
 3281 05142 7441  C5142,  7441                / SCA                                   
 3282 05143 7040      CMA                     /                                       @@5143=7040
 3283 05144 7440      SZA                     /                                       @@5144=7440
 3284 05145 7402      HLT                     /                                       @@5145=7402
 3285 05146 7403  C5146,  7403                / SCL +                                 
 3286 05147 7765  C5147,  7765                / CLA MQA SCA MQL MUY +                 
 3287 05150 7200      CLA                     /                                       @@5150=7200
 3288 05151 1347      TAD   C5147             /                                       @@5151=1347
 3289 05152 7441  C5152,  7441                / SCA                                   
 3290 05153 7040      CMA                     /                                       @@5153=7040
 3291 05154 7440      SZA                     /                                       @@5154=7440
 3292 05155 7402      HLT                     /                                       @@5155=7402
 3293 05156 7431  C5156,  7431                / MQL NMI                               
 3294 05157 7360      CLA CLL CMA CML         /                                       @@5157=7360
 3295 05160 7403  C5160,  7403                / SCL +                                 
 3296 05161 7430      SZL                     /                                       @@5161=7430
 3297 05162 7440      SZA                     /                                       @@5162=7440
 3298 05163 7402      HLT                     /                                       @@5163=7402
 3299 05164 7441  C5164,  7441                / SCA                                   
 3300 05165 1123      TAD   C0123             /                                       @@5165=1123
 3301 05166 7040      CMA                     /                                       @@5166=7040
 3302 05167 7440      SZA                     /                                       @@5167=7440
 3303 05170 7402      HLT                     /                                       @@5170=7402
 3304 05171 5777      JMP I C5177             / long jump to L5200                    @@5171=5777
 3305             
 3306       5177  *5177

      AUTOMATIC DISASSEMBLY OF MAINDEC-8E-D0LB-D-PB.bin BY D8TAPE        Page 59


 3307             C5177,
 3308 05177 5200  C5177,  5200                / JMP   L5000                           
 3309             
 3310       5200  *5200
 3311             L5200,
 3312 05200 7320      CLA CLL CML             /                                       @@5200=7320
 3313 05201 1123      TAD   C0123             /                                       @@5201=1123
 3314 05202 7403  C5202,  7403                / SCL +                                 
 3315 05203 7430      SZL                     /                                       @@5203=7430
 3316 05204 7440  C5204,  7440                / SZA                                   
 3317 05205 7402      HLT                     /                                       @@5205=7402
 3318 05206 7441  C5206,  7441                / SCA                                   
 3319 05207 7440      SZA                     /                                       @@5207=7440
 3320 05210 7402      HLT                     /                                       @@5210=7402
 3321 05211 7431  C5211,  7431                / MQL NMI                               
 3322 05212 7300      CLA CLL                 / AC = 0000                             @@5212=7300
 3323 05213 4554      JMS I C0154             / long call to S6000                    @@5213=4554
 3324 05214 6004  C5214,  6004                / 6004                                  
 3325 05215 0377      AND   C5377             /                                       @@5215=0377
 3326 05216 7006      RTL                     /                                       @@5216=7006
 3327 05217 7430      SZL                     /                                       @@5217=7430
 3328 05220 7402      HLT                     /                                       @@5220=7402
 3329 05221 7431  C5221,  7431                / MQL NMI                               
 3330 05222 7332      CLA CLL CML RTR         / AC = 2000 (1024)                      @@5222=7332
 3331 05223 4554      JMS I C0154             / long call to S6000                    @@5223=4554
 3332 05224 6004  C5224,  6004                / 6004                                  
 3333 05225 0377      AND   C5377             /                                       @@5225=0377
 3334 05226 7006      RTL                     /                                       @@5226=7006
 3335 05227 7420      SNL                     /                                       @@5227=7420
 3336 05230 7402      HLT                     /                                       @@5230=7402
 3337 05231 7431  C5231,  7431                / MQL NMI                               
 3338 05232 7300      CLA CLL                 / AC = 0000                             @@5232=7300
 3339 05233 4554      JMS I C0154             / long call to S6000                    @@5233=4554
 3340 05234 6006  C5234,  6006                / 6006                                  
 3341 05235 7410      SKP                     /                                       @@5235=7410
 3342 05236 7402      HLT                     /                                       @@5236=7402
 3343 05237 7431  C5237,  7431                / MQL NMI                               
 3344 05240 7332      CLA CLL CML RTR         / AC = 2000 (1024)                      @@5240=7332
 3345 05241 4554      JMS I C0154             / long call to S6000                    @@5241=4554
 3346 05242 6006  C5242,  6006                / 6006                                  
 3347 05243 7402      HLT                     /                                       @@5243=7402
 3348 05244 7431  C5244,  7431                / MQL NMI                               
 3349 05245 7332      CLA CLL CML RTR         / AC = 2000 (1024)                      @@5245=7332
 3350 05246 4554      JMS I C0154             / long call to S6000                    @@5246=4554
 3351 05247 7447  C5247,  7447                / SCA DVI +                             
 3352 05250 6006  C5250,  6006                / 6006                                  
 3353 05251 7610      SKP CLA                 /                                       @@5251=7610
 3354 05252 7402      HLT                     /                                       @@5252=7402
 3355 05253 4546      JMS I C0146             / long call to S5400                    @@5253=4546
 3356 05254 5776      JMP I C5376             / long jump to L5001                    @@5254=5776
 3357 05255 2117      ISZ   L0117             /                                       @@5255=2117
 3358 05256 5776      JMP I C5376             / long jump to L5001                    @@5256=5776
 3359 05257 6007  C5257,  6007                / 6007                                  
 3360 05260 5775      JMP I C5375             / long jump to L0204                    @@5260=5775
 3361             L5261,
 3362 05261 4524      JMS I C0124             / long call to S5600                    @@5261=4524
 3363 05262 1115      TAD   D0115             /                                       @@5262=1115

      AUTOMATIC DISASSEMBLY OF MAINDEC-8E-D0LB-D-PB.bin BY D8TAPE        Page 60


 3364 05263 7650      SNA CLA                 /                                       @@5263=7650
 3365 05264 5267      JMP   L5267             /                                       @@5264=5267
 3366 05265 4450      JMS I C0050             / long call to S6600                    @@5265=4450
 3367 05266 7532      SPA SZL HLT             /                                       @@5266=7532
 3368             L5267,
 3369 05267 1115      TAD   D0115             /                                       @@5267=1115
 3370 05270 7140      CLL CMA                 /                                       @@5270=7140
 3371 05271 3115      DCA   D0115             /                                       @@5271=3115
 3372 05272 6007  C5272,  6007                / 6007                                  
 3373 05273 5774      JMP I C5374             / long jump to L0202                    @@5273=5774
 3374             
 3375             ////////////////////////////////////////////////////////////////////////////////
 3376             /
 3377             /   SUBROUTINE:  S5274
 3378             /
 3379             /   Called from:
 3380             /   0252 0435 0546 0712 1040 1206 1327 1406 1465 1624 1704 2024 2104 2224 2420 
 3381             /   2630 2675 3006 3103 3235 3425 3522 3670 4271 4511 
 3382             /   Total 0031 (25) calls
 3383             ////////////////////////////////////////////////////////////////////////////////
 3384             S5274,
 3385 05274 0000      0                       / return area
 3386 05275 7604      LAS                     /                                       @@5275=7604
 3387 05276 7112      CLL RTR                 /                                       @@5276=7112
 3388 05277 7430      SZL                     /                                       @@5277=7430
 3389 05300 5311      JMP   L5311             /                                       @@5300=5311
 3390             L5301,
 3391 05301 7200      CLA                     /                                       @@5301=7200
 3392 05302 1115      TAD   D0115             /                                       @@5302=1115
 3393 05303 7640      SZA CLA                 /                                       @@5303=7640
 3394 05304 5307      JMP   L5307             /                                       @@5304=5307
 3395 05305 7447  C5305,  7447                / SCA DVI +                             
 3396 05306 5674      JMP I S5274             / return                                @@5306=5674
 3397             L5307,
 3398 05307 7431  C5307,  7431                / MQL NMI                               
 3399 05310 5674      JMP I S5274             / return                                @@5310=5674
 3400             L5311,
 3401 05311 7710      SPA CLA                 /                                       @@5311=7710
 3402 05312 5315      JMP   L5315             /                                       @@5312=5315
 3403             L5313,
 3404 05313 3115      DCA   D0115             /                                       @@5313=3115
 3405 05314 5301      JMP   L5301             /                                       @@5314=5301
 3406             L5315,
 3407 05315 7140      CLL CMA                 /                                       @@5315=7140
 3408 05316 5313      JMP   L5313             /                                       @@5316=5313
 3409             
 3410             ////////////////////////////////////////////////////////////////////////////////
 3411             /
 3412             /   SUBROUTINE:  S5317
 3413             /
 3414             /   Called from:
 3415             /   1330 1407 2631 2676 3007 3104 3236 3426 3523 
 3416             /   Total 0011 (9) calls
 3417             ////////////////////////////////////////////////////////////////////////////////
 3418             S5317,
 3419 05317 0000      0                       / return area
 3420 05320 7200      CLA                     /                                       @@5320=7200

      AUTOMATIC DISASSEMBLY OF MAINDEC-8E-D0LB-D-PB.bin BY D8TAPE        Page 61


 3421 05321 1115      TAD   D0115             /                                       @@5321=1115
 3422 05322 7700      SMA CLA                 /                                       @@5322=7700
 3423 05323 5575      JMP I C0175             / long jump to L5551                    @@5323=5575
 3424 05324 5717      JMP I S5317             / return                                @@5324=5717
 3425             
 3426             ////////////////////////////////////////////////////////////////////////////////
 3427             /
 3428             /   SUBROUTINE:  S5325
 3429             /
 3430             /   Called from:
 3431             /   1300 1413 1476 1630 1715 2030 2115 2230 2515 2636 2702 3013 3123 3273 3433 
 3432             /   3530 3652 4335 
 3433             /   Total 0022 (18) calls
 3434             ////////////////////////////////////////////////////////////////////////////////
 3435             S5325,
 3436 05325 0000      0                       / return area
 3437 05326 7604      LAS                     /                                       @@5326=7604
 3438 05327 7710      SPA CLA                 /                                       @@5327=7710
 3439 05330 5725      JMP I S5325             / return                                @@5330=5725
 3440 05331 2325      ISZ   S5325             /                                       @@5331=2325
 3441 05332 5725      JMP I S5325             / return                                @@5332=5725
 3442             
 3443             ////////////////////////////////////////////////////////////////////////////////
 3444             /
 3445             /   SUBROUTINE:  S5333
 3446             /
 3447             /   Called from:
 3448             /   1302 1415 1500 1632 1717 2032 2117 2232 2517 2640 2704 3015 3125 3275 3435 
 3449             /   3532 3654 4337 4450 
 3450             /   Total 0023 (19) calls
 3451             ////////////////////////////////////////////////////////////////////////////////
 3452             S5333,
 3453 05333 0000      0                       / return area
 3454 05334 7604      LAS                     /                                       @@5334=7604
 3455 05335 7004      RAL                     /                                       @@5335=7004
 3456 05336 7710      SPA CLA                 /                                       @@5336=7710
 3457 05337 5733      JMP I S5333             / return                                @@5337=5733
 3458 05340 2333      ISZ   S5333             /                                       @@5340=2333
 3459 05341 5733      JMP I S5333             / return                                @@5341=5733
 3460             
 3461             ////////////////////////////////////////////////////////////////////////////////
 3462             /
 3463             /   SUBROUTINE:  S5342
 3464             /
 3465             /   Called from:
 3466             /   0231 1276 1411 1474 1626 1713 2026 2113 2226 2513 2634 2700 3011 3115 3265 
 3467             /   3431 3526 3650 4333 4513 
 3468             /   Total 0024 (20) calls
 3469             ////////////////////////////////////////////////////////////////////////////////
 3470             S5342,
 3471 05342 0000      0                       / return area
 3472 05343 7604      LAS                     /                                       @@5343=7604
 3473 05344 7106      CLL RTL                 /                                       @@5344=7106
 3474 05345 7710      SPA CLA                 /                                       @@5345=7710
 3475 05346 5742      JMP I S5342             / return                                @@5346=5742
 3476 05347 2342      ISZ   S5342             /                                       @@5347=2342
 3477 05350 5742      JMP I S5342             / return                                @@5350=5742

      AUTOMATIC DISASSEMBLY OF MAINDEC-8E-D0LB-D-PB.bin BY D8TAPE        Page 62


 3478             
 3479       5374  *5374
 3480             C5374,
 3481 05374 0202  C5374,  0202                / AND   C5202                           
 3482             C5375,
 3483 05375 0204  C5375,  0204                / AND   C5204                           
 3484             C5376,
 3485 05376 5001  C5376,  5001                / JMP   L0001                           
 3486 05377 2000  C5377,  2000                / ISZ   S0000                           
 3487             
 3488       5400  *5400
 3489             L5400,
 3490             
 3491             ////////////////////////////////////////////////////////////////////////////////
 3492             /
 3493             /   SUBROUTINE:  S5400
 3494             /
 3495             /   Called from:
 3496             /   4522 4754 5253 
 3497             /   Total 0003 (3) calls
 3498             ////////////////////////////////////////////////////////////////////////////////
 3499             S5400,
 3500 05400 0000      0                       / return area
 3501 05401 7604      LAS                     /                                       @@5401=7604
 3502 05402 7106      CLL RTL                 /                                       @@5402=7106
 3503 05403 7104      CLL RAL                 /                                       @@5403=7104
 3504 05404 7710      SPA CLA                 /                                       @@5404=7710
 3505 05405 5600      JMP I S5400             / return                                @@5405=5600
 3506 05406 2200      ISZ   S5400             /                                       @@5406=2200
 3507 05407 5600      JMP I S5400             / return                                @@5407=5600
 3508             L5410,
 3509             
 3510             ////////////////////////////////////////////////////////////////////////////////
 3511             /
 3512             /   SUBROUTINE:  S5410
 3513             /
 3514             /   Called from:
 3515             /   1255 1345 1445 1610 1664 2010 2064 2210 2272 2512 2613 2661 2725 3045 3215 
 3516             /   3321 3461 
 3517             /   Total 0021 (17) calls
 3518             ////////////////////////////////////////////////////////////////////////////////
 3519             S5410,
 3520 05410 0000      0                       / return area
 3521 05411 3034      DCA   D0034             /                                       @@5411=3034
 3522 05412 7701      CLA MQA                 /                                       @@5412=7701
 3523 05413 3035      DCA   D0035             /                                       @@5413=3035
 3524 05414 7210      CLA RAR                 /                                       @@5414=7210
 3525 05415 3033      DCA   L0033             /                                       @@5415=3033
 3526 05416 7641  C5416,  7641                / CLA SCA                               
 3527 05417 3036      DCA   D0036             /                                       @@5417=3036
 3528 05420 6004  C5420,  6004                / 6004                                  
 3529 05421 0377      AND   C5577             /                                       @@5421=0377
 3530 05422 7104      CLL RAL                 /                                       @@5422=7104
 3531 05423 3037      DCA   D0037             /                                       @@5423=3037
 3532 05424 5610      JMP I S5410             / return                                @@5424=5610
 3533             
 3534             ////////////////////////////////////////////////////////////////////////////////

      AUTOMATIC DISASSEMBLY OF MAINDEC-8E-D0LB-D-PB.bin BY D8TAPE        Page 63


 3535             /
 3536             /   SUBROUTINE:  S5425
 3537             /
 3538             /   Called from:
 3539             /   4032 
 3540             /   Total 0001 (1) calls
 3541             ////////////////////////////////////////////////////////////////////////////////
 3542             S5425,
 3543 05425 0000      0                       / return area
 3544 05426 4776      JMS I C5576             / long call to S4132                    @@5426=4776
 3545 05427 5625      JMP I S5425             / return                                @@5427=5625
 3546             
 3547             ////////////////////////////////////////////////////////////////////////////////
 3548             /
 3549             /   SUBROUTINE:  S5430
 3550             /
 3551             /   Called from:
 3552             /   4044 
 3553             /   Total 0001 (1) calls
 3554             ////////////////////////////////////////////////////////////////////////////////
 3555             S5430,
 3556 05430 0000      0                       / return area
 3557 05431 4237      JMS   S5437             /                                       @@5431=4237
 3558 05432 4250      JMS   S5450             /                                       @@5432=4250
 3559 05433 5630      JMP I S5430             / return                                @@5433=5630
 3560             
 3561             ////////////////////////////////////////////////////////////////////////////////
 3562             /
 3563             /   SUBROUTINE:  S5434
 3564             /
 3565             /   Called from:
 3566             /   4051 
 3567             /   Total 0001 (1) calls
 3568             ////////////////////////////////////////////////////////////////////////////////
 3569             S5434,
 3570 05434 0000      0                       / return area
 3571 05435 4237      JMS   S5437             /                                       @@5435=4237
 3572 05436 5634      JMP I S5434             / return                                @@5436=5634
 3573             
 3574             ////////////////////////////////////////////////////////////////////////////////
 3575             /
 3576             /   SUBROUTINE:  S5437
 3577             /
 3578             /   Called from:
 3579             /   5431 5435 
 3580             /   Total 0002 (2) calls
 3581             ////////////////////////////////////////////////////////////////////////////////
 3582             S5437,
 3583 05437 0000      0                       / return area
 3584 05440 7240      STA                     / AC = 7777 (-0001)                     @@5440=7240
 3585 05441 0300      AND   C5500             /                                       @@5441=0300
 3586 05442 4526      JMS I C0126             / long call to S5613                    @@5442=4526
 3587 05443 1301      TAD   C5501             /                                       @@5443=1301
 3588 05444 4526      JMS I C0126             / long call to S5613                    @@5444=4526
 3589 05445 1302      TAD   C5502             /                                       @@5445=1302
 3590 05446 4526      JMS I C0126             / long call to S5613                    @@5446=4526
 3591 05447 5637      JMP I S5437             / return                                @@5447=5637

      AUTOMATIC DISASSEMBLY OF MAINDEC-8E-D0LB-D-PB.bin BY D8TAPE        Page 64


 3592             
 3593             ////////////////////////////////////////////////////////////////////////////////
 3594             /
 3595             /   SUBROUTINE:  S5450
 3596             /
 3597             /   Called from:
 3598             /   5432 
 3599             /   Total 0001 (1) calls
 3600             ////////////////////////////////////////////////////////////////////////////////
 3601             S5450,
 3602 05450 0000      0                       / return area
 3603 05451 7240      STA                     / AC = 7777 (-0001)                     @@5451=7240
 3604 05452 0277      AND   C5477             /                                       @@5452=0277
 3605 05453 4526      JMS I C0126             / long call to S5613                    @@5453=4526
 3606 05454 5650      JMP I S5450             / return                                @@5454=5650
 3607             
 3608             ////////////////////////////////////////////////////////////////////////////////
 3609             /
 3610             /   SUBROUTINE:  S5455
 3611             /
 3612             /   Called from:
 3613             /   4005 4013 
 3614             /   Total 0002 (2) calls
 3615             ////////////////////////////////////////////////////////////////////////////////
 3616             S5455,
 3617 05455 0000      0                       / return area
 3618 05456 7200      CLA                     /                                       @@5456=7200
 3619 05457 1077      TAD   C0077             /                                       @@5457=1077
 3620 05460 4526      JMS I C0126             / long call to S5613                    @@5460=4526
 3621 05461 5655      JMP I S5455             / return                                @@5461=5655
 3622             
 3623             ////////////////////////////////////////////////////////////////////////////////
 3624             /
 3625             /   SUBROUTINE:  S5462
 3626             /
 3627             /   Called from:
 3628             /   4006 4014 
 3629             /   Total 0002 (2) calls
 3630             ////////////////////////////////////////////////////////////////////////////////
 3631             S5462,
 3632 05462 0000      0                       / return area
 3633 05463 7200      CLA                     /                                       @@5463=7200
 3634 05464 1375      TAD   C5575             /                                       @@5464=1375
 3635 05465 4526      JMS I C0126             / long call to S5613                    @@5465=4526
 3636 05466 5662      JMP I S5462             / return                                @@5466=5662
 3637             
 3638             ////////////////////////////////////////////////////////////////////////////////
 3639             /
 3640             /   SUBROUTINE:  S5467
 3641             /
 3642             /   Called from:
 3643             /   4010 4016 
 3644             /   Total 0002 (2) calls
 3645             ////////////////////////////////////////////////////////////////////////////////
 3646             S5467,
 3647 05467 0000      0                       / return area
 3648 05470 7200      CLA                     /                                       @@5470=7200

      AUTOMATIC DISASSEMBLY OF MAINDEC-8E-D0LB-D-PB.bin BY D8TAPE        Page 65


 3649 05471 1374      TAD   C5574             /                                       @@5471=1374
 3650 05472 4526      JMS I C0126             / long call to S5613                    @@5472=4526
 3651 05473 5667      JMP I S5467             / return                                @@5473=5667
 3652 05474 0316  C5474,  0316                / AND   C5516                           
 3653 05475 0315  C5475,  0315                / AND   L5515                           
 3654 05476 0311  C5476,  0311                / AND   C5511                           
 3655 05477 0324  C5477,  0324                / AND   C5524                           
 3656 05500 0323  C5500,  0323                / AND   C5523                           
 3657 05501 0303  C5501,  0303                / AND   S5503                           
 3658 05502 0301  C5502,  0301                / AND   C5501                           
 3659             
 3660             ////////////////////////////////////////////////////////////////////////////////
 3661             /
 3662             /   SUBROUTINE:  S5503
 3663             /
 3664             /   Called from:
 3665             /   1340 2655 2721 
 3666             /   Total 0003 (3) calls
 3667             ////////////////////////////////////////////////////////////////////////////////
 3668             S5503,
 3669 05503 0000      0                       / return area
 3670 05504 1115      TAD   D0115             /                                       @@5504=1115
 3671 05505 7640      SZA CLA                 /                                       @@5505=7640
 3672 05506 5315      JMP   L5515             /                                       @@5506=5315
 3673 05507 1024      TAD   D0024             /                                       @@5507=1024
 3674 05510 7040      CMA                     /                                       @@5510=7040
 3675 05511 3313  C5511,  3313                / DCA   C5513                           
 3676 05512 7403  C5512,  7403                / SCL +                                 
 3677 05513 0000      AND   S0000             /                                       @@5513=0000
 3678 05514 5703      JMP I S5503             / return                                @@5514=5703
 3679             L5515,
 3680 05515 1024  C5515,  1024                / TAD   D0024                           
 3681 05516 7403  C5516,  7403                / SCL +                                 
 3682 05517 5703      JMP I S5503             / return                                @@5517=5703
 3683             
 3684             ////////////////////////////////////////////////////////////////////////////////
 3685             /
 3686             /   SUBROUTINE:  S5520
 3687             /
 3688             /   Called from:
 3689             /   1316 1401 1454 1617 1673 2017 2073 2217 2401 2622 2670 3001 3070 3224 3414 
 3690             /   3515 
 3691             /   Total 0020 (16) calls
 3692             ////////////////////////////////////////////////////////////////////////////////
 3693             S5520,
 3694 05520 0000      0                       / return area
 3695 05521 7344      CLA CLL CMA RAL         / AC = 7776 (-0002)                     @@5521=7344
 3696 05522 3120      DCA   D0120             /                                       @@5522=3120
 3697 05523 4554      JMS I C0154             / long call to S6000                    @@5523=4554
 3698 05524 1170      TAD   C0170             /                                       @@5524=1170
 3699 05525 3773      DCA I C5573             /                                       @@5525=3773
 3700 05526 1167      TAD   C0167             /                                       @@5526=1167
 3701 05527 3772      DCA I C5572             /                                       @@5527=3772
 3702 05530 3114      DCA   D0114             /                                       @@5530=3114
 3703 05531 3021      DCA   D0021             /                                       @@5531=3021
 3704 05532 3771      DCA I C5571             /                                       @@5532=3771
 3705 05533 3770      DCA I C5570             /                                       @@5533=3770

      AUTOMATIC DISASSEMBLY OF MAINDEC-8E-D0LB-D-PB.bin BY D8TAPE        Page 66


 3706 05534 4453      JMS I C0053             / long call to S6400                    @@5534=4453
 3707 05535 0021      AND   D0021             /                                       @@5535=0021
 3708 05536 0022      AND   D0022             /                                       @@5536=0022
 3709 05537 7753  C5537,  7753                / CLA MQA SCA SHL +                     
 3710 05540 5720      JMP I S5520             / return                                @@5540=5720
 3711             C5541,
 3712 05541 0000  C5541,  0000                / AND   S0000                           
 3713 05542 4525      JMS I L0125             / long call to S5607                    @@5542=4525
 3714 05543 4450      JMS I C0050             / long call to S6600                    @@5543=4450
 3715 05544 0000  D5544,  0000                / AND   S0000                           
 3716 05545 5741      JMP I C5541             / long jump to L0000                    @@5545=5741
 3717             
 3718             ////////////////////////////////////////////////////////////////////////////////
 3719             /
 3720             /   SUBROUTINE:  S5546
 3721             /
 3722             /   Called from:
 3723             /   0205 0401 0504 0651 1001 1136 1431 1647 2047 2601 
 3724             /   Total 0012 (10) calls
 3725             ////////////////////////////////////////////////////////////////////////////////
 3726             S5546,
 3727 05546 0000      0                       / return area
 3728 05547 2065      ISZ   D0065             /                                       @@5547=2065
 3729 05550 5746      JMP I S5546             / return                                @@5550=5746
 3730             L5551,
 3731 05551 7604      LAS                     /                                       @@5551=7604
 3732 05552 7106      CLL RTL                 /                                       @@5552=7106
 3733 05553 7006      RTL                     /                                       @@5553=7006
 3734 05554 7630      SZL CLA                 /                                       @@5554=7630
 3735 05555 5456      JMP I D0056             / long jump to L0000                    @@5555=5456
 3736 05556 5457      JMP I D0057             / long jump to L0000                    @@5556=5457
 3737             
 3738       5570  *5570
 3739 05570 7002  C5570,  7002                / BSW                                   
 3740 05571 7016  C5571,  7016                / RTR RTL                               
 3741 05572 6371  C5572,  6371                / 6371                                  
 3742 05573 6370  C5573,  6370                / 6370                                  
 3743 05574 0251  C5574,  0251                / AND   C5451                           
 3744 05575 0250  C5575,  0250                / AND   S5450                           
 3745             C5576,
 3746 05576 4132  C5576,  4132                / JMS   C0132                           
 3747 05577 2000  C5577,  2000                / ISZ   S0000                           
 3748             
 3749       5600  *5600
 3750             
 3751             ////////////////////////////////////////////////////////////////////////////////
 3752             /
 3753             /   SUBROUTINE:  S5600
 3754             /
 3755             /   Called from:
 3756             /   0262 0271 0607 0617 1066 1076 1110 4020 4031 4043 4050 4056 5261 5610 5611 
 3757             /   7124 7137 7146 7161 
 3758             /   Total 0023 (19) calls
 3759             ////////////////////////////////////////////////////////////////////////////////
 3760             S5600,
 3761 05600 0000      0                       / return area
 3762 05601 7240      STA                     / AC = 7777 (-0001)                     @@5601=7240

      AUTOMATIC DISASSEMBLY OF MAINDEC-8E-D0LB-D-PB.bin BY D8TAPE        Page 67


 3763 05602 0070      AND   C0070             /                                       @@5602=0070
 3764 05603 4526      JMS I C0126             / long call to S5613                    @@5603=4526
 3765 05604 1071      TAD   C0071             /                                       @@5604=1071
 3766 05605 4526      JMS I C0126             / long call to S5613                    @@5605=4526
 3767 05606 5600      JMP I S5600             / return                                @@5606=5600
 3768             
 3769             ////////////////////////////////////////////////////////////////////////////////
 3770             /
 3771             /   SUBROUTINE:  S5607
 3772             /
 3773             /   Called from:
 3774             /   0255 0601 4001 5542 5710 6734 7004 7017 7031 7111 7205 7231 
 3775             /   Total 0014 (12) calls
 3776             ////////////////////////////////////////////////////////////////////////////////
 3777             S5607,
 3778 05607 0000      0                       / return area
 3779 05610 4524      JMS I C0124             / long call to S5600                    @@5610=4524
 3780 05611 4524      JMS I C0124             / long call to S5600                    @@5611=4524
 3781 05612 5607      JMP I S5607             / return                                @@5612=5607
 3782             L5613,
 3783             
 3784             ////////////////////////////////////////////////////////////////////////////////
 3785             /
 3786             /   SUBROUTINE:  S5613
 3787             /
 3788             /   Called from:
 3789             /   0305 0307 0314 0321 0326 0330 0360 0476 0635 0637 0644 1124 1131 1243 4135 
 3790             /   4137 4141 4146 5442 5444 5446 5453 5460 5465 5472 5603 5605 5654 5661 5705 
 3791             /   6454 6660 
 3792             /   Total 0040 (32) calls
 3793             ////////////////////////////////////////////////////////////////////////////////
 3794             S5613,
 3795 05613 0000      0                       / return area
 3796 05614 3236      DCA   D5636             /                                       @@5614=3236
 3797 05615 1020      TAD   C0020             /                                       @@5615=1020
 3798 05616 7040      CMA                     /                                       @@5616=7040
 3799 05617 3237      DCA   D5637             /                                       @@5617=3237
 3800 05620 1236      TAD   D5636             /                                       @@5620=1236
 3801 05621 6046      TLS                     / Load the TTO from the content of AC4  @@5621=6046
 3802             L5622,
 3803 05622 6041      TSF                     / Skip if teleprinter flag is a 1.      @@5622=6041
 3804 05623 5222      JMP   L5622             /                                       @@5623=5222
 3805 05624 1166      TAD   C0166             /                                       @@5624=1166
 3806 05625 7640      SZA CLA                 /                                       @@5625=7640
 3807 05626 5613      JMP I S5613             / return                                @@5626=5613
 3808             L5627,
 3809 05627 2237      ISZ   D5637             /                                       @@5627=2237
 3810 05630 7610      SKP CLA                 /                                       @@5630=7610
 3811 05631 5613      JMP I S5613             / return                                @@5631=5613
 3812 05632 6046      TLS                     / Load the TTO from the content of AC4  @@5632=6046
 3813             L5633,
 3814 05633 6041      TSF                     / Skip if teleprinter flag is a 1.      @@5633=6041
 3815 05634 5233      JMP   L5633             /                                       @@5634=5233
 3816 05635 5227      JMP   L5627             /                                       @@5635=5227
 3817 05636 0000  D5636,  0000                / AND   S0000                           
 3818 05637 0000  D5637,  0000                / AND   S0000                           
 3819             

      AUTOMATIC DISASSEMBLY OF MAINDEC-8E-D0LB-D-PB.bin BY D8TAPE        Page 68


 3820             ////////////////////////////////////////////////////////////////////////////////
 3821             /
 3822             /   SUBROUTINE:  S5640
 3823             /
 3824             /   Called from:
 3825             /   0336 0353 5730 
 3826             /   Total 0003 (3) calls
 3827             ////////////////////////////////////////////////////////////////////////////////
 3828             S5640,
 3829 05640 0000      0                       / return area
 3830 05641 7240      STA                     / AC = 7777 (-0001)                     @@5641=7240
 3831 05642 0102      AND   D0102             /                                       @@5642=0102
 3832 05643 4245      JMS   S5645             /                                       @@5643=4245
 3833 05644 5640      JMP I S5640             / return                                @@5644=5640
 3834             L5645,
 3835             
 3836             ////////////////////////////////////////////////////////////////////////////////
 3837             /
 3838             /   SUBROUTINE:  S5645
 3839             /
 3840             /   Called from:
 3841             /   5643 
 3842             /   Total 0001 (1) calls
 3843             ////////////////////////////////////////////////////////////////////////////////
 3844             S5645,
 3845 05645 0000      0                       / return area
 3846 05646 7440      SZA                     /                                       @@5646=7440
 3847 05647 5252      JMP   L5652             /                                       @@5647=5252
 3848 05650 4256      JMS   S5656             /                                       @@5650=4256
 3849 05651 5645      JMP I S5645             / return                                @@5651=5645
 3850             L5652,
 3851 05652 7240      STA                     / AC = 7777 (-0001)                     @@5652=7240
 3852 05653 0100      AND   L0100             /                                       @@5653=0100
 3853 05654 4526      JMS I C0126             / long call to S5613                    @@5654=4526
 3854 05655 5645      JMP I S5645             / return                                @@5655=5645
 3855             
 3856             ////////////////////////////////////////////////////////////////////////////////
 3857             /
 3858             /   SUBROUTINE:  S5656
 3859             /
 3860             /   Called from:
 3861             /   0272 5650 5701 
 3862             /   Total 0003 (3) calls
 3863             ////////////////////////////////////////////////////////////////////////////////
 3864             S5656,
 3865 05656 0000      0                       / return area
 3866 05657 7240      STA                     / AC = 7777 (-0001)                     @@5657=7240
 3867 05660 0101      AND   C0101             /                                       @@5660=0101
 3868 05661 4526      JMS I C0126             / long call to S5613                    @@5661=4526
 3869 05662 5656      JMP I S5656             / return                                @@5662=5656
 3870             
 3871             ////////////////////////////////////////////////////////////////////////////////
 3872             /
 3873             /   SUBROUTINE:  S5663
 3874             /
 3875             /   Called from:
 3876             /   0366 0374 7202 

      AUTOMATIC DISASSEMBLY OF MAINDEC-8E-D0LB-D-PB.bin BY D8TAPE        Page 69


 3877             /   Total 0003 (3) calls
 3878             ////////////////////////////////////////////////////////////////////////////////
 3879             S5663,
 3880 05663 0000      0                       / return area
 3881 05664 7240      STA                     / AC = 7777 (-0001)                     @@5664=7240
 3882 05665 0104      AND   C0104             /                                       @@5665=0104
 3883 05666 3105      DCA   D0105             /                                       @@5666=3105
 3884             L5667,
 3885 05667 2105      ISZ   D0105             /                                       @@5667=2105
 3886 05670 7410      SKP                     /                                       @@5670=7410
 3887 05671 5663      JMP I S5663             / return                                @@5671=5663
 3888 05672 7240      STA                     / AC = 7777 (-0001)                     @@5672=7240
 3889 05673 0106      AND   D0106             /                                       @@5673=0106
 3890 05674 7100      CLL                     /                                       @@5674=7100
 3891 05675 7004      RAL                     /                                       @@5675=7004
 3892 05676 3106      DCA   D0106             /                                       @@5676=3106
 3893 05677 7430      SZL                     /                                       @@5677=7430
 3894 05700 5303      JMP   L5703             /                                       @@5700=5303
 3895 05701 4256      JMS   S5656             /                                       @@5701=4256
 3896 05702 5267      JMP   L5667             /                                       @@5702=5267
 3897             L5703,
 3898 05703 7240      STA                     / AC = 7777 (-0001)                     @@5703=7240
 3899 05704 0100      AND   L0100             /                                       @@5704=0100
 3900 05705 4526      JMS I C0126             / long call to S5613                    @@5705=4526
 3901 05706 5267      JMP   L5667             /                                       @@5706=5267
 3902             
 3903             ////////////////////////////////////////////////////////////////////////////////
 3904             /
 3905             /   SUBROUTINE:  S5707
 3906             /
 3907             /   Called from:
 3908             /   1306 1421 1504 1636 1723 2036 2123 2236 2524 2644 2710 3021 3131 3301 3441 
 3909             /   3536 
 3910             /   Total 0020 (16) calls
 3911             ////////////////////////////////////////////////////////////////////////////////
 3912             S5707,
 3913 05707 0000      0                       / return area
 3914 05710 4525      JMS I L0125             / long call to S5607                    @@5710=4525
 3915 05711 1707      TAD I S5707             /                                       @@5711=1707
 3916 05712 3116      DCA   D0116             /                                       @@5712=3116
 3917             L5713,
 3918 05713 2307      ISZ   S5707             /                                       @@5713=2307
 3919 05714 1707      TAD I S5707             /                                       @@5714=1707
 3920 05715 3317      DCA   D5717             /                                       @@5715=3317
 3921 05716 4450      JMS I C0050             / long call to S6600                    @@5716=4450
 3922 05717 0000  D5717,  0000                / AND   S0000                           
 3923 05720 4455      JMS I C0055             / long call to S6727                    @@5720=4455
 3924 05721 2116      ISZ   D0116             /                                       @@5721=2116
 3925 05722 5313      JMP   L5713             /                                       @@5722=5313
 3926 05723 4454      JMS I C0054             / long call to S6723                    @@5723=4454
 3927 05724 2307      ISZ   S5707             /                                       @@5724=2307
 3928 05725 5707      JMP I S5707             / return                                @@5725=5707
 3929             
 3930             ////////////////////////////////////////////////////////////////////////////////
 3931             /
 3932             /   SUBROUTINE:  S5726
 3933             /

      AUTOMATIC DISASSEMBLY OF MAINDEC-8E-D0LB-D-PB.bin BY D8TAPE        Page 70


 3934             /   Called from:
 3935             /   7050 7062 7117 7123 
 3936             /   Total 0004 (4) calls
 3937             ////////////////////////////////////////////////////////////////////////////////
 3938             S5726,
 3939 05726 0000      0                       / return area
 3940 05727 3102      DCA   D0102             /                                       @@5727=3102
 3941 05730 4527      JMS I C0127             / long call to S5640                    @@5730=4527
 3942 05731 5726      JMP I S5726             / return                                @@5731=5726
 3943             
 3944             ////////////////////////////////////////////////////////////////////////////////
 3945             /
 3946             /   SUBROUTINE:  S5732
 3947             /
 3948             /   Called from:
 3949             /   1334 1601 2001 2201 2654 2720 
 3950             /   Total 0006 (6) calls
 3951             ////////////////////////////////////////////////////////////////////////////////
 3952             S5732,
 3953 05732 0000      0                       / return area
 3954 05733 4550      JMS I C0150             / long call to S6525                    @@5733=4550
 3955 05734 3022      DCA   D0022             /                                       @@5734=3022
 3956 05735 7010      RAR                     /                                       @@5735=7010
 3957 05736 3021      DCA   D0021             /                                       @@5736=3021
 3958 05737 4550      JMS I C0150             / long call to S6525                    @@5737=4550
 3959 05740 3023      DCA   D0023             /                                       @@5740=3023
 3960 05741 7010      RAR                     /                                       @@5741=7010
 3961 05742 3025      DCA   D0025             /                                       @@5742=3025
 3962 05743 4550      JMS I C0150             / long call to S6525                    @@5743=4550
 3963 05744 0165      AND   C0165             /                                       @@5744=0165
 3964 05745 3024      DCA   D0024             /                                       @@5745=3024
 3965 05746 4573      JMS I C0173             / long call to S5767                    @@5746=4573
 3966 05747 5732      JMP I S5732             / return                                @@5747=5732
 3967 05750 5575      JMP I C0175             / long jump to L5551                    @@5750=5575
 3968             L5751,
 3969             
 3970             ////////////////////////////////////////////////////////////////////////////////
 3971             /
 3972             /   SUBROUTINE:  S5751
 3973             /
 3974             /   Called from:
 3975             /   1602 2002 2202 2656 2722 
 3976             /   Total 0005 (5) calls
 3977             ////////////////////////////////////////////////////////////////////////////////
 3978             S5751,
 3979 05751 0000      0                       / return area
 3980 05752 7300      CLA CLL                 / AC = 0000                             @@5752=7300
 3981 05753 1023      TAD   D0023             /                                       @@5753=1023
 3982 05754 7421      MQL                     /                                       @@5754=7421
 3983 05755 4553      JMS I C0153             / long call to S5761                    @@5755=4553
 3984 05756 1021      TAD   D0021             /                                       @@5756=1021
 3985 05757 7104      CLL RAL                 /                                       @@5757=7104
 3986 05760 5751      JMP I S5751             / return                                @@5760=5751
 3987             
 3988             ////////////////////////////////////////////////////////////////////////////////
 3989             /
 3990             /   SUBROUTINE:  S5761

      AUTOMATIC DISASSEMBLY OF MAINDEC-8E-D0LB-D-PB.bin BY D8TAPE        Page 71


 3991             /
 3992             /   Called from:
 3993             /   1337 5755 
 3994             /   Total 0002 (2) calls
 3995             ////////////////////////////////////////////////////////////////////////////////
 3996             S5761,
 3997 05761 0000      0                       / return area
 3998 05762 7200      CLA                     /                                       @@5762=7200
 3999 05763 1025      TAD   D0025             /                                       @@5763=1025
 4000 05764 7110      CLL RAR                 /                                       @@5764=7110
 4001 05765 4554      JMS I C0154             / long call to S6000                    @@5765=4554
 4002 05766 5761      JMP I S5761             / return                                @@5766=5761
 4003             
 4004             ////////////////////////////////////////////////////////////////////////////////
 4005             /
 4006             /   SUBROUTINE:  S5767
 4007             /
 4008             /   Called from:
 4009             /   3254 5746 
 4010             /   Total 0002 (2) calls
 4011             ////////////////////////////////////////////////////////////////////////////////
 4012             S5767,
 4013 05767 0000      0                       / return area
 4014 05770 2114      ISZ   D0114             /                                       @@5770=2114
 4015 05771 5767      JMP I S5767             / return                                @@5771=5767
 4016 05772 2120      ISZ   D0120             /                                       @@5772=2120
 4017 05773 5767      JMP I S5767             / return                                @@5773=5767
 4018 05774 2367      ISZ   S5767             /                                       @@5774=2367
 4019 05775 5767      JMP I S5767             / return                                @@5775=5767
 4020             
 4021       6000  *6000
 4022             
 4023             ////////////////////////////////////////////////////////////////////////////////
 4024             /
 4025             /   SUBROUTINE:  S6000
 4026             /
 4027             /   Called from:
 4028             /   5213 5223 5233 5241 5246 5523 5765 
 4029             /   Total 0007 (7) calls
 4030             ////////////////////////////////////////////////////////////////////////////////
 4031             S6000,
 4032 06000 0000      0                       / return area
 4033 06001 3116      DCA   D0116             /                                       @@6001=3116
 4034 06002 6214      RDF                     / Read data field into AC6-8.  Bit 0-5  @@6002=6214
 4035 06003 7112      CLL RTR                 /                                       @@6003=7112
 4036 06004 7010      RAR                     /                                       @@6004=7010
 4037 06005 6224      RIF                     / Same as RDF except reads the instruc  @@6005=6224
 4038 06006 1116      TAD   D0116             /                                       @@6006=1116
 4039 06007 6005  C6007,  6005                / 6005                                  
 4040 06010 6002      IOF                     / Disable Interrupts                    @@6010=6002
 4041 06011 7300      CLA CLL                 / AC = 0000                             @@6011=7300
 4042 06012 5600      JMP I S6000             / return                                @@6012=5600
 4043             
 4044             ////////////////////////////////////////////////////////////////////////////////
 4045             /
 4046             /   SUBROUTINE:  S6013
 4047             /

      AUTOMATIC DISASSEMBLY OF MAINDEC-8E-D0LB-D-PB.bin BY D8TAPE        Page 72


 4048             /   Called from:
 4049             /   1256 1346 
 4050             /   Total 0002 (2) calls
 4051             ////////////////////////////////////////////////////////////////////////////////
 4052             S6013,
 4053 06013 0000      0                       / return area
 4054 06014 1022      TAD   D0022             /                                       @@6014=1022
 4055 06015 7500      SMA                     /                                       @@6015=7500
 4056 06016 7120      STL                     /                                       @@6016=7120
 4057 06017 7041      CIA                     /                                       @@6017=7041
 4058 06020 3040      DCA   D0040             /                                       @@6020=3040
 4059 06021 1023      TAD   D0023             /                                       @@6021=1023
 4060 06022 7510      SPA                     /                                       @@6022=7510
 4061 06023 7020      CML                     /                                       @@6023=7020
 4062 06024 1040      TAD   D0040             /                                       @@6024=1040
 4063 06025 7230      CLA CML RAR             /                                       @@6025=7230
 4064 06026 3046      DCA   D0046             /                                       @@6026=3046
 4065 06027 1022      TAD   D0022             /                                       @@6027=1022
 4066 06030 7041      CIA                     /                                       @@6030=7041
 4067 06031 1023      TAD   D0023             /                                       @@6031=1023
 4068 06032 3043      DCA   D0043             /                                       @@6032=3043
 4069 06033 7010      RAR                     /                                       @@6033=7010
 4070 06034 3042      DCA   D0042             /                                       @@6034=3042
 4071 06035 1023      TAD   D0023             /                                       @@6035=1023
 4072 06036 3044      DCA   D0044             /                                       @@6036=3044
 4073 06037 1024      TAD   D0024             /                                       @@6037=1024
 4074 06040 3045      DCA   D0045             /                                       @@6040=3045
 4075 06041 5613      JMP I S6013             / return                                @@6041=5613
 4076             
 4077             ////////////////////////////////////////////////////////////////////////////////
 4078             /
 4079             /   SUBROUTINE:  S6042
 4080             /
 4081             /   Called from:
 4082             /   1446 1611 
 4083             /   Total 0002 (2) calls
 4084             ////////////////////////////////////////////////////////////////////////////////
 4085             S6042,
 4086 06042 0000      0                       / return area
 4087 06043 1024      TAD   D0024             /                                       @@6043=1024
 4088 06044 1115      TAD   D0115             /                                       @@6044=1115
 4089 06045 7140      CLL CMA                 /                                       @@6045=7140
 4090 06046 3045      DCA   D0045             /                                       @@6046=3045
 4091 06047 1022      TAD   D0022             /                                       @@6047=1022
 4092 06050 3043      DCA   D0043             /                                       @@6050=3043
 4093 06051 1023      TAD   D0023             /                                       @@6051=1023
 4094 06052 3044      DCA   D0044             /                                       @@6052=3044
 4095 06053 1025      TAD   D0025             /                                       @@6053=1025
 4096 06054 0115      AND   D0115             /                                       @@6054=0115
 4097 06055 3046      DCA   D0046             /                                       @@6055=3046
 4098 06056 1045      TAD   D0045             /                                       @@6056=1045
 4099 06057 1377      TAD   C6177             /                                       @@6057=1377
 4100 06060 7710      SPA CLA                 /                                       @@6060=7710
 4101 06061 5307      JMP   L6107             /                                       @@6061=5307
 4102 06062 1045      TAD   D0045             /                                       @@6062=1045
 4103 06063 7650      SNA CLA                 /                                       @@6063=7650
 4104 06064 5313      JMP   L6113             /                                       @@6064=5313

      AUTOMATIC DISASSEMBLY OF MAINDEC-8E-D0LB-D-PB.bin BY D8TAPE        Page 73


 4105 06065 1044      TAD   D0044             /                                       @@6065=1044
 4106 06066 7421      MQL                     /                                       @@6066=7421
 4107 06067 1043      TAD   D0043             /                                       @@6067=1043
 4108             L6070,
 4109 06070 7521      MQA MQL                 /                                       @@6070=7521
 4110 06071 7104      CLL RAL                 /                                       @@6071=7104
 4111 06072 7521      MQA MQL                 /                                       @@6072=7521
 4112 06073 7004      RAL                     /                                       @@6073=7004
 4113             L6074,
 4114 06074 2045      ISZ   D0045             /                                       @@6074=2045
 4115 06075 5270      JMP   L6070             /                                       @@6075=5270
 4116 06076 3043      DCA   D0043             /                                       @@6076=3043
 4117 06077 7501      MQA                     /                                       @@6077=7501
 4118 06100 3044      DCA   D0044             /                                       @@6100=3044
 4119 06101 7210      CLA RAR                 /                                       @@6101=7210
 4120 06102 3042      DCA   D0042             /                                       @@6102=3042
 4121 06103 1115      TAD   D0115             /                                       @@6103=1115
 4122 06104 0165      AND   C0165             /                                       @@6104=0165
 4123 06105 3045      DCA   D0045             /                                       @@6105=3045
 4124 06106 5642      JMP I S6042             / return                                @@6106=5642
 4125             L6107,
 4126 06107 7340      CLA CLL CMA             / AC = 7777 (-0001)                     @@6107=7340
 4127 06110 3045      DCA   D0045             /                                       @@6110=3045
 4128 06111 7421      MQL                     /                                       @@6111=7421
 4129 06112 5274      JMP   L6074             /                                       @@6112=5274
 4130             L6113,
 4131 06113 1021      TAD   D0021             /                                       @@6113=1021
 4132 06114 3042      DCA   D0042             /                                       @@6114=3042
 4133 06115 1165      TAD   C0165             /                                       @@6115=1165
 4134 06116 3045      DCA   D0045             /                                       @@6116=3045
 4135 06117 5642      JMP I S6042             / return                                @@6117=5642
 4136             
 4137             ////////////////////////////////////////////////////////////////////////////////
 4138             /
 4139             /   SUBROUTINE:  S6120
 4140             /
 4141             /   Called from:
 4142             /   1665 2011 
 4143             /   Total 0002 (2) calls
 4144             ////////////////////////////////////////////////////////////////////////////////
 4145             S6120,
 4146 06120 0000      0                       / return area
 4147 06121 1024      TAD   D0024             /                                       @@6121=1024
 4148 06122 1115      TAD   D0115             /                                       @@6122=1115
 4149 06123 7140      CLL CMA                 /                                       @@6123=7140
 4150 06124 3045      DCA   D0045             /                                       @@6124=3045
 4151 06125 1045      TAD   D0045             /                                       @@6125=1045
 4152 06126 1164      TAD   C0164             /                                       @@6126=1164
 4153 06127 7710      SPA CLA                 /                                       @@6127=7710
 4154 06130 5367      JMP   L6167             /                                       @@6130=5367
 4155 06131 1022      TAD   D0022             /                                       @@6131=1022
 4156 06132 3043      DCA   D0043             /                                       @@6132=3043
 4157 06133 1023      TAD   D0023             /                                       @@6133=1023
 4158 06134 3044      DCA   D0044             /                                       @@6134=3044
 4159 06135 1045      TAD   D0045             /                                       @@6135=1045
 4160 06136 7650      SNA CLA                 /                                       @@6136=7650
 4161 06137 5364      JMP   L6164             /                                       @@6137=5364

      AUTOMATIC DISASSEMBLY OF MAINDEC-8E-D0LB-D-PB.bin BY D8TAPE        Page 74


 4162 06140 1044      TAD   D0044             /                                       @@6140=1044
 4163 06141 7421      MQL                     /                                       @@6141=7421
 4164 06142 1043      TAD   D0043             /                                       @@6142=1043
 4165             L6143,
 4166 06143 7110      CLL RAR                 /                                       @@6143=7110
 4167 06144 7521      MQA MQL                 /                                       @@6144=7521
 4168 06145 7010      RAR                     /                                       @@6145=7010
 4169 06146 7521      MQA MQL                 /                                       @@6146=7521
 4170             L6147,
 4171 06147 2045      ISZ   D0045             /                                       @@6147=2045
 4172 06150 5343      JMP   L6143             /                                       @@6150=5343
 4173 06151 3043      DCA   D0043             /                                       @@6151=3043
 4174 06152 7501      MQA                     /                                       @@6152=7501
 4175 06153 3044      DCA   D0044             /                                       @@6153=3044
 4176 06154 3042      DCA   D0042             /                                       @@6154=3042
 4177 06155 7210      CLA RAR                 /                                       @@6155=7210
 4178 06156 0115      AND   D0115             /                                       @@6156=0115
 4179 06157 3046      DCA   D0046             /                                       @@6157=3046
 4180             L6160,
 4181 06160 1165      TAD   C0165             /                                       @@6160=1165
 4182 06161 0115      AND   D0115             /                                       @@6161=0115
 4183 06162 3045      DCA   D0045             /                                       @@6162=3045
 4184 06163 5720      JMP I S6120             / return                                @@6163=5720
 4185             L6164,
 4186 06164 1025      TAD   D0025             /                                       @@6164=1025
 4187 06165 3046      DCA   D0046             /                                       @@6165=3046
 4188 06166 5360      JMP   L6160             /                                       @@6166=5360
 4189             L6167,
 4190 06167 7340      CLA CLL CMA             / AC = 7777 (-0001)                     @@6167=7340
 4191 06170 3045      DCA   D0045             /                                       @@6170=3045
 4192 06171 7421      MQL                     /                                       @@6171=7421
 4193 06172 5347      JMP   L6147             /                                       @@6172=5347
 4194             
 4195       6177  *6177
 4196 06177 0032  C6177,  0032                / AND   C0032                           
 4197             
 4198       6200  *6200
 4199             
 4200             ////////////////////////////////////////////////////////////////////////////////
 4201             /
 4202             /   SUBROUTINE:  S6200
 4203             /
 4204             /   Called from:
 4205             /   2065 2211 
 4206             /   Total 0002 (2) calls
 4207             ////////////////////////////////////////////////////////////////////////////////
 4208             S6200,
 4209 06200 0000      0                       / return area
 4210 06201 1024      TAD   D0024             /                                       @@6201=1024
 4211 06202 1115      TAD   D0115             /                                       @@6202=1115
 4212 06203 7140      CLL CMA                 /                                       @@6203=7140
 4213 06204 3045      DCA   D0045             /                                       @@6204=3045
 4214 06205 1022      TAD   D0022             /                                       @@6205=1022
 4215 06206 3043      DCA   D0043             /                                       @@6206=3043
 4216 06207 1023      TAD   D0023             /                                       @@6207=1023
 4217 06210 3044      DCA   D0044             /                                       @@6210=3044
 4218 06211 1045      TAD   D0045             /                                       @@6211=1045

      AUTOMATIC DISASSEMBLY OF MAINDEC-8E-D0LB-D-PB.bin BY D8TAPE        Page 75


 4219 06212 7650      SNA CLA                 /                                       @@6212=7650
 4220 06213 5251      JMP   L6251             /                                       @@6213=5251
 4221 06214 1045      TAD   D0045             /                                       @@6214=1045
 4222 06215 1164      TAD   C0164             /                                       @@6215=1164
 4223 06216 7710      SPA CLA                 /                                       @@6216=7710
 4224 06217 5257      JMP   L6257             /                                       @@6217=5257
 4225 06220 1044      TAD   D0044             /                                       @@6220=1044
 4226 06221 7421      MQL                     /                                       @@6221=7421
 4227 06222 1043      TAD   D0043             /                                       @@6222=1043
 4228             L6223,
 4229 06223 7100      CLL                     /                                       @@6223=7100
 4230 06224 7510      SPA                     /                                       @@6224=7510
 4231 06225 7020      CML                     /                                       @@6225=7020
 4232 06226 7010      RAR                     /                                       @@6226=7010
 4233 06227 7521      MQA MQL                 /                                       @@6227=7521
 4234 06230 7010      RAR                     /                                       @@6230=7010
 4235 06231 7521      MQA MQL                 /                                       @@6231=7521
 4236 06232 2045      ISZ   D0045             /                                       @@6232=2045
 4237 06233 5223      JMP   L6223             /                                       @@6233=5223
 4238 06234 3043      DCA   D0043             /                                       @@6234=3043
 4239 06235 7501      MQA                     /                                       @@6235=7501
 4240 06236 3044      DCA   D0044             /                                       @@6236=3044
 4241             L6237,
 4242 06237 7210      CLA RAR                 /                                       @@6237=7210
 4243 06240 0115      AND   D0115             /                                       @@6240=0115
 4244 06241 3046      DCA   D0046             /                                       @@6241=3046
 4245 06242 1043      TAD   D0043             /                                       @@6242=1043
 4246 06243 0163      AND   C0163             /                                       @@6243=0163
 4247 06244 3042      DCA   D0042             /                                       @@6244=3042
 4248             L6245,
 4249 06245 1165      TAD   C0165             /                                       @@6245=1165
 4250 06246 0115      AND   D0115             /                                       @@6246=0115
 4251 06247 3045      DCA   D0045             /                                       @@6247=3045
 4252 06250 5600      JMP I S6200             / return                                @@6250=5600
 4253             L6251,
 4254 06251 1022      TAD   D0022             /                                       @@6251=1022
 4255 06252 0163      AND   C0163             /                                       @@6252=0163
 4256 06253 3042      DCA   D0042             /                                       @@6253=3042
 4257 06254 1025      TAD   D0025             /                                       @@6254=1025
 4258 06255 3046      DCA   D0046             /                                       @@6255=3046
 4259 06256 5245      JMP   L6245             /                                       @@6256=5245
 4260             L6257,
 4261 06257 1043      TAD   D0043             /                                       @@6257=1043
 4262 06260 0163      AND   C0163             /                                       @@6260=0163
 4263 06261 7104      CLL RAL                 /                                       @@6261=7104
 4264 06262 7620      SNL CLA                 /                                       @@6262=7620
 4265 06263 5271      JMP   L6271             /                                       @@6263=5271
 4266 06264 7040      CMA                     /                                       @@6264=7040
 4267 06265 3044      DCA   D0044             /                                       @@6265=3044
 4268 06266 7040      CMA                     /                                       @@6266=7040
 4269             L6267,
 4270 06267 3043      DCA   D0043             /                                       @@6267=3043
 4271 06270 5237      JMP   L6237             /                                       @@6270=5237
 4272             L6271,
 4273 06271 3044      DCA   D0044             /                                       @@6271=3044
 4274 06272 5267      JMP   L6267             /                                       @@6272=5267
 4275             

      AUTOMATIC DISASSEMBLY OF MAINDEC-8E-D0LB-D-PB.bin BY D8TAPE        Page 76


 4276             ////////////////////////////////////////////////////////////////////////////////
 4277             /
 4278             /   SUBROUTINE:  S6273
 4279             /
 4280             /   Called from:
 4281             /   2614 2662 
 4282             /   Total 0002 (2) calls
 4283             ////////////////////////////////////////////////////////////////////////////////
 4284             S6273,
 4285 06273 0000      0                       / return area
 4286 06274 1023      TAD   D0023             /                                       @@6274=1023
 4287 06275 7101      CLL IAC                 /                                       @@6275=7101
 4288 06276 3044      DCA   D0044             /                                       @@6276=3044
 4289 06277 7004      RAL                     /                                       @@6277=7004
 4290 06300 1022      TAD   D0022             /                                       @@6300=1022
 4291 06301 3043      DCA   D0043             /                                       @@6301=3043
 4292 06302 7010      RAR                     /                                       @@6302=7010
 4293 06303 3042      DCA   D0042             /                                       @@6303=3042
 4294 06304 1025      TAD   D0025             /                                       @@6304=1025
 4295 06305 3046      DCA   D0046             /                                       @@6305=3046
 4296 06306 1024      TAD   D0024             /                                       @@6306=1024
 4297 06307 3045      DCA   D0045             /                                       @@6307=3045
 4298 06310 5673      JMP I S6273             / return                                @@6310=5673
 4299             
 4300             ////////////////////////////////////////////////////////////////////////////////
 4301             /
 4302             /   SUBROUTINE:  S6311
 4303             /
 4304             /   Called from:
 4305             /   2726 
 4306             /   Total 0001 (1) calls
 4307             ////////////////////////////////////////////////////////////////////////////////
 4308             S6311,
 4309 06311 0000      0                       / return area
 4310 06312 1023      TAD   D0023             /                                       @@6312=1023
 4311 06313 7041      CIA                     /                                       @@6313=7041
 4312 06314 3044      DCA   D0044             /                                       @@6314=3044
 4313 06315 1022      TAD   D0022             /                                       @@6315=1022
 4314 06316 7040      CMA                     /                                       @@6316=7040
 4315 06317 3043      DCA   D0043             /                                       @@6317=3043
 4316 06320 7004      RAL                     /                                       @@6320=7004
 4317 06321 1043      TAD   D0043             /                                       @@6321=1043
 4318 06322 3043      DCA   D0043             /                                       @@6322=3043
 4319 06323 7010      RAR                     /                                       @@6323=7010
 4320 06324 3042      DCA   D0042             /                                       @@6324=3042
 4321 06325 1025      TAD   D0025             /                                       @@6325=1025
 4322 06326 3046      DCA   D0046             /                                       @@6326=3046
 4323 06327 1024      TAD   D0024             /                                       @@6327=1024
 4324 06330 3045      DCA   D0045             /                                       @@6330=3045
 4325 06331 5711      JMP I S6311             / return                                @@6331=5711
 4326             
 4327             ////////////////////////////////////////////////////////////////////////////////
 4328             /
 4329             /   SUBROUTINE:  S6332
 4330             /
 4331             /   Called from:
 4332             /   3046 3216 

      AUTOMATIC DISASSEMBLY OF MAINDEC-8E-D0LB-D-PB.bin BY D8TAPE        Page 77


 4333             /   Total 0002 (2) calls
 4334             ////////////////////////////////////////////////////////////////////////////////
 4335             S6332,
 4336 06332 0000      0                       / return area
 4337 06333 1023      TAD   D0023             /                                       @@6333=1023
 4338 06334 1025      TAD   D0025             /                                       @@6334=1025
 4339 06335 3044      DCA   D0044             /                                       @@6335=3044
 4340 06336 7204      GLK                     /                                       @@6336=7204
 4341 06337 1022      TAD   D0022             /                                       @@6337=1022
 4342 06340 1024      TAD   D0024             /                                       @@6340=1024
 4343 06341 3043      DCA   D0043             /                                       @@6341=3043
 4344 06342 7010      RAR                     /                                       @@6342=7010
 4345 06343 3042      DCA   D0042             /                                       @@6343=3042
 4346 06344 5732      JMP I S6332             / return                                @@6344=5732
 4347             L6345,
 4348             
 4349             ////////////////////////////////////////////////////////////////////////////////
 4350             /
 4351             /   SUBROUTINE:  S6345
 4352             /
 4353             /   Called from:
 4354             /   1257 1347 1447 1612 1666 2012 2066 2212 2273 2615 2663 2727 3047 3217 3326 
 4355             /   3466 
 4356             /   Total 0020 (16) calls
 4357             ////////////////////////////////////////////////////////////////////////////////
 4358             S6345,
 4359 06345 0000      0                       / return area
 4360 06346 1745      TAD I S6345             /                                       @@6346=1745
 4361 06347 3374      DCA   D6374             /                                       @@6347=3374
 4362 06350 2345      ISZ   S6345             /                                       @@6350=2345
 4363 06351 1370      TAD   D6370             /                                       @@6351=1370
 4364 06352 3372      DCA   D6372             /                                       @@6352=3372
 4365 06353 1371      TAD   D6371             /                                       @@6353=1371
 4366 06354 3373      DCA   D6373             /                                       @@6354=3373
 4367             L6355,
 4368 06355 1772      TAD I D6372             /                                       @@6355=1772
 4369 06356 7041      CIA                     /                                       @@6356=7041
 4370 06357 1773      TAD I D6373             /                                       @@6357=1773
 4371 06360 7640      SZA CLA                 /                                       @@6360=7640
 4372 06361 5745      JMP I S6345             / return                                @@6361=5745
 4373 06362 2372      ISZ   D6372             /                                       @@6362=2372
 4374 06363 2373      ISZ   D6373             /                                       @@6363=2373
 4375 06364 2374      ISZ   D6374             /                                       @@6364=2374
 4376 06365 5355      JMP   L6355             /                                       @@6365=5355
 4377 06366 2345      ISZ   S6345             /                                       @@6366=2345
 4378 06367 5745      JMP I S6345             / return                                @@6367=5745
 4379 06370 0000  D6370,  0000                / AND   S0000                           
 4380 06371 0000  D6371,  0000                / AND   S0000                           
 4381 06372 0000  D6372,  0000                / AND   S0000                           
 4382 06373 0000  D6373,  0000                / AND   S0000                           
 4383 06374 0000  D6374,  0000                / AND   S0000                           
 4384             
 4385       6400  *6400
 4386             
 4387             ////////////////////////////////////////////////////////////////////////////////
 4388             /
 4389             /   SUBROUTINE:  S6400

      AUTOMATIC DISASSEMBLY OF MAINDEC-8E-D0LB-D-PB.bin BY D8TAPE        Page 78


 4390             /
 4391             /   Called from:
 4392             /   1264 3054 3401 5534 7005 7024 7036 
 4393             /   Total 0007 (7) calls
 4394             ////////////////////////////////////////////////////////////////////////////////
 4395             S6400,
 4396 06400 0000      0                       / return area
 4397 06401 7200      CLA                     /                                       @@6401=7200
 4398 06402 1600      TAD I S6400             /                                       @@6402=1600
 4399 06403 3223      DCA   D6423             /                                       @@6403=3223
 4400 06404 2200      ISZ   S6400             /                                       @@6404=2200
 4401 06405 1600      TAD I S6400             /                                       @@6405=1600
 4402 06406 3224      DCA   D6424             /                                       @@6406=3224
 4403 06407 2200      ISZ   S6400             /                                       @@6407=2200
 4404 06410 1600  D6410,  1600                / TAD I S6400                           
 4405 06411 3225      DCA   D6425             /                                       @@6411=3225
 4406 06412 2200      ISZ   S6400             /                                       @@6412=2200
 4407             L6413,
 4408 06413 7200      CLA                     /                                       @@6413=7200
 4409 06414 1623      TAD I D6423             /                                       @@6414=1623
 4410 06415 3624      DCA I D6424             /                                       @@6415=3624
 4411 06416 2223      ISZ   D6423             /                                       @@6416=2223
 4412 06417 2224      ISZ   D6424             /                                       @@6417=2224
 4413 06420 2225      ISZ   D6425             /                                       @@6420=2225
 4414 06421 5213      JMP   L6413             /                                       @@6421=5213
 4415 06422 5600      JMP I S6400             / return                                @@6422=5600
 4416 06423 0000  D6423,  0000                / AND   S0000                           
 4417 06424 0000  D6424,  0000                / AND   S0000                           
 4418 06425 0000  D6425,  0000                / AND   S0000                           
 4419             
 4420             ////////////////////////////////////////////////////////////////////////////////
 4421             /
 4422             /   SUBROUTINE:  S6426
 4423             /
 4424             /   Called from:
 4425             /   7077 
 4426             /   Total 0001 (1) calls
 4427             ////////////////////////////////////////////////////////////////////////////////
 4428             S6426,
 4429 06426 0000      0                       / return area
 4430 06427 1377      TAD   C6577             /                                       @@6427=1377
 4431 06430 3271      DCA   D6471             /                                       @@6430=3271
 4432 06431 1262      TAD   C6462             /                                       @@6431=1262
 4433 06432 3243      DCA   D6443             /                                       @@6432=3243
 4434 06433 1626      TAD I S6426             /                                       @@6433=1626
 4435 06434 2226      ISZ   S6426             /                                       @@6434=2226
 4436 06435 3270      DCA   D6470             /                                       @@6435=3270
 4437 06436 1670      TAD I D6470             /                                       @@6436=1670
 4438 06437 3267      DCA   D6467             /                                       @@6437=3267
 4439             L6440,
 4440 06440 3270      DCA   D6470             /                                       @@6440=3270
 4441             L6441,
 4442 06441 7100      CLL                     /                                       @@6441=7100
 4443 06442 1267      TAD   D6467             /                                       @@6442=1267
 4444 06443 1263  D6443,  1263                / TAD   C6463                           
 4445 06444 7420      SNL                     /                                       @@6444=7420
 4446 06445 5251      JMP   L6451             /                                       @@6445=5251

      AUTOMATIC DISASSEMBLY OF MAINDEC-8E-D0LB-D-PB.bin BY D8TAPE        Page 79


 4447 06446 2270      ISZ   D6470             /                                       @@6446=2270
 4448 06447 3267      DCA   D6467             /                                       @@6447=3267
 4449 06450 5241      JMP   L6441             /                                       @@6450=5241
 4450             L6451,
 4451 06451 7200      CLA                     /                                       @@6451=7200
 4452 06452 1270      TAD   D6470             /                                       @@6452=1270
 4453 06453 1272      TAD   C6472             /                                       @@6453=1272
 4454 06454 4526      JMS I C0126             / long call to S5613                    @@6454=4526
 4455 06455 7300      CLA CLL                 / AC = 0000                             @@6455=7300
 4456 06456 2243      ISZ   D6443             /                                       @@6456=2243
 4457 06457 2271      ISZ   D6471             /                                       @@6457=2271
 4458 06460 5240      JMP   L6440             /                                       @@6460=5240
 4459 06461 5626      JMP I S6426             / return                                @@6461=5626
 4460 06462 1263  C6462,  1263                / TAD   C6463                           
 4461 06463 6030  C6463,  6030                / 6030                                  
 4462 06464 7634      SZL CLA OSR             /                                       @@6464=7634
 4463 06465 7766      SMA SZA SNL CLA OSR HLT /                                       @@6465=7766
 4464 06466 7777  C6466,  7777                / CLA MQA SCA MQL LSR +                 
 4465 06467 0000  D6467,  0000                / AND   S0000                           
 4466 06470 0000  D6470,  0000                / AND   S0000                           
 4467 06471 0000  D6471,  0000                / AND   S0000                           
 4468 06472 0260  C6472,  0260                / AND   C6460                           
 4469             
 4470             ////////////////////////////////////////////////////////////////////////////////
 4471             /
 4472             /   SUBROUTINE:  S6473
 4473             /
 4474             /   Called from:
 4475             /   1651 2051 
 4476             /   Total 0002 (2) calls
 4477             ////////////////////////////////////////////////////////////////////////////////
 4478             S6473,
 4479 06473 0000      0                       / return area
 4480 06474 7102      CLL BSW                 /                                       @@6474=7102
 4481 06475 7421      MQL                     /                                       @@6475=7421
 4482 06476 7501      MQA                     /                                       @@6476=7501
 4483 06477 7012      RTR                     /                                       @@6477=7012
 4484 06500 7010      RAR                     /                                       @@6500=7010
 4485 06501 0376      AND   C6576             /                                       @@6501=0376
 4486 06502 7521      MQA MQL                 /                                       @@6502=7521
 4487 06503 7106      CLL RTL                 /                                       @@6503=7106
 4488 06504 7004      RAL                     /                                       @@6504=7004
 4489 06505 0375      AND   C6575             /                                       @@6505=0375
 4490 06506 7501      MQA                     /                                       @@6506=7501
 4491 06507 7421      MQL                     /                                       @@6507=7421
 4492 06510 7501      MQA                     /                                       @@6510=7501
 4493 06511 0374      AND   C6574             /                                       @@6511=0374
 4494 06512 3324      DCA   D6524             /                                       @@6512=3324
 4495 06513 7501      MQA                     /                                       @@6513=7501
 4496 06514 0373      AND   C6573             /                                       @@6514=0373
 4497 06515 7112      CLL RTR                 /                                       @@6515=7112
 4498 06516 7521      MQA MQL                 /                                       @@6516=7521
 4499 06517 0372      AND   C6572             /                                       @@6517=0372
 4500 06520 7106      CLL RTL                 /                                       @@6520=7106
 4501 06521 1324      TAD   D6524             /                                       @@6521=1324
 4502 06522 7501      MQA                     /                                       @@6522=7501
 4503 06523 5673      JMP I S6473             / return                                @@6523=5673

      AUTOMATIC DISASSEMBLY OF MAINDEC-8E-D0LB-D-PB.bin BY D8TAPE        Page 80


 4504 06524 0000  D6524,  0000                / AND   S0000                           
 4505             
 4506             ////////////////////////////////////////////////////////////////////////////////
 4507             /
 4508             /   SUBROUTINE:  S6525
 4509             /
 4510             /   Called from:
 4511             /   3242 3244 3246 3250 3503 3505 5733 5737 5743 
 4512             /   Total 0011 (9) calls
 4513             ////////////////////////////////////////////////////////////////////////////////
 4514             S6525,
 4515 06525 0000      0                       / return area
 4516 06526 7200      CLA                     /                                       @@6526=7200
 4517 06527 1370      TAD   C6570             /                                       @@6527=1370
 4518 06530 1355      TAD   D6555             /                                       @@6530=1355
 4519 06531 7640      SZA CLA                 /                                       @@6531=7640
 4520 06532 5342      JMP   L6542             /                                       @@6532=5342
 4521 06533 1357      TAD   C6557             /                                       @@6533=1357
 4522 06534 3355      DCA   D6555             /                                       @@6534=3355
 4523 06535 1356      TAD   D6556             /                                       @@6535=1356
 4524 06536 7104      CLL RAL                 /                                       @@6536=7104
 4525 06537 7430      SZL                     /                                       @@6537=7430
 4526 06540 7001      IAC                     /                                       @@6540=7001
 4527 06541 3356      DCA   D6556             /                                       @@6541=3356
 4528             L6542,
 4529 06542 1356      TAD   D6556             /                                       @@6542=1356
 4530 06543 1755      TAD I D6555             /                                       @@6543=1755
 4531 06544 3755      DCA I D6555             /                                       @@6544=3755
 4532 06545 1371      TAD   D6571             /                                       @@6545=1371
 4533 06546 7010      RAR                     /                                       @@6546=7010
 4534 06547 1755      TAD I D6555             /                                       @@6547=1755
 4535 06550 2355      ISZ   D6555             /                                       @@6550=2355
 4536 06551 7400      7400                    /                                       @@6551=7400
 4537 06552 3371      DCA   D6571             /                                       @@6552=3371
 4538 06553 1371      TAD   D6571             /                                       @@6553=1371
 4539 06554 5725      JMP I S6525             / return                                @@6554=5725
 4540 06555 6570  D6555,  6570                / 6570                                  
 4541 06556 6543  D6556,  6543                / 6543                                  
 4542 06557 6560  C6557,  6560                / 6560                                  
 4543 06560 6543  C6560,  6543                / 6543                                  
 4544 06561 3210      DCA   D6410             /                                       @@6561=3210
 4545 06562 0765      AND I C6565             /                                       @@6562=0765
 4546 06563 5432      JMP I C0032             / long jump to L0000                    @@6563=5432
 4547 06564 2107      ISZ   D0107             /                                       @@6564=2107
 4548 06565 7654  C6565,  7654                / SNA CLA OSR                           
 4549 06566 4321  C6566,  4321                / JMS   C6521                           
 4550 06567 0176      AND   C0176             /                                       @@6567=0176
 4551 06570 1210  C6570,  1210                / TAD   D6410                           
 4552 06571 0000  D6571,  0000                / AND   S0000                           
 4553 06572 1111  C6572,  1111                / TAD   C0111                           
 4554 06573 4444  C6573,  4444                / JMS I D0044                           
 4555 06574 2222  C6574,  2222                / ISZ   C6422                           
 4556 06575 7070  C6575,  7070                / CMA CML RAR                           
 4557 06576 0707  C6576,  0707                / AND I C6507                           
 4558 06577 7774  C6577,  7774                / SPA SNA SZL CLA OSR                   
 4559             
 4560       6600  *6600

      AUTOMATIC DISASSEMBLY OF MAINDEC-8E-D0LB-D-PB.bin BY D8TAPE        Page 81


 4561             
 4562             ////////////////////////////////////////////////////////////////////////////////
 4563             /
 4564             /   SUBROUTINE:  S6600
 4565             /
 4566             /   Called from:
 4567             /   5265 5543 5716 6674 6714 6737 6743 6747 6753 6757 7011 7020 7032 7102 7112 
 4568             /   7125 7140 7147 7162 7207 7213 7216 7222 7225 7232 
 4569             /   Total 0031 (25) calls
 4570             ////////////////////////////////////////////////////////////////////////////////
 4571             S6600,
 4572 06600 0000      0                       / return area
 4573 06601 7200      CLA                     /                                       @@6601=7200
 4574 06602 1600      TAD I S6600             /                                       @@6602=1600
 4575 06603 3263      DCA   D6663             /                                       @@6603=3263
 4576 06604 3265      DCA   D6665             /                                       @@6604=3265
 4577 06605 2200      ISZ   S6600             /                                       @@6605=2200
 4578             L6606,
 4579 06606 1663      TAD I D6663             /                                       @@6606=1663
 4580 06607 7012      RTR                     /                                       @@6607=7012
 4581 06610 7012      RTR                     /                                       @@6610=7012
 4582 06611 7012      RTR                     /                                       @@6611=7012
 4583 06612 4217      JMS   S6617             /                                       @@6612=4217
 4584 06613 1663      TAD I D6663             /                                       @@6613=1663
 4585 06614 4217      JMS   S6617             /                                       @@6614=4217
 4586 06615 2263      ISZ   D6663             /                                       @@6615=2263
 4587 06616 5206      JMP   L6606             /                                       @@6616=5206
 4588             
 4589             ////////////////////////////////////////////////////////////////////////////////
 4590             /
 4591             /   SUBROUTINE:  S6617
 4592             /
 4593             /   Called from:
 4594             /   6612 6614 
 4595             /   Total 0002 (2) calls
 4596             ////////////////////////////////////////////////////////////////////////////////
 4597             S6617,
 4598 06617 0000      0                       / return area
 4599 06620 0377      AND   C6777             /                                       @@6620=0377
 4600 06621 3264      DCA   D6664             /                                       @@6621=3264
 4601 06622 1265      TAD   D6665             /                                       @@6622=1265
 4602 06623 7640      SZA CLA                 /                                       @@6623=7640
 4603 06624 5234      JMP   L6634             /                                       @@6624=5234
 4604 06625 1264      TAD   D6664             /                                       @@6625=1264
 4605 06626 7450      SNA                     /                                       @@6626=7450
 4606 06627 5232      JMP   L6632             /                                       @@6627=5232
 4607             L6630,
 4608 06630 4253      JMS   S6653             /                                       @@6630=4253
 4609 06631 5617      JMP I S6617             / return                                @@6631=5617
 4610             L6632,
 4611 06632 2265      ISZ   D6665             /                                       @@6632=2265
 4612 06633 5617      JMP I S6617             / return                                @@6633=5617
 4613             L6634,
 4614 06634 3265      DCA   D6665             /                                       @@6634=3265
 4615 06635 1264      TAD   D6664             /                                       @@6635=1264
 4616 06636 7041      CIA                     /                                       @@6636=7041
 4617 06637 7450      SNA                     /                                       @@6637=7450

      AUTOMATIC DISASSEMBLY OF MAINDEC-8E-D0LB-D-PB.bin BY D8TAPE        Page 82


 4618 06640 5230      JMP   L6630             /                                       @@6640=5230
 4619 06641 7001      IAC                     /                                       @@6641=7001
 4620 06642 7650      SNA CLA                 /                                       @@6642=7650
 4621 06643 5600      JMP I S6600             / return                                @@6643=5600
 4622 06644 1266      TAD   C6666             /                                       @@6644=1266
 4623 06645 3255      DCA   D6655             /                                       @@6645=3255
 4624 06646 1264      TAD   D6664             /                                       @@6646=1264
 4625 06647 4253      JMS   S6653             /                                       @@6647=4253
 4626 06650 1267      TAD   C6667             /                                       @@6650=1267
 4627 06651 3255      DCA   D6655             /                                       @@6651=3255
 4628 06652 5617      JMP I S6617             / return                                @@6652=5617
 4629             
 4630             ////////////////////////////////////////////////////////////////////////////////
 4631             /
 4632             /   SUBROUTINE:  S6653
 4633             /
 4634             /   Called from:
 4635             /   6630 6647 
 4636             /   Total 0002 (2) calls
 4637             ////////////////////////////////////////////////////////////////////////////////
 4638             S6653,
 4639 06653 0000      0                       / return area
 4640 06654 1376      TAD   C6776             /                                       @@6654=1376
 4641 06655 7510  D6655,  7510                / SPA                                   
 4642 06656 1375      TAD   C6775             /                                       @@6656=1375
 4643 06657 1374      TAD   C6774             /                                       @@6657=1374
 4644 06660 4526      JMS I C0126             / long call to S5613                    @@6660=4526
 4645 06661 5653      JMP I S6653             / return                                @@6661=5653
 4646 06662 0000      AND   S0000             /                                       @@6662=0000
 4647 06663 0000  D6663,  0000                / AND   S0000                           
 4648 06664 0000  D6664,  0000                / AND   S0000                           
 4649 06665 0000  D6665,  0000                / AND   S0000                           
 4650 06666 7500  C6666,  7500                / SMA                                   
 4651 06667 7510  C6667,  7510                / SPA                                   
 4652             
 4653             ////////////////////////////////////////////////////////////////////////////////
 4654             /
 4655             /   SUBROUTINE:  S6670
 4656             /
 4657             /   Called from:
 4658             /   0610 4003 4011 4021 4025 4033 4037 4052 6712 6724 6730 6735 6741 6745 6751 
 4659             /   6755 7013 7022 7034 7057 7063 7071 7114 7120 7127 7133 7142 7151 7155 7164 
 4660             /   7211 7220 7234 
 4661             /   Total 0041 (33) calls
 4662             ////////////////////////////////////////////////////////////////////////////////
 4663             S6670,
 4664 06670 0000      0                       / return area
 4665 06671 1670      TAD I S6670             /                                       @@6671=1670
 4666 06672 3303      DCA   D6703             /                                       @@6672=3303
 4667 06673 2270      ISZ   S6670             /                                       @@6673=2270
 4668             L6674,
 4669 06674 4450      JMS I C0050             / long call to S6600                    @@6674=4450
 4670 06675 6701      6701                    / Skip the next instruction if the dat  @@6675=6701
 4671 06676 2303      ISZ   D6703             /                                       @@6676=2303
 4672 06677 5274      JMP   L6674             /                                       @@6677=5274
 4673 06700 5670      JMP I S6670             / return                                @@6700=5670
 4674 06701 4000      JMS   S0000             /                                       @@6701=4000

      AUTOMATIC DISASSEMBLY OF MAINDEC-8E-D0LB-D-PB.bin BY D8TAPE        Page 83


 4675 06702 0100      AND   L0100             /                                       @@6702=0100
 4676 06703 0000  D6703,  0000                / AND   S0000                           
 4677             
 4678             ////////////////////////////////////////////////////////////////////////////////
 4679             /
 4680             /   SUBROUTINE:  S6704
 4681             /
 4682             /   Called from:
 4683             /   0606 1065 1234 4017 7001 7107 
 4684             /   Total 0006 (6) calls
 4685             ////////////////////////////////////////////////////////////////////////////////
 4686             S6704,
 4687 06704 0000      0                       / return area
 4688 06705 7300      CLA CLL                 / AC = 0000                             @@6705=7300
 4689 06706 1115      TAD   D0115             /                                       @@6706=1115
 4690 06707 7040      CMA                     /                                       @@6707=7040
 4691 06710 1373      TAD   C6773             /                                       @@6710=1373
 4692 06711 3321      DCA   D6721             /                                       @@6711=3321
 4693 06712 4451      JMS I C0051             / long call to S6670                    @@6712=4451
 4694 06713 7774      SPA SNA SZL CLA OSR     /                                       @@6713=7774
 4695 06714 4450      JMS I C0050             / long call to S6600                    @@6714=4450
 4696 06715 6717  C6715,  6717                / 6717                                  
 4697 06716 5704      JMP I S6704             / return                                @@6716=5704
 4698 06717 1517      TAD I L0117             /                                       @@6717=1517
 4699 06720 0405  C6720,  0405                / AND I C0005                           
 4700 06721 0000  D6721,  0000                / AND   S0000                           
 4701 06722 0001      AND   L0001             /                                       @@6722=0001
 4702             
 4703             ////////////////////////////////////////////////////////////////////////////////
 4704             /
 4705             /   SUBROUTINE:  S6723
 4706             /
 4707             /   Called from:
 4708             /   0267 0277 0615 0622 0627 1070 1074 1100 1116 5723 7206 7215 7224 
 4709             /   Total 0015 (13) calls
 4710             ////////////////////////////////////////////////////////////////////////////////
 4711             S6723,
 4712 06723 0000      0                       / return area
 4713 06724 4451      JMS I C0051             / long call to S6670                    @@6724=4451
 4714 06725 7777  C6725,  7777                / CLA MQA SCA MQL LSR +                 
 4715 06726 5723      JMP I S6723             / return                                @@6726=5723
 4716             
 4717             ////////////////////////////////////////////////////////////////////////////////
 4718             /
 4719             /   SUBROUTINE:  S6727
 4720             /
 4721             /   Called from:
 4722             /   0265 0275 0613 0625 1067 1072 1077 1103 1114 4045 5720 7051 7054 7101 7104 
 4723             /   7240 
 4724             /   Total 0020 (16) calls
 4725             ////////////////////////////////////////////////////////////////////////////////
 4726             S6727,
 4727 06727 0000      0                       / return area
 4728 06730 4451      JMS I C0051             / long call to S6670                    @@6730=4451
 4729 06731 7776      SPA SNA SZL CLA OSR HLT /                                       @@6731=7776
 4730 06732 5727      JMP I S6727             / return                                @@6732=5727
 4731             

      AUTOMATIC DISASSEMBLY OF MAINDEC-8E-D0LB-D-PB.bin BY D8TAPE        Page 84


 4732             ////////////////////////////////////////////////////////////////////////////////
 4733             /
 4734             /   SUBROUTINE:  S6733
 4735             /
 4736             /   Called from:
 4737             /   7003 
 4738             /   Total 0001 (1) calls
 4739             ////////////////////////////////////////////////////////////////////////////////
 4740             S6733,
 4741 06733 0000      0                       / return area
 4742 06734 4525      JMS I L0125             / long call to S5607                    @@6734=4525
 4743 06735 4451      JMS I C0051             / long call to S6670                    @@6735=4451
 4744 06736 7764      SMA SZA SNL CLA OSR     /                                       @@6736=7764
 4745 06737 4450      JMS I C0050             / long call to S6600                    @@6737=4450
 4746 06740 7407  C6740,  7407                / DVI +                                 
 4747 06741 4451      JMS I C0051             / long call to S6670                    @@6741=4451
 4748 06742 7773  C6742,  7773                / CLA MQA SCA MQL SHL +                 
 4749 06743 4450      JMS I C0050             / long call to S6600                    @@6743=4450
 4750 06744 7377  C6744,  7377                / CLA CLL CMA CML IAC RTR RTL           
 4751 06745 4451      JMS I C0051             / long call to S6670                    @@6745=4451
 4752 06746 7767  C6746,  7767                / CLA MQA SCA MQL DVI +                 
 4753 06747 4450      JMS I C0050             / long call to S6600                    @@6747=4450
 4754 06750 7403  C6750,  7403                / SCL +                                 
 4755 06751 4451      JMS I C0051             / long call to S6670                    @@6751=4451
 4756 06752 7774      SPA SNA SZL CLA OSR     /                                       @@6752=7774
 4757 06753 4450      JMS I C0050             / long call to S6600                    @@6753=4450
 4758 06754 7456      SNA OSR HLT             /                                       @@6754=7456
 4759 06755 4451      JMS I C0051             / long call to S6670                    @@6755=4451
 4760 06756 7772      SPA SNA SZL CLA HLT     /                                       @@6756=7772
 4761 06757 4450      JMS I C0050             / long call to S6600                    @@6757=4450
 4762 06760 7431  C6760,  7431                / MQL NMI                               
 4763 06761 5733      JMP I S6733             / return                                @@6761=5733
 4764             
 4765       6773  *6773
 4766 06773 4002  C6773,  4002                / JMS   D0002                           
 4767 06774 0240  C6774,  0240                / AND   C6640                           
 4768 06775 0100  C6775,  0100                / AND   L0100                           
 4769 06776 7740  C6776,  7740                / SMA SZA CLA                           
 4770 06777 0077  C6777,  0077                / AND   C0077                           
 4771             
 4772       7000  *7000
 4773             
 4774             ////////////////////////////////////////////////////////////////////////////////
 4775             /
 4776             /   SUBROUTINE:  S7000
 4777             /
 4778             /   Called from:
 4779             /   1313 1426 1512 1644 1731 2044 2131 2244 2531 2651 2715 3026 3136 3306 
 4780             /   Total 0016 (14) calls
 4781             ////////////////////////////////////////////////////////////////////////////////
 4782             S7000,
 4783 07000 0000      0                       / return area
 4784 07001 4576      JMS I C0176             / long call to S6704                    @@7001=4576
 4785 07002 0000  D7002,  0000                / AND   S0000                           
 4786 07003 4777      JMS I C7177             / long call to S6733                    @@7003=4777
 4787 07004 4525      JMS I L0125             / long call to S5607                    @@7004=4525
 4788 07005 4453      JMS I C0053             / long call to S6400                    @@7005=4453

      AUTOMATIC DISASSEMBLY OF MAINDEC-8E-D0LB-D-PB.bin BY D8TAPE        Page 85


 4789 07006 0021      AND   D0021             /                                       @@7006=0021
 4790 07007 0026      AND   C0026             /                                       @@7007=0026
 4791 07010 7773  C7010,  7773                / CLA MQA SCA MQL SHL +                 
 4792 07011 4450      JMS I C0050             / long call to S6600                    @@7011=4450
 4793 07012 7412      SKP HLT                 /                                       @@7012=7412
 4794 07013 4451      JMS I C0051             / long call to S6670                    @@7013=4451
 4795 07014 7771  C7014,  7771                / CLA MQA SCA MQL NMI                   
 4796 07015 4246      JMS   S7046             /                                       @@7015=4246
 4797 07016 0000  D7016,  0000                / AND   S0000                           
 4798 07017 4525      JMS I L0125             / long call to S5607                    @@7017=4525
 4799 07020 4450      JMS I C0050             / long call to S6600                    @@7020=4450
 4800 07021 7417  C7021,  7417                / LSR +                                 
 4801 07022 4451      JMS I C0051             / long call to S6670                    @@7022=4451
 4802 07023 7773  C7023,  7773                / CLA MQA SCA MQL SHL +                 
 4803 07024 4453      JMS I C0053             / long call to S6400                    @@7024=4453
 4804 07025 0042      AND   D0042             /                                       @@7025=0042
 4805 07026 0026      AND   C0026             /                                       @@7026=0026
 4806 07027 7773  C7027,  7773                / CLA MQA SCA MQL SHL +                 
 4807 07030 4246      JMS   S7046             /                                       @@7030=4246
 4808 07031 4525      JMS I L0125             / long call to S5607                    @@7031=4525
 4809 07032 4450      JMS I C0050             / long call to S6600                    @@7032=4450
 4810 07033 7425  C7033,  7425                / MQL MUY +                             
 4811 07034 4451      JMS I C0051             / long call to S6670                    @@7034=4451
 4812 07035 7770      SPA SNA SZL CLA         /                                       @@7035=7770
 4813 07036 4453      JMS I C0053             / long call to S6400                    @@7036=4453
 4814 07037 0033      AND   L0033             /                                       @@7037=0033
 4815 07040 0026      AND   C0026             /                                       @@7040=0026
 4816 07041 7773  C7041,  7773                / CLA MQA SCA MQL SHL +                 
 4817 07042 4246      JMS   S7046             /                                       @@7042=4246
 4818 07043 5600      JMP I S7000             / return                                @@7043=5600
 4819 07044 4776  C7044,  4776                / JMS I C7176                           
 4820 07045 4775  C7045,  4775                / JMS I C7175                           
 4821             
 4822             ////////////////////////////////////////////////////////////////////////////////
 4823             /
 4824             /   SUBROUTINE:  S7046
 4825             /
 4826             /   Called from:
 4827             /   7015 7030 7042 
 4828             /   Total 0003 (3) calls
 4829             ////////////////////////////////////////////////////////////////////////////////
 4830             S7046,
 4831 07046 0000      0                       / return area
 4832 07047 1026      TAD   C0026             /                                       @@7047=1026
 4833 07050 4555      JMS I C0155             / long call to S5726                    @@7050=4555
 4834 07051 4455      JMS I C0055             / long call to S6727                    @@7051=4455
 4835 07052 1027      TAD   C0027             /                                       @@7052=1027
 4836 07053 4774      JMS I C7174             / long call to S7200                    @@7053=4774
 4837 07054 4455      JMS I C0055             / long call to S6727                    @@7054=4455
 4838 07055 1030      TAD   C0030             /                                       @@7055=1030
 4839 07056 4774      JMS I C7174             / long call to S7200                    @@7056=4774
 4840 07057 4451      JMS I C0051             / long call to S6670                    @@7057=4451
 4841 07060 7775  C7060,  7775                / CLA MQA SCA MQL ASR +                 
 4842 07061 1032      TAD   C0032             /                                       @@7061=1032
 4843 07062 4555      JMS I C0155             / long call to S5726                    @@7062=4555
 4844 07063 4451      JMS I C0051             / long call to S6670                    @@7063=4451
 4845 07064 7774      SPA SNA SZL CLA OSR     /                                       @@7064=7774

      AUTOMATIC DISASSEMBLY OF MAINDEC-8E-D0LB-D-PB.bin BY D8TAPE        Page 86


 4846 07065 1031      TAD   C0031             /                                       @@7065=1031
 4847 07066 4774      JMS I C7174             / long call to S7200                    @@7066=4774
 4848 07067 5646      JMP I S7046             / return                                @@7067=5646
 4849             
 4850             ////////////////////////////////////////////////////////////////////////////////
 4851             /
 4852             /   SUBROUTINE:  S7070
 4853             /
 4854             /   Called from:
 4855             /   1511 1643 1730 2043 2130 2243 
 4856             /   Total 0006 (6) calls
 4857             ////////////////////////////////////////////////////////////////////////////////
 4858             S7070,
 4859 07070 0000      0                       / return area
 4860 07071 4451      JMS I C0051             / long call to S6670                    @@7071=4451
 4861 07072 7775  C7072,  7775                / CLA MQA SCA MQL ASR +                 
 4862 07073 1024      TAD   D0024             /                                       @@7073=1024
 4863 07074 7001      IAC                     /                                       @@7074=7001
 4864 07075 1115      TAD   D0115             /                                       @@7075=1115
 4865 07076 3116      DCA   D0116             /                                       @@7076=3116
 4866 07077 4773      JMS I C7173             / long call to S6426                    @@7077=4773
 4867 07100 0116      AND   D0116             /                                       @@7100=0116
 4868 07101 4455      JMS I C0055             / long call to S6727                    @@7101=4455
 4869 07102 4450      JMS I C0050             / long call to S6600                    @@7102=4450
 4870 07103 7447  C7103,  7447                / SCA DVI +                             
 4871 07104 4455      JMS I C0055             / long call to S6727                    @@7104=4455
 4872 07105 5670      JMP I S7070             / return                                @@7105=5670
 4873             
 4874             ////////////////////////////////////////////////////////////////////////////////
 4875             /
 4876             /   SUBROUTINE:  S7106
 4877             /
 4878             /   Called from:
 4879             /   3446 3543 
 4880             /   Total 0002 (2) calls
 4881             ////////////////////////////////////////////////////////////////////////////////
 4882             S7106,
 4883 07106 0000      0                       / return area
 4884 07107 4576      JMS I C0176             / long call to S6704                    @@7107=4576
 4885 07110 4772      JMS I C7172             / long call to S7204                    @@7110=4772
 4886 07111 4525      JMS I L0125             / long call to S5607                    @@7111=4525
 4887 07112 4450      JMS I C0050             / long call to S6600                    @@7112=4450
 4888 07113 7407  C7113,  7407                / DVI +                                 
 4889 07114 4451      JMS I C0051             / long call to S6670                    @@7114=4451
 4890 07115 7773  C7115,  7773                / CLA MQA SCA MQL SHL +                 
 4891 07116 1042      TAD   D0042             /                                       @@7116=1042
 4892 07117 4555      JMS I C0155             / long call to S5726                    @@7117=4555
 4893 07120 4451      JMS I C0051             / long call to S6670                    @@7120=4451
 4894 07121 7761  C7121,  7761                / CLA MQA SCA MQL                       
 4895 07122 1033      TAD   L0033             /                                       @@7122=1033
 4896 07123 4555      JMS I C0155             / long call to S5726                    @@7123=4555
 4897 07124 4524      JMS I C0124             / long call to S5600                    @@7124=4524
 4898 07125 4450      JMS I C0050             / long call to S6600                    @@7125=4450
 4899 07126 7377  C7126,  7377                / CLA CLL CMA CML IAC RTR RTL           
 4900 07127 4451      JMS I C0051             / long call to S6670                    @@7127=4451
 4901 07130 7774      SPA SNA SZL CLA OSR     /                                       @@7130=7774
 4902 07131 1043      TAD   D0043             /                                       @@7131=1043

      AUTOMATIC DISASSEMBLY OF MAINDEC-8E-D0LB-D-PB.bin BY D8TAPE        Page 87


 4903 07132 4774      JMS I C7174             / long call to S7200                    @@7132=4774
 4904 07133 4451      JMS I C0051             / long call to S6670                    @@7133=4451
 4905 07134 7774      SPA SNA SZL CLA OSR     /                                       @@7134=7774
 4906 07135 1034      TAD   D0034             /                                       @@7135=1034
 4907 07136 4774      JMS I C7174             / long call to S7200                    @@7136=4774
 4908 07137 4524      JMS I C0124             / long call to S5600                    @@7137=4524
 4909 07140 4450      JMS I C0050             / long call to S6600                    @@7140=4450
 4910 07141 7514      SPA OSR                 /                                       @@7141=7514
 4911 07142 4451      JMS I C0051             / long call to S6670                    @@7142=4451
 4912 07143 7755  C7143,  7755                / CLA MQA SCA ASR +                     
 4913 07144 1036      TAD   D0036             /                                       @@7144=1036
 4914 07145 4774      JMS I C7174             / long call to S7200                    @@7145=4774
 4915 07146 4524      JMS I C0124             / long call to S5600                    @@7146=4524
 4916 07147 4450      JMS I C0050             / long call to S6600                    @@7147=4450
 4917 07150 7403  C7150,  7403                / SCL +                                 
 4918 07151 4451      JMS I C0051             / long call to S6670                    @@7151=4451
 4919 07152 7774      SPA SNA SZL CLA OSR     /                                       @@7152=7774
 4920 07153 1044      TAD   D0044             /                                       @@7153=1044
 4921 07154 4774      JMS I C7174             / long call to S7200                    @@7154=4774
 4922 07155 4451      JMS I C0051             / long call to S6670                    @@7155=4451
 4923 07156 7774      SPA SNA SZL CLA OSR     /                                       @@7156=7774
 4924 07157 1035      TAD   D0035             /                                       @@7157=1035
 4925 07160 4774      JMS I C7174             / long call to S7200                    @@7160=4774
 4926 07161 4524      JMS I C0124             / long call to S5600                    @@7161=4524
 4927 07162 4450      JMS I C0050             / long call to S6600                    @@7162=4450
 4928 07163 7520      SMA SNL                 /                                       @@7163=7520
 4929 07164 4451      JMS I C0051             / long call to S6670                    @@7164=4451
 4930 07165 7755  C7165,  7755                / CLA MQA SCA ASR +                     
 4931 07166 1037      TAD   D0037             /                                       @@7166=1037
 4932 07167 4774      JMS I C7174             / long call to S7200                    @@7167=4774
 4933 07170 5706      JMP I S7106             / return                                @@7170=5706
 4934             
 4935       7172  *7172
 4936             C7172,
 4937 07172 7204  C7172,  7204                / GLK                                   
 4938             C7173,
 4939 07173 6426  C7173,  6426                / 6426                                  
 4940             C7174,
 4941 07174 7200  C7174,  7200                / CLA                                   
 4942 07175 5541      JMP I C0141             / long jump to L5410                    @@7175=5541
 4943 07176 7230      CLA CML RAR             /                                       @@7176=7230
 4944             C7177,
 4945 07177 6733  C7177,  6733                / 6733                                  
 4946             
 4947       7200  *7200
 4948             
 4949             ////////////////////////////////////////////////////////////////////////////////
 4950             /
 4951             /   SUBROUTINE:  S7200
 4952             /
 4953             /   Called from:
 4954             /   4024 4030 4036 4042 4047 4055 7053 7056 7066 7132 7136 7145 7154 7160 7167 
 4955             /   7237 7242 
 4956             /   Total 0021 (17) calls
 4957             ////////////////////////////////////////////////////////////////////////////////
 4958             S7200,
 4959 07200 0000      0                       / return area

      AUTOMATIC DISASSEMBLY OF MAINDEC-8E-D0LB-D-PB.bin BY D8TAPE        Page 88


 4960 07201 3106      DCA   D0106             /                                       @@7201=3106
 4961 07202 4531      JMS I C0131             / long call to S5663                    @@7202=4531
 4962 07203 5600      JMP I S7200             / return                                @@7203=5600
 4963             
 4964             ////////////////////////////////////////////////////////////////////////////////
 4965             /
 4966             /   SUBROUTINE:  S7204
 4967             /
 4968             /   Called from:
 4969             /   7110 
 4970             /   Total 0001 (1) calls
 4971             ////////////////////////////////////////////////////////////////////////////////
 4972             S7204,
 4973 07204 0000      0                       / return area
 4974 07205 4525      JMS I L0125             / long call to S5607                    @@7205=4525
 4975 07206 4454      JMS I C0054             / long call to S6723                    @@7206=4454
 4976 07207 4450      JMS I C0050             / long call to S6600                    @@7207=4450
 4977 07210 7527  C7210,  7527                / MQA MQL DVI +                         
 4978 07211 4451      JMS I C0051             / long call to S6670                    @@7211=4451
 4979 07212 7772      SPA SNA SZL CLA HLT     /                                       @@7212=7772
 4980 07213 4450      JMS I C0050             / long call to S6600                    @@7213=4450
 4981 07214 7504      SMA OSR                 /                                       @@7214=7504
 4982 07215 4454      JMS I C0054             / long call to S6723                    @@7215=4454
 4983 07216 4450      JMS I C0050             / long call to S6600                    @@7216=4450
 4984 07217 7501      MQA                     /                                       @@7217=7501
 4985 07220 4451      JMS I C0051             / long call to S6670                    @@7220=4451
 4986 07221 7772      SPA SNA SZL CLA HLT     /                                       @@7221=7772
 4987 07222 4450      JMS I C0050             / long call to S6600                    @@7222=4450
 4988 07223 7510      SPA                     /                                       @@7223=7510
 4989 07224 4454      JMS I C0054             / long call to S6723                    @@7224=4454
 4990 07225 4450      JMS I C0050             / long call to S6600                    @@7225=4450
 4991 07226 7501      MQA                     /                                       @@7226=7501
 4992 07227 5604      JMP I S7204             / return                                @@7227=5604
 4993             C7230,
 4994 07230 0000  C7230,  0000                / AND   S0000                           
 4995 07231 4525      JMS I L0125             / long call to S5607                    @@7231=4525
 4996 07232 4450      JMS I C0050             / long call to S6600                    @@7232=4450
 4997 07233 7536      SPA SZL OSR HLT         /                                       @@7233=7536
 4998 07234 4451      JMS I C0051             / long call to S6670                    @@7234=4451
 4999 07235 7772      SPA SNA SZL CLA HLT     /                                       @@7235=7772
 5000 07236 1040      TAD   D0040             /                                       @@7236=1040
 5001 07237 4200      JMS   S7200             /                                       @@7237=4200
 5002 07240 4455      JMS I C0055             / long call to S6727                    @@7240=4455
 5003 07241 1041      TAD   D0041             /                                       @@7241=1041
 5004 07242 4200      JMS   S7200             /                                       @@7242=4200
 5005 07243 5630      JMP I C7230             / long jump to L0000                    @@7243=5630
 5006 07244 0000      AND   S0000             /                                       @@7244=0000
 5007 07245 0000      AND   S0000             /                                       @@7245=0000
 5008 07246 7777  C7246,  7777                / CLA MQA SCA MQL LSR +                 
 5009 07247 4000      JMS   S0000             /                                       @@7247=4000
 5010 07250 7777  C7250,  7777                / CLA MQA SCA MQL LSR +                 
 5011 07251 0000      AND   S0000             /                                       @@7251=0000
 5012             L7252,
 5013 07252 0000      AND   S0000             /                                       @@7252=0000
 5014 07253 7777  C7253,  7777                / CLA MQA SCA MQL LSR +                 
 5015 07254 7777  C7254,  7777                / CLA MQA SCA MQL LSR +                 
 5016 07255 0000      AND   S0000             /                                       @@7255=0000

      AUTOMATIC DISASSEMBLY OF MAINDEC-8E-D0LB-D-PB.bin BY D8TAPE        Page 89


 5017 07256 0000      AND   S0000             /                                       @@7256=0000
 5018 07257 0000      AND   S0000             /                                       @@7257=0000
 5019 07260 0000      AND   S0000             /                                       @@7260=0000
 5020 07261 0001      AND   L0001             /                                       @@7261=0001
 5021 07262 0002      AND   D0002             /                                       @@7262=0002
 5022 07263 0000      AND   S0000             /                                       @@7263=0000
 5023 07264 3776      DCA I C7376             /                                       @@7264=3776
 5024 07265 3777      DCA I C7377             /                                       @@7265=3777
 5025 07266 4000      JMS   S0000             /                                       @@7266=4000
 5026 07267 3777      DCA I C7377             /                                       @@7267=3777
 5027 07270 3776      DCA I C7376             /                                       @@7270=3776
 5028 07271 4000      JMS   S0000             /                                       @@7271=4000
 5029 07272 4777  C7272,  4777                / JMS I C7377                           
 5030 07273 4776  C7273,  4776                / JMS I C7376                           
 5031 07274 0000      AND   S0000             /                                       @@7274=0000
 5032 07275 4776  C7275,  4776                / JMS I C7376                           
 5033 07276 4777  C7276,  4777                / JMS I C7377                           
 5034 07277 4000      JMS   S0000             /                                       @@7277=4000
 5035 07300 7777  C7300,  7777                / CLA MQA SCA MQL LSR +                 
 5036 07301 3776      DCA I C7376             /                                       @@7301=3776
 5037 07302 0000      AND   S0000             /                                       @@7302=0000
 5038 07303 3776      DCA I C7376             /                                       @@7303=3776
 5039 07304 7777  C7304,  7777                / CLA MQA SCA MQL LSR +                 
 5040 07305 0000      AND   S0000             /                                       @@7305=0000
 5041 07306 7777  C7306,  7777                / CLA MQA SCA MQL LSR +                 
 5042 07307 7777  C7307,  7777                / CLA MQA SCA MQL LSR +                 
 5043 07310 4000      JMS   S0000             /                                       @@7310=4000
 5044 07311 0000      AND   S0000             /                                       @@7311=0000
 5045 07312 0000      AND   S0000             /                                       @@7312=0000
 5046 07313 4000      JMS   S0000             /                                       @@7313=4000
 5047 07314 2525      ISZ I L0125             /                                       @@7314=2525
 5048 07315 5252      JMP   L7252             /                                       @@7315=5252
 5049 07316 0000      AND   S0000             /                                       @@7316=0000
 5050 07317 5252      JMP   L7252             /                                       @@7317=5252
 5051 07320 2525      ISZ I L0125             /                                       @@7320=2525
 5052 07321 0000      AND   S0000             /                                       @@7321=0000
 5053 07322 7007      IAC RTL                 /                                       @@7322=7007
 5054 07323 0770      AND I C7370             /                                       @@7323=0770
 5055 07324 4000      JMS   S0000             /                                       @@7324=4000
 5056 07325 0770      AND I C7370             /                                       @@7325=0770
 5057 07326 7007      IAC RTL                 /                                       @@7326=7007
 5058 07327 0000      AND   S0000             /                                       @@7327=0000
 5059 07330 0000      AND   S0000             /                                       @@7330=0000
 5060 07331 0000      AND   S0000             /                                       @@7331=0000
 5061 07332 0000      AND   S0000             /                                       @@7332=0000
 5062 07333 0000      AND   S0000             /                                       @@7333=0000
 5063 07334 4000      JMS   S0000             /                                       @@7334=4000
 5064 07335 7777  C7335,  7777                / CLA MQA SCA MQL LSR +                 
 5065 07336 7777  C7336,  7777                / CLA MQA SCA MQL LSR +                 
 5066 07337 0000      AND   S0000             /                                       @@7337=0000
 5067 07340 0000      AND   S0000             /                                       @@7340=0000
 5068 07341 4000      JMS   S0000             /                                       @@7341=4000
 5069 07342 0000      AND   S0000             /                                       @@7342=0000
 5070 07343 0000      AND   S0000             /                                       @@7343=0000
 5071 07344 7777  C7344,  7777                / CLA MQA SCA MQL LSR +                 
 5072 07345 7777  C7345,  7777                / CLA MQA SCA MQL LSR +                 
 5073 07346 0000      AND   S0000             /                                       @@7346=0000

      AUTOMATIC DISASSEMBLY OF MAINDEC-8E-D0LB-D-PB.bin BY D8TAPE        Page 90


 5074 07347 2525      ISZ I L0125             /                                       @@7347=2525
 5075 07350 5252      JMP   L7252             /                                       @@7350=5252
 5076 07351 5252      JMP   L7252             /                                       @@7351=5252
 5077 07352 2525      ISZ I L0125             /                                       @@7352=2525
 5078 07353 4000      JMS   S0000             /                                       @@7353=4000
 5079 07354 5252      JMP   L7252             /                                       @@7354=5252
 5080 07355 2525      ISZ I L0125             /                                       @@7355=2525
 5081 07356 2525      ISZ I L0125             /                                       @@7356=2525
 5082 07357 5252      JMP   L7252             /                                       @@7357=5252
 5083 07360 4000      JMS   S0000             /                                       @@7360=4000
 5084 07361 0770      AND I C7370             /                                       @@7361=0770
 5085 07362 7007      IAC RTL                 /                                       @@7362=7007
 5086 07363 7007      IAC RTL                 /                                       @@7363=7007
 5087 07364 0770      AND I C7370             /                                       @@7364=0770
 5088 07365 0000      AND   S0000             /                                       @@7365=0000
 5089 07366 7007      IAC RTL                 /                                       @@7366=7007
 5090 07367 0770      AND I C7370             /                                       @@7367=0770
 5091 07370 0770  C7370,  0770                / AND I C7370                           
 5092 07371 7007      IAC RTL                 /                                       @@7371=7007
 5093 07372 0000      AND   S0000             /                                       @@7372=0000
 5094 07373 7777  C7373,  7777                / CLA MQA SCA MQL LSR +                 
 5095 07374 7777  C7374,  7777                / CLA MQA SCA MQL LSR +                 
 5096 07375 7777  C7375,  7777                / CLA MQA SCA MQL LSR +                 
 5097 07376 7777  C7376,  7777                / CLA MQA SCA MQL LSR +                 
 5098 07377 0350  C7377,  0350                / AND   C7350                           
 5099 07400 0103  D7400,  0103                / AND   C0103                           
 5100 07401 5100      JMP   L0100             /                                       @@7401=5100
 5101 07402 0100      AND   L0100             /                                       @@7402=0100
 5102 07403 0350      AND   C7550             /                                       @@7403=0350
 5103 07404 1521      TAD I D0121             /                                       @@7404=1521
 5104 07405 5100  D7405,  5100                / JMP   L0100                           
 5105 07406 0100      AND   L0100             /                                       @@7406=0100
 5106 07407 0350      AND   C7550             /                                       @@7407=0350
 5107 07410 1451      TAD I C0051             /                                       @@7410=1451
 5108 07411 0001  C7411,  0001                / AND   L0001                           
 5109 07412 2022      ISZ   D0022             /                                       @@7412=2022
 5110 07413 1702      TAD I C7502             /                                       @@7413=1702
 5111 07414 1405  C7414,  1405                / TAD I C0005                           
 5112 07415 1500      TAD I L0100             /                                       @@7415=1500
 5113 07416 0100      AND   L0100             /                                       @@7416=0100
 5114 07417 2311  C7417,  2311                / ISZ   D7511                           
 5115 07420 1525      TAD I L0125             /                                       @@7420=1525
 5116 07421 1401      TAD I L0001             /                                       @@7421=1401
 5117 07422 2405  C7422,  2405                / ISZ I C0005                           
 5118 07423 0400      AND I S0000             /                                       @@7423=0400
 5119 07424 0100      AND   L0100             /                                       @@7424=0100
 5120 07425 0103      AND   C0103             /                                       @@7425=0103
 5121 07426 2425      ISZ I D0025             /                                       @@7426=2425
 5122 07427 0114      AND   D0114             /                                       @@7427=0114
 5123 07430 0001      AND   L0001             /                                       @@7430=0001
 5124 07431 0350      AND   C7550             /                                       @@7431=0350
 5125 07432 2303      ISZ   D7503             /                                       @@7432=2303
 5126 07433 5100      JMP   L0100             /                                       @@7433=5100
 5127 07434 0100      AND   L0100             /                                       @@7434=0100
 5128 07435 2310      ISZ   D7510             /                                       @@7435=2310
 5129 07436 1400      TAD I S0000             /                                       @@7436=1400
 5130 07437 0100      AND   L0100             /                                       @@7437=0100

      AUTOMATIC DISASSEMBLY OF MAINDEC-8E-D0LB-D-PB.bin BY D8TAPE        Page 91


 5131 07440 2405  C7440,  2405                / ISZ I C0005                           
 5132 07441 2324      ISZ   D7524             /                                       @@7441=2324
 5133 07442 0001      AND   L0001             /                                       @@7442=0001
 5134 07443 6000  C7443,  6000                / 6000                                  
 5135 07444 0100      AND   L0100             /                                       @@7444=0100
 5136 07445 6100  C7445,  6100                / 6100                                  
 5137 07446 0100      AND   L0100             /                                       @@7446=0100
 5138 07447 2310      ISZ   D7510             /                                       @@7447=2310
 5139 07450 1106      TAD   D0106             /                                       @@7450=1106
 5140 07451 2423      ISZ I D0023             /                                       @@7451=2423
 5141 07452 0001      AND   L0001             /                                       @@7452=0001
 5142 07453 1423      TAD I D0023             /                                       @@7453=1423
 5143 07454 2200      ISZ   D7400             /                                       @@7454=2200
 5144 07455 0100      AND   L0100             /                                       @@7455=0100
 5145 07456 0350      AND   C7550             /                                       @@7456=0350
 5146 07457 0724      AND I D7524             /                                       @@7457=0724
 5147 07460 5100      JMP   L0100             /                                       @@7460=5100
 5148 07461 0100      AND   L0100             /                                       @@7461=0100
 5149 07462 0123      AND   C0123             /                                       @@7462=0123
 5150 07463 2200      ISZ   D7400             /                                       @@7463=2200
 5151 07464 0100      AND   L0100             /                                       @@7464=0100
 5152 07465 0420      AND I C0020             /                                       @@7465=0420
 5153 07466 2332      ISZ   D7532             /                                       @@7466=2332
 5154 07467 0001      AND   L0001             /                                       @@7467=0001
 5155 07470 0420      AND I C0020             /                                       @@7470=0420
 5156 07471 1103      TAD   C0103             /                                       @@7471=1103
 5157 07472 0001      AND   L0001             /                                       @@7472=0001
 5158 07473 0403      AND I C0003             /                                       @@7473=0403
 5159 07474 1500      TAD I L0100             /                                       @@7474=1500
 5160 07475 0100      AND   L0100             /                                       @@7475=0100
 5161 07476 0401      AND I L0001             /                                       @@7476=0401
 5162 07477 0400      AND I S0000             /                                       @@7477=0400
 5163 07500 0100  C7500,  0100                / AND   L0100                           
 5164 07501 0423      AND I D0023             /                                       @@7501=0423
 5165 07502 2400  C7502,  2400                / ISZ I S0000                           
 5166 07503 0100  D7503,  0100                / AND   L0100                           
 5167 07504 0205      AND   D7405             /                                       @@7504=0205
 5168 07505 0617      AND I C7417             /                                       @@7505=0617
 5169 07506 2205      ISZ   D7405             /                                       @@7506=2205
 5170 07507 0001      AND   L0001             /                                       @@7507=0001
 5171 07510 0106  D7510,  0106                / AND   D0106                           
 5172 07511 2405  D7511,  2405                / ISZ I C0005                           
 5173 07512 2200      ISZ   D7400             /                                       @@7512=2200
 5174 07513 0100  D7513,  0100                / AND   L0100                           
 5175 07514 0350      AND   C7550             /                                       @@7514=0350
 5176 07515 1523      TAD I C0123             /                                       @@7515=1523
 5177 07516 1051      TAD   C0051             /                                       @@7516=1051
 5178 07517 0001      AND   L0001             /                                       @@7517=0001
 5179 07520 0350      AND   C7550             /                                       @@7520=0350
 5180 07521 1423      TAD I D0023             /                                       @@7521=1423
 5181 07522 1051      TAD   C0051             /                                       @@7522=1051
 5182 07523 0001      AND   L0001             /                                       @@7523=0001
 5183 07524 2301  D7524,  2301                / ISZ   C7501                           
 5184 07525 1500  C7525,  1500                / TAD I L0100                           
 5185 07526 0100      AND   L0100             /                                       @@7526=0100
 5186 07527 2205      ISZ   D7405             /                                       @@7527=2205
 5187 07530 0700      AND I C7500             /                                       @@7530=0700

      AUTOMATIC DISASSEMBLY OF MAINDEC-8E-D0LB-D-PB.bin BY D8TAPE        Page 92


 5188 07531 0100      AND   L0100             /                                       @@7531=0100
 5189 07532 1305  D7532,  1305                / TAD   C7505                           
 5190 07533 7040      CMA                     /                                       @@7533=7040
 5191 07534 6100  C7534,  6100                / 6100                                  
 5192 07535 0100      AND   L0100             /                                       @@7535=0100
 5193 07536 2417  C7536,  2417                / ISZ I AI7                             
 5194 07537 4002      JMS   D0002             /                                       @@7537=4002
 5195 07540 0540  C7540,  0540                / AND I C0140                           
 5196 07541 0104      AND   C0104             /                                       @@7541=0104
 5197 07542 0405  C7542,  0405                / AND I C0005                           
 5198 07543 0400      AND I S0000             /                                       @@7543=0400
 5199 07544 0100      AND   L0100             /                                       @@7544=0100
 5200 07545 2313      ISZ   D7513             /                                       @@7545=2313
 5201 07546 1120      TAD   D0120             /                                       @@7546=1120
 5202 07547 4017  C7547,  4017                / JMS   AI7                             
 5203 07550 0303  C7550,  0303                / AND   D7503                           
 5204 07551 2522      ISZ I D0122             /                                       @@7551=2522
 5205 07552 0504      AND I C0104             /                                       @@7552=0504
 5206 07553 0001      AND   L0001             /                                       @@7553=0001
 5207 07554 1617      TAD I C7417             /                                       @@7554=1617
 5208 07555 4023      JMS   D0023             /                                       @@7555=4023
 5209 07556 1311      TAD   D7511             /                                       @@7556=1311
 5210 07557 2040      ISZ   D0040             /                                       @@7557=2040
 5211 07560 1703      TAD I D7503             /                                       @@7560=1703
 5212 07561 0325      AND   C7525             /                                       @@7561=0325
 5213 07562 2205      ISZ   D7405             /                                       @@7562=2205
 5214 07563 0400      AND I S0000             /                                       @@7563=0400
 5215 07564 0100      AND   L0100             /                                       @@7564=0100
 5216 07565 2205      ISZ   D7405             /                                       @@7565=2205
 5217 07566 0740      AND I C7540             /                                       @@7566=0740
 5218 07567 1517      TAD I L0117             /                                       @@7567=1517
 5219 07570 0411      AND I AI1               / AUTO INDEX REGISTER                   @@7570=0411
 5220 07571 0611      AND I C7411             /                                       @@7571=0611
 5221 07572 0504      AND I C0104             /                                       @@7572=0504
 5222 07573 0001      AND   L0001             /                                       @@7573=0001
 5223             
 5224       0163  *0163
 5225 00163 4000  C0163,  4000                / JMS   S0000                           
 5226 00164 0031  C0164,  0031                / AND   C0031                           
 5227 00165 0037  C0165,  0037                / AND   D0037                           
 5228 00166 7563  C0166,  7563                / MQA SCA MQL SCL +                     
 5229             C0167,
 5230 00167 0033  C0167,  0033                / AND   L0033                           
 5231 00170 0042  C0170,  0042                / AND   D0042                           
 5232 00171 2525  C0171,  2525                / ISZ I L0125                           
 5233 00172 5252  C0172,  5252                / JMP   L0052                           
 5234             C0173,
 5235 00173 5767  C0173,  5767                / JMP I C0167                           
 5236 00174 7741  C0174,  7741                / CLA MQA SCA                           
 5237             C0175,
 5238 00175 5551  C0175,  5551                / JMP I C0151                           
 5239             C0176,
 5240 00176 6704  C0176,  6704                / KLSA                                  
 5241             C0177,
 5242 00177 5000  C0177,  5000                / JMP   S0000                           
 5243             

      No detected errors

      AUTOMATIC DISASSEMBLY OF MAINDEC-8E-D0LB-D-PB.bin BY D8TAPE        Page 93
                                                                    Symbol Table

    1  AI0    00010   C0150  00150   C0775  00775   C1575  01575   C2377  02377 
    2  AI1    00011   C0151  00151   C0776  00776   C1576  01576   C2424  02424 
    3  AI2    00012   C0152  00152   C0777  00777   C1577  01577   C2472  02472 
    4  AI3    00013   C0153  00153   C1000  01000   C1606  01606   C2525  02525 
    5  C0001  00001   C0154  00154   C1010  01010   C1613  01613   C2526  02526 
    6  C0003  00003   C0155  00155   C1023  01023   C1637  01637   C2530  02530 
    7  C0020  00020   C0156  00156   C1062  01062   C1640  01640   C2571  02571 
    8  C0026  00026   C0163  00163   C1102  01102   C1642  01642   C2572  02572 
    9  C0027  00027   C0164  00164   C1123  01123   C1662  01662   C2573  02573 
   10  C0030  00030   C0165  00165   C1132  01132   C1667  01667   C2574  02574 
   11  C0031  00031   C0166  00166   C1147  01147   C1712  01712   C2575  02575 
   12  C0032  00032   C0167  00167   C1162  01162   C1724  01724   C2576  02576 
   13  C0050  00050   C0170  00170   C1167  01167   C1725  01725   C2577  02577 
   14  C0051  00051   C0171  00171   C1170  01170   C1727  01727   C2612  02612 
   15  C0052  00052   C0172  00172   C1171  01171   C1771  01771   C2616  02616 
   16  C0053  00053   C0173  00173   C1172  01172   C1772  01772   C2632  02632 
   17  C0054  00054   C0174  00174   C1173  01173   C1773  01773   C2645  02645 
   18  C0055  00055   C0175  00175   C1174  01174   C1774  01774   C2650  02650 
   19  C0060  00060   C0176  00176   C1175  01175   C1775  01775   C2660  02660 
   20  C0061  00061   C0177  00177   C1176  01176   C1776  01776   C2664  02664 
   21  C0062  00062   C0200  00200   C1177  01177   C1777  01777   C2711  02711 
   22  C0070  00070   C0261  00261   C1200  01200   C2006  02006   C2714  02714 
   23  C0071  00071   C0340  00340   C1217  01217   C2013  02013   C2724  02724 
   24  C0072  00072   C0341  00341   C1230  01230   C2037  02037   C2730  02730 
   25  C0073  00073   C0342  00342   C1231  01231   C2040  02040   C2770  02770 
   26  C0074  00074   C0343  00343   C1232  01232   C2042  02042   C2771  02771 
   27  C0075  00075   C0344  00344   C1254  01254   C2062  02062   C2772  02772 
   28  C0076  00076   C0400  00400   C1260  01260   C2067  02067   C2773  02773 
   29  C0077  00077   C0405  00405   C1267  01267   C2112  02112   C2774  02774 
   30  C0100  00100   C0446  00446   C1307  01307   C2124  02124   C2775  02775 
   31  C0101  00101   C0455  00455   C1312  01312   C2127  02127   C2776  02776 
   32  C0103  00103   C0461  00461   C1331  01331   C2171  02171   C2777  02777 
   33  C0104  00104   C0467  00467   C1344  01344   C2172  02172   C3022  03022 
   34  C0110  00110   C0470  00470   C1350  01350   C2173  02173   C3023  03023 
   35  C0111  00111   C0471  00471   C1365  01365   C2174  02174   C3025  03025 
   36  C0112  00112   C0472  00472   C1366  01366   C2175  02175   C3043  03043 
   37  C0113  00113   C0500  00500   C1367  01367   C2176  02176   C3050  03050 
   38  C0123  00123   C0502  00502   C1370  01370   C2177  02177   C3057  03057 
   39  C0124  00124   C0511  00511   C1371  01371   C2206  02206   C3105  03105 
   40  C0125  00125   C0516  00516   C1372  01372   C2213  02213   C3120  03120 
   41  C0126  00126   C0540  00540   C1373  01373   C2237  02237   C3121  03121 
   42  C0127  00127   C0575  00575   C1374  01374   C2242  02242   C3132  03132 
   43  C0130  00130   C0576  00576   C1375  01375   C2267  02267   C3135  03135 
   44  C0131  00131   C0577  00577   C1376  01376   C2274  02274   C3166  03166 
   45  C0132  00132   C0611  00611   C1377  01377   C2311  02311   C3167  03167 
   46  C0134  00134   C0650  00650   C1422  01422   C2362  02362   C3170  03170 
   47  C0135  00135   C0702  00702   C1425  01425   C2363  02363   C3171  03171 
   48  C0136  00136   C0711  00711   C1443  01443   C2364  02364   C3172  03172 
   49  C0137  00137   C0723  00723   C1450  01450   C2366  02366   C3173  03173 
   50  C0140  00140   C0732  00732   C1473  01473   C2367  02367   C3174  03174 
   51  C0141  00141   C0735  00735   C1505  01505   C2370  02370   C3175  03175 
   52  C0142  00142   C0736  00736   C1506  01506   C2371  02371   C3176  03176 
   53  C0143  00143   C0770  00770   C1510  01510   C2372  02372   C3177  03177 
   54  C0144  00144   C0771  00771   C1571  01571   C2373  02373   C3213  03213 
   55  C0145  00145   C0772  00772   C1572  01572   C2374  02374   C3220  03220 
   56  C0146  00146   C0773  00773   C1573  01573   C2375  02375   C3237  03237 
   57  C0147  00147   C0774  00774   C1574  01574   C2376  02376   C3302  03302 

      AUTOMATIC DISASSEMBLY OF MAINDEC-8E-D0LB-D-PB.bin BY D8TAPE        Page 94
                                                                    Symbol Table

   58  C3305  03305   C4070  04070   C4700  04700   C5177  05177   C6572  06572 
   59  C3317  03317   C4071  04071   C4701  04701   C5202  05202   C6573  06573 
   60  C3327  03327   C4072  04072   C4716  04716   C5204  05204   C6574  06574 
   61  C3334  03334   C4073  04073   C4727  04727   C5206  05206   C6575  06575 
   62  C3335  03335   C4074  04074   C4745  04745   C5211  05211   C6576  06576 
   63  C3337  03337   C4075  04075   C4750  04750   C5214  05214   C6577  06577 
   64  C3366  03366   C4102  04102   C4753  04753   C5221  05221   C6666  06666 
   65  C3367  03367   C4107  04107   C4777  04777   C5224  05224   C6667  06667 
   66  C3370  03370   C4123  04123   C5001  05001   C5231  05231   C6715  06715 
   67  C3371  03371   C4155  04155   C5002  05002   C5234  05234   C6720  06720 
   68  C3372  03372   C4156  04156   C5005  05005   C5237  05237   C6725  06725 
   69  C3373  03373   C4157  04157   C5007  05007   C5242  05242   C6740  06740 
   70  C3374  03374   C4160  04160   C5011  05011   C5244  05244   C6742  06742 
   71  C3375  03375   C4161  04161   C5013  05013   C5247  05247   C6744  06744 
   72  C3376  03376   C4162  04162   C5016  05016   C5250  05250   C6746  06746 
   73  C3377  03377   C4163  04163   C5017  05017   C5257  05257   C6750  06750 
   74  C3404  03404   C4164  04164   C5021  05021   C5272  05272   C6760  06760 
   75  C3427  03427   C4165  04165   C5025  05025   C5305  05305   C6773  06773 
   76  C3442  03442   C4166  04166   C5026  05026   C5307  05307   C6774  06774 
   77  C3445  03445   C4167  04167   C5027  05027   C5374  05374   C6775  06775 
   78  C3457  03457   C4170  04170   C5032  05032   C5375  05375   C6776  06776 
   79  C3467  03467   C4171  04171   C5033  05033   C5376  05376   C6777  06777 
   80  C3474  03474   C4172  04172   C5034  05034   C5377  05377   C7010  07010 
   81  C3475  03475   C4173  04173   C5041  05041   C5416  05416   C7014  07014 
   82  C3477  03477   C4174  04174   C5042  05042   C5420  05420   C7021  07021 
   83  C3524  03524   C4175  04175   C5043  05043   C5474  05474   C7023  07023 
   84  C3537  03537   C4176  04176   C5050  05050   C5475  05475   C7027  07027 
   85  C3542  03542   C4177  04177   C5051  05051   C5476  05476   C7033  07033 
   86  C3567  03567   C4207  04207   C5052  05052   C5477  05477   C7041  07041 
   87  C3570  03570   C4213  04213   C5057  05057   C5500  05500   C7044  07044 
   88  C3571  03571   C4316  04316   C5060  05060   C5501  05501   C7045  07045 
   89  C3572  03572   C4317  04317   C5061  05061   C5502  05502   C7060  07060 
   90  C3573  03573   C4320  04320   C5066  05066   C5511  05511   C7072  07072 
   91  C3574  03574   C4321  04321   C5067  05067   C5512  05512   C7103  07103 
   92  C3575  03575   C4323  04323   C5070  05070   C5515  05515   C7113  07113 
   93  C3576  03576   C4324  04324   C5075  05075   C5516  05516   C7115  07115 
   94  C3577  03577   C4325  04325   C5076  05076   C5537  05537   C7121  07121 
   95  C3607  03607   C4326  04326   C5077  05077   C5541  05541   C7126  07126 
   96  C3613  03613   C4327  04327   C5104  05104   C5570  05570   C7143  07143 
   97  C3701  03701   C4330  04330   C5105  05105   C5571  05571   C7150  07150 
   98  C3702  03702   C4331  04331   C5106  05106   C5572  05572   C7165  07165 
   99  C3710  03710   C4332  04332   C5113  05113   C5573  05573   C7172  07172 
  100  C3711  03711   C4410  04410   C5115  05115   C5574  05574   C7173  07173 
  101  C3727  03727   C4414  04414   C5120  05120   C5575  05575   C7174  07174 
  102  C3730  03730   C4525  04525   C5122  05122   C5576  05576   C7177  07177 
  103  C4012  04012   C4526  04526   C5127  05127   C5577  05577   C7210  07210 
  104  C4026  04026   C4527  04527   C5130  05130   C6007  06007   C7230  07230 
  105  C4034  04034   C4530  04530   C5132  05132   C6177  06177   C7246  07246 
  106  C4040  04040   C4533  04533   C5136  05136   C6462  06462   C7250  07250 
  107  C4053  04053   C4534  04534   C5137  05137   C6463  06463   C7253  07253 
  108  C4061  04061   C4535  04535   C5142  05142   C6466  06466   C7254  07254 
  109  C4062  04062   C4540  04540   C5146  05146   C6472  06472   C7272  07272 
  110  C4063  04063   C4541  04541   C5147  05147   C6557  06557   C7273  07273 
  111  C4064  04064   C4542  04542   C5152  05152   C6560  06560   C7275  07275 
  112  C4065  04065   C4543  04543   C5156  05156   C6565  06565   C7276  07276 
  113  C4066  04066   C4544  04544   C5160  05160   C6566  06566   C7300  07300 
  114  C4067  04067   C4673  04673   C5164  05164   C6570  06570   C7304  07304 

      AUTOMATIC DISASSEMBLY OF MAINDEC-8E-D0LB-D-PB.bin BY D8TAPE        Page 95
                                                                    Symbol Table

  115  C7306  07306   D0114  00114   D6470  06470   L0651  00651   L2232  02232 
  116  C7307  07307   D0115  00115   D6471  06471   L0652  00652   L2246  02246 
  117  C7335  07335   D0116  00116   D6524  06524   L0667  00667   L2250  02250 
  118  C7336  07336   D0117  00117   D6555  06555   L0714  00714   L2251  02251 
  119  C7344  07344   D0120  00120   D6556  06556   L0724  00724   L2426  02426 
  120  C7345  07345   D0121  00121   D6571  06571   L0730  00730   L2464  02464 
  121  C7370  07370   D0122  00122   D6655  06655   L0740  00740   L2513  02513 
  122  C7373  07373   D0263  00263   D6663  06663   L1001  01001   L2517  02517 
  123  C7374  07374   D0350  00350   D6664  06664   L1002  01002   L2600  02600 
  124  C7375  07375   D1265  01265   D6665  06665   L1021  01021   L2601  02601 
  125  C7376  07376   D1444  01444   D6703  06703   L1032  01032   L2602  02602 
  126  C7377  07377   D1607  01607   D6721  06721   L1042  01042   L2634  02634 
  127  C7411  07411   D1663  01663   D7002  07002   L1051  01051   L2640  02640 
  128  C7414  07414   D2000  02000   D7016  07016   L1055  01055   L2654  02654 
  129  C7417  07417   D2007  02007   D7400  07400   L1066  01066   L2655  02655 
  130  C7422  07422   D2063  02063   D7405  07405   L1133  01133   L2700  02700 
  131  C7440  07440   D2207  02207   D7503  07503   L1136  01136   L2704  02704 
  132  C7443  07443   D2270  02270   D7510  07510   L1137  01137   L2720  02720 
  133  C7445  07445   D2271  02271   D7511  07511   L1200  01200   L2721  02721 
  134  C7500  07500   D2450  02450   D7513  07513   L1210  01210   L3011  03011 
  135  C7502  07502   D2451  02451   D7524  07524   L1217  01217   L3015  03015 
  136  C7525  07525   D2473  02473   D7532  07532   L1223  01223   L3031  03031 
  137  C7534  07534   D2474  02474   L0000  00000   L1233  01233   L3032  03032 
  138  C7536  07536   D2475  02475   L0001  00001   L1246  01246   L3107  03107 
  139  C7540  07540   D3055  03055   L0033  00033   L1247  01247   L3125  03125 
  140  C7542  07542   D3402  03402   L0052  00052   L1276  01276   L3201  03201 
  141  C7547  07547   D3511  03511   L0100  00100   L1302  01302   L3202  03202 
  142  C7550  07550   D3512  03512   L0117  00117   L1334  01334   L3257  03257 
  143  D0002  00002   D3700  03700   L0125  00125   L1335  01335   L3275  03275 
  144  D0021  00021   D3703  03703   L0133  00133   L1411  01411   L3311  03311 
  145  D0022  00022   D3704  03704   L0142  00142   L1415  01415   L3312  03312 
  146  D0023  00023   D3705  03705   L0202  00202   L1431  01431   L3431  03431 
  147  D0024  00024   D3706  03706   L0204  00204   L1432  01432   L3435  03435 
  148  D0025  00025   D3707  03707   L0205  00205   L1474  01474   L3451  03451 
  149  D0033  00033   D4315  04315   L0206  00206   L1500  01500   L3452  03452 
  150  D0034  00034   D4322  04322   L0222  00222   L1600  01600   L3526  03526 
  151  D0035  00035   D4531  04531   L0231  00231   L1601  01601   L3532  03532 
  152  D0036  00036   D4532  04532   L0237  00237   L1602  01602   L3600  03600 
  153  D0037  00037   D4536  04536   L0244  00244   L1626  01626   L3601  03601 
  154  D0040  00040   D4537  04537   L0255  00255   L1632  01632   L3602  03602 
  155  D0041  00041   D4732  04732   L0261  00261   L1647  01647   L3650  03650 
  156  D0042  00042   D4733  04733   L0345  00345   L1650  01650   L3654  03654 
  157  D0043  00043   D5544  05544   L0401  00401   L1713  01713   L3657  03657 
  158  D0044  00044   D5636  05636   L0402  00402   L1717  01717   L3672  03672 
  159  D0045  00045   D5637  05637   L0427  00427   L2000  02000   L3731  03731 
  160  D0046  00046   D5717  05717   L0437  00437   L2001  02001   L4200  04200 
  161  D0056  00056   D6370  06370   L0450  00450   L2002  02002   L4201  04201 
  162  D0057  00057   D6371  06371   L0456  00456   L2026  02026   L4202  04202 
  163  D0063  00063   D6372  06372   L0501  00501   L2032  02032   L4261  04261 
  164  D0064  00064   D6373  06373   L0504  00504   L2047  02047   L4302  04302 
  165  D0065  00065   D6374  06374   L0505  00505   L2050  02050   L4307  04307 
  166  D0066  00066   D6410  06410   L0523  00523   L2113  02113   L4333  04333 
  167  D0067  00067   D6423  06423   L0540  00540   L2117  02117   L4400  04400 
  168  D0102  00102   D6424  06424   L0550  00550   L2200  02200   L4401  04401 
  169  D0105  00105   D6425  06425   L0557  00557   L2201  02201   L4402  04402 
  170  D0106  00106   D6443  06443   L0563  00563   L2202  02202   L4450  04450 
  171  D0107  00107   D6467  06467   L0646  00646   L2226  02226   L4462  04462 

      AUTOMATIC DISASSEMBLY OF MAINDEC-8E-D0LB-D-PB.bin BY D8TAPE        Page 96
                                                                    Symbol Table

  172  L4471  04471   L6542  06542   S3223  03223   S6426  06426 
  173  L4505  04505   L6606  06606   S3241  03241   S6473  06473 
  174  L4513  04513   L6630  06630   S3300  03300   S6525  06525 
  175  L4522  04522   L6632  06632   S3400  03400   S6600  06600 
  176  L4545  04545   L6634  06634   S3413  03413   S6617  06617 
  177  L4600  04600   L6674  06674   S3440  03440   S6653  06653 
  178  L4652  04652   L7252  07252   S3502  03502   S6670  06670 
  179  L4661  04661   S0000  00000   S3514  03514   S6704  06704 
  180  L4705  04705   S0254  00254   S3535  03535   S6723  06723 
  181  L4734  04734   S0302  00302   S3712  03712   S6727  06727 
  182  L4753  04753   S0311  00311   S4000  04000   S6733  06733 
  183  L5000  05000   S0316  00316   S4126  04126   S7000  07000 
  184  L5001  05001   S0323  00323   S4132  04132   S7046  07046 
  185  L5200  05200   S0332  00332   S4143  04143   S7070  07070 
  186  L5261  05261   S0347  00347   S4273  04273   S7106  07106 
  187  L5267  05267   S0355  00355   S4453  04453   S7200  07200 
  188  L5301  05301   S0362  00362   S5274  05274   S7204  07204 
  189  L5307  05307   S0370  00370   S5317  05317 
  190  L5311  05311   S0473  00473   S5325  05325 
  191  L5313  05313   S0600  00600   S5333  05333 
  192  L5315  05315   S0605  00605   S5342  05342 
  193  L5400  05400   S0632  00632   S5400  05400 
  194  L5410  05410   S0641  00641   S5410  05410 
  195  L5515  05515   S1063  01063   S5425  05425 
  196  L5551  05551   S1121  01121   S5430  05430 
  197  L5613  05613   S1126  01126   S5434  05434 
  198  L5622  05622   S1240  01240   S5437  05437 
  199  L5627  05627   S1263  01263   S5450  05450 
  200  L5633  05633   S1305  01305   S5455  05455 
  201  L5645  05645   S1315  01315   S5462  05462 
  202  L5652  05652   S1400  01400   S5467  05467 
  203  L5667  05667   S1420  01420   S5503  05503 
  204  L5703  05703   S1453  01453   S5520  05520 
  205  L5713  05713   S1503  01503   S5546  05546 
  206  L5751  05751   S1616  01616   S5600  05600 
  207  L6070  06070   S1635  01635   S5607  05607 
  208  L6074  06074   S1672  01672   S5613  05613 
  209  L6107  06107   S1722  01722   S5640  05640 
  210  L6113  06113   S2016  02016   S5645  05645 
  211  L6143  06143   S2035  02035   S5656  05656 
  212  L6147  06147   S2072  02072   S5663  05663 
  213  L6160  06160   S2122  02122   S5707  05707 
  214  L6164  06164   S2216  02216   S5726  05726 
  215  L6167  06167   S2235  02235   S5732  05732 
  216  L6223  06223   S2302  02302   S5751  05751 
  217  L6237  06237   S2313  02313   S5761  05761 
  218  L6245  06245   S2400  02400   S5767  05767 
  219  L6251  06251   S2523  02523   S6000  06000 
  220  L6257  06257   S2621  02621   S6013  06013 
  221  L6267  06267   S2643  02643   S6042  06042 
  222  L6271  06271   S2667  02667   S6120  06120 
  223  L6345  06345   S2707  02707   S6200  06200 
  224  L6355  06355   S3000  03000   S6273  06273 
  225  L6413  06413   S3020  03020   S6311  06311 
  226  L6440  06440   S3053  03053   S6332  06332 
  227  L6441  06441   S3067  03067   S6345  06345 
  228  L6451  06451   S3130  03130   S6400  06400 

      AUTOMATIC DISASSEMBLY OF MAINDEC-8E-D0LB-D-PB.bin BY D8TAPE        Page 97
                                                                 Cross Reference

    1 A    183  AI0     
    2 A    184  AI1        5219
    3 A    185  AI2        2570   2610
    4 A    186  AI3        2573   2613
    5 A     41  C0001   
    6 A     43  C0003      5158
    7 A     46  C0020      3797   5152   5155
    8 A     52  C0026      4790   4805   4815   4832
    9 A     53  C0027      4835
   10 A     54  C0030      4838
   11 A     55  C0031      4846
   12 A     57  C0032      4546   4842
   13 A     73  C0050      3366   3714   3921   4669   4695   4745   4749   4753
   14                      4757   4761   4792   4799   4809   4869   4887   4898
   15                      4909   4916   4927   4976   4980   4983   4987   4990
   16                      4996
   17 A     75  C0051       618   2644   2650   2658   2662   2668   2672   2683
   18                      4693   4713   4728   4743   4747   4751   4755   4759
   19                      4794   4801   4811   4840   4844   4860   4889   4893
   20                      4900   4904   4911   4918   4922   4929   4978   4985
   21                      4998   5107   5177   5181
   22 A     78  C0052   
   23 A     80  C0053      1019   2086   2342   3706   4788   4803   4813
   24 A     82  C0054       264    272    623    628    633    833    837    841
   25                       855   3926   4975   4982   4989
   26 A     84  C0055       262    270    621    631    832    835    840    844
   27                       853   2678   3923   4834   4837   4868   4871   5002
   28 A     87  C0060       237    460
   29 A     88  C0061       462    555
   30 A     89  C0062       557    704
   31 A     95  C0070      3763
   32 A     96  C0071      3765
   33 A     97  C0072       287
   34 A     98  C0073       289
   35 A     99  C0074       304
   36 A    100  C0075       319    650
   37 A    101  C0076       334    648    665
   38 A    102  C0077       336   3259   3619
   39 A    104  C0100   
   40 A    105  C0101      3867
   41 A    108  C0103       395   5120   5156
   42 A    109  C0104      3882   5196   5205   5221
   43 A    113  C0110       792    942
   44 A    114  C0111   
   45 A    115  C0112       989   1701
   46 A    116  C0113       885
   47 A    125  C0123      3266   3300   3313   5149   5176
   48 A    127  C0124       259    266    617    625    831    839    849   2657
   49                      2666   2676   2681   2687   3362   3779   3780   4897
   50                      4908   4915   4926
   51 A    130  C0125   
   52 A    132  C0126       288    290    305    320    335    337    396    514
   53                       649    651    666    871    886    990   2754   2756
   54                      2758   2773   3586   3588   3590   3605   3620   3635
   55                      3650   3764   3766   3853   3868   3900   4454   4644
   56 A    134  C0127       353    381   3941
   57 A    136  C0130       267

      AUTOMATIC DISASSEMBLY OF MAINDEC-8E-D0LB-D-PB.bin BY D8TAPE        Page 98
                                                                 Cross Reference

   58 A    138  C0131       412    428   4961
   59 A    140  C0132   
   60 A    143  C0134      1049   1159   1235   1312   1390   1465   1543   1620
   61                      1828   1910   1970   2047   2153   2276   2396   2491
   62 A    145  C0135       239    464    559    708    794    946   1076   1136
   63                      1207   1290   1362   1443   1515   1598   1745   1886
   64                      1947   2024   2119   2218   2372   2467   2577   2868
   65                      3018
   66 A    147  C0136      1077   1137   1887   1948   2025   2120   2219   2373
   67                      2468
   68 A    149  C0137      1054   1164   1241   1318   1396   1471   1549   1626
   69                      1833   1915   1975   2052   2158   2281
   70 A    151  C0140      1067   1131   1198   1285   1353   1438   1506   1593
   71                      1730   1880   1942   2019   2108   2209   2363   2462
   72 A    153  C0141      1002   1092   1181   1268   1336   1423   1489   1576
   73                      1651   1806   1863   1925   1985   2069   2192   2294
   74                      2414   4942
   75 A    156  C0142   
   76 A    158  C0143      1032   1142   1218   1295   1373   1448   1526   1603
   77                      1810   1893   1953   2030   2136   2259   2379   2474
   78                      2561   2919
   79 A    160  C0144      1035   1145   1221   1298   1376   1451   1529   1606
   80                      1813   1896   1956   2033   2139   2262   2382   2477
   81                      2564   2921   2972
   82 A    162  C0145       220   1030   1140   1216   1293   1371   1446   1524
   83                      1601   1808   1891   1951   2028   2130   2253   2377
   84                      2472   2559   2917   3021
   85 A    164  C0146      3029   3170   3355
   86 A    166  C0147      1240   1317   1395   1470   1548   1625
   87 A    168  C0150      3954   3958   3962
   88 A    170  C0151      1262   1417   1570   1922   1982
   89 A    172  C0152      1082   1260   1415   1568   1919   1979
   90 A    174  C0153      1086   3983
   91 A    176  C0154      3323   3331   3339   3345   3350   3697   4001
   92 A    178  C0155      4833   4843   4892   4896
   93 A    180  C0156      1087   1921   1981
   94 A   5225  C0163      4246   4255   4262
   95 A   5226  C0164      4152   4222
   96 A   5227  C0165      3963   4122   4133   4181   4249
   97 A   5228  C0166      3805
   98 A   5230  C0167      3700
   99 A   5231  C0170      3698
  100 A   5232  C0171      3092   3094   3105   3120   3134   3140
  101 A   5233  C0172      3090   3100   3108   3110   3122   3129   3144   3146
  102 A   5235  C0173      2243   3965
  103 A   5236  C0174      1205   1360   1513
  104 A   5238  C0175      1028   2096   2245   2351   2450   3423   3967
  105 A   5240  C0176       616    829    973   2656   4550   4784   4884
  106 A   5242  C0177       193
  107 A    189  C0200   
  108 A    258  C0261   
  109 A    356  C0340       265
  110 A    358  C0341       268
  111 A    360  C0342       271
  112 A    362  C0343       273
  113 A    363  C0344       235
  114 A    432  C0400   

      AUTOMATIC DISASSEMBLY OF MAINDEC-8E-D0LB-D-PB.bin BY D8TAPE        Page 99
                                                                 Cross Reference

  115 A    439  C0405   
  116 A    474  C0446   
  117 A    482  C0455       485
  118 A    487  C0461   
  119 A    494  C0467       492
  120 A    496  C0470       488
  121 A    498  C0471       489
  122 A    500  C0472       490
  123 A    516  C0500       486
  124 A    519  C0502   
  125 A    528  C0511   
  126 A    533  C0516   
  127 A    553  C0540   
  128 A    583  C0575       568
  129 A    585  C0576       567
  130 A    587  C0577       535
  131 A    619  C0611   
  132 A    671  C0650   
  133 A    700  C0702   
  134 A    707  C0711   
  135 A    718  C0723   
  136 A    727  C0732   
  137 A    731  C0735       716
  138 A    733  C0736       717
  139 A    741  C0770       670
  140 A    743  C0771       634
  141 A    745  C0772       632
  142 A    747  C0773       627
  143 A    749  C0774       624
  144 A    751  C0775       622
  145 A    753  C0776       620
  146 A    755  C0777       602    626    629
  147 A    758  C1000   
  148 A    768  C1010   
  149 A    780  C1023   
  150 A    816  C1062       802
  151 A    843  C1102   
  152 A    870  C1123   
  153 A    887  C1132   
  154 A    903  C1147   
  155 A    914  C1162   
  156 A    920  C1167       918
  157 A    922  C1170       913    917
  158 A    924  C1171       891
  159 A    926  C1172       856
  160 A    928  C1173       854
  161 A    930  C1174       842    850
  162 A    932  C1175       838    848
  163 A    934  C1176       836
  164 A    936  C1177       834    852
  165 A    940  C1200   
  166 A    957  C1217   
  167 A    968  C1230       954
  168 A    969  C1231       974
  169 A    970  C1232       975
  170 A   1001  C1254   
  171 A   1005  C1260   

      AUTOMATIC DISASSEMBLY OF MAINDEC-8E-D0LB-D-PB.bin BY D8TAPE       Page 100
                                                                 Cross Reference

  172 A   1022  C1267   
  173 A   1050  C1307   
  174 A   1053  C1312   
  175 A   1078  C1331   
  176 A   1091  C1344   
  177 A   1095  C1350   
  178 A   1101  C1365      1097
  179 A   1103  C1366      1096
  180 A   1105  C1367      1080
  181 A   1106  C1370      1074
  182 A   1107  C1371      1072
  183 A   1108  C1372      1068
  184 A   1110  C1373      1003   1093
  185 A   1112  C1374       976
  186 A   1114  C1375       965
  187 A   1116  C1376       947    966
  188 A   1117  C1377       944   1070
  189 A   1160  C1422   
  190 A   1163  C1425   
  191 A   1179  C1443   
  192 A   1184  C1450   
  193 A   1214  C1473      1212
  194 A   1236  C1505   
  195 A   1237  C1506   
  196 A   1239  C1510   
  197 A   1245  C1571      1203
  198 A   1246  C1572      1201
  199 A   1248  C1573      1182
  200 A   1250  C1574      1147
  201 A   1252  C1575      1146
  202 A   1253  C1576      1134
  203 A   1254  C1577      1132
  204 A   1266  C1606   
  205 A   1271  C1613   
  206 A   1313  C1637   
  207 A   1314  C1640   
  208 A   1316  C1642   
  209 A   1334  C1662   
  210 A   1339  C1667   
  211 A   1369  C1712      1367
  212 A   1391  C1724   
  213 A   1392  C1725   
  214 A   1394  C1727   
  215 A   1400  C1771      1358
  216 A   1401  C1772      1356
  217 A   1403  C1773      1337
  218 A   1405  C1774      1325
  219 A   1406  C1775      1288
  220 A   1407  C1776      1286
  221 A   1409  C1777      1269
  222 A   1421  C2006   
  223 A   1426  C2013   
  224 A   1466  C2037   
  225 A   1467  C2040   
  226 A   1469  C2042   
  227 A   1487  C2062   
  228 A   1492  C2067   

      AUTOMATIC DISASSEMBLY OF MAINDEC-8E-D0LB-D-PB.bin BY D8TAPE       Page 101
                                                                 Cross Reference

  229 A   1522  C2112      1520
  230 A   1544  C2124   
  231 A   1547  C2127   
  232 A   1553  C2171      1511
  233 A   1554  C2172      1509
  234 A   1556  C2173      1490
  235 A   1558  C2174      1478
  236 A   1559  C2175      1441
  237 A   1560  C2176      1439
  238 A   1562  C2177      1424
  239 A   1574  C2206   
  240 A   1579  C2213   
  241 A   1621  C2237   
  242 A   1624  C2242   
  243 A   1648  C2267   
  244 A   1653  C2274   
  245 A   1676  C2311   
  246 A   1698  C2362      1693
  247 A   1699  C2363      1674
  248 A   1700  C2364      1672   1691
  249 A   1702  C2366      1670   1689
  250 A   1704  C2367      1658
  251 A   1705  C2370      1657   1675   1694
  252 A   1706  C2371      1656
  253 A   1708  C2372      1655
  254 A   1710  C2373      1632
  255 A   1712  C2374      1629
  256 A   1713  C2375      1596
  257 A   1714  C2376      1594
  258 A   1716  C2377      1577
  259 A   1749  C2424   
  260 A   1790  C2472      1788
  261 A   1829  C2525   
  262 A   1830  C2526   
  263 A   1832  C2530   
  264 A   1838  C2571      1816
  265 A   1840  C2572      1753   1760   1769   1781   1814
  266 A   1841  C2573      1743
  267 A   1842  C2574      1736
  268 A   1843  C2575      1735
  269 A   1844  C2576      1733
  270 A   1846  C2577      1731   1787
  271 A   1862  C2612   
  272 A   1866  C2616   
  273 A   1888  C2632   
  274 A   1911  C2645   
  275 A   1914  C2650   
  276 A   1924  C2660   
  277 A   1928  C2664   
  278 A   1971  C2711   
  279 A   1974  C2714   
  280 A   1984  C2724   
  281 A   1988  C2730   
  282 A   1994  C2770      1990
  283 A   1996  C2771      1989
  284 A   1998  C2772      1986
  285 A   2000  C2773      1977

      AUTOMATIC DISASSEMBLY OF MAINDEC-8E-D0LB-D-PB.bin BY D8TAPE       Page 102
                                                                 Cross Reference

  286 A   2001  C2774      1945
  287 A   2002  C2775      1884   1943
  288 A   2003  C2776      1882
  289 A   2005  C2777      1864   1926
  290 A   2048  C3022   
  291 A   2049  C3023   
  292 A   2051  C3025   
  293 A   2067  C3043   
  294 A   2072  C3050   
  295 A   2089  C3057   
  296 A   2121  C3105   
  297 A   2133  C3120   
  298 A   2134  C3121   
  299 A   2154  C3132   
  300 A   2157  C3135   
  301 A   2162  C3166      2118
  302 A   2163  C3167      2117
  303 A   2164  C3170      2115
  304 A   2165  C3171      2113
  305 A   2166  C3172      2109
  306 A   2168  C3173      2070
  307 A   2170  C3174      2035
  308 A   2172  C3175      2034
  309 A   2173  C3176      2022   2111
  310 A   2174  C3177      2020
  311 A   2190  C3213   
  312 A   2195  C3220   
  313 A   2220  C3237   
  314 A   2277  C3302   
  315 A   2280  C3305   
  316 A   2292  C3317   
  317 A   2300  C3327   
  318 A   2305  C3334   
  319 A   2306  C3335   
  320 A   2308  C3337   
  321 A   2314  C3366      2310
  322 A   2316  C3367      2301   2309
  323 A   2318  C3370      2285
  324 A   2320  C3371      2283
  325 A   2322  C3372      2233   2235   2237   2239
  326 A   2323  C3373      2215
  327 A   2324  C3374      2214
  328 A   2325  C3375      2212
  329 A   2326  C3376      2210
  330 A   2328  C3377      2193
  331 A   2345  C3404   
  332 A   2374  C3427   
  333 A   2397  C3442   
  334 A   2400  C3445   
  335 A   2412  C3457   
  336 A   2420  C3467   
  337 A   2425  C3474   
  338 A   2426  C3475   
  339 A   2428  C3477   
  340 A   2469  C3524   
  341 A   2492  C3537   
  342 A   2495  C3542   

      AUTOMATIC DISASSEMBLY OF MAINDEC-8E-D0LB-D-PB.bin BY D8TAPE       Page 103
                                                                 Cross Reference

  343 A   2500  C3567      2465
  344 A   2502  C3570      2442   2444
  345 A   2504  C3571      2401   2496
  346 A   2506  C3572      2384
  347 A   2508  C3573      2383
  348 A   2509  C3574      2370
  349 A   2510  C3575      2368   2463
  350 A   2511  C3576      2366
  351 A   2512  C3577      2364
  352 A   2525  C3607   
  353 A   2529  C3613   
  354 A   2587  C3701      2534
  355 A   2588  C3702      2575
  356 A   2595  C3710      2585
  357 A   2597  C3711      2560
  358 A   2621  C3727      2569
  359 A   2622  C3730      2572
  360 A   2651  C4012   
  361 A   2663  C4026   
  362 A   2669  C4034   
  363 A   2673  C4040   
  364 A   2684  C4053   
  365 A   2690  C4061   
  366 A   2691  C4062   
  367 A   2692  C4063   
  368 A   2693  C4064   
  369 A   2694  C4065   
  370 A   2695  C4066   
  371 A   2696  C4067   
  372 A   2697  C4070   
  373 A   2698  C4071   
  374 A   2699  C4072   
  375 A   2700  C4073   
  376 A   2701  C4074   
  377 A   2702  C4075   
  378 A   2707  C4102   
  379 A   2712  C4107   
  380 A   2724  C4123   
  381 A   2777  C4155      2772
  382 A   2778  C4156      2757
  383 A   2779  C4157      2755
  384 A   2780  C4160      2753
  385 A   2781  C4161      2685
  386 A   2783  C4162      2682
  387 A   2784  C4163      2679
  388 A   2786  C4164      2677
  389 A   2787  C4165      2674
  390 A   2788  C4166      2670
  391 A   2790  C4167      2667
  392 A   2791  C4170      2664
  393 A   2793  C4171      2661   2665   2671   2675   2680   2686
  394 A   2794  C4172      2660
  395 A   2796  C4173      2654
  396 A   2798  C4174      2649   2655
  397 A   2800  C4175      2648
  398 A   2802  C4176      2647   2653
  399 A   2804  C4177      2646   2652

      AUTOMATIC DISASSEMBLY OF MAINDEC-8E-D0LB-D-PB.bin BY D8TAPE       Page 104
                                                                 Cross Reference

  400 A   2817  C4207   
  401 A   2821  C4213   
  402 A   2901  C4316      2813   2826   2890   2896
  403 A   2902  C4317      2816   2891   2898
  404 A   2903  C4320      2889
  405 A   2904  C4321      2895
  406 A   2906  C4323      2864
  407 A   2908  C4324      2858
  408 A   2909  C4325      2818   2824
  409 A   2910  C4326      2820   2833
  410 A   2911  C4327      2822   2837
  411 A   2912  C4330      2867
  412 A   2913  C4331      2839   2866
  413 A   2915  C4332      2918
  414 A   2939  C4410   
  415 A   2943  C4414   
  416 A   3032  C4525      2935   2995   3003
  417 A   3033  C4526      2938   2994   3007
  418 A   3034  C4527      2940   2946
  419 A   3035  C4530      2942   2955
  420 A   3038  C4533      2966   2998   3006
  421 A   3039  C4534      2944   2964
  422 A   3040  C4535      3002
  423 A   3043  C4540      3005
  424 A   3044  C4541      3010
  425 A   3045  C4542      3015
  426 A   3047  C4543      3022
  427 A   3049  C4544      3031
  428 A   3118  C4673   
  429 A   3123  C4700   
  430 A   3124  C4701   
  431 A   3138  C4716   
  432 A   3147  C4727   
  433 A   3162  C4745   
  434 A   3165  C4750   
  435 A   3169  C4753   
  436 A   3178  C4777      3174
  437 A   3184  C5001   
  438 A   3185  C5002   
  439 A   3188  C5005   
  440 A   3190  C5007   
  441 A   3192  C5011   
  442 A   3194  C5013   
  443 A   3197  C5016   
  444 A   3198  C5017   
  445 A   3200  C5021   
  446 A   3204  C5025   
  447 A   3205  C5026   
  448 A   3206  C5027   
  449 A   3209  C5032   
  450 A   3210  C5033      3212
  451 A   3211  C5034   
  452 A   3216  C5041   
  453 A   3217  C5042      3219
  454 A   3218  C5043   
  455 A   3223  C5050   
  456 A   3224  C5051      3226

      AUTOMATIC DISASSEMBLY OF MAINDEC-8E-D0LB-D-PB.bin BY D8TAPE       Page 105
                                                                 Cross Reference

  457 A   3225  C5052   
  458 A   3230  C5057   
  459 A   3231  C5060      3233
  460 A   3232  C5061   
  461 A   3237  C5066   
  462 A   3238  C5067      3240
  463 A   3239  C5070   
  464 A   3244  C5075   
  465 A   3245  C5076      3247
  466 A   3246  C5077   
  467 A   3251  C5104   
  468 A   3252  C5105      3254
  469 A   3253  C5106   
  470 A   3258  C5113   
  471 A   3260  C5115   
  472 A   3263  C5120   
  473 A   3265  C5122   
  474 A   3270  C5127   
  475 A   3271  C5130   
  476 A   3273  C5132   
  477 A   3277  C5136   
  478 A   3278  C5137      3280
  479 A   3281  C5142   
  480 A   3285  C5146   
  481 A   3286  C5147      3288
  482 A   3289  C5152   
  483 A   3293  C5156   
  484 A   3295  C5160   
  485 A   3299  C5164   
  486 A   3308  C5177      3304
  487 A   3314  C5202   
  488 A   3316  C5204   
  489 A   3318  C5206   
  490 A   3321  C5211   
  491 A   3324  C5214   
  492 A   3329  C5221   
  493 A   3332  C5224   
  494 A   3337  C5231   
  495 A   3340  C5234   
  496 A   3343  C5237   
  497 A   3346  C5242   
  498 A   3348  C5244   
  499 A   3351  C5247   
  500 A   3352  C5250   
  501 A   3359  C5257   
  502 A   3372  C5272   
  503 A   3395  C5305   
  504 A   3398  C5307   
  505 A   3481  C5374      3373
  506 A   3483  C5375      3360
  507 A   3485  C5376      3356   3358
  508 A   3486  C5377      3325   3333
  509 A   3526  C5416   
  510 A   3528  C5420   
  511 A   3652  C5474   
  512 A   3653  C5475   
  513 A   3654  C5476   

      AUTOMATIC DISASSEMBLY OF MAINDEC-8E-D0LB-D-PB.bin BY D8TAPE       Page 106
                                                                 Cross Reference

  514 A   3655  C5477      3604
  515 A   3656  C5500      3585
  516 A   3657  C5501      3587
  517 A   3658  C5502      3589
  518 A   3675  C5511   
  519 A   3676  C5512   
  520 A   3680  C5515   
  521 A   3681  C5516   
  522 A   3709  C5537   
  523 A   3712  C5541      3716
  524 A   3739  C5570      3705
  525 A   3740  C5571      3704
  526 A   3741  C5572      3701
  527 A   3742  C5573      3699
  528 A   3743  C5574      3649
  529 A   3744  C5575      3634
  530 A   3746  C5576      3544
  531 A   3747  C5577      3529
  532 A   4039  C6007   
  533 A   4196  C6177      4099
  534 A   4460  C6462      4432
  535 A   4461  C6463   
  536 A   4464  C6466   
  537 A   4468  C6472      4453
  538 A   4542  C6557      4521
  539 A   4543  C6560   
  540 A   4548  C6565      4545
  541 A   4549  C6566   
  542 A   4551  C6570      4517
  543 A   4553  C6572      4499
  544 A   4554  C6573      4496
  545 A   4555  C6574      4493
  546 A   4556  C6575      4489
  547 A   4557  C6576      4485
  548 A   4558  C6577      4430
  549 A   4650  C6666      4622
  550 A   4651  C6667      4626
  551 A   4696  C6715   
  552 A   4699  C6720   
  553 A   4714  C6725   
  554 A   4746  C6740   
  555 A   4748  C6742   
  556 A   4750  C6744   
  557 A   4752  C6746   
  558 A   4754  C6750   
  559 A   4762  C6760   
  560 A   4766  C6773      4691
  561 A   4767  C6774      4643
  562 A   4768  C6775      4642
  563 A   4769  C6776      4640
  564 A   4770  C6777      4599
  565 A   4791  C7010   
  566 A   4795  C7014   
  567 A   4800  C7021   
  568 A   4802  C7023   
  569 A   4806  C7027   
  570 A   4810  C7033   

      AUTOMATIC DISASSEMBLY OF MAINDEC-8E-D0LB-D-PB.bin BY D8TAPE       Page 107
                                                                 Cross Reference

  571 A   4816  C7041   
  572 A   4819  C7044   
  573 A   4820  C7045   
  574 A   4841  C7060   
  575 A   4861  C7072   
  576 A   4870  C7103   
  577 A   4888  C7113   
  578 A   4890  C7115   
  579 A   4894  C7121   
  580 A   4899  C7126   
  581 A   4912  C7143   
  582 A   4917  C7150   
  583 A   4930  C7165   
  584 A   4937  C7172      4885
  585 A   4939  C7173      4866
  586 A   4941  C7174      4836   4839   4847   4903   4907   4914   4921   4925
  587                      4932
  588 A   4945  C7177      4786
  589 A   4977  C7210   
  590 A   4994  C7230      5005
  591 A   5008  C7246   
  592 A   5010  C7250   
  593 A   5014  C7253   
  594 A   5015  C7254   
  595 A   5029  C7272   
  596 A   5030  C7273   
  597 A   5032  C7275   
  598 A   5033  C7276   
  599 A   5035  C7300   
  600 A   5039  C7304   
  601 A   5041  C7306   
  602 A   5042  C7307   
  603 A   5064  C7335   
  604 A   5065  C7336   
  605 A   5071  C7344   
  606 A   5072  C7345   
  607 A   5091  C7370      5054   5056   5084   5087   5090
  608 A   5094  C7373   
  609 A   5095  C7374   
  610 A   5096  C7375   
  611 A   5097  C7376      5023   5027   5036   5038
  612 A   5098  C7377      5024   5026
  613 A   5108  C7411      5220
  614 A   5111  C7414   
  615 A   5114  C7417      5168   5207
  616 A   5117  C7422   
  617 A   5131  C7440   
  618 A   5134  C7443   
  619 A   5136  C7445   
  620 A   5163  C7500      5187
  621 A   5165  C7502      5110
  622 A   5184  C7525      5212
  623 A   5191  C7534   
  624 A   5193  C7536   
  625 A   5195  C7540      5217
  626 A   5197  C7542   
  627 A   5202  C7547   

      AUTOMATIC DISASSEMBLY OF MAINDEC-8E-D0LB-D-PB.bin BY D8TAPE       Page 108
                                                                 Cross Reference

  628 A   5203  C7550      5102   5106   5124   5145   5175   5179
  629 A     42  D0002      5021   5194
  630 A     47  D0021       996   1021   1088   1171   1331   1484   1644   1856
  631                      2058   2088   2181   2242   3703   3707   3957   3984
  632                      4131   4789
  633 A     48  D0022      1000   1090   1174   1265   1326   1333   1420   1479
  634                      1486   1573   1802   1855   1923   1983   2066   2189
  635                      2234   3708   3955   4054   4065   4091   4155   4214
  636                      4254   4290   4313   4341   5109
  637 A     49  D0023       998   1084   1173   1327   1480   1804   1860   2060
  638                      2183   2236   3959   3981   4059   4067   4071   4093
  639                      4157   4216   4286   4310   4337   5140   5142   5164
  640                      5180   5208
  641 A     50  D0024      1176   1263   1329   1418   1482   1571   2062   2124
  642                      2128   2185   2238   2247   2251   2256   3673   3964
  643                      4073   4087   4147   4210   4296   4323   4342   4862
  644 A     51  D0025      2064   2126   2129   2135   2187   2240   2249   2252
  645                      2258   3961   3999   4095   4186   4257   4294   4321
  646                      4338   5121
  647 A     59  D0033   
  648 A     60  D0034      3521   4906
  649 A     61  D0035      3523   4924
  650 A     62  D0036      2298   2418   3527   4913
  651 A     63  D0037      2296   2416   3531   4931
  652 A     64  D0040      2125   2132   2248   2255   4058   4062   5000   5210
  653 A     65  D0041      2127   2250   2257   5003
  654 A     66  D0042      1642   1643   2287   2344   2407   2447   4070   4120
  655                      4132   4176   4247   4256   4293   4320   4345   4804
  656                      4891
  657 A     67  D0043      1636   1647   1757   1767   1779   1798   1800   1801
  658                      2291   2304   2411   2424   2443   4068   4092   4107
  659                      4116   4156   4164   4173   4215   4227   4238   4245
  660                      4261   4270   4291   4315   4317   4318   4343   4902
  661 A     68  D0044      1635   1645   1758   1766   1777   1795   1797   1803
  662                      2289   2302   2409   2422   2445   4072   4094   4105
  663                      4118   4158   4162   4175   4217   4225   4240   4267
  664                      4273   4288   4312   4339   4920
  665 A     69  D0045      2216   4074   4090   4098   4102   4114   4123   4127
  666                      4134   4150   4151   4159   4171   4183   4191   4213
  667                      4218   4221   4236   4251   4297   4324
  668 A     70  D0046      2217   4064   4097   4179   4187   4244   4258   4295
  669                      4322
  670 A     85  D0056       236    461    556    705    791    943   1071   1135
  671                      1202   1287   1357   1440   1510   1595   1732   1883
  672                      1944   2021   2112   2211   2367   2464   3735
  673 A     86  D0057       238    463    558    793    945   1073   1133   1204
  674                      1289   1359   1442   1512   1597   1734   1885   1946
  675                      2023   2114   2213   2369   2466   3736
  676 A     90  D0063       201    204    410    438    441    526    530    540
  677                       677    680    690    765    770    847    898
  678 A     91  D0064       203    351    678    767    899
  679 A     92  D0065       200    234    437    459    525    554    676    703
  680                       763    789    846    896    901    941   1172   1177
  681                      1199   1324   1354   1477   1507   1857   1881   3728
  682 A     93  D0066       210    215    365    379    447    453    518    537
  683                       548    669    687    698    736    776    783    889
  684                       909    915

      AUTOMATIC DISASSEMBLY OF MAINDEC-8E-D0LB-D-PB.bin BY D8TAPE       Page 109
                                                                 Cross Reference

  685 A     94  D0067       206    212    426    443    449    542    683    692
  686                       772    778    905    910
  687 A    106  D0102       352    380   3831   3940
  688 A    110  D0105      3883   3885
  689 A    111  D0106       411    427   3889   3892   4960   5139
  690 A    112  D0107       706    790   4547
  691 A    117  D0114      1026   1075   1206   1210   1361   1365   1514   1518
  692                      1744   1752   1755   1762   2094   2116   2349   2371
  693                      3702   4014   5122
  694 A    118  D0115       190   1746   3115   3363   3369   3371   3392   3404
  695                      3421   3670   4088   4096   4121   4148   4178   4182
  696                      4211   4243   4250   4689   4864
  697 A    119  D0116      3916   3924   4033   4038   4865   4867
  698 A    121  D0117   
  699 A    122  D0120      3696   4016   5201
  700 A    123  D0121      2065   2068   2188   2191   2293   2295   2307   2413
  701                      2415   2427   5103
  702 A    124  D0122      2063   2186   2297   2417   5204
  703 A    260  D0263   
  704 A    378  D0350   
  705 A   1020  D1265      1024   1025   1069
  706 A   1180  D1444      1175   1200   1209
  707 A   1267  D1607      1264
  708 A   1335  D1663      1328   1355   1364
  709 A   1413  D2000   
  710 A   1422  D2007      1419
  711 A   1488  D2063      1481   1508   1517
  712 A   1575  D2207      1572
  713 A   1649  D2270      1671   1692
  714 A   1650  D2271      1673   1690
  715 A   1770  D2450   
  716 A   1771  D2451   
  717 A   1791  D2473      1738   1759   1764   1773
  718 A   1792  D2474      1740   1768   1775
  719 A   1793  D2475      1742   1780
  720 A   2087  D3055      2092   2093   2110
  721 A   2343  D3402      2347   2348   2365
  722 A   2448  D3511   
  723 A   2449  D3512   
  724 A   2586  D3700      2530   2545
  725 A   2589  D3703      2547   2554   2576   2616   2619   2625
  726 A   2590  D3704      2524   2611
  727 A   2591  D3705      2521   2614
  728 A   2592  D3706      2528   2541
  729 A   2593  D3707      2526   2532
  730 A   2900  D4315      2845   2861   2924
  731 A   2905  D4322      2851   2865   2882
  732 A   3036  D4531      2948   2996   3011
  733 A   3037  D4532      2957   2997   3008
  734 A   3041  D4536      2969   3017
  735 A   3042  D4537      2987   3016   3051
  736 A   3150  D4732      3143   3148   3156
  737 A   3151  D4733      3145   3159
  738 A   3715  D5544   
  739 A   3817  D5636      3796   3800
  740 A   3818  D5637      3799   3809
  741 A   3922  D5717      3920

      AUTOMATIC DISASSEMBLY OF MAINDEC-8E-D0LB-D-PB.bin BY D8TAPE       Page 110
                                                                 Cross Reference

  742 A   4379  D6370      4363
  743 A   4380  D6371      4365
  744 A   4381  D6372      4364   4368   4373
  745 A   4382  D6373      4366   4370   4374
  746 A   4383  D6374      4361   4375
  747 A   4404  D6410      4544
  748 A   4416  D6423      4399   4409   4411
  749 A   4417  D6424      4402   4410   4412
  750 A   4418  D6425      4405   4413
  751 A   4444  D6443      4433   4456
  752 A   4465  D6467      4438   4443   4448
  753 A   4466  D6470      4436   4437   4440   4447   4452
  754 A   4467  D6471      4431   4457
  755 A   4504  D6524      4494   4501
  756 A   4540  D6555      4518   4522   4530   4531   4534   4535
  757 A   4541  D6556      4523   4527   4529
  758 A   4552  D6571      4532   4537   4538
  759 A   4641  D6655      4623   4627
  760 A   4647  D6663      4575   4579   4584   4586
  761 A   4648  D6664      4600   4604   4615   4624
  762 A   4649  D6665      4576   4601   4611   4614
  763 A   4676  D6703      4666   4671
  764 A   4700  D6721      4692
  765 A   4785  D7002   
  766 A   4797  D7016   
  767 A   5099  D7400      5143   5150   5173
  768 A   5104  D7405      5167   5169   5186   5213   5216
  769 A   5166  D7503      5125   5211
  770 A   5171  D7510      5128   5138
  771 A   5172  D7511      5209
  772 A   5174  D7513      5200
  773 A   5183  D7524      5132   5146
  774 A   5189  D7532      5153
  775 A     28  L0000   
  776 A     40  L0001      4701   5020   5116   5123   5133   5141   5154   5157
  777                      5161   5170   5178   5182   5206   5222
  778 A     58  L0033      3525   4814   4895
  779 A     76  L0052      1004   1094   1183   1270   1338   1425   1491   1578
  780                      1652   1865   1927   1987   2071   2194   2299   2419
  781 A    103  L0100       513   3852   3899   4675   5100   5101   5105   5112
  782                      5113   5119   5126   5127   5130   5135   5137   5144
  783                      5147   5148   5151   5159   5160   5185   5188   5192
  784                      5199   5215
  785 A    120  L0117      3172   3357   4698   5218
  786 A    128  L0125       253    601   2642   3127   3713   3914   4742   4787
  787                      4798   4808   4886   4974   4995   5047   5051   5074
  788                      5077   5080   5081   5115
  789 A    141  L0133   
  790 A    154  L0142       197    434    522    673    760    893   1168   1322
  791                      1475   1852
  792 A    191  L0202   
  793 A    194  L0204   
  794 A    196  L0205       231    240
  795 A    198  L0206       230
  796 A    211  L0222       366
  797 A    219  L0231       214    217
  798 A    226  L0237       218

      AUTOMATIC DISASSEMBLY OF MAINDEC-8E-D0LB-D-PB.bin BY D8TAPE       Page 111
                                                                 Cross Reference

  799 A    232  L0244       195
  800 A    252  L0255   
  801 A    257  L0261   
  802 A    364  L0345       208
  803 A    433  L0401       465    481
  804 A    435  L0402       480
  805 A    457  L0427   
  806 A    466  L0437       451    455
  807 A    476  L0450       456
  808 A    483  L0456       471
  809 A    517  L0501       445
  810 A    521  L0504       560    579
  811 A    523  L0505       578
  812 A    538  L0523   
  813 A    552  L0540       520
  814 A    561  L0550       546    550
  815 A    569  L0557       566
  816 A    574  L0563       551
  817 A    668  L0646   
  818 A    672  L0651       709    729
  819 A    674  L0652       728
  820 A    688  L0667       737
  821 A    710  L0714       696
  822 A    719  L0724       715
  823 A    724  L0730       701
  824 A    735  L0740       685
  825 A    759  L1001       795    814
  826 A    761  L1002       813
  827 A    777  L1021       890
  828 A    787  L1032   
  829 A    796  L1042       781    785
  830 A    804  L1051       801
  831 A    809  L1055       786
  832 A    830  L1066   
  833 A    888  L1133       774
  834 A    892  L1136   
  835 A    894  L1137   
  836 A    939  L1200   
  837 A    948  L1210   
  838 A    956  L1217       953
  839 A    961  L1223   
  840 A    971  L1233       955
  841 A    993  L1246      1037
  842 A    995  L1247      1036
  843 A   1029  L1276      1006
  844 A   1034  L1302      1007
  845 A   1081  L1334   
  846 A   1083  L1335   
  847 A   1139  L1411   
  848 A   1144  L1415   
  849 A   1167  L1431      1211   1223
  850 A   1169  L1432      1222
  851 A   1215  L1474      1185
  852 A   1220  L1500      1186
  853 A   1257  L1600   
  854 A   1259  L1601      1300
  855 A   1261  L1602      1299

      AUTOMATIC DISASSEMBLY OF MAINDEC-8E-D0LB-D-PB.bin BY D8TAPE       Page 112
                                                                 Cross Reference

  856 A   1292  L1626      1272
  857 A   1297  L1632      1273
  858 A   1321  L1647      1366   1378
  859 A   1323  L1650      1377
  860 A   1370  L1713      1340
  861 A   1375  L1717      1341
  862 A   1412  L2000   
  863 A   1414  L2001      1453
  864 A   1416  L2002      1452
  865 A   1445  L2026      1427
  866 A   1450  L2032      1428
  867 A   1474  L2047      1519   1531
  868 A   1476  L2050      1530
  869 A   1523  L2113      1493
  870 A   1528  L2117      1494
  871 A   1565  L2200   
  872 A   1567  L2201      1608
  873 A   1569  L2202      1607
  874 A   1600  L2226      1580
  875 A   1605  L2232      1581
  876 A   1628  L2246   
  877 A   1631  L2250   
  878 A   1633  L2251   
  879 A   1751  L2426      1805
  880 A   1782  L2464      1748
  881 A   1807  L2513   
  882 A   1812  L2517   
  883 A   1849  L2600   
  884 A   1851  L2601      1898
  885 A   1853  L2602      1897
  886 A   1890  L2634      1867
  887 A   1895  L2640      1868
  888 A   1918  L2654      1958
  889 A   1920  L2655      1957
  890 A   1950  L2700      1929
  891 A   1955  L2704      1930
  892 A   1978  L2720   
  893 A   1980  L2721   
  894 A   2027  L3011   
  895 A   2032  L3015   
  896 A   2055  L3031      2141
  897 A   2057  L3032      2140
  898 A   2123  L3107      2073
  899 A   2138  L3125      2074
  900 A   2178  L3201      2264
  901 A   2180  L3202      2263
  902 A   2246  L3257      2196
  903 A   2261  L3275      2197
  904 A   2284  L3311   
  905 A   2286  L3312   
  906 A   2376  L3431   
  907 A   2381  L3435   
  908 A   2404  L3451      2479
  909 A   2406  L3452      2478
  910 A   2471  L3526      2421   2429
  911 A   2476  L3532      2430
  912 A   2515  L3600      2584

      AUTOMATIC DISASSEMBLY OF MAINDEC-8E-D0LB-D-PB.bin BY D8TAPE       Page 113
                                                                 Cross Reference

  913 A   2517  L3601      2566   2578
  914 A   2519  L3602      2565
  915 A   2558  L3650      2537   2539   2543   2550   2552
  916 A   2563  L3654      2556
  917 A   2567  L3657      2516
  918 A   2579  L3672      2557   2628
  919 A   2623  L3731      2620
  920 A   2807  L4200      2857
  921 A   2809  L4201      2852   2869
  922 A   2811  L4202      2846   2850   2923   2925
  923 A   2859  L4261      2808
  924 A   2887  L4302      2885
  925 A   2893  L4307      2886
  926 A   2916  L4333      2829   2831   2835   2842   2844
  927 A   2928  L4400      3030
  928 A   2930  L4401      3019   3052
  929 A   2932  L4402      2970   2973
  930 A   2971  L4450      3027
  931 A   2992  L4462      2990
  932 A   3000  L4471      2991
  933 A   3013  L4505      2929
  934 A   3020  L4513      2951   2953   2960   2962   2968
  935 A   3028  L4522      3053
  936 A   3050  L4545      2974
  937 A   3056  L4600      3171   3173
  938 A   3099  L4652      3126
  939 A   3107  L4661   
  940 A   3128  L4705      3125
  941 A   3152  L4734      3149
  942 A   3168  L4753      3117
  943 A   3181  L5000   
  944 A   3183  L5001   
  945 A   3311  L5200   
  946 A   3361  L5261   
  947 A   3368  L5267      3365
  948 A   3390  L5301      3405
  949 A   3397  L5307      3394
  950 A   3400  L5311      3389
  951 A   3403  L5313      3408
  952 A   3406  L5315      3402
  953 A   3489  L5400   
  954 A   3508  L5410   
  955 A   3679  L5515      3672
  956 A   3730  L5551   
  957 A   3782  L5613   
  958 A   3802  L5622      3804
  959 A   3808  L5627      3816
  960 A   3813  L5633      3815
  961 A   3834  L5645   
  962 A   3850  L5652      3847
  963 A   3884  L5667      3896   3901
  964 A   3897  L5703      3894
  965 A   3917  L5713      3925
  966 A   3968  L5751   
  967 A   4108  L6070      4115
  968 A   4113  L6074      4129
  969 A   4125  L6107      4101

      AUTOMATIC DISASSEMBLY OF MAINDEC-8E-D0LB-D-PB.bin BY D8TAPE       Page 114
                                                                 Cross Reference

  970 A   4130  L6113      4104
  971 A   4165  L6143      4172
  972 A   4170  L6147      4193
  973 A   4180  L6160      4188
  974 A   4185  L6164      4161
  975 A   4189  L6167      4154
  976 A   4228  L6223      4237
  977 A   4241  L6237      4271
  978 A   4248  L6245      4259
  979 A   4253  L6251      4220
  980 A   4260  L6257      4224
  981 A   4269  L6267      4274
  982 A   4272  L6271      4265
  983 A   4347  L6345   
  984 A   4367  L6355      4376
  985 A   4407  L6413      4414
  986 A   4439  L6440      4458
  987 A   4441  L6441      4449
  988 A   4450  L6451      4446
  989 A   4528  L6542      4520
  990 A   4578  L6606      4587
  991 A   4607  L6630      4618
  992 A   4610  L6632      4606
  993 A   4613  L6634      4603
  994 A   4668  L6674      4672
  995 A   5012  L7252      5048   5050   5075   5076   5079   5082
  996 A     38  S0000        71   1794   2689   2713   2714   2715   2716   2717
  997                      2718   2719   2720   2721   2722   2723   2725   2726
  998                      3182   3677   4646   4674   5006   5007   5009   5011
  999                      5013   5016   5017   5018   5019   5022   5025   5028
 1000                      5031   5034   5037   5040   5043   5044   5045   5046
 1001                      5049   5052   5055   5058   5059   5060   5061   5062
 1002                      5063   5066   5067   5068   5069   5070   5073   5078
 1003                      5083   5088   5093   5118   5129   5162   5198   5214
 1004 A    250  S0254       221    274
 1005 A    284  S0302       254    291
 1006 A    301  S0311       255    306
 1007 A    316  S0316       256    321
 1008 A    331  S0323       261    269    338
 1009 A    348  S0332       263    354
 1010 A    376  S0347       382
 1011 A    392  S0355       397
 1012 A    407  S0362       413
 1013 A    423  S0370       429
 1014 A    510  S0473       491    515
 1015 A    599  S0600       604
 1016 A    614  S0605       635    734
 1017 A    645  S0632       603    652
 1018 A    662  S0641       630    667
 1019 A    826  S1063       803    857
 1020 A    867  S1121       851    872
 1021 A    882  S1126       828
 1022 A    986  S1240       972    991
 1023 A   1017  S1263       994   1027
 1024 A   1047  S1305      1031   1055
 1025 A   1065  S1315       992   1079
 1026 A   1129  S1400      1138

      AUTOMATIC DISASSEMBLY OF MAINDEC-8E-D0LB-D-PB.bin BY D8TAPE       Page 115
                                                                 Cross Reference

 1027 A   1157  S1420      1141   1165
 1028 A   1196  S1453      1166   1208
 1029 A   1233  S1503      1217   1242
 1030 A   1283  S1616      1258   1291
 1031 A   1310  S1635      1294   1319
 1032 A   1351  S1672      1320   1363
 1033 A   1388  S1722      1372   1397
 1034 A   1436  S2016      1444
 1035 A   1463  S2035      1447   1472
 1036 A   1504  S2072      1473   1516
 1037 A   1541  S2122      1525   1550
 1038 A   1591  S2216      1566   1599
 1039 A   1618  S2235      1602   1627
 1040 A   1668  S2302      1639   1677
 1041 A   1687  S2313      1640   1695
 1042 A   1728  S2400      1750
 1043 A   1826  S2523      1809   1834
 1044 A   1878  S2621      1850   1889
 1045 A   1908  S2643      1892   1916
 1046 A   1940  S2667      1917   1949
 1047 A   1968  S2707      1952   1976
 1048 A   2017  S3000      2026
 1049 A   2045  S3020      2029   2053
 1050 A   2084  S3053      2056   2095
 1051 A   2106  S3067      2054   2122
 1052 A   2151  S3130      2131   2159
 1053 A   2207  S3223      2177   2221
 1054 A   2231  S3241      2179   2244
 1055 A   2274  S3300      2254   2282
 1056 A   2340  S3400      2350
 1057 A   2361  S3413      2375
 1058 A   2394  S3440      2378   2402
 1059 A   2440  S3502      2405
 1060 A   2460  S3514      2403   2470
 1061 A   2489  S3535      2473   2497
 1062 A   2607  S3712      2518   2627
 1063 A   2640  S4000      2688
 1064 A   2736  S4126      2643   2740
 1065 A   2750  S4132      2738   2759
 1066 A   2769  S4143      2739   2774
 1067 A   2879  S4273      2810   2892   2899
 1068 A   2984  S4453      2931   2999   3012
 1069 A   3384  S5274      3396   3399
 1070 A   3418  S5317      3424
 1071 A   3435  S5325      3439   3440   3441
 1072 A   3452  S5333      3457   3458   3459
 1073 A   3470  S5342      3475   3476   3477
 1074 A   3499  S5400      3505   3506   3507
 1075 A   3519  S5410      3532
 1076 A   3542  S5425      3545
 1077 A   3555  S5430      3559
 1078 A   3569  S5434      3572
 1079 A   3582  S5437      3557   3571   3591
 1080 A   3601  S5450      3558   3606
 1081 A   3616  S5455      3621
 1082 A   3631  S5462      3636
 1083 A   3646  S5467      3651

      AUTOMATIC DISASSEMBLY OF MAINDEC-8E-D0LB-D-PB.bin BY D8TAPE       Page 116
                                                                 Cross Reference

 1084 A   3668  S5503      3678   3682
 1085 A   3693  S5520      3710
 1086 A   3726  S5546      3729
 1087 A   3760  S5600      3767
 1088 A   3777  S5607      3781
 1089 A   3794  S5613      3807   3811
 1090 A   3828  S5640      3833
 1091 A   3844  S5645      3832   3849   3854
 1092 A   3864  S5656      3848   3869   3895
 1093 A   3879  S5663      3887
 1094 A   3912  S5707      3915   3918   3919   3927   3928
 1095 A   3938  S5726      3942
 1096 A   3952  S5732      3966
 1097 A   3978  S5751      3986
 1098 A   3996  S5761      4002
 1099 A   4012  S5767      4015   4017   4018   4019
 1100 A   4031  S6000      4042
 1101 A   4052  S6013      4075
 1102 A   4085  S6042      4124   4135
 1103 A   4145  S6120      4184
 1104 A   4208  S6200      4252
 1105 A   4284  S6273      4298
 1106 A   4308  S6311      4325
 1107 A   4335  S6332      4346
 1108 A   4358  S6345      4360   4362   4372   4377   4378
 1109 A   4395  S6400      4398   4400   4401   4403   4406   4415
 1110 A   4428  S6426      4434   4435   4459
 1111 A   4478  S6473      4503
 1112 A   4514  S6525      4539
 1113 A   4571  S6600      4574   4577   4621
 1114 A   4597  S6617      4583   4585   4609   4612   4628
 1115 A   4638  S6653      4608   4625   4645
 1116 A   4663  S6670      4665   4667   4673
 1117 A   4686  S6704      4697
 1118 A   4711  S6723      4715
 1119 A   4726  S6727      4730
 1120 A   4740  S6733      4763
 1121 A   4782  S7000      4818
 1122 A   4830  S7046      4796   4807   4817   4848
 1123 A   4858  S7070      4872
 1124 A   4882  S7106      4933
 1125 A   4958  S7200      4962   5001   5004
 1126 A   4972  S7204      4992

      AUTOMATIC DISASSEMBLY OF MAINDEC-8E-D0LB-D-PB.bin BY D8TAPE       Page 117
                                                                      Memory Map

    1 00000/ XXXX.... XXXX.... XXXXXXXX XXXXXXXX XXXXXXXX XXXXXXXX XXXXXXXX XXXXXXXX
    2 00100/ XXXXXXXX XXXXXXXX XXXXXXXX XXXXXXXX XXXXXXXX XXXXXXX. ...XXXXX XXXXXXXX
    3
    4 00200/ XXXXXXXX XXXXXXXX XXXXXXXX XXXXXXXX XXXXXXXX XXXXXXXX XXXXXXXX XXXXXXXX
    5 00300/ XXXXXXXX XXXXXXXX XXXXXXXX XXXXXXXX XXXXXXXX XXXXXXXX XXXXXXXX XXXXXX..
    6
    7 00400/ XXXXXXXX XXXXXXXX XXXXXXXX XXXXXXXX XXXXXXXX XXXXXXXX XXXXXXXX XXXXXXXX
    8 00500/ XXXXXXXX XXXXXXXX XXXXXXXX XXXXXXXX XXXXXXXX XXXXXXXX XXXXXXXX .....XXX
    9
   10 00600/ XXXXXXXX XXXXXXXX XXXXXXXX XXXXXXXX XXXXXXXX XXXXXXXX XXXXXXXX XXXXXXXX
   11 00700/ XXXXXXXX XXXXXXXX XXXXXXXX XXXXXXXX XX...... ........ ........ XXXXXXXX
   12
   13 01000/ XXXXXXXX XXXXXXXX XXXXXXXX XXXXXXXX XXXXXXXX XXXXXXXX XXXXXXXX XXXXXXXX
   14 01100/ XXXXXXXX XXXXXXXX XXXXXXXX XXXXXXXX XXXXXXXX XXXXXXXX XXXXXXXX XXXXXXXX
   15
   16 01200/ XXXXXXXX XXXXXXXX XXXXXXXX XXXXXXXX XXXXXXXX XXXXXXXX XXXXXXXX XXXXXXXX
   17 01300/ XXXXXXXX XXXXXXXX XXXXXXXX XXXXXXXX XXXXXXXX XXX..... .....XXX XXXXXXXX
   18
   19 01400/ XXXXXXXX XXXXXXXX XXXXXXXX XXXXXXXX XXXXXXXX XXXXXXXX XXXXXXXX XXXXXXXX
   20 01500/ XXXXXXXX XXXX.... ........ ........ ........ ........ ........ .XXXXXXX
   21
   22 01600/ XXXXXXXX XXXXXXXX XXXXXXXX XXXXXXXX XXXXXXXX XXXXXXXX XXXXXXXX XXXXXXXX
   23 01700/ XXXXXXXX XXXXXXXX XXXXXXXX XXX..... ........ ........ ........ .XXXXXXX
   24
   25 02000/ XXXXXXXX XXXXXXXX XXXXXXXX XXXXXXXX XXXXXXXX XXXXXXXX XXXXXXXX XXXXXXXX
   26 02100/ XXXXXXXX XXXXXXXX XXXXXXXX XXX..... ........ ........ ........ .XXXXXXX
   27
   28 02200/ XXXXXXXX XXXXXXXX XXXXXXXX XXXXXXXX XXXXXXXX XXXXXXXX XXXXXXXX XXXXXXXX
   29 02300/ XXXXXXXX XXXXXXXX XXX..... ........ ........ ........ ..XXXXXX XXXXXXXX
   30
   31 02400/ XXXXXXXX XXXXXXXX XXXXXXXX XXXXXXXX XXXXXXXX XXXXXXXX XXXXXXXX XXXXXXXX
   32 02500/ XXXXXXXX XXXXXXXX XXXXXXXX XXX..... ........ ........ ........ .XXXXXXX
   33
   34 02600/ XXXXXXXX XXXXXXXX XXXXXXXX XXXXXXXX XXXXXXXX XXXXXXXX XXXXXXXX XXXXXXXX
   35 02700/ XXXXXXXX XXXXXXXX XXXXXXXX XXX..... ........ ........ ........ XXXXXXXX
   36
   37 03000/ XXXXXXXX XXXXXXXX XXXXXXXX XXXXXXXX XXXXXXXX XXXXXXXX XXXXXXXX XXXXXXXX
   38 03100/ XXXXXXXX XXXXXXXX XXXXXXXX XXXXXXXX ........ ........ ......XX XXXXXXXX
   39
   40 03200/ XXXXXXXX XXXXXXXX XXXXXXXX XXXXXXXX XXXXXXXX XXXXXXXX XXXXXXXX XXXXXXXX
   41 03300/ XXXXXXXX XXXXXXXX XXXXXXXX XXXXXXXX XX...... ........ ......XX XXXXXXXX
   42
   43 03400/ XXXXXXXX XXXXXXXX XXXXXXXX XXXXXXXX XXXXXXXX XXXXXXXX XXXXXXXX XXXXXXXX
   44 03500/ XXXXXXXX XXXXXXXX XXXXXXXX XXXXXXXX XXXXX... ........ .......X XXXXXXXX
   45
   46 03600/ XXXXXXXX XXXXXXXX XXXXXXXX XXXXXXXX XXXXXXXX XXXXXXXX XXXXXXXX XXXXXXXX
   47 03700/ XXXXXXXX XXXXXXXX XXXXXXXX XXXXXX.. ........ ........ ........ ........
   48

      AUTOMATIC DISASSEMBLY OF MAINDEC-8E-D0LB-D-PB.bin BY D8TAPE       Page 118
                                                                      Memory Map

   49 04000/ XXXXXXXX XXXXXXXX XXXXXXXX XXXXXXXX XXXXXXXX XXXXXXXX XXXXXXXX XXXXXXXX
   50 04100/ XXXXXXXX XXXXXXXX XXXXXXXX XXXXXXXX XXXXXXXX .....XXX XXXXXXXX XXXXXXXX
   51
   52 04200/ XXXXXXXX XXXXXXXX XXXXXXXX XXXXXXXX XXXXXXXX XXXXXXXX XXXXXXXX XXXXXXXX
   53 04300/ XXXXXXXX XXXXXXXX XXXXXXXX XXXXXXXX XXXX.... ........ ........ ........
   54
   55 04400/ XXXXXXXX XXXXXXXX XXXXXXXX XXXXXXXX XXXXXXXX XXXXXXXX XXXXXXXX XXXXXXXX
   56 04500/ XXXXXXXX XXXXXXXX XXXXXXXX XXXXXXXX XXXXXXXX ........ ........ ........
   57
   58 04600/ XXXXXXXX XXXXXXXX XXXXXXXX XXXXXXXX XXXXXXXX XXXXXXXX XXXXXXXX XXXXXXXX
   59 04700/ XXXXXXXX XXXXXXXX XXXXXXXX XXXXXXXX XXXXXXXX XXXXXXXX X....... .......X
   60
   61 05000/ XXXXXXXX XXXXXXXX XXXXXXXX XXXXXXXX XXXXXXXX XXXXXXXX XXXXXXXX XXXXXXXX
   62 05100/ XXXXXXXX XXXXXXXX XXXXXXXX XXXXXXXX XXXXXXXX XXXXXXXX XXXXXXXX XX.....X
   63
   64 05200/ XXXXXXXX XXXXXXXX XXXXXXXX XXXXXXXX XXXXXXXX XXXXXXXX XXXXXXXX XXXXXXXX
   65 05300/ XXXXXXXX XXXXXXXX XXXXXXXX XXXXXXXX XXXXXXXX X....... ........ ....XXXX
   66
   67 05400/ XXXXXXXX XXXXXXXX XXXXXXXX XXXXXXXX XXXXXXXX XXXXXXXX XXXXXXXX XXXXXXXX
   68 05500/ XXXXXXXX XXXXXXXX XXXXXXXX XXXXXXXX XXXXXXXX XXXXXXX. ........ XXXXXXXX
   69
   70 05600/ XXXXXXXX XXXXXXXX XXXXXXXX XXXXXXXX XXXXXXXX XXXXXXXX XXXXXXXX XXXXXXXX
   71 05700/ XXXXXXXX XXXXXXXX XXXXXXXX XXXXXXXX XXXXXXXX XXXXXXXX XXXXXXXX XXXXXX..
   72
   73 06000/ XXXXXXXX XXXXXXXX XXXXXXXX XXXXXXXX XXXXXXXX XXXXXXXX XXXXXXXX XXXXXXXX
   74 06100/ XXXXXXXX XXXXXXXX XXXXXXXX XXXXXXXX XXXXXXXX XXXXXXXX XXXXXXXX XXX....X
   75
   76 06200/ XXXXXXXX XXXXXXXX XXXXXXXX XXXXXXXX XXXXXXXX XXXXXXXX XXXXXXXX XXXXXXXX
   77 06300/ XXXXXXXX XXXXXXXX XXXXXXXX XXXXXXXX XXXXXXXX XXXXXXXX XXXXXXXX XXXXX...
   78
   79 06400/ XXXXXXXX XXXXXXXX XXXXXXXX XXXXXXXX XXXXXXXX XXXXXXXX XXXXXXXX XXXXXXXX
   80 06500/ XXXXXXXX XXXXXXXX XXXXXXXX XXXXXXXX XXXXXXXX XXXXXXXX XXXXXXXX XXXXXXXX
   81
   82 06600/ XXXXXXXX XXXXXXXX XXXXXXXX XXXXXXXX XXXXXXXX XXXXXXXX XXXXXXXX XXXXXXXX
   83 06700/ XXXXXXXX XXXXXXXX XXXXXXXX XXXXXXXX XXXXXXXX XXXXXXXX XX...... ...XXXXX
   84
   85 07000/ XXXXXXXX XXXXXXXX XXXXXXXX XXXXXXXX XXXXXXXX XXXXXXXX XXXXXXXX XXXXXXXX
   86 07100/ XXXXXXXX XXXXXXXX XXXXXXXX XXXXXXXX XXXXXXXX XXXXXXXX XXXXXXXX X.XXXXXX
   87
   88 07200/ XXXXXXXX XXXXXXXX XXXXXXXX XXXXXXXX XXXXXXXX XXXXXXXX XXXXXXXX XXXXXXXX
   89 07300/ XXXXXXXX XXXXXXXX XXXXXXXX XXXXXXXX XXXXXXXX XXXXXXXX XXXXXXXX XXXXXXXX
   90
   91 07400/ XXXXXXXX XXXXXXXX XXXXXXXX XXXXXXXX XXXXXXXX XXXXXXXX XXXXXXXX XXXXXXXX
   92 07500/ XXXXXXXX XXXXXXXX XXXXXXXX XXXXXXXX XXXXXXXX XXXXXXXX XXXXXXXX XXXX....
   93
