
      AUTOMATIC DISASSEMBLY OF MAINDEC-8E-D0JC-PB.bin BY D8TAPE           Page 1


    1             TITLE "AUTOMATIC DISASSEMBLY OF MAINDEC-8E-D0JC-PB.bin BY D8TAPE"
    2             ////////////////////////////////////////////////////////////////////////////////
    3             /
    4             /   Automatic Disassembly of MAINDEC-8E-D0JC-PB.bin
    5             /   Generated 2015 10 26 22:25:51
    6             /   Generated by d8tape version 0.347
    7             /   Visit http://www.pdp12.org/pdp8/software/index.html for updates
    8             /
    9             /   Symbol format:
   10             /       AIx   -- Auto-index variables (address range 001x)
   11             /       Caaaa -- Constants (non-unique)
   12             /       Daaaa -- Data (read/write variables)
   13             /       Kvvvv -- Program-wide unique constants
   14             /       Laaaa -- Labels for control flow targets
   15             /       Saaaa -- Subroutines
   16             /
   17             /   Where:
   18             /       aaaa is the definition address
   19             /       vvvv is the value of the constant
   20             /       x    is the last digit of the address 001x for auto-index variables
   21             /
   22             /   0574 locations used, 0450 code and 0124 data
   23             ////////////////////////////////////////////////////////////////////////////////
   24             
   25       0200  *0200
   26             
   27       0200  *0200
   28 00200 4157  D0200,  4157                / JMS   S0157                           
   29 00201 1140      TAD   C0140             /                                       @@0201=1140
   30 00202 7041      CIA                     /                                       @@0202=7041
   31 00203 3131      DCA   D0131             /                                       @@0203=3131
   32             L0204,
   33 00204 1155      TAD   C0155             /                                       @@0204=1155
   34 00205 3531      DCA I D0131             /                                       @@0205=3531
   35 00206 1131      TAD   D0131             /                                       @@0206=1131
   36 00207 7001      IAC                     /                                       @@0207=7001
   37 00210 3131      DCA   D0131             /                                       @@0210=3131
   38 00211 1131      TAD   D0131             /                                       @@0211=1131
   39 00212 1141  C0212,  1141                / TAD   C0141                           
   40 00213 7640      SZA CLA                 /                                       @@0213=7640
   41 00214 5204      JMP   L0204             /                                       @@0214=5204
   42 00215 1045  C0215,  1045                / TAD   C0045                           
   43 00216 3044      DCA   D0044             /                                       @@0216=3044
   44 00217 3043      DCA   D0043             /                                       @@0217=3043
   45             L0220,
   46 00220 7604      LAS                     /                                       @@0220=7604
   47 00221 7004      RAL                     /                                       @@0221=7004
   48 00222 7006      RTL                     /                                       @@0222=7006
   49 00223 7630      SZL CLA                 /                                       @@0223=7630
   50 00224 5246      JMP   L0246             /                                       @@0224=5246
   51             L0225,
   52 00225 1136      TAD   D0136             /                                       @@0225=1136
   53 00226 7104      CLL RAL                 /                                       @@0226=7104
   54 00227 7430      SZL                     /                                       @@0227=7430
   55 00230 1137      TAD   C0137             /                                       @@0230=1137
   56 00231 3136      DCA   D0136             /                                       @@0231=3136
   57 00232 1136      TAD   D0136             /                                       @@0232=1136

      AUTOMATIC DISASSEMBLY OF MAINDEC-8E-D0JC-PB.bin BY D8TAPE           Page 2


   58 00233 7510      SPA                     /                                       @@0233=7510
   59 00234 5241      JMP   L0241             /                                       @@0234=5241
   60 00235 1140      TAD   C0140             /                                       @@0235=1140
   61 00236 7710      SPA CLA                 /                                       @@0236=7710
   62 00237 5225      JMP   L0225             /                                       @@0237=5225
   63 00240 5244      JMP   L0244             /                                       @@0240=5244
   64             L0241,
   65 00241 1141      TAD   C0141             /                                       @@0241=1141
   66 00242 7700      SMA CLA                 /                                       @@0242=7700
   67 00243 5225      JMP   L0225             /                                       @@0243=5225
   68             L0244,
   69 00244 1136      TAD   D0136             /                                       @@0244=1136
   70 00245 3133      DCA   D0133             /                                       @@0245=3133
   71             L0246,
   72 00246 1133      TAD   D0133             /                                       @@0246=1133
   73 00247 7001      IAC                     /                                       @@0247=7001
   74 00250 3135      DCA   D0135             /                                       @@0250=3135
   75 00251 7040      CMA                     /                                       @@0251=7040
   76 00252 1133      TAD   D0133             /                                       @@0252=1133
   77 00253 3134      DCA   D0134             /                                       @@0253=3134
   78 00254 7604      LAS                     /                                       @@0254=7604
   79 00255 7006      RTL                     /                                       @@0255=7006
   80 00256 7006      RTL                     /                                       @@0256=7006
   81 00257 7630      SZL CLA                 /                                       @@0257=7630
   82 00260 5302      JMP   L0302             /                                       @@0260=5302
   83             L0261,
   84 00261 1136      TAD   D0136             /                                       @@0261=1136
   85 00262 7104      CLL RAL                 /                                       @@0262=7104
   86 00263 7430      SZL                     /                                       @@0263=7430
   87 00264 1137      TAD   C0137             /                                       @@0264=1137
   88 00265 3136      DCA   D0136             /                                       @@0265=3136
   89 00266 1136      TAD   D0136             /                                       @@0266=1136
   90 00267 7510      SPA                     /                                       @@0267=7510
   91 00270 5275      JMP   L0275             /                                       @@0270=5275
   92 00271 1140      TAD   C0140             /                                       @@0271=1140
   93 00272 7710      SPA CLA                 /                                       @@0272=7710
   94 00273 5261      JMP   L0261             /                                       @@0273=5261
   95 00274 5300      JMP   L0300             /                                       @@0274=5300
   96             L0275,
   97 00275 1141      TAD   C0141             /                                       @@0275=1141
   98 00276 7700      SMA CLA                 /                                       @@0276=7700
   99 00277 5261      JMP   L0261             /                                       @@0277=5261
  100             L0300,
  101 00300 1136      TAD   D0136             /                                       @@0300=1136
  102 00301 3131      DCA   D0131             /                                       @@0301=3131
  103             L0302,
  104 00302 1131      TAD   D0131             /                                       @@0302=1131
  105 00303 7001  C0303,  7001                / IAC                                   
  106 00304 3132      DCA   D0132             /                                       @@0304=3132
  107 00305 1133      TAD   D0133             /                                       @@0305=1133
  108 00306 7041      CIA                     /                                       @@0306=7041
  109 00307 1131      TAD   D0131             /                                       @@0307=1131
  110 00310 7650      SNA CLA                 /                                       @@0310=7650
  111 00311 5220      JMP   L0220             /                                       @@0311=5220
  112 00312 7040  C0312,  7040                / CMA                                   
  113 00313 6041      TSF                     / Skip if teleprinter flag is a 1.      @@0313=6041
  114 00314 6046      TLS                     / Load the TTO from the content of AC4  @@0314=6046

      AUTOMATIC DISASSEMBLY OF MAINDEC-8E-D0JC-PB.bin BY D8TAPE           Page 3


  115             L0315,
  116 00315 6041      TSF                     / Skip if teleprinter flag is a 1.      @@0315=6041
  117 00316 5315      JMP   L0315             /                                       @@0316=5315
  118 00317 7200      CLA                     /                                       @@0317=7200
  119 00320 1142      TAD   C0142             /                                       @@0320=1142
  120 00321 3534      DCA I D0134             /                                       @@0321=3534
  121 00322 1156      TAD   C0156             /                                       @@0322=1156
  122 00323 3533      DCA I D0133             /                                       @@0323=3533
  123 00324 3000      DCA   L0000             /                                       @@0324=3000
  124 00325 5534      JMP I D0134             / long jump to L0000                    @@0325=5534
  125 00326 7402      HLT                     /                                       @@0326=7402
  126             C0327,
  127 00327 0000  D0327,  0000                / AND   L0000                           
  128             L0330,
  129 00330 3146      DCA   D0146             /                                       @@0330=3146
  130 00331 1146      TAD   D0146             /                                       @@0331=1146
  131 00332 7012      RTR                     /                                       @@0332=7012
  132 00333 7010      RAR                     /                                       @@0333=7010
  133 00334 3145      DCA   D0145             /                                       @@0334=3145
  134 00335 1145      TAD   D0145             /                                       @@0335=1145
  135 00336 7012      RTR                     /                                       @@0336=7012
  136 00337 7010      RAR                     /                                       @@0337=7010
  137 00340 3144      DCA   D0144             /                                       @@0340=3144
  138 00341 1144      TAD   D0144             /                                       @@0341=1144
  139 00342 7012      RTR                     /                                       @@0342=7012
  140 00343 7010      RAR                     /                                       @@0343=7010
  141 00344 3143      DCA   D0143             /                                       @@0344=3143
  142 00345 5727      JMP I D0327             / long jump to L0000                    @@0345=5727
  143 00346 1044      TAD   D0044             /                                       @@0346=1044
  144 00347 7001      IAC                     /                                       @@0347=7001
  145 00350 3044      DCA   D0044             /                                       @@0350=3044
  146 00351 1044      TAD   D0044             /                                       @@0351=1044
  147 00352 7640      SZA CLA                 /                                       @@0352=7640
  148 00353 5442      JMP I C0042             / long jump to L0220                    @@0353=5442
  149 00354 1373      TAD   C0373             /                                       @@0354=1373
  150 00355 3127      DCA   D0127             /                                       @@0355=3127
  151             L0356,
  152 00356 1127      TAD   D0127             /                                       @@0356=1127
  153 00357 7001      IAC                     /                                       @@0357=7001
  154 00360 3127      DCA   D0127             /                                       @@0360=3127
  155 00361 1527      TAD I D0127             /                                       @@0361=1527
  156 00362 6046      TLS                     / Load the TTO from the content of AC4  @@0362=6046
  157             L0363,
  158 00363 6041      TSF                     / Skip if teleprinter flag is a 1.      @@0363=6041
  159 00364 5363      JMP   L0363             /                                       @@0364=5363
  160 00365 1046      TAD   C0046             /                                       @@0365=1046
  161 00366 7640      SZA CLA                 /                                       @@0366=7640
  162 00367 5356      JMP   L0356             /                                       @@0367=5356
  163 00370 1045      TAD   C0045             /                                       @@0370=1045
  164 00371 3044      DCA   D0044             /                                       @@0371=3044
  165 00372 5442      JMP I C0042             / long jump to L0220                    @@0372=5442
  166 00373 0373  C0373,  0373                / AND   C0373                           
  167 00374 0215      AND   C0215             /                                       @@0374=0215
  168 00375 0212      AND   C0212             /                                       @@0375=0212
  169 00376 0312      AND   C0312             /                                       @@0376=0312
  170 00377 0303      AND   C0303             /                                       @@0377=0303
  171             

      AUTOMATIC DISASSEMBLY OF MAINDEC-8E-D0JC-PB.bin BY D8TAPE           Page 4


  172       0000  *0000
  173             L0000,
  174 00000 0000  D0000,  0000                / AND   L0000                           
  175             L0001,
  176 00001 5001  D0001,  5001                / JMP   L0001                           
  177 00002 0002  D0002,  0002                / AND   D0002                           
  178 00003 0003  D0003,  0003                / AND   D0003                           
  179 00004 0000      AND   L0000             /                                       @@0004=0000
  180 00005 0000      AND   L0000             /                                       @@0005=0000
  181 00006 7041      CIA                     /                                       @@0006=7041
  182 00007 1135      TAD   D0135             /
  183 00010 7640      SZA CLA                 /                                       @@0010=7640
  184 00011 5551      JMP I C0151             / long jump to L0400                    @@0011=5551
  185 00012 1132      TAD   D0132             /
  186 00013 7041      CIA                     /                                       @@0013=7041
  187 00014 1000      TAD   L0000             /                                       @@0014=1000
  188 00015 7640      SZA CLA                 /
  189 00016 5551      JMP I C0151             / long jump to L0400                    @@0016=5551
  190             L0017,
  191 00017 1155      TAD   C0155             /                                       @@0017=1155
  192 00020 3533      DCA I D0133             /
  193 00021 1155      TAD   C0155             /                                       @@0021=1155
  194 00022 3531      DCA I D0131             /                                       @@0022=3531
  195 00023 7040      CMA                     /                                       @@0023=7040
  196 00024 1000      TAD   L0000             /                                       @@0024=1000
  197 00025 3000      DCA   L0000             /                                       @@0025=3000
  198 00026 1155      TAD   C0155             /                                       @@0026=1155
  199 00027 3400      DCA I L0000             /                                       @@0027=3400
  200 00030 1155      TAD   C0155             /                                       @@0030=1155
  201 00031 3534      DCA I D0134             /                                       @@0031=3534
  202 00032 7001      IAC                     /                                       @@0032=7001
  203 00033 1043      TAD   D0043             /                                       @@0033=1043
  204 00034 3043      DCA   D0043             /                                       @@0034=3043
  205 00035 1043      TAD   D0043             /                                       @@0035=1043
  206 00036 7640      SZA CLA                 /                                       @@0036=7640
  207 00037 5442      JMP I C0042             / long jump to L0220                    @@0037=5442
  208 00040 5441  C0040,  5441                / JMP I C0041                           
  209 00041 0346          0346                /                                       @@0041=0346
  210             C0042,
  211 00042 0220  C0042,  0220                / AND   C0020                           
  212 00043 0000  D0043,  0000                / AND   L0000                           
  213 00044 0000  D0044,  0000                / AND   L0000                           
  214 00045 7763  C0045,  7763                / CLA MQA SCA MQL SCL +                 
  215 00046 7475  C0046,  7475                / SCA MQL ASR +                         
  216 00047 0215  C0047,  0215                / AND   AI5                             
  217 00050 0212  C0050,  0212                / AND   AI2                             
  218 00051 0212  C0051,  0212                / AND   AI2                             
  219 00052 0306          0306                /                                       @@0052=0306
  220 00053 0240          0240                /                                       @@0053=0240
  221 00054 0000  D0054,  0000                / AND   L0000                           
  222 00055 0000  D0055,  0000                / AND   L0000                           
  223 00056 0000  D0056,  0000                / AND   L0000                           
  224 00057 0000  D0057,  0000                / AND   L0000                           
  225 00060 0240  C0060,  0240                / AND   C0040                           
  226 00061 0324          0324                /                                       @@0061=0324
  227 00062 0317          0317                /                                       @@0062=0317
  228 00063 0240          0240                /                                       @@0063=0240

      AUTOMATIC DISASSEMBLY OF MAINDEC-8E-D0JC-PB.bin BY D8TAPE           Page 5


  229 00064 0000  D0064,  0000                / AND   L0000                           
  230 00065 0000  D0065,  0000                / AND   L0000                           
  231 00066 0000  D0066,  0000                / AND   L0000                           
  232 00067 0000  D0067,  0000                / AND   L0000                           
  233 00070 0215          0215                / AUTO INDEX REGISTER                   @@0070=0215
  234 00071 0212          0212                / AUTO INDEX REGISTER                   @@0071=0212
  235 00072 0377  C0072,  0377                / AND   C0177                           
  236 00073 0250          0250                /                                       @@0073=0250
  237 00074 0324          0324                /                                       @@0074=0324
  238 00075 0317  C0075,  0317                / AND   C0117                           
  239 00076 0251          0251                /                                       @@0076=0251
  240 00077 0240          0240                /                                       @@0077=0240
  241 00100 0275          0275                /                                       @@0100=0275
  242 00101 0240          0240                /                                       @@0101=0240
  243 00102 0000  D0102,  0000                / AND   L0000                           
  244 00103 0000  D0103,  0000                / AND   L0000                           
  245 00104 0000  D0104,  0000                / AND   L0000                           
  246 00105 0000  D0105,  0000                / AND   L0000                           
  247 00106 0215  C0106,  0215                / AND   AI5                             
  248 00107 0212          0212                / AUTO INDEX REGISTER                   @@0107=0212
  249 00110 0377  C0110,  0377                / AND   C0177                           
  250 00111 0250          0250                /                                       @@0111=0250
  251 00112 0000  D0112,  0000                / AND   L0000                           
  252 00113 0000  D0113,  0000                / AND   L0000                           
  253 00114 0000  D0114,  0000                / AND   L0000                           
  254 00115 0000  D0115,  0000                / AND   L0000                           
  255 00116 0251          0251                /                                       @@0116=0251
  256 00117 0240  C0117,  0240                / AND   C0040                           
  257 00120 0275          0275                /                                       @@0120=0275
  258 00121 0240          0240                /                                       @@0121=0240
  259 00122 0000  D0122,  0000                / AND   L0000                           
  260 00123 0000  D0123,  0000                / AND   L0000                           
  261 00124 0000  D0124,  0000                / AND   L0000                           
  262 00125 0000  D0125,  0000                / AND   L0000                           
  263 00126 0207          0207                /                                       @@0126=0207
  264 00127 0000  D0127,  0000                / AND   L0000                           
  265 00130 7571  C0130,  7571                / MQA SCA MQL NMI                       
  266 00131 0000  D0131,  0000                / AND   L0000                           
  267 00132 0000  D0132,  0000                / AND   L0000                           
  268 00133 0000  D0133,  0000                / AND   L0000                           
  269 00134 0000  D0134,  0000                / AND   L0000                           
  270 00135 0000  D0135,  0000                / AND   L0000                           
  271 00136 2525  D0136,  2525                / ISZ I D0125                           
  272 00137 0003  C0137,  0003                / AND   D0003                           
  273 00140 7200  C0140,  7200                / CLA                                   
  274 00141 0200  C0141,  0200                / AND   L0000                           
  275 00142 6001  C0142,  6001                / ION                                   
  276 00143 0000  D0143,  0000                / AND   L0000                           
  277 00144 0000  D0144,  0000                / AND   L0000                           
  278 00145 0000  D0145,  0000                / AND   L0000                           
  279 00146 0000  D0146,  0000                / AND   L0000                           
  280 00147 0007  C0147,  0007                / AND   C0007                           
  281 00150 0260  C0150,  0260                / AND   C0060                           
  282             C0151,
  283 00151 0400  C0151,  0400                / AND I L0000                           
  284 00152 0327  C0152,  0327                / AND   D0127                           
  285             C0153,

      AUTOMATIC DISASSEMBLY OF MAINDEC-8E-D0JC-PB.bin BY D8TAPE           Page 6


  286 00153 0330  C0153,  0330                / AND   C0130                           
  287 00154 0047  C0154,  0047                / AND   C0047                           
  288 00155 7402  C0155,  7402                / HLT                                   
  289 00156 4531  C0156,  4531                / JMS I D0131                           
  290             
  291             ////////////////////////////////////////////////////////////////////////////////
  292             /
  293             /   SUBROUTINE:  S0157
  294             /
  295             /   Never called
  296             ////////////////////////////////////////////////////////////////////////////////
  297             S0157,
  298 00157 0000      0                       / return area
  299 00160 3000      DCA   L0000             /                                       @@0160=3000
  300 00161 1172      TAD   C0172             /                                       @@0161=1172
  301 00162 3001      DCA   L0001             /                                       @@0162=3001
  302 00163 1173      TAD   C0173             /                                       @@0163=1173
  303 00164 3002      DCA   D0002             /                                       @@0164=3002
  304 00165 1174      TAD   C0174             /                                       @@0165=1174
  305 00166 3003      DCA   D0003             /                                       @@0166=3003
  306 00167 1175      TAD   C0175             /                                       @@0167=1175
  307 00170 3576      DCA I C0176             /                                       @@0170=3576
  308 00171 5557      JMP I S0157             / return                                @@0171=5557
  309 00172 7200  C0172,  7200                / CLA                                   
  310 00173 1531  C0173,  1531                / TAD I D0131                           
  311 00174 5006  C0174,  5006                / JMP   C0006                           
  312 00175 7200  C0175,  7200                / CLA                                   
  313 00176 0200  C0176,  0200                / AND   L0000                           
  314             
  315       0400  *0400
  316             L0400,
  317 00400 1204      TAD   C0404             /                                       @@0400=1204
  318 00401 3552      DCA I C0152             /                                       @@0401=3552
  319 00402 1133      TAD   D0133             /                                       @@0402=1133
  320 00403 5553      JMP I C0153             / long jump to L0330                    @@0403=5553
  321 00404 0405  C0404,  0405                / AND I C0005                           
  322 00405 1143      TAD   D0143             /                                       @@0405=1143
  323 00406 0147      AND   C0147             /                                       @@0406=0147
  324 00407 1150      TAD   C0150             /                                       @@0407=1150
  325 00410 3054      DCA   D0054             /                                       @@0410=3054
  326 00411 1144      TAD   D0144             /                                       @@0411=1144
  327 00412 0147      AND   C0147             /                                       @@0412=0147
  328 00413 1150      TAD   C0150             /                                       @@0413=1150
  329 00414 3055      DCA   D0055             /                                       @@0414=3055
  330 00415 1145      TAD   D0145             /                                       @@0415=1145
  331 00416 0147      AND   C0147             /                                       @@0416=0147
  332 00417 1150      TAD   C0150             /                                       @@0417=1150
  333 00420 3056      DCA   D0056             /                                       @@0420=3056
  334 00421 1146      TAD   D0146             /                                       @@0421=1146
  335 00422 0147      AND   C0147             /                                       @@0422=0147
  336 00423 1150      TAD   C0150             /                                       @@0423=1150
  337 00424 3057      DCA   D0057             /                                       @@0424=3057
  338 00425 1231      TAD   C0431             /                                       @@0425=1231
  339 00426 3552      DCA I C0152             /                                       @@0426=3552
  340 00427 1131      TAD   D0131             /                                       @@0427=1131
  341 00430 5553      JMP I C0153             / long jump to L0330                    @@0430=5553
  342 00431 0432  C0431,  0432                / AND I C0032                           

      AUTOMATIC DISASSEMBLY OF MAINDEC-8E-D0JC-PB.bin BY D8TAPE           Page 7


  343 00432 1143      TAD   D0143             /                                       @@0432=1143
  344 00433 0147      AND   C0147             /                                       @@0433=0147
  345 00434 1150      TAD   C0150             /                                       @@0434=1150
  346 00435 3064      DCA   D0064             /                                       @@0435=3064
  347 00436 1144      TAD   D0144             /                                       @@0436=1144
  348 00437 0147      AND   C0147             /                                       @@0437=0147
  349 00440 1150      TAD   C0150             /                                       @@0440=1150
  350 00441 3065      DCA   D0065             /                                       @@0441=3065
  351 00442 1145      TAD   D0145             /                                       @@0442=1145
  352 00443 0147      AND   C0147             /                                       @@0443=0147
  353 00444 1150      TAD   C0150             /                                       @@0444=1150
  354 00445 3066      DCA   D0066             /                                       @@0445=3066
  355 00446 1146      TAD   D0146             /                                       @@0446=1146
  356 00447 0147      AND   C0147             /                                       @@0447=0147
  357 00450 1150      TAD   C0150             /                                       @@0450=1150
  358 00451 3067      DCA   D0067             /                                       @@0451=3067
  359 00452 1256      TAD   C0456             /                                       @@0452=1256
  360 00453 3552      DCA I C0152             /                                       @@0453=3552
  361 00454 1531      TAD I D0131             /                                       @@0454=1531
  362 00455 5553      JMP I C0153             / long jump to L0330                    @@0455=5553
  363 00456 0457  C0456,  0457                / AND I D0057                           
  364 00457 1143      TAD   D0143             /                                       @@0457=1143
  365 00460 0147      AND   C0147             /                                       @@0460=0147
  366 00461 1150      TAD   C0150             /                                       @@0461=1150
  367 00462 3102      DCA   D0102             /                                       @@0462=3102
  368 00463 1144      TAD   D0144             /                                       @@0463=1144
  369 00464 0147      AND   C0147             /                                       @@0464=0147
  370 00465 1150      TAD   C0150             /                                       @@0465=1150
  371 00466 3103      DCA   D0103             /                                       @@0466=3103
  372 00467 1145      TAD   D0145             /                                       @@0467=1145
  373 00470 0147      AND   C0147             /                                       @@0470=0147
  374 00471 1150      TAD   C0150             /                                       @@0471=1150
  375 00472 3104      DCA   D0104             /                                       @@0472=3104
  376 00473 1146      TAD   D0146             /                                       @@0473=1146
  377 00474 0147      AND   C0147             /                                       @@0474=0147
  378 00475 1150      TAD   C0150             /                                       @@0475=1150
  379 00476 3105      DCA   D0105             /                                       @@0476=3105
  380 00477 7040      CMA                     /                                       @@0477=7040
  381 00500 1000      TAD   L0000             /                                       @@0500=1000
  382 00501 3000      DCA   L0000             /                                       @@0501=3000
  383 00502 1306      TAD   C0506             /                                       @@0502=1306
  384 00503 3552      DCA I C0152             /                                       @@0503=3552
  385 00504 1000      TAD   L0000             /                                       @@0504=1000
  386 00505 5553      JMP I C0153             / long jump to L0330                    @@0505=5553
  387 00506 0507  C0506,  0507                / AND I C0107                           
  388 00507 1143      TAD   D0143             /                                       @@0507=1143
  389 00510 0147      AND   C0147             /                                       @@0510=0147
  390 00511 1150      TAD   C0150             /                                       @@0511=1150
  391 00512 3112      DCA   D0112             /                                       @@0512=3112
  392 00513 1144      TAD   D0144             /                                       @@0513=1144
  393 00514 0147      AND   C0147             /                                       @@0514=0147
  394 00515 1150      TAD   C0150             /                                       @@0515=1150
  395 00516 3113      DCA   D0113             /                                       @@0516=3113
  396 00517 1145      TAD   D0145             /                                       @@0517=1145
  397 00520 0147      AND   C0147             /                                       @@0520=0147
  398 00521 1150      TAD   C0150             /                                       @@0521=1150
  399 00522 3114      DCA   D0114             /                                       @@0522=3114

      AUTOMATIC DISASSEMBLY OF MAINDEC-8E-D0JC-PB.bin BY D8TAPE           Page 8


  400 00523 1146      TAD   D0146             /                                       @@0523=1146
  401 00524 0147      AND   C0147             /                                       @@0524=0147
  402 00525 1150      TAD   C0150             /                                       @@0525=1150
  403 00526 3115      DCA   D0115             /                                       @@0526=3115
  404 00527 1333      TAD   C0533             /                                       @@0527=1333
  405 00530 3552      DCA I C0152             /                                       @@0530=3552
  406 00531 1400      TAD I L0000             /                                       @@0531=1400
  407 00532 5553      JMP I C0153             / long jump to L0330                    @@0532=5553
  408 00533 0534  C0533,  0534                / AND I D0134                           
  409 00534 1143      TAD   D0143             /                                       @@0534=1143
  410 00535 0147      AND   C0147             /                                       @@0535=0147
  411 00536 1150      TAD   C0150             /                                       @@0536=1150
  412 00537 3122      DCA   D0122             /                                       @@0537=3122
  413 00540 1144      TAD   D0144             /                                       @@0540=1144
  414 00541 0147      AND   C0147             /                                       @@0541=0147
  415 00542 1150      TAD   C0150             /                                       @@0542=1150
  416 00543 3123      DCA   D0123             /                                       @@0543=3123
  417 00544 1145      TAD   D0145             /                                       @@0544=1145
  418 00545 0147      AND   C0147             /                                       @@0545=0147
  419 00546 1150      TAD   C0150             /                                       @@0546=1150
  420 00547 3124      DCA   D0124             /                                       @@0547=3124
  421 00550 1146      TAD   D0146             /                                       @@0550=1146
  422 00551 0147      AND   C0147             /                                       @@0551=0147
  423 00552 1150      TAD   C0150             /                                       @@0552=1150
  424 00553 3125      DCA   D0125             /                                       @@0553=3125
  425 00554 1154      TAD   C0154             /                                       @@0554=1154
  426 00555 3127      DCA   D0127             /                                       @@0555=3127
  427             L0556,
  428 00556 1527      TAD I D0127             /                                       @@0556=1527
  429 00557 6046      TLS                     / Load the TTO from the content of AC4  @@0557=6046
  430             L0560,
  431 00560 6041      TSF                     / Skip if teleprinter flag is a 1.      @@0560=6041
  432 00561 5360      JMP   L0560             /                                       @@0561=5360
  433 00562 7201      CLA IAC                 /                                       @@0562=7201
  434 00563 1127      TAD   D0127             /                                       @@0563=1127
  435 00564 3127      DCA   D0127             /                                       @@0564=3127
  436 00565 1527      TAD I D0127             /                                       @@0565=1527
  437 00566 1130      TAD   C0130             /                                       @@0566=1130
  438 00567 7640      SZA CLA                 /                                       @@0567=7640
  439 00570 5356      JMP   L0556             /                                       @@0570=5356
  440 00571 7604      LAS                     /                                       @@0571=7604
  441 00572 7700      SMA CLA                 /                                       @@0572=7700
  442 00573 7402      HLT                     /                                       @@0573=7402
  443 00574 5017      JMP   L0017             /                                       @@0574=5017
  444             
  445       7751  *7751                       / align to RIMLDR location
  446 07751 0200      0200                    / addr of program start
  447 07752 6032      KCC                     / first instr in std RIMLDR
  448 07753 1352      TAD .-1                 / get KCC instr
  449 07754 3356      DCA .+2                 / restore into RIMLDR
  450 07755 5751      JMP I .-4               / start program
  451 07756 5353      JMP .-3                 / overlay first word of RIMLDR
  452             

      No detected errors

      AUTOMATIC DISASSEMBLY OF MAINDEC-8E-D0JC-PB.bin BY D8TAPE           Page 9
                                                                    Symbol Table

    1  C0040  00040   D0103  00103 
    2  C0042  00042   D0104  00104 
    3  C0045  00045   D0105  00105 
    4  C0046  00046   D0112  00112 
    5  C0047  00047   D0113  00113 
    6  C0050  00050   D0114  00114 
    7  C0051  00051   D0115  00115 
    8  C0060  00060   D0122  00122 
    9  C0072  00072   D0123  00123 
   10  C0075  00075   D0124  00124 
   11  C0106  00106   D0125  00125 
   12  C0110  00110   D0127  00127 
   13  C0117  00117   D0131  00131 
   14  C0130  00130   D0132  00132 
   15  C0137  00137   D0133  00133 
   16  C0140  00140   D0134  00134 
   17  C0141  00141   D0135  00135 
   18  C0142  00142   D0136  00136 
   19  C0147  00147   D0143  00143 
   20  C0150  00150   D0144  00144 
   21  C0151  00151   D0145  00145 
   22  C0152  00152   D0146  00146 
   23  C0153  00153   D0200  00200 
   24  C0154  00154   D0327  00327 
   25  C0155  00155   L0000  00000 
   26  C0156  00156   L0001  00001 
   27  C0172  00172   L0017  00017 
   28  C0173  00173   L0204  00204 
   29  C0174  00174   L0220  00220 
   30  C0175  00175   L0225  00225 
   31  C0176  00176   L0241  00241 
   32  C0212  00212   L0244  00244 
   33  C0215  00215   L0246  00246 
   34  C0303  00303   L0261  00261 
   35  C0312  00312   L0275  00275 
   36  C0327  00327   L0300  00300 
   37  C0373  00373   L0302  00302 
   38  C0404  00404   L0315  00315 
   39  C0431  00431   L0330  00330 
   40  C0456  00456   L0356  00356 
   41  C0506  00506   L0363  00363 
   42  C0533  00533   L0400  00400 
   43  D0000  00000   L0556  00556 
   44  D0001  00001   L0560  00560 
   45  D0002  00002   S0157  00157 
   46  D0003  00003 
   47  D0043  00043 
   48  D0044  00044 
   49  D0054  00054 
   50  D0055  00055 
   51  D0056  00056 
   52  D0057  00057 
   53  D0064  00064 
   54  D0065  00065 
   55  D0066  00066 
   56  D0067  00067 
   57  D0102  00102 

      AUTOMATIC DISASSEMBLY OF MAINDEC-8E-D0JC-PB.bin BY D8TAPE          Page 10
                                                                 Cross Reference

    1 A    208  C0040   
    2 A    211  C0042       148    165    207
    3 A    214  C0045       163
    4 A    215  C0046       160
    5 A    216  C0047   
    6 A    217  C0050   
    7 A    218  C0051   
    8 A    225  C0060   
    9 A    235  C0072   
   10 A    238  C0075   
   11 A    247  C0106   
   12 A    249  C0110   
   13 A    256  C0117   
   14 A    265  C0130       437
   15 A    272  C0137        55     87
   16 A    273  C0140        29     60     92
   17 A    274  C0141        65     97
   18 A    275  C0142       119
   19 A    280  C0147       323    327    331    335    344    348    352    356
   20                       365    369    373    377    389    393    397    401
   21                       410    414    418    422
   22 A    281  C0150       324    328    332    336    345    349    353    357
   23                       366    370    374    378    390    394    398    402
   24                       411    415    419    423
   25 A    283  C0151       184    189
   26 A    284  C0152       318    339    360    384    405
   27 A    286  C0153       320    341    362    386    407
   28 A    287  C0154       425
   29 A    288  C0155        33    191    193    198    200
   30 A    289  C0156       121
   31 A    309  C0172       300
   32 A    310  C0173       302
   33 A    311  C0174       304
   34 A    312  C0175       306
   35 A    313  C0176       307
   36 A     39  C0212       168
   37 A     42  C0215       167
   38 A    105  C0303       170
   39 A    112  C0312       169
   40 A    126  C0327   
   41 A    166  C0373       149
   42 A    321  C0404       317
   43 A    342  C0431       338
   44 A    363  C0456       359
   45 A    387  C0506       383
   46 A    408  C0533       404
   47 A    174  D0000   
   48 A    176  D0001   
   49 A    177  D0002       303
   50 A    178  D0003       305
   51 A    212  D0043        44    203    204    205
   52 A    213  D0044        43    143    145    146    164
   53 A    221  D0054       325
   54 A    222  D0055       329
   55 A    223  D0056       333
   56 A    224  D0057       337
   57 A    229  D0064       346

      AUTOMATIC DISASSEMBLY OF MAINDEC-8E-D0JC-PB.bin BY D8TAPE          Page 11
                                                                 Cross Reference

   58 A    230  D0065       350
   59 A    231  D0066       354
   60 A    232  D0067       358
   61 A    243  D0102       367
   62 A    244  D0103       371
   63 A    245  D0104       375
   64 A    246  D0105       379
   65 A    251  D0112       391
   66 A    252  D0113       395
   67 A    253  D0114       399
   68 A    254  D0115       403
   69 A    259  D0122       412
   70 A    260  D0123       416
   71 A    261  D0124       420
   72 A    262  D0125       424
   73 A    264  D0127       150    152    154    155    426    428    434    435
   74                       436
   75 A    266  D0131        31     34     35     37     38    102    104    109
   76                       194    340    361
   77 A    267  D0132       106    185
   78 A    268  D0133        70     72     76    107    122    192    319
   79 A    269  D0134        77    120    124    201
   80 A    270  D0135        74    182
   81 A    271  D0136        52     56     57     69     84     88     89    101
   82 A    276  D0143       141    322    343    364    388    409
   83 A    277  D0144       137    138    326    347    368    392    413
   84 A    278  D0145       133    134    330    351    372    396    417
   85 A    279  D0146       129    130    334    355    376    400    421
   86 A     28  D0200   
   87 A    127  D0327       142
   88 A    173  L0000       123    179    180    187    196    197    199    299
   89                       381    382    385    406
   90 A    175  L0001       301
   91 A    190  L0017       443
   92 A     32  L0204        41
   93 A     45  L0220       111
   94 A     51  L0225        62     67
   95 A     64  L0241        59
   96 A     68  L0244        63
   97 A     71  L0246        50
   98 A     83  L0261        94     99
   99 A     96  L0275        91
  100 A    100  L0300        95
  101 A    103  L0302        82
  102 A    115  L0315       117
  103 A    128  L0330   
  104 A    151  L0356       162
  105 A    157  L0363       159
  106 A    316  L0400   
  107 A    427  L0556       439
  108 A    430  L0560       432
  109 A    297  S0157       308

      AUTOMATIC DISASSEMBLY OF MAINDEC-8E-D0JC-PB.bin BY D8TAPE          Page 12
                                                                      Memory Map

    1 00000/ XXXXXXXX XXXXXXXX XXXXXXXX XXXXXXXX XXXXXXXX XXXXXXXX XXXXXXXX XXXXXXXX
    2 00100/ XXXXXXXX XXXXXXXX XXXXXXXX XXXXXXXX XXXXXXXX XXXXXXXX XXXXXXXX XXXXXXX.
    3
    4 00200/ XXXXXXXX XXXXXXXX XXXXXXXX XXXXXXXX XXXXXXXX XXXXXXXX XXXXXXXX XXXXXXXX
    5 00300/ XXXXXXXX XXXXXXXX XXXXXXXX XXXXXXXX XXXXXXXX XXXXXXXX XXXXXXXX XXXXXXXX
    6
    7 00400/ XXXXXXXX XXXXXXXX XXXXXXXX XXXXXXXX XXXXXXXX XXXXXXXX XXXXXXXX XXXXXXXX
    8 00500/ XXXXXXXX XXXXXXXX XXXXXXXX XXXXXXXX XXXXXXXX XXXXXXXX XXXXXXXX XXXXX...
    9
   10 00600/ ........ ........ ........ ........ ........ ........ ........ ........
   11 00700/ ........ ........ ........ ........ ........ ........ ........ ........
   12
   13 01000/ ........ ........ ........ ........ ........ ........ ........ ........
   14 01100/ ........ ........ ........ ........ ........ ........ ........ ........
   15
   16 01200/ ........ ........ ........ ........ ........ ........ ........ ........
   17 01300/ ........ ........ ........ ........ ........ ........ ........ ........
   18
   19 01400/ ........ ........ ........ ........ ........ ........ ........ ........
   20 01500/ ........ ........ ........ ........ ........ ........ ........ ........
   21
   22 01600/ ........ ........ ........ ........ ........ ........ ........ ........
   23 01700/ ........ ........ ........ ........ ........ ........ ........ ........
   24
   25 02000/ ........ ........ ........ ........ ........ ........ ........ ........
   26 02100/ ........ ........ ........ ........ ........ ........ ........ ........
   27
   28 02200/ ........ ........ ........ ........ ........ ........ ........ ........
   29 02300/ ........ ........ ........ ........ ........ ........ ........ ........
   30
   31 02400/ ........ ........ ........ ........ ........ ........ ........ ........
   32 02500/ ........ ........ ........ ........ ........ ........ ........ ........
   33
   34 02600/ ........ ........ ........ ........ ........ ........ ........ ........
   35 02700/ ........ ........ ........ ........ ........ ........ ........ ........
   36
   37 03000/ ........ ........ ........ ........ ........ ........ ........ ........
   38 03100/ ........ ........ ........ ........ ........ ........ ........ ........
   39
   40 03200/ ........ ........ ........ ........ ........ ........ ........ ........
   41 03300/ ........ ........ ........ ........ ........ ........ ........ ........
   42
   43 03400/ ........ ........ ........ ........ ........ ........ ........ ........
   44 03500/ ........ ........ ........ ........ ........ ........ ........ ........
   45
   46 03600/ ........ ........ ........ ........ ........ ........ ........ ........
   47 03700/ ........ ........ ........ ........ ........ ........ ........ ........
   48

      AUTOMATIC DISASSEMBLY OF MAINDEC-8E-D0JC-PB.bin BY D8TAPE          Page 13
                                                                      Memory Map

   49 04000/ ........ ........ ........ ........ ........ ........ ........ ........
   50 04100/ ........ ........ ........ ........ ........ ........ ........ ........
   51
   52 04200/ ........ ........ ........ ........ ........ ........ ........ ........
   53 04300/ ........ ........ ........ ........ ........ ........ ........ ........
   54
   55 04400/ ........ ........ ........ ........ ........ ........ ........ ........
   56 04500/ ........ ........ ........ ........ ........ ........ ........ ........
   57
   58 04600/ ........ ........ ........ ........ ........ ........ ........ ........
   59 04700/ ........ ........ ........ ........ ........ ........ ........ ........
   60
   61 05000/ ........ ........ ........ ........ ........ ........ ........ ........
   62 05100/ ........ ........ ........ ........ ........ ........ ........ ........
   63
   64 05200/ ........ ........ ........ ........ ........ ........ ........ ........
   65 05300/ ........ ........ ........ ........ ........ ........ ........ ........
   66
   67 05400/ ........ ........ ........ ........ ........ ........ ........ ........
   68 05500/ ........ ........ ........ ........ ........ ........ ........ ........
   69
   70 05600/ ........ ........ ........ ........ ........ ........ ........ ........
   71 05700/ ........ ........ ........ ........ ........ ........ ........ ........
   72
   73 06000/ ........ ........ ........ ........ ........ ........ ........ ........
   74 06100/ ........ ........ ........ ........ ........ ........ ........ ........
   75
   76 06200/ ........ ........ ........ ........ ........ ........ ........ ........
   77 06300/ ........ ........ ........ ........ ........ ........ ........ ........
   78
   79 06400/ ........ ........ ........ ........ ........ ........ ........ ........
   80 06500/ ........ ........ ........ ........ ........ ........ ........ ........
   81
   82 06600/ ........ ........ ........ ........ ........ ........ ........ ........
   83 06700/ ........ ........ ........ ........ ........ ........ ........ ........
   84
   85 07000/ ........ ........ ........ ........ ........ ........ ........ ........
   86 07100/ ........ ........ ........ ........ ........ ........ ........ ........
   87
   88 07200/ ........ ........ ........ ........ ........ ........ ........ ........
   89 07300/ ........ ........ ........ ........ ........ ........ ........ ........
   90
   91 07400/ ........ ........ ........ ........ ........ ........ ........ ........
   92 07500/ ........ ........ ........ ........ ........ ........ ........ ........
   93
   94 07600/ ........ ........ ........ ........ ........ ........ ........ ........
   95 07700/ ........ ........ ........ ........ ........ .XXXXXX. ........ ........
   96
