
      AUTOMATIC DISASSEMBLY OF MAINDEC-8E-D0FC-PB.bin BY D8TAPE           Page 1


    1             TITLE "AUTOMATIC DISASSEMBLY OF MAINDEC-8E-D0FC-PB.bin BY D8TAPE"
    2             ////////////////////////////////////////////////////////////////////////////////
    3             /
    4             /   Automatic Disassembly of MAINDEC-8E-D0FC-PB.bin
    5             /   Generated 2015 10 26 22:25:45
    6             /   Generated by d8tape version 0.347
    7             /   Visit http://www.pdp12.org/pdp8/software/index.html for updates
    8             /
    9             /   Symbol format:
   10             /       AIx   -- Auto-index variables (address range 001x)
   11             /       Caaaa -- Constants (non-unique)
   12             /       Daaaa -- Data (read/write variables)
   13             /       Kvvvv -- Program-wide unique constants
   14             /       Laaaa -- Labels for control flow targets
   15             /       Saaaa -- Subroutines
   16             /
   17             /   Where:
   18             /       aaaa is the definition address
   19             /       vvvv is the value of the constant
   20             /       x    is the last digit of the address 001x for auto-index variables
   21             /
   22             /   0645 locations used, 0506 code and 0137 data
   23             ////////////////////////////////////////////////////////////////////////////////
   24             
   25       0200  *0200
   26             
   27       0000  *0000
   28             L0000,
   29 00000 0000  D0000,  0000                / AND   L0000                           
   30             L0001,
   31 00001 5001  D0001,  5001                / JMP   L0001                           
   32 00002 0002  D0002,  0002                / AND   D0002                           
   33 00003 0003  D0003,  0003                / AND   D0003                           
   34 00004 0000  C0004,  0000                / AND   L0000                           
   35 00005 0000  C0005,  0000                / AND   L0000                           @@0005=0000
   36 00006 0202  C0006,  0202                / AND   D0002                           
   37 00007 0547  C0007,  0547                / AND I C0147                           
   38 00010 0007  AI0,    0007                / AUTO-INDEX REGISTER AND   C0007                           
   39 00011 0000  AI1,    0000                / AUTO-INDEX REGISTER AND   L0000                           
   40 00012 0000  AI2,    0000                / AUTO-INDEX REGISTER AND   L0000                           
   41 00013 7401  AI3,    7401                / AUTO-INDEX REGISTER 7401                                  
   42 00014 3607  AI4,    3607                / AUTO-INDEX REGISTER DCA I C0007                           
   43 00015 0003  AI5,    0003                / AUTO-INDEX REGISTER AND   D0003                           
   44 00016 2421  AI6,    2421                / AUTO-INDEX REGISTER ISZ I D0021       @@0016=2421
   45 00017 5116  AI7,    5116                / AUTO-INDEX REGISTER JMP   L0116                           
   46 00020 5141  C0020,  5141                / JMP   L0141                           
   47 00021 0000  D0021,  0000                / AND   L0000                           
   48 00022 0000  D0022,  0000                / AND   L0000                           
   49 00023 0000  D0023,  0000                / AND   L0000                           
   50 00024 0000  D0024,  0000                / AND   L0000                           
   51 00025 0004  C0025,  0004                / AND   C0004                           
   52 00026 0400  C0026,  0400                / AND I L0000                           
   53 00027 0200  C0027,  0200                / AND   L0000                           
   54 00030 0100  C0030,  0100                / AND   C0100                           
   55 00031 0000  D0031,  0000                / AND   L0000                           
   56 00032 0257  C0032,  0257                / AND   C0057                           
   57 00033 0201  C0033,  0201                / AND   L0001                           

      AUTOMATIC DISASSEMBLY OF MAINDEC-8E-D0FC-PB.bin BY D8TAPE           Page 2


   58 00034 0206  C0034,  0206                / AND   C0006                           @@0034=0206
   59 00035 0413  C0035,  0413                / AND I AI3                             @@0035=0413
   60 00036 1014  C0036,  1014                / TAD   AI4                             
   61 00037 0600  C0037,  0600                / AND I L0000                           
   62             L0040,
   63 00040 4441      JMS I D0041                           
   64 00041 0614  D0041,  0614                / 
   65 00042 0015      AND   AI5               / AUTO INDEX REGISTER                   @@0042=0015
   66 00043 7640      SZA CLA                 /                                       @@0043=7640
   67 00044 5426      JMP I C0026             / long jump to L0400                    @@0044=5426
   68 00045 1036      TAD   C0036             /                                       @@0045=1036
   69 00046 3165      DCA   L0165             /                                       @@0046=3165
   70             L0047,
   71 00047 7604      LAS                     /                                       @@0047=7604
   72 00050 0030      AND   C0030             /                                       @@0050=0030
   73 00051 7440      SZA                     /                                       @@0051=7440
   74 00052 5055      JMP   L0055             /                                       @@0052=5055
   75 00053 4164      JMS   S0164             /                                       @@0053=4164
   76 00054 3022  C0054,  3022                / DCA   D0022                           
   77             L0055,
   78 00055 7604      LAS                     /                                       @@0055=7604
   79 00056 0027      AND   C0027             /                                       @@0056=0027
   80 00057 7640  C0057,  7640                / SZA CLA                               
   81 00060 5065      JMP   L0065             /                                       @@0060=5065
   82 00061 4164      JMS   S0164             /                                       @@0061=4164
   83 00062 3021      DCA   D0021             /                                       @@0062=3021
   84 00063 1021      TAD   D0021             /                                       @@0063=1021
   85 00064 4151      JMS   S0151             /                                       @@0064=4151
   86             L0065,
   87 00065 7604      LAS                     /                                       @@0065=7604
   88 00066 0026      AND   C0026             /                                       @@0066=0026
   89 00067 7640      SZA CLA                 /                                       @@0067=7640
   90 00070 5075      JMP   L0075             /                                       @@0070=5075
   91 00071 4164      JMS   S0164             /                                       @@0071=4164
   92 00072 3002      DCA   D0002             /                                       @@0072=3002
   93 00073 1002      TAD   D0002             /                                       @@0073=1002
   94 00074 4151      JMS   S0151             /                                       @@0074=4151
   95             L0075,
   96 00075 7240      STA                     / AC = 7777 (-0001)                     @@0075=7240
   97 00076 1002      TAD   D0002             /                                       @@0076=1002
   98 00077 3011  C0077,  3011                / DCA   AI1                             
   99 00100 1016  C0100,  1016                / TAD   AI6                             
  100 00101 3411      DCA I AI1               / AUTO INDEX REGISTER                   @@0101=3411
  101 00102 1017      TAD   AI7               / AUTO INDEX REGISTER                   @@0102=1017
  102 00103 3411      DCA I AI1               / AUTO INDEX REGISTER                   @@0103=3411
  103 00104 1020      TAD   C0020             /                                       @@0104=1020
  104 00105 3411      DCA I AI1               / AUTO INDEX REGISTER                   @@0105=3411
  105 00106 1022      TAD   D0022             /                                       @@0106=1022
  106 00107 3421      DCA I D0021             /                                       @@0107=3421
  107 00110 1022      TAD   D0022             /                                       @@0110=1022
  108             L0111,
  109 00111 3023      DCA   D0023             /                                       @@0111=3023
  110 00112 1023      TAD   D0023             /                                       @@0112=1023
  111 00113 7001      IAC                     /                                       @@0113=7001
  112 00114 3024      DCA   D0024             /                                       @@0114=3024
  113 00115 5407      JMP I C0007             / long jump to L0547                    @@0115=5407
  114             L0116,

      AUTOMATIC DISASSEMBLY OF MAINDEC-8E-D0FC-PB.bin BY D8TAPE           Page 3


  115 00116 7604      LAS                     /                                       @@0116=7604
  116 00117 7004      RAL                     /                                       @@0117=7004
  117 00120 7710      SPA CLA                 /                                       @@0120=7710
  118 00121 5132      JMP   L0132             /                                       @@0121=5132
  119 00122 1421      TAD I D0021             /                                       @@0122=1421
  120 00123 7041      CIA                     /                                       @@0123=7041
  121 00124 1024      TAD   D0024             /                                       @@0124=1024
  122 00125 7640      SZA CLA                 /                                       @@0125=7640
  123 00126 5433      JMP I C0033             / long jump to L0201                    @@0126=5433
  124 00127 1421      TAD I D0021             /                                       @@0127=1421
  125 00130 7650      SNA CLA                 /                                       @@0130=7650
  126 00131 5433      JMP I C0033             / long jump to L0201                    @@0131=5433
  127             L0132,
  128 00132 7604      LAS                     /                                       @@0132=7604
  129 00133 0025      AND   C0025             /                                       @@0133=0025
  130 00134 7650      SNA CLA                 /                                       @@0134=7650
  131 00135 5047      JMP   L0047             /                                       @@0135=5047
  132 00136 7001      IAC                     /                                       @@0136=7001
  133 00137 1023      TAD   D0023             /                                       @@0137=1023
  134 00140 5111      JMP   L0111             /                                       @@0140=5111
  135             L0141,
  136 00141 7604      LAS                     /                                       @@0141=7604
  137 00142 7004      RAL                     /                                       @@0142=7004
  138 00143 7710      SPA CLA                 /                                       @@0143=7710
  139 00144 5047      JMP   L0047             /                                       @@0144=5047
  140 00145 1421      TAD I D0021             /                                       @@0145=1421
  141 00146 7640      SZA CLA                 /                                       @@0146=7640
  142 00147 5434  C0147,  5434                / JMP I C0034                           
  143 00150 5047      JMP   L0047             /                                       @@0150=5047
  144             
  145             ////////////////////////////////////////////////////////////////////////////////
  146             /
  147             /   SUBROUTINE:  S0151
  148             /
  149             /   Called from:
  150             /   0064 0074 
  151             /   Total 0002 (2) calls
  152             ////////////////////////////////////////////////////////////////////////////////
  153             S0151,
  154 00151 0000      0                       / return area
  155 00152 7510      SPA                     /                                       @@0152=7510
  156 00153 5160      JMP   L0160             /                                       @@0153=5160
  157 00154 1003      TAD   D0003             /                                       @@0154=1003
  158 00155 7700      SMA CLA                 /                                       @@0155=7700
  159 00156 5551      JMP I S0151             / return                                @@0156=5551
  160 00157 5165      JMP   L0165             /                                       @@0157=5165
  161             L0160,
  162 00160 1006      TAD   C0006             /                                       @@0160=1006
  163 00161 7700      SMA CLA                 /                                       @@0161=7700
  164 00162 5165      JMP   L0165             /                                       @@0162=5165
  165 00163 5551      JMP I S0151             / return                                @@0163=5551
  166             
  167             ////////////////////////////////////////////////////////////////////////////////
  168             /
  169             /   SUBROUTINE:  S0164
  170             /
  171             /   Called from:

      AUTOMATIC DISASSEMBLY OF MAINDEC-8E-D0FC-PB.bin BY D8TAPE           Page 4


  172             /   0053 0061 0071 
  173             /   Total 0003 (3) calls
  174             ////////////////////////////////////////////////////////////////////////////////
  175             S0164,
  176 00164 0000      0                       / return area
  177             L0165,
  178 00165 1014  D0165,  1014                / TAD   AI4                             
  179 00166 7104      CLL RAL                 /                                       @@0166=7104
  180 00167 7430      SZL                     /                                       @@0167=7430
  181 00170 1015      TAD   AI5               / AUTO INDEX REGISTER                   @@0170=1015
  182 00171 3014      DCA   AI4               / AUTO INDEX REGISTER                   @@0171=3014
  183 00172 1014      TAD   AI4               / AUTO INDEX REGISTER                   @@0172=1014
  184 00173 5564      JMP I S0164             / return                                @@0173=5564
  185 00174 1000  C0174,  1000                / TAD   L0000                           
  186 00175 0000  D0175,  0000                / AND   L0000                           
  187             
  188       0200  *0200
  189 00200 5040      JMP   L0040             /                                       @@0200=5040
  190             L0201,
  191 00201 1340      TAD   C0340             /                                       @@0201=1340
  192 00202 3332      DCA   D0332             /                                       @@0202=3332
  193 00203 7040      CMA                     /                                       @@0203=7040
  194 00204 3031      DCA   D0031             /                                       @@0204=3031
  195 00205 5210      JMP   L0210             /                                       @@0205=5210
  196 00206 1331      TAD   C0331             /                                       @@0206=1331
  197 00207 3332      DCA   D0332             /                                       @@0207=3332
  198             L0210,
  199 00210 1002      TAD   D0002             /                                       @@0210=1002
  200 00211 3011      DCA   AI1               / AUTO INDEX REGISTER                   @@0211=3011
  201 00212 1370  C0212,  1370                / TAD   C0370                           
  202 00213 4342      JMS   S0342             /                                       @@0213=4342
  203 00214 1021      TAD   D0021             /                                       @@0214=1021
  204 00215 3011  C0215,  3011                / DCA   AI1                             
  205 00216 1371      TAD   C0371             /                                       @@0216=1371
  206 00217 4342      JMS   S0342             /                                       @@0217=4342
  207 00220 1022      TAD   D0022             /                                       @@0220=1022
  208 00221 3011      DCA   AI1               / AUTO INDEX REGISTER                   @@0221=3011
  209 00222 1372      TAD   C0372             /                                       @@0222=1372
  210 00223 4342      JMS   S0342             /                                       @@0223=4342
  211 00224 1023      TAD   D0023             /                                       @@0224=1023
  212 00225 3011      DCA   AI1               / AUTO INDEX REGISTER                   @@0225=3011
  213 00226 1373      TAD   C0373             /                                       @@0226=1373
  214 00227 4342      JMS   S0342             /                                       @@0227=4342
  215 00230 1421      TAD I D0021             /                                       @@0230=1421
  216 00231 3011      DCA   AI1               / AUTO INDEX REGISTER                   @@0231=3011
  217 00232 1374      TAD   C0374             /                                       @@0232=1374
  218 00233 4342      JMS   S0342             /                                       @@0233=4342
  219 00234 6002      IOF                     / Disable Interrupts                    @@0234=6002
  220 00235 1032      TAD   C0032             /                                       @@0235=1032
  221 00236 3011      DCA   AI1               / AUTO INDEX REGISTER                   @@0236=3011
  222             L0237,
  223 00237 1411      TAD I AI1               / AUTO INDEX REGISTER                   @@0237=1411
  224 00240 6046  C0240,  6046                / TLS                                   
  225             L0241,
  226 00241 6041      TSF                     / Skip if teleprinter flag is a 1.      @@0241=6041
  227 00242 5241      JMP   L0241             /                                       @@0242=5241
  228 00243 1013      TAD   AI3               / AUTO INDEX REGISTER                   @@0243=1013

      AUTOMATIC DISASSEMBLY OF MAINDEC-8E-D0FC-PB.bin BY D8TAPE           Page 5


  229 00244 7640      SZA CLA                 /                                       @@0244=7640
  230 00245 5237      JMP   L0237             /                                       @@0245=5237
  231 00246 6042      TCF                     / Clear teleprinter flag.               @@0246=6042
  232 00247 6001      ION                     / Enable Interrupts                     @@0247=6001
  233 00250 7604      LAS                     /                                       @@0250=7604
  234 00251 7700      SMA CLA                 /                                       @@0251=7700
  235 00252 7402      HLT                     /                                       @@0252=7402
  236 00253 1031      TAD   D0031             /                                       @@0253=1031
  237 00254 7650      SNA CLA                 /                                       @@0254=7650
  238 00255 5047      JMP   L0047             /                                       @@0255=5047
  239 00256 3031      DCA   D0031             /                                       @@0256=3031
  240 00257 5132      JMP   L0132             /                                       @@0257=5132
  241 00260 0306      AND   C0306             /                                       @@0260=0306
  242 00261 0240      AND   C0240             /                                       @@0261=0240
  243 00262 0000      AND   L0000             /                                       @@0262=0000
  244 00263 0000      AND   L0000             /                                       @@0263=0000
  245 00264 0000      AND   L0000             /                                       @@0264=0000
  246 00265 0000      AND   L0000             /                                       @@0265=0000
  247 00266 0240      AND   C0240             /                                       @@0266=0240
  248 00267 0240      AND   C0240             /                                       @@0267=0240
  249 00270 0324      AND   C0324             /                                       @@0270=0324
  250 00271 0240      AND   C0240             /                                       @@0271=0240
  251 00272 0000      AND   L0000             /                                       @@0272=0000
  252 00273 0000      AND   L0000             /                                       @@0273=0000
  253 00274 0000      AND   L0000             /                                       @@0274=0000
  254 00275 0000      AND   L0000             /                                       @@0275=0000
  255 00276 0215      AND   C0215             /                                       @@0276=0215
  256 00277 0212      AND   C0212             /                                       @@0277=0212
  257 00300 0215      AND   C0215             /                                       @@0300=0215
  258 00301 0215      AND   C0215             /                                       @@0301=0215
  259 00302 0317      AND   C0317             /                                       @@0302=0317
  260 00303 0240      AND   C0240             /                                       @@0303=0240
  261 00304 0000      AND   L0000             /                                       @@0304=0000
  262 00305 0000      AND   L0000             /                                       @@0305=0000
  263 00306 0000  C0306,  0000                / AND   L0000                           
  264 00307 0000      AND   L0000             /                                       @@0307=0000
  265 00310 0240      AND   C0240             /                                       @@0310=0240
  266 00311 0240      AND   C0240             /                                       @@0311=0240
  267 00312 0306      AND   C0306             /                                       @@0312=0306
  268 00313 0240      AND   C0240             /                                       @@0313=0240
  269 00314 0000      AND   L0000             /                                       @@0314=0000
  270 00315 0000      AND   L0000             /                                       @@0315=0000
  271 00316 0000      AND   L0000             /                                       @@0316=0000
  272 00317 0000  C0317,  0000                / AND   L0000                           
  273 00320 0240      AND   C0240             /                                       @@0320=0240
  274 00321 0240      AND   C0240             /                                       @@0321=0240
  275 00322 0322  C0322,  0322                / AND   C0322                           
  276 00323 0240  C0323,  0240                / AND   C0240                           
  277 00324 0000  C0324,  0000                / AND   L0000                           
  278 00325 0000      AND   L0000             /                                       @@0325=0000
  279 00326 0000      AND   L0000             /                                       @@0326=0000
  280 00327 0000      AND   L0000             /                                       @@0327=0000
  281 00330 0240      AND   C0240             /                                       @@0330=0240
  282 00331 0240  C0331,  0240                / AND   C0240                           
  283 00332 0316  D0332,  0316                / AND   C0316                           
  284 00333 0323      AND   C0323             /                                       @@0333=0323
  285 00334 0215      AND   C0215             /                                       @@0334=0215

      AUTOMATIC DISASSEMBLY OF MAINDEC-8E-D0FC-PB.bin BY D8TAPE           Page 6


  286 00335 0212      AND   C0212             /                                       @@0335=0212
  287 00336 0212      AND   C0212             /                                       @@0336=0212
  288 00337 0377  C0337,  0377                / AND   C0377                           
  289 00340 0316  C0340,  0316                / AND   C0316                           
  290 00341 0323      AND   C0323             /                                       @@0341=0323
  291             
  292             ////////////////////////////////////////////////////////////////////////////////
  293             /
  294             /   SUBROUTINE:  S0342
  295             /
  296             /   Called from:
  297             /   0213 0217 0223 0227 0233 
  298             /   Total 0005 (5) calls
  299             ////////////////////////////////////////////////////////////////////////////////
  300             S0342,
  301 00342 0000      0                       / return area
  302 00343 3012      DCA   AI2               / AUTO INDEX REGISTER                   @@0343=3012
  303 00344 1011      TAD   AI1               / AUTO INDEX REGISTER                   @@0344=1011
  304 00345 7006      RTL                     /                                       @@0345=7006
  305 00346 7006      RTL                     /                                       @@0346=7006
  306 00347 4362      JMS   S0362             /                                       @@0347=4362
  307 00350 7012      RTR                     /                                       @@0350=7012
  308 00351 7012      RTR                     /                                       @@0351=7012
  309 00352 7012      RTR                     /                                       @@0352=7012
  310 00353 4362      JMS   S0362             /                                       @@0353=4362
  311 00354 7012      RTR                     /                                       @@0354=7012
  312 00355 7010      RAR                     /                                       @@0355=7010
  313 00356 4362      JMS   S0362             /                                       @@0356=4362
  314 00357 4362      JMS   S0362             /                                       @@0357=4362
  315 00360 7200      CLA                     /                                       @@0360=7200
  316 00361 5742      JMP I S0342             / return                                @@0361=5742
  317             
  318             ////////////////////////////////////////////////////////////////////////////////
  319             /
  320             /   SUBROUTINE:  S0362
  321             /
  322             /   Called from:
  323             /   0347 0353 0356 0357 
  324             /   Total 0004 (4) calls
  325             ////////////////////////////////////////////////////////////////////////////////
  326             S0362,
  327 00362 0000      0                       / return area
  328 00363 0010      AND   AI0               / AUTO INDEX REGISTER                   @@0363=0010
  329 00364 1375      TAD   C0375             /                                       @@0364=1375
  330 00365 3412      DCA I AI2               / AUTO INDEX REGISTER                   @@0365=3412
  331 00366 1011      TAD   AI1               / AUTO INDEX REGISTER                   @@0366=1011
  332 00367 5762      JMP I S0362             / return                                @@0367=5762
  333 00370 0261  C0370,  0261                / AND   C0261                           
  334 00371 0271  C0371,  0271                / AND   C0271                           
  335 00372 0303  C0372,  0303                / AND   C0303                           
  336 00373 0313  C0373,  0313                / AND   C0313                           
  337 00374 0323  C0374,  0323                / AND   C0323                           
  338 00375 0260  C0375,  0260                / AND   C0260                           
  339             
  340       0400  *0400
  341             L0400,
  342 00400 1003      TAD   D0003             /                                       @@0400=1003

      AUTOMATIC DISASSEMBLY OF MAINDEC-8E-D0FC-PB.bin BY D8TAPE           Page 7


  343 00401 7041      CIA                     /                                       @@0401=7041
  344 00402 3310      DCA   D0510             /                                       @@0402=3310
  345 00403 1003      TAD   D0003             /                                       @@0403=1003
  346 00404 7040      CMA                     /                                       @@0404=7040
  347 00405 3311      DCA   D0511             /                                       @@0405=3311
  348 00406 1346      TAD   C0546             /                                       @@0406=1346
  349 00407 3313      DCA   D0513             /                                       @@0407=3313
  350 00410 1314      TAD   C0514             /                                       @@0410=1314
  351 00411 3165      DCA   L0165             /                                       @@0411=3165
  352 00412 5047  C0412,  5047                / JMP   L0047                           
  353 00413 1164      TAD   S0164             /                                       @@0413=1164
  354 00414 7041      CIA                     /                                       @@0414=7041
  355 00415 1305  C0415,  1305                / TAD   C0505                           
  356 00416 7650      SNA CLA                 /                                       @@0416=7650
  357 00417 5303      JMP   L0503             /                                       @@0417=5303
  358 00420 1164      TAD   S0164             /                                       @@0420=1164
  359 00421 7041      CIA                     /                                       @@0421=7041
  360 00422 1306      TAD   C0506             /                                       @@0422=1306
  361 00423 7650      SNA CLA                 /                                       @@0423=7650
  362 00424 5301      JMP   L0501             /                                       @@0424=5301
  363 00425 5226      JMP   L0426             /                                       @@0425=5226
  364             L0426,
  365 00426 1713      TAD I D0513             /                                       @@0426=1713
  366 00427 3312      DCA   D0512             /                                       @@0427=3312
  367 00430 1312      TAD   D0512             /                                       @@0430=1312
  368 00431 7450      SNA                     /                                       @@0431=7450
  369 00432 5240      JMP   L0440             /                                       @@0432=5240
  370 00433 7201      CLA IAC                 /                                       @@0433=7201
  371 00434 1313      TAD   D0513             /                                       @@0434=1313
  372 00435 3313      DCA   D0513             /                                       @@0435=3313
  373 00436 1312      TAD   D0512             /                                       @@0436=1312
  374 00437 5564      JMP I S0164             / long jump to L0000                    @@0437=5564
  375             L0440,
  376 00440 1345      TAD   C0545             /                                       @@0440=1345
  377 00441 3313      DCA   D0513             /                                       @@0441=3313
  378 00442 7001      IAC                     /                                       @@0442=7001
  379 00443 1311      TAD   D0511             /                                       @@0443=1311
  380 00444 3311      DCA   D0511             /                                       @@0444=3311
  381 00445 1311      TAD   D0511             /                                       @@0445=1311
  382 00446 7041      CIA                     /                                       @@0446=7041
  383 00447 1310      TAD   D0510             /                                       @@0447=1310
  384 00450 7640      SZA CLA                 /                                       @@0450=7640
  385 00451 5255      JMP   L0455             /                                       @@0451=5255
  386 00452 1311      TAD   D0511             /                                       @@0452=1311
  387 00453 1015      TAD   AI5               / AUTO INDEX REGISTER                   @@0453=1015
  388 00454 3311      DCA   D0511             /                                       @@0454=3311
  389             L0455,
  390 00455 1311      TAD   D0511             /                                       @@0455=1311
  391 00456 7500      SMA                     /                                       @@0456=7500
  392 00457 5276      JMP   L0476             /                                       @@0457=5276
  393 00460 1006      TAD   C0006             /                                       @@0460=1006
  394 00461 7710      SPA CLA                 /                                       @@0461=7710
  395 00462 5276      JMP   L0476             /                                       @@0462=5276
  396 00463 7201      CLA IAC                 /                                       @@0463=7201
  397 00464 1310      TAD   D0510             /                                       @@0464=1310
  398 00465 3310      DCA   D0510             /                                       @@0465=3310
  399 00466 1003      TAD   D0003             /                                       @@0466=1003

      AUTOMATIC DISASSEMBLY OF MAINDEC-8E-D0FC-PB.bin BY D8TAPE           Page 8


  400 00467 7041      CIA                     /                                       @@0467=7041
  401 00470 3311      DCA   D0511             /                                       @@0470=3311
  402 00471 1310      TAD   D0510             /                                       @@0471=1310
  403 00472 1006      TAD   C0006             /                                       @@0472=1006
  404 00473 7710      SPA CLA                 /                                       @@0473=7710
  405 00474 5276      JMP   L0476             /                                       @@0474=5276
  406 00475 5200      JMP   L0400             /                                       @@0475=5200
  407             L0476,
  408 00476 7200      CLA                     /                                       @@0476=7200
  409 00477 1312      TAD   D0512             /                                       @@0477=1312
  410 00500 5564      JMP I S0164             / long jump to L0000                    @@0500=5564
  411             L0501,
  412 00501 1311      TAD   D0511             /                                       @@0501=1311
  413 00502 5564      JMP I S0164             / long jump to L0000                    @@0502=5564
  414             L0503,
  415 00503 1310  C0503,  1310                / TAD   D0510                           
  416 00504 5564      JMP I S0164             / long jump to L0000                    @@0504=5564
  417 00505 0072  C0505,  0072                / AND   C0072                           
  418 00506 0062  C0506,  0062                / AND   C0062                           
  419 00507 0054      AND   C0054             /                                       @@0507=0054
  420 00510 0000  D0510,  0000                / AND   L0000                           
  421 00511 0000  D0511,  0000                / AND   L0000                           
  422 00512 0000  D0512,  0000                / AND   L0000                           
  423 00513 0000  D0513,  0000                / AND   L0000                           
  424 00514 5435  C0514,  5435                / JMP I C0035                           
  425 00515 7776      SPA SNA SZL CLA OSR HLT /                                       @@0515=7776
  426 00516 7775  C0516,  7775                / CLA MQA SCA MQL ASR +                 
  427 00517 7773  C0517,  7773                / CLA MQA SCA MQL SHL +                 
  428 00520 7767  C0520,  7767                / CLA MQA SCA MQL DVI +                 
  429 00521 7757  C0521,  7757                / CLA MQA SCA LSR +                     
  430 00522 7737  C0522,  7737                / CLA MQA MQL LSR +                     
  431 00523 7677  C0523,  7677                / CLA SCA MQL LSR +                     
  432 00524 7577  C0524,  7577                / MQA SCA MQL LSR +                     
  433 00525 7377  C0525,  7377                / CLA CLL CMA CML IAC RTR RTL           
  434 00526 6777  C0526,  6777                / 6777                                  
  435 00527 5777  C0527,  5777                / JMP I C0577                           
  436 00530 3777  C0530,  3777                / DCA I C0577                           
  437 00531 0001      AND   L0001             /                                       @@0531=0001
  438 00532 0003      AND   D0003             /                                       @@0532=0003
  439 00533 0007      AND   C0007             /                                       @@0533=0007
  440 00534 0017      AND   AI7               / AUTO INDEX REGISTER                   @@0534=0017
  441 00535 0037      AND   C0037             /                                       @@0535=0037
  442 00536 0077      AND   C0077             /                                       @@0536=0077
  443 00537 0177  C0537,  0177                / AND   C0177                           
  444 00540 0377  C0540,  0377                / AND   C0577                           
  445 00541 0777  C0541,  0777                / AND I C0577                           
  446 00542 1777  C0542,  1777                / TAD I C0577                           
  447 00543 3777  C0543,  3777                / DCA I C0577                           
  448 00544 0000      AND   L0000             /                                       @@0544=0000
  449 00545 0515  C0545,  0515                / AND I C0115                           
  450 00546 0544  C0546,  0544                / AND I C0144                           
  451             L0547,
  452 00547 1375      TAD   D0575             /                                       @@0547=1375
  453 00550 7001      IAC                     /                                       @@0550=7001
  454 00551 3375      DCA   D0575             /                                       @@0551=3375
  455 00552 1375      TAD   D0575             /                                       @@0552=1375
  456 00553 7640      SZA CLA                 /                                       @@0553=7640

      AUTOMATIC DISASSEMBLY OF MAINDEC-8E-D0FC-PB.bin BY D8TAPE           Page 9


  457 00554 5437      JMP I C0037             / long jump to L0600                    @@0554=5437
  458 00555 1175      TAD   D0175             /                                       @@0555=1175
  459 00556 1174      TAD   C0174             /                                       @@0556=1174
  460 00557 3175      DCA   D0175             /                                       @@0557=3175
  461 00560 1175      TAD   D0175             /                                       @@0560=1175
  462 00561 7640      SZA CLA                 /                                       @@0561=7640
  463 00562 5437      JMP I C0037             / long jump to L0600                    @@0562=5437
  464 00563 6002      IOF                     / Disable Interrupts                    @@0563=6002
  465 00564 1376      TAD   C0576             /                                       @@0564=1376
  466 00565 3011      DCA   AI1               / AUTO INDEX REGISTER                   @@0565=3011
  467 00566 5767      JMP I C0567             / long jump to L7602                    @@0566=5767
  468             C0567,
  469 00567 7602  C0567,  7602                / CLA HLT                               
  470 00570 0215      AND   C0415             /                                       @@0570=0215
  471 00571 0212      AND   C0412             /                                       @@0571=0212
  472 00572 0306      AND   C0506             /                                       @@0572=0306
  473 00573 0303      AND   L0503             /                                       @@0573=0303
  474 00574 0377  C0574,  0377                / AND   C0577                           
  475 00575 0000  D0575,  0000                / AND   L0000                           
  476 00576 0567  C0576,  0567                / AND I C0167                           
  477             
  478       0600  *0600
  479             L0600,
  480 00600 1021      TAD   D0021             /                                       @@0600=1021
  481 00601 7041      CIA                     /                                       @@0601=7041
  482 00602 1002      TAD   D0002             /                                       @@0602=1002
  483 00603 7450      SNA                     /                                       @@0603=7450
  484 00604 5055      JMP   L0055             /                                       @@0604=5055
  485 00605 7001      IAC                     /                                       @@0605=7001
  486 00606 7450      SNA                     /                                       @@0606=7450
  487 00607 5055      JMP   L0055             /                                       @@0607=5055
  488 00610 7001      IAC                     /                                       @@0610=7001
  489 00611 7650      SNA CLA                 /                                       @@0611=7650
  490 00612 5055      JMP   L0055             /                                       @@0612=5055
  491 00613 5402      JMP I D0002             / long jump to L0002                    @@0613=5402
  492             C0614,
  493 00614 0000  C0614,  0000                / AND   L0000                           
  494 00615 3000      DCA   L0000             /                                       @@0615=3000
  495 00616 1232      TAD   C0632             /                                       @@0616=1232
  496 00617 3001      DCA   L0001             /                                       @@0617=3001
  497 00620 1233      TAD   C0633             /                                       @@0620=1233
  498 00621 3002      DCA   D0002             /                                       @@0621=3002
  499 00622 1234      TAD   C0634             /                                       @@0622=1234
  500 00623 3003      DCA   D0003             /                                       @@0623=3003
  501 00624 1235      TAD   C0635             /                                       @@0624=1235
  502 00625 3040      DCA   L0040             /                                       @@0625=3040
  503 00626 1236      TAD   C0636             /                                       @@0626=1236
  504 00627 3041      DCA   D0041             /                                       @@0627=3041
  505 00630 6001      ION                     / Enable Interrupts                     @@0630=6001
  506 00631 5614      JMP I C0614             / long jump to L0000                    @@0631=5614
  507 00632 7402  C0632,  7402                / HLT                                   
  508 00633 0000  C0633,  0000                / AND   L0000                           
  509 00634 7157  C0634,  7157                / CLL CMA IAC RTR RTL                   
  510 00635 6001  C0635,  6001                / ION                                   
  511 00636 7604  C0636,  7604                / LAS                                   
  512             
  513       7602  *7602

      AUTOMATIC DISASSEMBLY OF MAINDEC-8E-D0FC-PB.bin BY D8TAPE          Page 10


  514             L7602,
  515 07602 1411      TAD I AI1               / AUTO INDEX REGISTER                   @@7602=1411
  516 07603 6046      TLS                     / Load the TTO from the content of AC4  @@7603=6046
  517             L7604,
  518 07604 6041      TSF                     / Skip if teleprinter flag is a 1.      @@7604=6041
  519 07605 5204      JMP   L7604             /                                       @@7605=5204
  520 07606 1013      TAD   AI3               / AUTO INDEX REGISTER                   @@7606=1013
  521 07607 7640      SZA CLA                 /                                       @@7607=7640
  522 07610 5202      JMP   L7602             /                                       @@7610=5202
  523 07611 5217      JMP   L7617             /                                       @@7611=5217
  524             
  525       7617  *7617
  526             L7617,
  527 07617 6042      TCF                     / Clear teleprinter flag.               @@7617=6042
  528 07620 6001      ION                     / Enable Interrupts                     @@7620=6001
  529 07621 5437      JMP I C0037             / long jump to L0600                    @@7621=5437
  530             
  531       7751  *7751                       / align to RIMLDR location
  532 07751 0200      0200                    / addr of program start
  533 07752 6032      KCC                     / first instr in std RIMLDR
  534 07753 1352      TAD .-1                 / get KCC instr
  535 07754 3356      DCA .+2                 / restore into RIMLDR
  536 07755 5751      JMP I .-4               / start program
  537 07756 5353      JMP .-3                 / overlay first word of RIMLDR
  538             

      No detected errors

      AUTOMATIC DISASSEMBLY OF MAINDEC-8E-D0FC-PB.bin BY D8TAPE          Page 11
                                                                    Symbol Table

    1  AI0    00010   C0523  00523   L0400  00400 
    2  AI1    00011   C0524  00524   L0426  00426 
    3  AI2    00012   C0525  00525   L0440  00440 
    4  AI3    00013   C0526  00526   L0455  00455 
    5  AI4    00014   C0527  00527   L0476  00476 
    6  AI5    00015   C0530  00530   L0501  00501 
    7  AI6    00016   C0537  00537   L0503  00503 
    8  AI7    00017   C0540  00540   L0547  00547 
    9  C0004  00004   C0541  00541   L0600  00600 
   10  C0005  00005   C0542  00542   L7602  07602 
   11  C0006  00006   C0543  00543   L7604  07604 
   12  C0007  00007   C0545  00545   L7617  07617 
   13  C0020  00020   C0546  00546   S0151  00151 
   14  C0025  00025   C0567  00567   S0164  00164 
   15  C0026  00026   C0574  00574   S0342  00342 
   16  C0027  00027   C0576  00576   S0362  00362 
   17  C0030  00030   C0614  00614 
   18  C0032  00032   C0632  00632 
   19  C0033  00033   C0633  00633 
   20  C0034  00034   C0634  00634 
   21  C0035  00035   C0635  00635 
   22  C0036  00036   C0636  00636 
   23  C0037  00037   D0000  00000 
   24  C0054  00054   D0001  00001 
   25  C0057  00057   D0002  00002 
   26  C0077  00077   D0003  00003 
   27  C0100  00100   D0021  00021 
   28  C0147  00147   D0022  00022 
   29  C0174  00174   D0023  00023 
   30  C0212  00212   D0024  00024 
   31  C0215  00215   D0031  00031 
   32  C0240  00240   D0041  00041 
   33  C0306  00306   D0165  00165 
   34  C0317  00317   D0175  00175 
   35  C0322  00322   D0332  00332 
   36  C0323  00323   D0510  00510 
   37  C0324  00324   D0511  00511 
   38  C0331  00331   D0512  00512 
   39  C0337  00337   D0513  00513 
   40  C0340  00340   D0575  00575 
   41  C0370  00370   L0000  00000 
   42  C0371  00371   L0001  00001 
   43  C0372  00372   L0040  00040 
   44  C0373  00373   L0047  00047 
   45  C0374  00374   L0055  00055 
   46  C0375  00375   L0065  00065 
   47  C0412  00412   L0075  00075 
   48  C0415  00415   L0111  00111 
   49  C0503  00503   L0116  00116 
   50  C0505  00505   L0132  00132 
   51  C0506  00506   L0141  00141 
   52  C0514  00514   L0160  00160 
   53  C0516  00516   L0165  00165 
   54  C0517  00517   L0201  00201 
   55  C0520  00520   L0210  00210 
   56  C0521  00521   L0237  00237 
   57  C0522  00522   L0241  00241 

      AUTOMATIC DISASSEMBLY OF MAINDEC-8E-D0FC-PB.bin BY D8TAPE          Page 12
                                                                 Cross Reference

    1 A     38  AI0         328
    2 A     39  AI1         100    102    104    200    208    212    216    221
    3                       223    303    331    466    515
    4 A     40  AI2         302    330
    5 A     41  AI3         228    520
    6 A     42  AI4         182    183
    7 A     43  AI5          65    181    387
    8 A     44  AI6     
    9 A     45  AI7         101    440
   10 A     34  C0004   
   11 A     35  C0005   
   12 A     36  C0006       162    393    403
   13 A     37  C0007       113    439
   14 A     46  C0020       103
   15 A     51  C0025       129
   16 A     52  C0026        67     88
   17 A     53  C0027        79
   18 A     54  C0030        72
   19 A     56  C0032       220
   20 A     57  C0033       123    126
   21 A     58  C0034   
   22 A     59  C0035   
   23 A     60  C0036        68
   24 A     61  C0037       441    457    463    529
   25 A     76  C0054       419
   26 A     80  C0057   
   27 A     98  C0077       442
   28 A     99  C0100   
   29 A    142  C0147   
   30 A    185  C0174       459
   31 A    201  C0212       256    286    287
   32 A    204  C0215       255    257    258    285
   33 A    224  C0240       242    247    248    250    260    265    266    268
   34                       273    274    281
   35 A    263  C0306       241    267
   36 A    272  C0317       259
   37 A    275  C0322   
   38 A    276  C0323       284    290
   39 A    277  C0324       249
   40 A    282  C0331       196
   41 A    288  C0337   
   42 A    289  C0340       191
   43 A    333  C0370   
   44 A    334  C0371       205
   45 A    335  C0372       209
   46 A    336  C0373       213
   47 A    337  C0374       217
   48 A    338  C0375       329
   49 A    352  C0412       471
   50 A    355  C0415       470
   51 A    415  C0503   
   52 A    417  C0505   
   53 A    418  C0506       360    472
   54 A    424  C0514       350
   55 A    426  C0516   
   56 A    427  C0517   
   57 A    428  C0520   

      AUTOMATIC DISASSEMBLY OF MAINDEC-8E-D0FC-PB.bin BY D8TAPE          Page 13
                                                                 Cross Reference

   58 A    429  C0521   
   59 A    430  C0522   
   60 A    431  C0523   
   61 A    432  C0524   
   62 A    433  C0525   
   63 A    434  C0526   
   64 A    435  C0527   
   65 A    436  C0530   
   66 A    443  C0537   
   67 A    444  C0540   
   68 A    445  C0541   
   69 A    446  C0542   
   70 A    447  C0543   
   71 A    449  C0545       376
   72 A    450  C0546       348
   73 A    469  C0567       467
   74 A    474  C0574   
   75 A    476  C0576       465
   76 A    493  C0614       506
   77 A    507  C0632       495
   78 A    508  C0633       497
   79 A    509  C0634       499
   80 A    510  C0635       501
   81 A    511  C0636       503
   82 A     29  D0000   
   83 A     31  D0001   
   84 A     32  D0002        92     93     97    199    482    491    498
   85 A     33  D0003       157    342    345    399    438    500
   86 A     47  D0021        83     84    106    119    124    140    203    215
   87                       480
   88 A     48  D0022       105    107    207
   89 A     49  D0023       109    110    133    211
   90 A     50  D0024       112    121
   91 A     55  D0031       194    236    239
   92 A     64  D0041        63    504
   93 A    178  D0165   
   94 A    186  D0175       458    460    461
   95 A    283  D0332       192    197
   96 A    420  D0510       344    383    397    398    402
   97 A    421  D0511       347    379    380    381    386    388    390    401
   98                       412
   99 A    422  D0512       366    367    373    409
  100 A    423  D0513       349    365    371    372    377
  101 A    475  D0575       452    454    455
  102 A     28  L0000       243    244    245    246    251    252    253    254
  103                       261    262    264    269    270    271    278    279
  104                       280    448    494
  105 A     30  L0001       437    496
  106 A     62  L0040       189    502
  107 A     70  L0047       131    139    143    238
  108 A     77  L0055        74    484    487    490
  109 A     86  L0065        81
  110 A     95  L0075        90
  111 A    108  L0111       134
  112 A    114  L0116   
  113 A    127  L0132       118    240
  114 A    135  L0141   

      AUTOMATIC DISASSEMBLY OF MAINDEC-8E-D0FC-PB.bin BY D8TAPE          Page 14
                                                                 Cross Reference

  115 A    161  L0160       156
  116 A    177  L0165        69    160    164    351
  117 A    190  L0201   
  118 A    198  L0210       195
  119 A    222  L0237       230
  120 A    225  L0241       227
  121 A    341  L0400       406
  122 A    364  L0426       363
  123 A    375  L0440       369
  124 A    389  L0455       385
  125 A    407  L0476       392    395    405
  126 A    411  L0501       362
  127 A    414  L0503       357    473
  128 A    451  L0547   
  129 A    479  L0600   
  130 A    514  L7602       522
  131 A    517  L7604       519
  132 A    526  L7617       523
  133 A    153  S0151        85     94    159    165
  134 A    175  S0164        75     82     91    184    353    358    374    410
  135                       413    416
  136 A    300  S0342       202    206    210    214    218    316
  137 A    326  S0362       306    310    313    314    332

      AUTOMATIC DISASSEMBLY OF MAINDEC-8E-D0FC-PB.bin BY D8TAPE          Page 15
                                                                      Memory Map

    1 00000/ XXXXXXXX XXXXXXXX XXXXXXXX XXXXXXXX XXXXXXXX XXXXXXXX XXXXXXXX XXXXXXXX
    2 00100/ XXXXXXXX XXXXXXXX XXXXXXXX XXXXXXXX XXXXXXXX XXXXXXXX XXXXXXXX XXXXXX..
    3
    4 00200/ XXXXXXXX XXXXXXXX XXXXXXXX XXXXXXXX XXXXXXXX XXXXXXXX XXXXXXXX XXXXXXXX
    5 00300/ XXXXXXXX XXXXXXXX XXXXXXXX XXXXXXXX XXXXXXXX XXXXXXXX XXXXXXXX XXXXXX..
    6
    7 00400/ XXXXXXXX XXXXXXXX XXXXXXXX XXXXXXXX XXXXXXXX XXXXXXXX XXXXXXXX XXXXXXXX
    8 00500/ XXXXXXXX XXXXXXXX XXXXXXXX XXXXXXXX XXXXXXXX XXXXXXXX XXXXXXXX XXXXXXX.
    9
   10 00600/ XXXXXXXX XXXXXXXX XXXXXXXX XXXXXXX. ........ ........ ........ ........
   11 00700/ ........ ........ ........ ........ ........ ........ ........ ........
   12
   13 01000/ ........ ........ ........ ........ ........ ........ ........ ........
   14 01100/ ........ ........ ........ ........ ........ ........ ........ ........
   15
   16 01200/ ........ ........ ........ ........ ........ ........ ........ ........
   17 01300/ ........ ........ ........ ........ ........ ........ ........ ........
   18
   19 01400/ ........ ........ ........ ........ ........ ........ ........ ........
   20 01500/ ........ ........ ........ ........ ........ ........ ........ ........
   21
   22 01600/ ........ ........ ........ ........ ........ ........ ........ ........
   23 01700/ ........ ........ ........ ........ ........ ........ ........ ........
   24
   25 02000/ ........ ........ ........ ........ ........ ........ ........ ........
   26 02100/ ........ ........ ........ ........ ........ ........ ........ ........
   27
   28 02200/ ........ ........ ........ ........ ........ ........ ........ ........
   29 02300/ ........ ........ ........ ........ ........ ........ ........ ........
   30
   31 02400/ ........ ........ ........ ........ ........ ........ ........ ........
   32 02500/ ........ ........ ........ ........ ........ ........ ........ ........
   33
   34 02600/ ........ ........ ........ ........ ........ ........ ........ ........
   35 02700/ ........ ........ ........ ........ ........ ........ ........ ........
   36
   37 03000/ ........ ........ ........ ........ ........ ........ ........ ........
   38 03100/ ........ ........ ........ ........ ........ ........ ........ ........
   39
   40 03200/ ........ ........ ........ ........ ........ ........ ........ ........
   41 03300/ ........ ........ ........ ........ ........ ........ ........ ........
   42
   43 03400/ ........ ........ ........ ........ ........ ........ ........ ........
   44 03500/ ........ ........ ........ ........ ........ ........ ........ ........
   45
   46 03600/ ........ ........ ........ ........ ........ ........ ........ ........
   47 03700/ ........ ........ ........ ........ ........ ........ ........ ........
   48

      AUTOMATIC DISASSEMBLY OF MAINDEC-8E-D0FC-PB.bin BY D8TAPE          Page 16
                                                                      Memory Map

   49 04000/ ........ ........ ........ ........ ........ ........ ........ ........
   50 04100/ ........ ........ ........ ........ ........ ........ ........ ........
   51
   52 04200/ ........ ........ ........ ........ ........ ........ ........ ........
   53 04300/ ........ ........ ........ ........ ........ ........ ........ ........
   54
   55 04400/ ........ ........ ........ ........ ........ ........ ........ ........
   56 04500/ ........ ........ ........ ........ ........ ........ ........ ........
   57
   58 04600/ ........ ........ ........ ........ ........ ........ ........ ........
   59 04700/ ........ ........ ........ ........ ........ ........ ........ ........
   60
   61 05000/ ........ ........ ........ ........ ........ ........ ........ ........
   62 05100/ ........ ........ ........ ........ ........ ........ ........ ........
   63
   64 05200/ ........ ........ ........ ........ ........ ........ ........ ........
   65 05300/ ........ ........ ........ ........ ........ ........ ........ ........
   66
   67 05400/ ........ ........ ........ ........ ........ ........ ........ ........
   68 05500/ ........ ........ ........ ........ ........ ........ ........ ........
   69
   70 05600/ ........ ........ ........ ........ ........ ........ ........ ........
   71 05700/ ........ ........ ........ ........ ........ ........ ........ ........
   72
   73 06000/ ........ ........ ........ ........ ........ ........ ........ ........
   74 06100/ ........ ........ ........ ........ ........ ........ ........ ........
   75
   76 06200/ ........ ........ ........ ........ ........ ........ ........ ........
   77 06300/ ........ ........ ........ ........ ........ ........ ........ ........
   78
   79 06400/ ........ ........ ........ ........ ........ ........ ........ ........
   80 06500/ ........ ........ ........ ........ ........ ........ ........ ........
   81
   82 06600/ ........ ........ ........ ........ ........ ........ ........ ........
   83 06700/ ........ ........ ........ ........ ........ ........ ........ ........
   84
   85 07000/ ........ ........ ........ ........ ........ ........ ........ ........
   86 07100/ ........ ........ ........ ........ ........ ........ ........ ........
   87
   88 07200/ ........ ........ ........ ........ ........ ........ ........ ........
   89 07300/ ........ ........ ........ ........ ........ ........ ........ ........
   90
   91 07400/ ........ ........ ........ ........ ........ ........ ........ ........
   92 07500/ ........ ........ ........ ........ ........ ........ ........ ........
   93
   94 07600/ ..XXXXXX XX.....X XX...... ........ ........ ........ ........ ........
   95 07700/ ........ ........ ........ ........ ........ .XXXXXX. ........ ........
   96
