
      AUTOMATIC DISASSEMBLY OF MAINDEC-8E-D0EB-PB.bin BY D8TAPE           Page 1


    1             TITLE "AUTOMATIC DISASSEMBLY OF MAINDEC-8E-D0EB-PB.bin BY D8TAPE"
    2             ////////////////////////////////////////////////////////////////////////////////
    3             /
    4             /   Automatic Disassembly of MAINDEC-8E-D0EB-PB.bin
    5             /   Generated 2015 10 26 22:25:44
    6             /   Generated by d8tape version 0.347
    7             /   Visit http://www.pdp12.org/pdp8/software/index.html for updates
    8             /
    9             /   Symbol format:
   10             /       AIx   -- Auto-index variables (address range 001x)
   11             /       Caaaa -- Constants (non-unique)
   12             /       Daaaa -- Data (read/write variables)
   13             /       Kvvvv -- Program-wide unique constants
   14             /       Laaaa -- Labels for control flow targets
   15             /       Saaaa -- Subroutines
   16             /
   17             /   Where:
   18             /       aaaa is the definition address
   19             /       vvvv is the value of the constant
   20             /       x    is the last digit of the address 001x for auto-index variables
   21             /
   22             /   0714 locations used, 0570 code and 0124 data
   23             ////////////////////////////////////////////////////////////////////////////////
   24             
   25       0200  *0200
   26             
   27       0000  *0000
   28             L0000,
   29 00000 0000  D0000,  0000                / AND   L0000                           
   30             L0001,
   31 00001 5001  D0001,  5001                / JMP   L0001                           
   32 00002 0002  D0002,  0002                / AND   D0002                           
   33 00003 0003  D0003,  0003                / AND   D0003                           
   34 00004 0000  D0004,  0000                / AND   L0000                           
   35 00005 0000      AND   L0000             /                                       @@0005=0000
   36             
   37       0200  *0200
   38 00200 6007  C0200,  6007                / 6007                                  
   39 00201 5602      JMP I C0202             / long jump to L6600                    @@0201=5602
   40             C0202,
   41 00202 6600  C0202,  6600                / 6600                                  
   42             
   43       6600  *6600
   44             L6600,
   45 06600 7300      CLA CLL                 / AC = 0000                             @@6600=7300
   46 06601 3376      DCA   D6776             /                                       @@6601=3376
   47             L6602,
   48 06602 7604      LAS                     /                                       @@6602=7604
   49 06603 0371      AND   C6771             /                                       @@6603=0371
   50 06604 7640      SZA CLA                 /                                       @@6604=7640
   51 06605 5224      JMP   L6624             /                                       @@6605=5224
   52 06606 4746      JMS I C6746             / long call to S7000                    @@6606=4746
   53 06607 3355      DCA   D6755             /                                       @@6607=3355
   54 06610 7040      CMA                     /                                       @@6610=7040
   55 06611 0001      AND   L0001             /                                       @@6611=0001
   56 06612 3353      DCA   D6753             /                                       @@6612=3353
   57 06613 7040      CMA                     /                                       @@6613=7040

      AUTOMATIC DISASSEMBLY OF MAINDEC-8E-D0EB-PB.bin BY D8TAPE           Page 2


   58 06614 0002      AND   D0002             /                                       @@6614=0002
   59 06615 3354      DCA   D6754             /                                       @@6615=3354
   60 06616 7040      CMA                     /                                       @@6616=7040
   61 06617 0003      AND   D0003             /                                       @@6617=0003
   62 06620 3356      DCA   D6756             /                                       @@6620=3356
   63 06621 7040      CMA                     /                                       @@6621=7040
   64 06622 0004      AND   D0004             /                                       @@6622=0004
   65 06623 3357      DCA   D6757             /                                       @@6623=3357
   66             L6624,
   67 06624 7604      LAS                     /                                       @@6624=7604
   68 06625 0372      AND   C6772             /                                       @@6625=0372
   69 06626 7640      SZA CLA                 /                                       @@6626=7640
   70 06627 5234      JMP   L6634             /                                       @@6627=5234
   71 06630 7040      CMA                     /                                       @@6630=7040
   72 06631 0360      AND   D6760             /                                       @@6631=0360
   73 06632 4752      JMS I C6752             / long call to S7430                    @@6632=4752
   74 06633 3360      DCA   D6760             /                                       @@6633=3360
   75             L6634,
   76 06634 7604      LAS                     /                                       @@6634=7604
   77 06635 0373      AND   C6773             /                                       @@6635=0373
   78 06636 7640      SZA CLA                 /                                       @@6636=7640
   79 06637 5244      JMP   L6644             /                                       @@6637=5244
   80 06640 7040      CMA                     /                                       @@6640=7040
   81 06641 0361      AND   D6761             /                                       @@6641=0361
   82 06642 4752      JMS I C6752             / long call to S7430                    @@6642=4752
   83 06643 3361      DCA   D6761             /                                       @@6643=3361
   84             L6644,
   85 06644 7340      CLA CLL CMA             / AC = 7777 (-0001)                     @@6644=7340
   86 06645 0353      AND   D6753             /                                       @@6645=0353
   87 06646 3754      DCA I D6754             /                                       @@6646=3754
   88 06647 7040      CMA                     /                                       @@6647=7040
   89 06650 0355      AND   D6755             /                                       @@6650=0355
   90 06651 7650      SNA CLA                 /                                       @@6651=7650
   91 06652 5302      JMP   L6702             /                                       @@6652=5302
   92 06653 7040      CMA                     /                                       @@6653=7040
   93 06654 0356      AND   D6756             /                                       @@6654=0356
   94 06655 0367      AND   C6767             /                                       @@6655=0367
   95 06656 7640      SZA CLA                 /                                       @@6656=7640
   96 06657 5276      JMP   L6676             /                                       @@6657=5276
   97 06660 7040      CMA                     /                                       @@6660=7040
   98 06661 0356      AND   D6756             /                                       @@6661=0356
   99 06662 0375      AND   C6775             /                                       @@6662=0375
  100 06663 7650      SNA CLA                 /                                       @@6663=7650
  101 06664 5276      JMP   L6676             /                                       @@6664=5276
  102 06665 7040      CMA                     /                                       @@6665=7040
  103 06666 0357      AND   D6757             /                                       @@6666=0357
  104 06667 7041      CIA                     /                                       @@6667=7041
  105 06670 7040      CMA                     /                                       @@6670=7040
  106 06671 3756      DCA I D6756             /                                       @@6671=3756
  107             L6672,
  108 06672 7040      CMA                     /                                       @@6672=7040
  109 06673 0360      AND   D6760             /                                       @@6673=0360
  110 06674 3757      DCA I D6757             /                                       @@6674=3757
  111 06675 5305      JMP   L6705             /                                       @@6675=5305
  112             L6676,
  113 06676 7040      CMA                     /                                       @@6676=7040
  114 06677 0357      AND   D6757             /                                       @@6677=0357

      AUTOMATIC DISASSEMBLY OF MAINDEC-8E-D0EB-PB.bin BY D8TAPE           Page 3


  115 06700 3756      DCA I D6756             /                                       @@6700=3756
  116 06701 5272      JMP   L6672             /                                       @@6701=5272
  117             L6702,
  118 06702 7040      CMA                     /                                       @@6702=7040
  119 06703 0360      AND   D6760             /                                       @@6703=0360
  120 06704 3756      DCA I D6756             /                                       @@6704=3756
  121             L6705,
  122 06705 7340      CLA CLL CMA             / AC = 7777 (-0001)                     @@6705=7340
  123 06706 0360      AND   D6760             /                                       @@6706=0360
  124 06707 7421      MQL                     /                                       @@6707=7421
  125 06710 7040      CMA                     /                                       @@6710=7040
  126 06711 0361      AND   D6761             /                                       @@6711=0361
  127 06712 4751      JMS I C6751             / long call to S7200                    @@6712=4751
  128 06713 3363      DCA   D6763             /                                       @@6713=3363
  129 06714 7010      RAR                     /                                       @@6714=7010
  130 06715 3362      DCA   D6762             /                                       @@6715=3362
  131 06716 7040      CMA                     /                                       @@6716=7040
  132 06717 0347      AND   C6747             /                                       @@6717=0347
  133 06720 3000      DCA   L0000             /                                       @@6720=3000
  134 06721 7040      CMA                     /                                       @@6721=7040
  135 06722 0354      AND   D6754             /                                       @@6722=0354
  136 06723 7001      IAC                     /                                       @@6723=7001
  137 06724 7450      SNA                     /                                       @@6724=7450
  138 06725 5202      JMP   L6602             /                                       @@6725=5202
  139 06726 3345      DCA   D6745             /                                       @@6726=3345
  140 06727 7040      CMA                     /                                       @@6727=7040
  141 06730 0366      AND   C6766             /                                       @@6730=0366
  142 06731 3745      DCA I D6745             /                                       @@6731=3745
  143 06732 7140      CLL CMA                 /                                       @@6732=7140
  144 06733 0361      AND   D6761             /                                       @@6733=0361
  145 06734 5754      JMP I D6754             / long jump to L0000                    @@6734=5754
  146 06735 3364      DCA   D6764             /                                       @@6735=3364
  147 06736 7010      RAR                     /                                       @@6736=7010
  148 06737 3365      DCA   D6765             /                                       @@6737=3365
  149 06740 4774      JMS I C6774             / long call to S7313                    @@6740=4774
  150 06741 2376      ISZ   D6776             /                                       @@6741=2376
  151 06742 5202      JMP   L6602             /                                       @@6742=5202
  152 06743 4750      JMS I C6750             / long call to S7442                    @@6743=4750
  153 06744 5202      JMP   L6602             /                                       @@6744=5202
  154 06745 0000  D6745,  0000                / AND   L0000                           
  155             C6746,
  156 06746 7000  C6746,  7000                / NOP                                   
  157 06747 6735  C6747,  6735                / 6735                                  
  158             C6750,
  159 06750 7442  C6750,  7442                / SZA HLT                               
  160             C6751,
  161 06751 7200  C6751,  7200                / CLA                                   
  162             C6752,
  163 06752 7430  C6752,  7430                / SZL                                   
  164 06753 0000  D6753,  0000                / AND   L0000                           
  165 06754 0000  D6754,  0000                / AND   L0000                           
  166 06755 0000  D6755,  0000                / AND   L0000                           
  167 06756 0000  D6756,  0000                / AND   L0000                           
  168 06757 0000  D6757,  0000                / AND   L0000                           
  169 06760 0021  D6760,  0021                / AND   C0021                           
  170 06761 0037  D6761,  0037                / AND   C0037                           
  171 06762 0000  D6762,  0000                / AND   L0000                           

      AUTOMATIC DISASSEMBLY OF MAINDEC-8E-D0EB-PB.bin BY D8TAPE           Page 4


  172 06763 0000  D6763,  0000                / AND   L0000                           
  173 06764 0000  D6764,  0000                / AND   L0000                           
  174 06765 0000  D6765,  0000                / AND   L0000                           
  175 06766 5400  C6766,  5400                / JMP I L0000                           
  176 06767 7760  C6767,  7760                / SMA SZA SNL CLA                       
  177 06770 7770      SPA SNA SZL CLA         /                                       @@6770=7770
  178 06771 0001  C6771,  0001                / AND   L0001                           
  179 06772 0002  C6772,  0002                / AND   D0002                           
  180 06773 0004  C6773,  0004                / AND   D0004                           
  181             C6774,
  182 06774 7313  C6774,  7313                / CLA CLL IAC RTR                       
  183 06775 0010  C6775,  0010                / AND   AI0                             
  184 06776 0000  D6776,  0000                / AND   L0000                           
  185             
  186       7000  *7000
  187             
  188             ////////////////////////////////////////////////////////////////////////////////
  189             /
  190             /   SUBROUTINE:  S7000
  191             /
  192             /   Called from:
  193             /   6606 
  194             /   Total 0001 (1) calls
  195             ////////////////////////////////////////////////////////////////////////////////
  196             S7000,
  197 07000 0000      0                       / return area
  198             L7001,
  199 07001 7040  C7001,  7040                / CMA                                   
  200 07002 0350      AND   D7150             /                                       @@7002=0350
  201 07003 4762      JMS I C7162             / long call to S7430                    @@7003=4762
  202 07004 3350      DCA   D7150             /                                       @@7004=3350
  203 07005 7040      CMA                     /                                       @@7005=7040
  204 07006 0350      AND   D7150             /                                       @@7006=0350
  205 07007 7421      MQL                     /                                       @@7007=7421
  206 07010 7040      CMA                     /                                       @@7010=7040
  207 07011 0365      AND   C7165             /                                       @@7011=0365
  208 07012 7501      MQA                     /                                       @@7012=7501
  209 07013 0352      AND   C7152             /                                       @@7013=0352
  210 07014 3001      DCA   L0001             /                                       @@7014=3001
  211 07015 7040      CMA                     /                                       @@7015=7040
  212 07016 0001      AND   L0001             /                                       @@7016=0001
  213 07017 0355      AND   C7155             /                                       @@7017=0355
  214 07020 3361      DCA   D7161             /                                       @@7020=3361
  215             L7021,
  216 07021 7040      CMA                     /                                       @@7021=7040
  217 07022 0353      AND   D7153             /                                       @@7022=0353
  218 07023 4762      JMS I C7162             / long call to S7430                    @@7023=4762
  219 07024 3353      DCA   D7153             /                                       @@7024=3353
  220 07025 7040      CMA                     /                                       @@7025=7040
  221 07026 0353      AND   D7153             /                                       @@7026=0353
  222 07027 4777      JMS I C7177             / long call to S7303                    @@7027=4777
  223 07030 5221      JMP   L7021             /                                       @@7030=5221
  224 07031 7040      CMA                     /                                       @@7031=7040
  225 07032 0353      AND   D7153             /                                       @@7032=0353
  226 07033 0354      AND   C7154             /                                       @@7033=0354
  227 07034 7640      SZA CLA                 /                                       @@7034=7640
  228 07035 5244      JMP   L7044             /                                       @@7035=5244

      AUTOMATIC DISASSEMBLY OF MAINDEC-8E-D0EB-PB.bin BY D8TAPE           Page 5


  229 07036 7040      CMA                     /                                       @@7036=7040
  230 07037 0353      AND   D7153             /                                       @@7037=0353
  231             L7040,
  232 07040 4776      JMS I C7176             / long call to S7474                    @@7040=4776
  233 07041 7700      SMA CLA                 /                                       @@7041=7700
  234 07042 5221      JMP   L7021             /                                       @@7042=5221
  235 07043 5255      JMP   L7055             /                                       @@7043=5255
  236             L7044,
  237 07044 7040      CMA                     /                                       @@7044=7040
  238 07045 0001      AND   L0001             /                                       @@7045=0001
  239 07046 0357      AND   C7157             /                                       @@7046=0357
  240 07047 7650      SNA CLA                 /                                       @@7047=7650
  241 07050 5255      JMP   L7055             /                                       @@7050=5255
  242 07051 7040      CMA                     /                                       @@7051=7040
  243 07052 0353      AND   D7153             /                                       @@7052=0353
  244 07053 0355      AND   C7155             /                                       @@7053=0355
  245 07054 5240      JMP   L7040             /                                       @@7054=5240
  246             L7055,
  247 07055 7040      CMA                     /                                       @@7055=7040
  248 07056 0361      AND   D7161             /                                       @@7056=0361
  249 07057 7650      SNA CLA                 /                                       @@7057=7650
  250 07060 5201      JMP   L7001             /                                       @@7060=5201
  251 07061 7040      CMA                     /                                       @@7061=7040
  252 07062 0353      AND   D7153             /                                       @@7062=0353
  253 07063 3002      DCA   D0002             /                                       @@7063=3002
  254 07064 7040      CMA                     /                                       @@7064=7040
  255 07065 0001      AND   L0001             /                                       @@7065=0001
  256 07066 0357      AND   C7157             /                                       @@7066=0357
  257 07067 7650      SNA CLA                 /                                       @@7067=7650
  258 07070 5307      JMP   L7107             /                                       @@7070=5307
  259 07071 7040      CMA                     /                                       @@7071=7040
  260 07072 0002      AND   D0002             /                                       @@7072=0002
  261 07073 0354      AND   C7154             /                                       @@7073=0354
  262 07074 7421      MQL                     /                                       @@7074=7421
  263 07075 7040      CMA                     /                                       @@7075=7040
  264 07076 0361      AND   D7161             /                                       @@7076=0361
  265 07077 7501      MQA                     /                                       @@7077=7501
  266 07100 3003      DCA   D0003             /                                       @@7100=3003
  267             L7101,
  268 07101 7040      CMA                     /                                       @@7101=7040
  269 07102 0001      AND   L0001             /                                       @@7102=0001
  270 07103 0356      AND   C7156             /                                       @@7103=0356
  271 07104 7640      SZA CLA                 /                                       @@7104=7640
  272 07105 5313      JMP   L7113             /                                       @@7105=5313
  273 07106 5600      JMP I S7000             / return                                @@7106=5600
  274             L7107,
  275 07107 7040      CMA                     /                                       @@7107=7040
  276 07110 0361      AND   D7161             /                                       @@7110=0361
  277 07111 3003      DCA   D0003             /                                       @@7111=3003
  278 07112 5301      JMP   L7101             /                                       @@7112=5301
  279             L7113,
  280 07113 7040      CMA                     /                                       @@7113=7040
  281 07114 0360      AND   D7160             /                                       @@7114=0360
  282 07115 4762      JMS I C7162             / long call to S7430                    @@7115=4762
  283 07116 3360      DCA   D7160             /                                       @@7116=3360
  284 07117 7040      CMA                     /                                       @@7117=7040
  285 07120 0360      AND   D7160             /                                       @@7120=0360

      AUTOMATIC DISASSEMBLY OF MAINDEC-8E-D0EB-PB.bin BY D8TAPE           Page 6


  286 07121 4777      JMS I C7177             / long call to S7303                    @@7121=4777
  287 07122 5313      JMP   L7113             /                                       @@7122=5313
  288 07123 7040      CMA                     /                                       @@7123=7040
  289 07124 0002      AND   D0002             /                                       @@7124=0002
  290 07125 4775      JMS I C7175             / long call to S7507                    @@7125=4775
  291 07126 7700      SMA CLA                 /                                       @@7126=7700
  292 07127 5313      JMP   L7113             /                                       @@7127=5313
  293 07130 7040      CMA                     /                                       @@7130=7040
  294 07131 0003      AND   D0003             /                                       @@7131=0003
  295 07132 4775      JMS I C7175             / long call to S7507                    @@7132=4775
  296 07133 7700      SMA CLA                 /                                       @@7133=7700
  297 07134 5313      JMP   L7113             /                                       @@7134=5313
  298 07135 7040      CMA                     /                                       @@7135=7040
  299 07136 0360      AND   D7160             /                                       @@7136=0360
  300 07137 7041      CIA                     /                                       @@7137=7041
  301 07140 7040      CMA                     /                                       @@7140=7040
  302 07141 7650      SNA CLA                 /                                       @@7141=7650
  303 07142 5313      JMP   L7113             /                                       @@7142=5313
  304 07143 7040      CMA                     /                                       @@7143=7040
  305 07144 0360      AND   D7160             /                                       @@7144=0360
  306 07145 3004      DCA   D0004             /                                       @@7145=3004
  307 07146 7040      CMA                     /                                       @@7146=7040
  308 07147 5600      JMP I S7000             / return                                @@7147=5600
  309 07150 0001  D7150,  0001                / AND   L0001                           
  310 07151 0003      AND   D0003             /                                       @@7151=0003
  311 07152 1777  C7152,  1777                / TAD I C7177                           
  312 07153 0005  D7153,  0005                / AND   C0005                           
  313 07154 7600  C7154,  7600                / 7600                                  
  314 07155 0177  C7155,  0177                / AND   C0177                           
  315 07156 0400  C7156,  0400                / AND I L0000                           
  316 07157 0200  C7157,  0200                / AND   S7000                           
  317 07160 0015  D7160,  0015                / AND   AI5                             
  318 07161 0000  D7161,  0000                / AND   L0000                           
  319             C7162,
  320 07162 7430  C7162,  7430                / SZL                                   
  321 07163 7200      CLA                     /                                       @@7163=7200
  322 07164 1201  C7164,  1201                / TAD   L7001                           
  323 07165 1000  C7165,  1000                / TAD   L0000                           
  324             
  325       7175  *7175
  326             C7175,
  327 07175 7507  C7175,  7507                / MQA DVI +                             
  328             C7176,
  329 07176 7474  C7176,  7474                / SNA SZL OSR                           
  330             C7177,
  331 07177 7303  C7177,  7303                / CLA CLL IAC BSW                       
  332             
  333       7200  *7200
  334             
  335             ////////////////////////////////////////////////////////////////////////////////
  336             /
  337             /   SUBROUTINE:  S7200
  338             /
  339             /   Called from:
  340             /   6712 7307 7437 7501 7514 
  341             /   Total 0005 (5) calls
  342             ////////////////////////////////////////////////////////////////////////////////

      AUTOMATIC DISASSEMBLY OF MAINDEC-8E-D0EB-PB.bin BY D8TAPE           Page 7


  343             S7200,
  344 07200 0000      0                       / return area
  345 07201 3344      DCA   D7344             /                                       @@7201=3344
  346 07202 7501      MQA                     /                                       @@7202=7501
  347 07203 3343      DCA   D7343             /                                       @@7203=3343
  348 07204 7340      CLA CLL CMA             / AC = 7777 (-0001)                     @@7204=7340
  349 07205 0343      AND   D7343             /                                       @@7205=0343
  350 07206 7421      MQL                     /                                       @@7206=7421
  351 07207 7040      CMA                     /                                       @@7207=7040
  352 07210 0344      AND   D7344             /                                       @@7210=0344
  353 07211 7501      MQA                     /                                       @@7211=7501
  354 07212 3345      DCA   D7345             /                                       @@7212=3345
  355 07213 7501      MQA                     /                                       @@7213=7501
  356 07214 7040      CMA                     /                                       @@7214=7040
  357 07215 0344      AND   D7344             /                                       @@7215=0344
  358 07216 7421      MQL                     /                                       @@7216=7421
  359 07217 7040      CMA                     /                                       @@7217=7040
  360 07220 0344      AND   D7344             /                                       @@7220=0344
  361 07221 7040      CMA                     /                                       @@7221=7040
  362 07222 0343      AND   D7343             /                                       @@7222=0343
  363 07223 7501      MQA                     /                                       @@7223=7501
  364 07224 3346      DCA   D7346             /                                       @@7224=3346
  365 07225 3347      DCA   D7347             /                                       @@7225=3347
  366 07226 7040      CMA                     /                                       @@7226=7040
  367 07227 0343      AND   D7343             /                                       @@7227=0343
  368 07230 0344      AND   D7344             /                                       @@7230=0344
  369 07231 7450      SNA                     /                                       @@7231=7450
  370 07232 5274      JMP   L7274             /                                       @@7232=5274
  371 07233 7421      MQL                     /                                       @@7233=7421
  372             L7234,
  373 07234 7521      MQA MQL                 /                                       @@7234=7521
  374 07235 0345      AND   D7345             /                                       @@7235=0345
  375 07236 7450      SNA                     /                                       @@7236=7450
  376 07237 5244      JMP   L7244             /                                       @@7237=5244
  377 07240 7104      CLL RAL                 /                                       @@7240=7104
  378 07241 7521      MQA MQL                 /                                       @@7241=7521
  379 07242 7501      MQA                     /                                       @@7242=7501
  380 07243 5234      JMP   L7234             /                                       @@7243=5234
  381             L7244,
  382 07244 7501      MQA                     /                                       @@7244=7501
  383 07245 0345      AND   D7345             /                                       @@7245=0345
  384 07246 0350      AND   C7350             /                                       @@7246=0350
  385 07247 7450      SNA                     /                                       @@7247=7450
  386 07250 5253      JMP   L7253             /                                       @@7250=5253
  387 07251 3347      DCA   D7347             /                                       @@7251=3347
  388 07252 5260      JMP   L7260             /                                       @@7252=5260
  389             L7253,
  390 07253 7130      CLL CML RAR             /                                       @@7253=7130
  391 07254 0343      AND   D7343             /                                       @@7254=0343
  392 07255 0344      AND   D7344             /                                       @@7255=0344
  393 07256 7440      SZA                     /                                       @@7256=7440
  394 07257 3347      DCA   D7347             /                                       @@7257=3347
  395             L7260,
  396 07260 7501      MQA                     /                                       @@7260=7501
  397 07261 3351      DCA   D7351             /                                       @@7261=3351
  398 07262 7501      MQA                     /                                       @@7262=7501
  399 07263 7040      CMA                     /                                       @@7263=7040

      AUTOMATIC DISASSEMBLY OF MAINDEC-8E-D0EB-PB.bin BY D8TAPE           Page 8


  400 07264 0346      AND   D7346             /                                       @@7264=0346
  401 07265 7421      MQL                     /                                       @@7265=7421
  402 07266 7040      CMA                     /                                       @@7266=7040
  403 07267 0346      AND   D7346             /                                       @@7267=0346
  404 07270 7040      CMA                     /                                       @@7270=7040
  405 07271 0351      AND   D7351             /                                       @@7271=0351
  406 07272 7501      MQA                     /                                       @@7272=7501
  407 07273 3346      DCA   D7346             /                                       @@7273=3346
  408             L7274,
  409 07274 7340      CLA CLL CMA             / AC = 7777 (-0001)                     @@7274=7340
  410 07275 0347      AND   D7347             /                                       @@7275=0347
  411 07276 7640      SZA CLA                 /                                       @@7276=7640
  412 07277 7020      CML                     /                                       @@7277=7020
  413 07300 7040      CMA                     /                                       @@7300=7040
  414 07301 0346      AND   D7346             /                                       @@7301=0346
  415 07302 5600      JMP I S7200             / return                                @@7302=5600
  416             
  417             ////////////////////////////////////////////////////////////////////////////////
  418             /
  419             /   SUBROUTINE:  S7303
  420             /
  421             /   Called from:
  422             /   7027 7121 
  423             /   Total 0002 (2) calls
  424             ////////////////////////////////////////////////////////////////////////////////
  425             S7303,
  426 07303 0000      0                       / return area
  427 07304 7421      MQL                     /                                       @@7304=7421
  428 07305 7040      CMA                     /                                       @@7305=7040
  429 07306 0777      AND I C7377             /                                       @@7306=0777
  430 07307 4200      JMS   S7200             /                                       @@7307=4200
  431 07310 7620      SNL CLA                 /                                       @@7310=7620
  432 07311 2303      ISZ   S7303             /                                       @@7311=2303
  433 07312 5703      JMP I S7303             / return                                @@7312=5703
  434             
  435             ////////////////////////////////////////////////////////////////////////////////
  436             /
  437             /   SUBROUTINE:  S7313
  438             /
  439             /   Called from:
  440             /   6740 
  441             /   Total 0001 (1) calls
  442             ////////////////////////////////////////////////////////////////////////////////
  443             S7313,
  444 07313 0000      0                       / return area
  445 07314 7340      CLA CLL CMA             / AC = 7777 (-0001)                     @@7314=7340
  446 07315 0776      AND I C7376             /                                       @@7315=0776
  447 07316 7640      SZA CLA                 /                                       @@7316=7640
  448 07317 7020      CML                     /                                       @@7317=7020
  449 07320 7040      CMA                     /                                       @@7320=7040
  450 07321 0775      AND I C7375             /                                       @@7321=0775
  451 07322 7640      SZA CLA                 /                                       @@7322=7640
  452 07323 7020      CML                     /                                       @@7323=7020
  453 07324 7430      SZL                     /                                       @@7324=7430
  454 07325 5341      JMP   L7341             /                                       @@7325=5341
  455 07326 7340      CLA CLL CMA             / AC = 7777 (-0001)                     @@7326=7340
  456 07327 0774      AND I C7374             /                                       @@7327=0774

      AUTOMATIC DISASSEMBLY OF MAINDEC-8E-D0EB-PB.bin BY D8TAPE           Page 9


  457 07330 7040      CMA                     /                                       @@7330=7040
  458 07331 0773      AND I C7373             /                                       @@7331=0773
  459 07332 7440      SZA                     /                                       @@7332=7440
  460 07333 5341      JMP   L7341             /                                       @@7333=5341
  461 07334 7040      CMA                     /                                       @@7334=7040
  462 07335 0773      AND I C7373             /                                       @@7335=0773
  463 07336 7040      CMA                     /                                       @@7336=7040
  464 07337 0774      AND I C7374             /                                       @@7337=0774
  465 07340 7640      SZA CLA                 /                                       @@7340=7640
  466             L7341,
  467 07341 4752      JMS I C7352             / long call to S7400                    @@7341=4752
  468 07342 5713      JMP I S7313             / return                                @@7342=5713
  469 07343 0000  D7343,  0000                / AND   L0000                           
  470 07344 0000  D7344,  0000                / AND   L0000                           
  471 07345 0000  D7345,  0000                / AND   L0000                           
  472 07346 0000  D7346,  0000                / AND   L0000                           
  473 07347 0000  D7347,  0000                / AND   L0000                           
  474 07350 4000  C7350,  4000                / JMS   L0000                           
  475 07351 0000  D7351,  0000                / AND   L0000                           
  476             C7352,
  477 07352 7400  C7352,  7400                / 7400                                  
  478             
  479       7373  *7373
  480 07373 6763  C7373,  6763                / 6763                                  
  481 07374 6764  C7374,  6764                / DTXA                                  
  482 07375 6765  C7375,  6765                / 6765                                  
  483 07376 6762  C7376,  6762                / DCTA                                  
  484 07377 7164  C7377,  7164                / CLL CMA CML RAL                       
  485             
  486       7400  *7400
  487             
  488             ////////////////////////////////////////////////////////////////////////////////
  489             /
  490             /   SUBROUTINE:  S7400
  491             /
  492             /   Called from:
  493             /   7341 
  494             /   Total 0001 (1) calls
  495             ////////////////////////////////////////////////////////////////////////////////
  496             S7400,
  497 07400 0000      0                       / return area
  498 07401 7604      LAS                     /                                       @@7401=7604
  499 07402 0267      AND   C7467             /                                       @@7402=0267
  500 07403 7640      SZA CLA                 /                                       @@7403=7640
  501 07404 5600      JMP I S7400             / return                                @@7404=5600
  502 07405 7240      STA                     / AC = 7777 (-0001)                     @@7405=7240
  503 07406 0777      AND I C7577             /                                       @@7406=0777
  504 07407 7402      HLT                     /                                       @@7407=7402
  505 07410 7240      STA                     / AC = 7777 (-0001)                     @@7410=7240
  506 07411 0776      AND I C7576             /                                       @@7411=0776
  507 07412 7402      HLT                     /                                       @@7412=7402
  508 07413 7240      STA                     / AC = 7777 (-0001)                     @@7413=7240
  509 07414 0775      AND I C7575             /                                       @@7414=0775
  510 07415 7402      HLT                     /                                       @@7415=7402
  511 07416 7240      STA                     / AC = 7777 (-0001)                     @@7416=7240
  512 07417 0774      AND I C7574             /                                       @@7417=0774
  513 07420 7402      HLT                     /                                       @@7420=7402

      AUTOMATIC DISASSEMBLY OF MAINDEC-8E-D0EB-PB.bin BY D8TAPE          Page 10


  514 07421 7240      STA                     / AC = 7777 (-0001)                     @@7421=7240
  515 07422 0773      AND I C7573             /                                       @@7422=0773
  516 07423 7402      HLT                     /                                       @@7423=7402
  517 07424 7240      STA                     / AC = 7777 (-0001)                     @@7424=7240
  518 07425 0772      AND I C7572             /                                       @@7425=0772
  519 07426 7402      HLT                     /                                       @@7426=7402
  520 07427 5600      JMP I S7400             / return                                @@7427=5600
  521             
  522             ////////////////////////////////////////////////////////////////////////////////
  523             /
  524             /   SUBROUTINE:  S7430
  525             /
  526             /   Called from:
  527             /   6632 6642 7003 7023 7115 
  528             /   Total 0005 (5) calls
  529             ////////////////////////////////////////////////////////////////////////////////
  530             S7430,
  531 07430 0000      0                       / return area
  532 07431 7104      CLL RAL                 /                                       @@7431=7104
  533 07432 7420      SNL                     /                                       @@7432=7420
  534 07433 5240      JMP   L7440             /                                       @@7433=5240
  535 07434 7421      MQL                     /                                       @@7434=7421
  536 07435 7040      CMA                     /                                       @@7435=7040
  537 07436 0241      AND   C7441             /                                       @@7436=0241
  538 07437 4771      JMS I C7571             / long call to S7200                    @@7437=4771
  539             L7440,
  540 07440 5630      JMP I S7430             / return                                @@7440=5630
  541 07441 0003  C7441,  0003                / AND   D0003                           
  542             
  543             ////////////////////////////////////////////////////////////////////////////////
  544             /
  545             /   SUBROUTINE:  S7442
  546             /
  547             /   Called from:
  548             /   6743 
  549             /   Total 0001 (1) calls
  550             ////////////////////////////////////////////////////////////////////////////////
  551             S7442,
  552 07442 0000      0                       / return area
  553 07443 7604      LAS                     /                                       @@7443=7604
  554 07444 0270      AND   C7470             /                                       @@7444=0270
  555 07445 7640      SZA CLA                 /                                       @@7445=7640
  556 07446 5642      JMP I S7442             / return                                @@7446=5642
  557 07447 7040      CMA                     /                                       @@7447=7040
  558 07450 0271      AND   C7471             /                                       @@7450=0271
  559 07451 4261      JMS   S7461             /                                       @@7451=4261
  560 07452 7040      CMA                     /                                       @@7452=7040
  561 07453 0272      AND   C7472             /                                       @@7453=0272
  562 07454 4261      JMS   S7461             /                                       @@7454=4261
  563 07455 7040      CMA                     /                                       @@7455=7040
  564 07456 0273      AND   C7473             /                                       @@7456=0273
  565 07457 4261      JMS   S7461             /                                       @@7457=4261
  566 07460 5642      JMP I S7442             / return                                @@7460=5642
  567             
  568             ////////////////////////////////////////////////////////////////////////////////
  569             /
  570             /   SUBROUTINE:  S7461

      AUTOMATIC DISASSEMBLY OF MAINDEC-8E-D0EB-PB.bin BY D8TAPE          Page 11


  571             /
  572             /   Called from:
  573             /   7451 7454 7457 
  574             /   Total 0003 (3) calls
  575             ////////////////////////////////////////////////////////////////////////////////
  576             S7461,
  577 07461 0000      0                       / return area
  578 07462 6046      TLS                     / Load the TTO from the content of AC4  @@7462=6046
  579             L7463,
  580 07463 6041      TSF                     / Skip if teleprinter flag is a 1.      @@7463=6041
  581 07464 5263      JMP   L7463             /                                       @@7464=5263
  582 07465 7200      CLA                     /                                       @@7465=7200
  583 07466 5661      JMP I S7461             / return                                @@7466=5661
  584 07467 4000  C7467,  4000                / JMS   L0000                           
  585 07470 0400  C7470,  0400                / AND I L0000                           
  586 07471 0215  C7471,  0215                / AND   C7415                           
  587 07472 0212  C7472,  0212                / AND   C7412                           
  588 07473 0324  C7473,  0324                / AND   C7524                           
  589             
  590             ////////////////////////////////////////////////////////////////////////////////
  591             /
  592             /   SUBROUTINE:  S7474
  593             /
  594             /   Called from:
  595             /   7040 
  596             /   Total 0001 (1) calls
  597             ////////////////////////////////////////////////////////////////////////////////
  598             S7474,
  599 07474 0000      0                       / return area
  600 07475 7041      CIA                     /                                       @@7475=7041
  601 07476 7421      MQL                     /                                       @@7476=7421
  602 07477 7040      CMA                     /                                       @@7477=7040
  603 07500 0770      AND I C7570             /                                       @@7500=0770
  604 07501 4771      JMS I C7571             / long call to S7200                    @@7501=4771
  605 07502 7500      SMA                     /                                       @@7502=7500
  606 07503 7041      CIA                     /                                       @@7503=7041
  607 07504 7001      IAC                     /                                       @@7504=7001
  608 07505 7001      IAC                     /                                       @@7505=7001
  609 07506 5674      JMP I S7474             / return                                @@7506=5674
  610             
  611             ////////////////////////////////////////////////////////////////////////////////
  612             /
  613             /   SUBROUTINE:  S7507
  614             /
  615             /   Called from:
  616             /   7125 7132 
  617             /   Total 0002 (2) calls
  618             ////////////////////////////////////////////////////////////////////////////////
  619             S7507,
  620 07507 0000      0                       / return area
  621 07510 7041      CIA                     /                                       @@7510=7041
  622 07511 7421      MQL                     /                                       @@7511=7421
  623 07512 7040      CMA                     /                                       @@7512=7040
  624 07513 0767      AND I C7567             /                                       @@7513=0767
  625 07514 4771      JMS I C7571             / long call to S7200                    @@7514=4771
  626 07515 7500      SMA                     /                                       @@7515=7500
  627 07516 7041      CIA                     /                                       @@7516=7041

      AUTOMATIC DISASSEMBLY OF MAINDEC-8E-D0EB-PB.bin BY D8TAPE          Page 12


  628 07517 7001      IAC                     /                                       @@7517=7001
  629 07520 7001      IAC                     /                                       @@7520=7001
  630 07521 5707      JMP I S7507             / return                                @@7521=5707
  631             
  632       7567  *7567
  633 07567 7160  C7567,  7160                / CLL CMA CML                           
  634 07570 7161  C7570,  7161                / CLL CMA CML IAC                       
  635             C7571,
  636 07571 7200  C7571,  7200                / CLA                                   
  637 07572 6757  C7572,  6757                / 6757                                  
  638 07573 6756  C7573,  6756                / 6756                                  
  639 07574 6754  C7574,  6754                / 6754                                  
  640 07575 6753  C7575,  6753                / 6753                                  
  641 07576 6761  C7576,  6761                / DTRA                                  
  642 07577 6760  C7577,  6760                / 6760                                  
  643             
  644       7751  *7751                       / align to RIMLDR location
  645 07751 0200      0200                    / addr of program start
  646 07752 6032      KCC                     / first instr in std RIMLDR
  647 07753 1352      TAD .-1                 / get KCC instr
  648 07754 3356      DCA .+2                 / restore into RIMLDR
  649 07755 5751      JMP I .-4               / start program
  650 07756 5353      JMP .-3                 / overlay first word of RIMLDR
  651             

      No detected errors

      AUTOMATIC DISASSEMBLY OF MAINDEC-8E-D0EB-PB.bin BY D8TAPE          Page 13
                                                                    Symbol Table

    1  C0200  00200   D6756  06756 
    2  C0202  00202   D6757  06757 
    3  C6746  06746   D6760  06760 
    4  C6747  06747   D6761  06761 
    5  C6750  06750   D6762  06762 
    6  C6751  06751   D6763  06763 
    7  C6752  06752   D6764  06764 
    8  C6766  06766   D6765  06765 
    9  C6767  06767   D6776  06776 
   10  C6771  06771   D7150  07150 
   11  C6772  06772   D7153  07153 
   12  C6773  06773   D7160  07160 
   13  C6774  06774   D7161  07161 
   14  C6775  06775   D7343  07343 
   15  C7001  07001   D7344  07344 
   16  C7152  07152   D7345  07345 
   17  C7154  07154   D7346  07346 
   18  C7155  07155   D7347  07347 
   19  C7156  07156   D7351  07351 
   20  C7157  07157   L0000  00000 
   21  C7162  07162   L0001  00001 
   22  C7164  07164   L6600  06600 
   23  C7165  07165   L6602  06602 
   24  C7175  07175   L6624  06624 
   25  C7176  07176   L6634  06634 
   26  C7177  07177   L6644  06644 
   27  C7350  07350   L6672  06672 
   28  C7352  07352   L6676  06676 
   29  C7373  07373   L6702  06702 
   30  C7374  07374   L6705  06705 
   31  C7375  07375   L7001  07001 
   32  C7376  07376   L7021  07021 
   33  C7377  07377   L7040  07040 
   34  C7441  07441   L7044  07044 
   35  C7467  07467   L7055  07055 
   36  C7470  07470   L7101  07101 
   37  C7471  07471   L7107  07107 
   38  C7472  07472   L7113  07113 
   39  C7473  07473   L7234  07234 
   40  C7567  07567   L7244  07244 
   41  C7570  07570   L7253  07253 
   42  C7571  07571   L7260  07260 
   43  C7572  07572   L7274  07274 
   44  C7573  07573   L7341  07341 
   45  C7574  07574   L7440  07440 
   46  C7575  07575   L7463  07463 
   47  C7576  07576   S7000  07000 
   48  C7577  07577   S7200  07200 
   49  D0000  00000   S7303  07303 
   50  D0001  00001   S7313  07313 
   51  D0002  00002   S7400  07400 
   52  D0003  00003   S7430  07430 
   53  D0004  00004   S7442  07442 
   54  D6745  06745   S7461  07461 
   55  D6753  06753   S7474  07474 
   56  D6754  06754   S7507  07507 
   57  D6755  06755 

      AUTOMATIC DISASSEMBLY OF MAINDEC-8E-D0EB-PB.bin BY D8TAPE          Page 14
                                                                 Cross Reference

    1 A     38  C0200   
    2 A     41  C0202        39
    3 A    156  C6746        52
    4 A    157  C6747       132
    5 A    159  C6750       152
    6 A    161  C6751       127
    7 A    163  C6752        73     82
    8 A    175  C6766       141
    9 A    176  C6767        94
   10 A    178  C6771        49
   11 A    179  C6772        68
   12 A    180  C6773        77
   13 A    182  C6774       149
   14 A    183  C6775        99
   15 A    199  C7001   
   16 A    311  C7152       209
   17 A    313  C7154       226    261
   18 A    314  C7155       213    244
   19 A    315  C7156       270
   20 A    316  C7157       239    256
   21 A    320  C7162       201    218    282
   22 A    322  C7164   
   23 A    323  C7165       207
   24 A    327  C7175       290    295
   25 A    329  C7176       232
   26 A    331  C7177       222    286
   27 A    474  C7350       384
   28 A    477  C7352       467
   29 A    480  C7373       458    462
   30 A    481  C7374       456    464
   31 A    482  C7375       450
   32 A    483  C7376       446
   33 A    484  C7377       429
   34 A    541  C7441       537
   35 A    584  C7467       499
   36 A    585  C7470       554
   37 A    586  C7471       558
   38 A    587  C7472       561
   39 A    588  C7473       564
   40 A    633  C7567       624
   41 A    634  C7570       603
   42 A    636  C7571       538    604    625
   43 A    637  C7572       518
   44 A    638  C7573       515
   45 A    639  C7574       512
   46 A    640  C7575       509
   47 A    641  C7576       506
   48 A    642  C7577       503
   49 A     29  D0000   
   50 A     31  D0001   
   51 A     32  D0002        58    253    260    289
   52 A     33  D0003        61    266    277    294    310
   53 A     34  D0004        64    306
   54 A    154  D6745       139    142
   55 A    164  D6753        56     86
   56 A    165  D6754        59     87    135    145
   57 A    166  D6755        53     89

      AUTOMATIC DISASSEMBLY OF MAINDEC-8E-D0EB-PB.bin BY D8TAPE          Page 15
                                                                 Cross Reference

   58 A    167  D6756        62     93     98    106    115    120
   59 A    168  D6757        65    103    110    114
   60 A    169  D6760        72     74    109    119    123
   61 A    170  D6761        81     83    126    144
   62 A    171  D6762       130
   63 A    172  D6763       128
   64 A    173  D6764       146
   65 A    174  D6765       148
   66 A    184  D6776        46    150
   67 A    309  D7150       200    202    204
   68 A    312  D7153       217    219    221    225    230    243    252
   69 A    317  D7160       281    283    285    299    305
   70 A    318  D7161       214    248    264    276
   71 A    469  D7343       347    349    362    367    391
   72 A    470  D7344       345    352    357    360    368    392
   73 A    471  D7345       354    374    383
   74 A    472  D7346       364    400    403    407    414
   75 A    473  D7347       365    387    394    410
   76 A    475  D7351       397    405
   77 A     28  L0000        35    133
   78 A     30  L0001        55    210    212    238    255    269
   79 A     44  L6600   
   80 A     47  L6602       138    151    153
   81 A     66  L6624        51
   82 A     75  L6634        70
   83 A     84  L6644        79
   84 A    107  L6672       116
   85 A    112  L6676        96    101
   86 A    117  L6702        91
   87 A    121  L6705       111
   88 A    198  L7001       250
   89 A    215  L7021       223    234
   90 A    231  L7040       245
   91 A    236  L7044       228
   92 A    246  L7055       235    241
   93 A    267  L7101       278
   94 A    274  L7107       258
   95 A    279  L7113       272    287    292    297    303
   96 A    372  L7234       380
   97 A    381  L7244       376
   98 A    389  L7253       386
   99 A    395  L7260       388
  100 A    408  L7274       370
  101 A    466  L7341       454    460
  102 A    539  L7440       534
  103 A    579  L7463       581
  104 A    196  S7000       273    308
  105 A    343  S7200       415    430
  106 A    425  S7303       432    433
  107 A    443  S7313       468
  108 A    496  S7400       501    520
  109 A    530  S7430       540
  110 A    551  S7442       556    566
  111 A    576  S7461       559    562    565    583
  112 A    598  S7474       609
  113 A    619  S7507       630

      AUTOMATIC DISASSEMBLY OF MAINDEC-8E-D0EB-PB.bin BY D8TAPE          Page 16
                                                                      Memory Map

    1 00000/ XXXXXX.. ........ ........ ........ ........ ........ ........ ........
    2 00100/ ........ ........ ........ ........ ........ ........ ........ ........
    3
    4 00200/ XXX..... ........ ........ ........ ........ ........ ........ ........
    5 00300/ ........ ........ ........ ........ ........ ........ ........ ........
    6
    7 00400/ ........ ........ ........ ........ ........ ........ ........ ........
    8 00500/ ........ ........ ........ ........ ........ ........ ........ ........
    9
   10 00600/ ........ ........ ........ ........ ........ ........ ........ ........
   11 00700/ ........ ........ ........ ........ ........ ........ ........ ........
   12
   13 01000/ ........ ........ ........ ........ ........ ........ ........ ........
   14 01100/ ........ ........ ........ ........ ........ ........ ........ ........
   15
   16 01200/ ........ ........ ........ ........ ........ ........ ........ ........
   17 01300/ ........ ........ ........ ........ ........ ........ ........ ........
   18
   19 01400/ ........ ........ ........ ........ ........ ........ ........ ........
   20 01500/ ........ ........ ........ ........ ........ ........ ........ ........
   21
   22 01600/ ........ ........ ........ ........ ........ ........ ........ ........
   23 01700/ ........ ........ ........ ........ ........ ........ ........ ........
   24
   25 02000/ ........ ........ ........ ........ ........ ........ ........ ........
   26 02100/ ........ ........ ........ ........ ........ ........ ........ ........
   27
   28 02200/ ........ ........ ........ ........ ........ ........ ........ ........
   29 02300/ ........ ........ ........ ........ ........ ........ ........ ........
   30
   31 02400/ ........ ........ ........ ........ ........ ........ ........ ........
   32 02500/ ........ ........ ........ ........ ........ ........ ........ ........
   33
   34 02600/ ........ ........ ........ ........ ........ ........ ........ ........
   35 02700/ ........ ........ ........ ........ ........ ........ ........ ........
   36
   37 03000/ ........ ........ ........ ........ ........ ........ ........ ........
   38 03100/ ........ ........ ........ ........ ........ ........ ........ ........
   39
   40 03200/ ........ ........ ........ ........ ........ ........ ........ ........
   41 03300/ ........ ........ ........ ........ ........ ........ ........ ........
   42
   43 03400/ ........ ........ ........ ........ ........ ........ ........ ........
   44 03500/ ........ ........ ........ ........ ........ ........ ........ ........
   45
   46 03600/ ........ ........ ........ ........ ........ ........ ........ ........
   47 03700/ ........ ........ ........ ........ ........ ........ ........ ........
   48

      AUTOMATIC DISASSEMBLY OF MAINDEC-8E-D0EB-PB.bin BY D8TAPE          Page 17
                                                                      Memory Map

   49 04000/ ........ ........ ........ ........ ........ ........ ........ ........
   50 04100/ ........ ........ ........ ........ ........ ........ ........ ........
   51
   52 04200/ ........ ........ ........ ........ ........ ........ ........ ........
   53 04300/ ........ ........ ........ ........ ........ ........ ........ ........
   54
   55 04400/ ........ ........ ........ ........ ........ ........ ........ ........
   56 04500/ ........ ........ ........ ........ ........ ........ ........ ........
   57
   58 04600/ ........ ........ ........ ........ ........ ........ ........ ........
   59 04700/ ........ ........ ........ ........ ........ ........ ........ ........
   60
   61 05000/ ........ ........ ........ ........ ........ ........ ........ ........
   62 05100/ ........ ........ ........ ........ ........ ........ ........ ........
   63
   64 05200/ ........ ........ ........ ........ ........ ........ ........ ........
   65 05300/ ........ ........ ........ ........ ........ ........ ........ ........
   66
   67 05400/ ........ ........ ........ ........ ........ ........ ........ ........
   68 05500/ ........ ........ ........ ........ ........ ........ ........ ........
   69
   70 05600/ ........ ........ ........ ........ ........ ........ ........ ........
   71 05700/ ........ ........ ........ ........ ........ ........ ........ ........
   72
   73 06000/ ........ ........ ........ ........ ........ ........ ........ ........
   74 06100/ ........ ........ ........ ........ ........ ........ ........ ........
   75
   76 06200/ ........ ........ ........ ........ ........ ........ ........ ........
   77 06300/ ........ ........ ........ ........ ........ ........ ........ ........
   78
   79 06400/ ........ ........ ........ ........ ........ ........ ........ ........
   80 06500/ ........ ........ ........ ........ ........ ........ ........ ........
   81
   82 06600/ XXXXXXXX XXXXXXXX XXXXXXXX XXXXXXXX XXXXXXXX XXXXXXXX XXXXXXXX XXXXXXXX
   83 06700/ XXXXXXXX XXXXXXXX XXXXXXXX XXXXXXXX XXXXXXXX XXXXXXXX XXXXXXXX XXXXXXX.
   84
   85 07000/ XXXXXXXX XXXXXXXX XXXXXXXX XXXXXXXX XXXXXXXX XXXXXXXX XXXXXXXX XXXXXXXX
   86 07100/ XXXXXXXX XXXXXXXX XXXXXXXX XXXXXXXX XXXXXXXX XXXXXXXX XXXXXX.. .....XXX
   87
   88 07200/ XXXXXXXX XXXXXXXX XXXXXXXX XXXXXXXX XXXXXXXX XXXXXXXX XXXXXXXX XXXXXXXX
   89 07300/ XXXXXXXX XXXXXXXX XXXXXXXX XXXXXXXX XXXXXXXX XXX..... ........ ...XXXXX
   90
   91 07400/ XXXXXXXX XXXXXXXX XXXXXXXX XXXXXXXX XXXXXXXX XXXXXXXX XXXXXXXX XXXXXXXX
   92 07500/ XXXXXXXX XXXXXXXX XX...... ........ ........ ........ .......X XXXXXXXX
   93
   94 07600/ ........ ........ ........ ........ ........ ........ ........ ........
   95 07700/ ........ ........ ........ ........ ........ .XXXXXX. ........ ........
   96
