
      AUTOMATIC DISASSEMBLY OF MAINDEC-8E-D0DB-PB.bin BY D8TAPE           Page 1


    1             TITLE "AUTOMATIC DISASSEMBLY OF MAINDEC-8E-D0DB-PB.bin BY D8TAPE"
    2             ////////////////////////////////////////////////////////////////////////////////
    3             /
    4             /   Automatic Disassembly of MAINDEC-8E-D0DB-PB.bin
    5             /   Generated 2015 10 26 22:25:42
    6             /   Generated by d8tape version 0.347
    7             /   Visit http://www.pdp12.org/pdp8/software/index.html for updates
    8             /
    9             /   Symbol format:
   10             /       AIx   -- Auto-index variables (address range 001x)
   11             /       Caaaa -- Constants (non-unique)
   12             /       Daaaa -- Data (read/write variables)
   13             /       Kvvvv -- Program-wide unique constants
   14             /       Laaaa -- Labels for control flow targets
   15             /       Saaaa -- Subroutines
   16             /
   17             /   Where:
   18             /       aaaa is the definition address
   19             /       vvvv is the value of the constant
   20             /       x    is the last digit of the address 001x for auto-index variables
   21             /
   22             /   0663 locations used, 0561 code and 0102 data
   23             ////////////////////////////////////////////////////////////////////////////////
   24             
   25       0200  *0200
   26             
   27       0000  *0000
   28             L0000,
   29 00000 0000  D0000,  0000                / AND   L0000                           
   30             L0001,
   31 00001 5001  D0001,  5001                / JMP   L0001                           
   32 00002 0002  D0002,  0002                / AND   D0002                           
   33 00003 0003  D0003,  0003                / AND   D0003                           
   34 00004 0003      AND   D0003             /                                       @@0004=0003
   35 00005 0000  D0005,  0000                / AND   L0000                           
   36 00006 0000  D0006,  0000                / AND   L0000                           
   37 00007 0000  D0007,  0000                / AND   L0000                           
   38             
   39       0010  *0010
   40 00010 0000  AI0,    0000                / AUTO-INDEX REGISTER AND   L0000                           
   41             
   42       0020  *0020
   43 00020 0000  D0020,  0000                / AND   L0000                           
   44             
   45       0200  *0200
   46             L0200,
   47 00200 6007  C0200,  6007                / 6007                                  
   48 00201 1204  D0201,  1204                / TAD   D0204                           
   49 00202 3201  D0202,  3201                / DCA   D0201                           
   50 00203 4205  D0203,  4205                / JMS   S0205                           
   51 00204 5274  D0204,  5274                / JMP   C0274                           
   52             
   53             ////////////////////////////////////////////////////////////////////////////////
   54             /
   55             /   SUBROUTINE:  S0205
   56             /
   57             /   Called from:

      AUTOMATIC DISASSEMBLY OF MAINDEC-8E-D0DB-PB.bin BY D8TAPE           Page 2


   58             /   0255 
   59             /   Total 0001 (1) calls
   60             ////////////////////////////////////////////////////////////////////////////////
   61             S0205,
   62 00205 0000      0                       / return area
   63 00206 1374      TAD   C0374             /                                       @@0206=1374
   64 00207 3266      DCA   S0266             /                                       @@0207=3266
   65 00210 1374      TAD   C0374             /                                       @@0210=1374
   66 00211 3202      DCA   D0202             /                                       @@0211=3202
   67 00212 3203      DCA   D0203             /                                       @@0212=3203
   68 00213 4225      JMS   S0225             /                                       @@0213=4225
   69 00214 5605      JMP I S0205             / return                                @@0214=5605
   70             
   71             ////////////////////////////////////////////////////////////////////////////////
   72             /
   73             /   SUBROUTINE:  S0215
   74             /
   75             /   Called from:
   76             /   0244 0353 
   77             /   Total 0002 (2) calls
   78             ////////////////////////////////////////////////////////////////////////////////
   79             S0215,
   80 00215 0000      0                       / return area
   81 00216 1374      TAD   C0374             /                                       @@0216=1374
   82 00217 3266      DCA   S0266             /                                       @@0217=3266
   83 00220 3202      DCA   D0202             /                                       @@0220=3202
   84 00221 1374      TAD   C0374             /                                       @@0221=1374
   85 00222 3203      DCA   D0203             /                                       @@0222=3203
   86 00223 4225      JMS   S0225             /                                       @@0223=4225
   87 00224 5615      JMP I S0215             / return                                @@0224=5615
   88             
   89             ////////////////////////////////////////////////////////////////////////////////
   90             /
   91             /   SUBROUTINE:  S0225
   92             /
   93             /   Called from:
   94             /   0213 0223 0253 0264 
   95             /   Total 0004 (4) calls
   96             ////////////////////////////////////////////////////////////////////////////////
   97             S0225,
   98 00225 0000      0                       / return area
   99             L0226,
  100 00226 1602      TAD I D0202             /                                       @@0226=1602
  101 00227 3603      DCA I D0203             /                                       @@0227=3603
  102 00230 1602      TAD I D0202             /                                       @@0230=1602
  103 00231 7041      CIA                     /                                       @@0231=7041
  104 00232 1603      TAD I D0203             /                                       @@0232=1603
  105 00233 7640      SZA CLA                 /                                       @@0233=7640
  106 00234 7402      HLT                     /                                       @@0234=7402
  107 00235 2202      ISZ   D0202             /                                       @@0235=2202
  108 00236 7000      NOP                     /                                       @@0236=7000
  109 00237 2203      ISZ   D0203             /                                       @@0237=2203
  110 00240 7000      NOP                     /                                       @@0240=7000
  111 00241 2266      ISZ   S0266             /                                       @@0241=2266
  112 00242 5226      JMP   L0226             /                                       @@0242=5226
  113 00243 5625      JMP I S0225             / return                                @@0243=5625
  114             L0244,

      AUTOMATIC DISASSEMBLY OF MAINDEC-8E-D0DB-PB.bin BY D8TAPE           Page 3


  115 00244 4215      JMS   S0215             /                                       @@0244=4215
  116 00245 1373      TAD   C0373             /                                       @@0245=1373
  117 00246 3266      DCA   S0266             /                                       @@0246=3266
  118 00247 1365      TAD   C0365             /                                       @@0247=1365
  119 00250 3202      DCA   D0202             /                                       @@0250=3202
  120 00251 1372      TAD   C0372             /                                       @@0251=1372
  121 00252 3203      DCA   D0203             /                                       @@0252=3203
  122 00253 4225      JMS   S0225             /                                       @@0253=4225
  123 00254 5772      JMP I C0372             / long jump to L6600                    @@0254=5772
  124             L0255,
  125 00255 4205      JMS   S0205             /                                       @@0255=4205
  126 00256 1373      TAD   C0373             /                                       @@0256=1373
  127 00257 3266      DCA   S0266             /                                       @@0257=3266
  128 00260 1372      TAD   C0372             /                                       @@0260=1372
  129 00261 3202      DCA   D0202             /                                       @@0261=3202
  130 00262 1365      TAD   C0365             /                                       @@0262=1365
  131 00263 3203      DCA   D0203             /                                       @@0263=3203
  132 00264 4225      JMS   S0225             /                                       @@0264=4225
  133 00265 5765      JMP I C0365             / long jump to L0200                    @@0265=5765
  134             
  135             ////////////////////////////////////////////////////////////////////////////////
  136             /
  137             /   SUBROUTINE:  S0266
  138             /
  139             /   Called from:
  140             /   0276 0351 0361 
  141             /   Total 0003 (3) calls
  142             ////////////////////////////////////////////////////////////////////////////////
  143             S0266,
  144 00266 0000      0                       / return area
  145 00267 7330      CLA CLL CML RAR         / AC = 4000 (-4000 = -2048 dec)         @@0267=7330
  146 00270 1266      TAD   S0266             /                                       @@0270=1266
  147 00271 7630      SZL CLA                 /                                       @@0271=7630
  148 00272 1371      TAD   C0371             /                                       @@0272=1371
  149 00273 5666      JMP I S0266             / return                                @@0273=5666
  150 00274 7300      CLA CLL                 / AC = 0000                             @@0274=7300
  151 00275 3202      DCA   D0202             /                                       @@0275=3202
  152 00276 4266      JMS   S0266             /                                       @@0276=4266
  153 00277 5377      JMP   L0377             /                                       @@0277=5377
  154             
  155             ////////////////////////////////////////////////////////////////////////////////
  156             /
  157             /   SUBROUTINE:  S0300
  158             /
  159             /   Called from:
  160             /   0315 
  161             /   Total 0001 (1) calls
  162             ////////////////////////////////////////////////////////////////////////////////
  163             S0300,
  164 00300 0000      0                       / return area
  165 00301 7040      CMA                     /                                       @@0301=7040
  166 00302 3204      DCA   D0204             /                                       @@0302=3204
  167 00303 7501      MQA                     /                                       @@0303=7501
  168 00304 7040      CMA                     /                                       @@0304=7040
  169 00305 7421      MQL                     /                                       @@0305=7421
  170 00306 1204      TAD   D0204             /                                       @@0306=1204
  171 00307 7501      MQA                     /                                       @@0307=7501

      AUTOMATIC DISASSEMBLY OF MAINDEC-8E-D0DB-PB.bin BY D8TAPE           Page 4


  172 00310 7040      CMA                     /                                       @@0310=7040
  173 00311 5700      JMP I S0300             / return                                @@0311=5700
  174             
  175             ////////////////////////////////////////////////////////////////////////////////
  176             /
  177             /   SUBROUTINE:  S0312
  178             /
  179             /   Called from:
  180             /   0326 0346 0357 
  181             /   Total 0003 (3) calls
  182             ////////////////////////////////////////////////////////////////////////////////
  183             S0312,
  184 00312 0000      0                       / return area
  185 00313 7421      MQL                     /                                       @@0313=7421
  186 00314 7604      LAS                     /                                       @@0314=7604
  187 00315 4300      JMS   S0300             /                                       @@0315=4300
  188 00316 7650      SNA CLA                 /                                       @@0316=7650
  189 00317 2312      ISZ   S0312             /                                       @@0317=2312
  190 00320 5712      JMP I S0312             / return                                @@0320=5712
  191             C0321,
  192 00321 0000  C0321,  0000                / AND   L0000                           
  193 00322 2202      ISZ   D0202             /                                       @@0322=2202
  194 00323 5721      JMP I C0321             / long jump to L0000                    @@0323=5721
  195 00324 7332      CLA CLL CML RTR         / AC = 2000 (1024)                      @@0324=7332
  196 00325 7012      RTR                     /                                       @@0325=7012
  197 00326 4312      JMS   S0312             /                                       @@0326=4312
  198 00327 5336      JMP   L0336             /                                       @@0327=5336
  199 00330 1366      TAD   C0366             /                                       @@0330=1366
  200 00331 4337      JMS   S0337             /                                       @@0331=4337
  201 00332 1367      TAD   C0367             /                                       @@0332=1367
  202 00333 4337      JMS   S0337             /                                       @@0333=4337
  203 00334 1370      TAD   C0370             /                                       @@0334=1370
  204 00335 4337      JMS   S0337             /                                       @@0335=4337
  205             L0336,
  206 00336 5345      JMP   L0345             /                                       @@0336=5345
  207             
  208             ////////////////////////////////////////////////////////////////////////////////
  209             /
  210             /   SUBROUTINE:  S0337
  211             /
  212             /   Called from:
  213             /   0331 0333 0335 
  214             /   Total 0003 (3) calls
  215             ////////////////////////////////////////////////////////////////////////////////
  216             S0337,
  217 00337 0000      0                       / return area
  218 00340 6046      TLS                     / Load the TTO from the content of AC4  @@0340=6046
  219             L0341,
  220 00341 6041      TSF                     / Skip if teleprinter flag is a 1.      @@0341=6041
  221 00342 5341      JMP   L0341             /                                       @@0342=5341
  222 00343 7200      CLA                     /                                       @@0343=7200
  223 00344 5737      JMP I S0337             / return                                @@0344=5737
  224             L0345,
  225 00345 7332      CLA CLL CML RTR         / AC = 2000 (1024)                      @@0345=7332
  226 00346 4312      JMS   S0312             /                                       @@0346=4312
  227 00347 7410      SKP                     /                                       @@0347=7410
  228 00350 5355      JMP   L0355             /                                       @@0350=5355

      AUTOMATIC DISASSEMBLY OF MAINDEC-8E-D0DB-PB.bin BY D8TAPE           Page 5


  229 00351 4266      JMS   S0266             /                                       @@0351=4266
  230 00352 7650      SNA CLA                 /                                       @@0352=7650
  231 00353 4215      JMS   S0215             /                                       @@0353=4215
  232 00354 7402      HLT                     /                                       @@0354=7402
  233             L0355,
  234 00355 7332      CLA CLL CML RTR         / AC = 2000 (1024)                      @@0355=7332
  235 00356 7010      RAR                     /                                       @@0356=7010
  236 00357 4312      JMS   S0312             /                                       @@0357=4312
  237 00360 5721      JMP I C0321             / long jump to L0000                    @@0360=5721
  238 00361 4266      JMS   S0266             /                                       @@0361=4266
  239 00362 7650      SNA CLA                 /                                       @@0362=7650
  240 00363 5244      JMP   L0244             /                                       @@0363=5244
  241 00364 5255      JMP   L0255             /                                       @@0364=5255
  242             C0365,
  243 00365 0200  C0365,  0200                / AND   L0200                           
  244 00366 0215  C0366,  0215                / AND   S0215                           
  245 00367 0212  C0367,  0212                / AND   C0212                           
  246 00370 0301  C0370,  0301                / AND   C0301                           
  247 00371 6400  C0371,  6400                / 6400                                  
  248             C0372,
  249 00372 6600  C0372,  6600                / 6600                                  
  250 00373 7000  C0373,  7000                / NOP                                   
  251 00374 7600  C0374,  7600                / 7600                                  
  252             
  253       0377  *0377
  254             L0377,
  255 00377 7000      NOP                     /                                       @@0377=7000
  256             
  257       0400  *0400
  258 00400 3237      DCA   D0437             /                                       @@0400=3237
  259 00401 1242      TAD   C0442             /                                       @@0401=1242
  260 00402 1237      TAD   D0437             /                                       @@0402=1237
  261 00403 3010      DCA   AI0               / AUTO INDEX REGISTER                   @@0403=3010
  262 00404 1243      TAD   C0443             /                                       @@0404=1243
  263 00405 1237      TAD   D0437             /                                       @@0405=1237
  264 00406 3410      DCA I AI0               / AUTO INDEX REGISTER                   @@0406=3410
  265 00407 1245      TAD   C0445             /                                       @@0407=1245
  266 00410 1237      TAD   D0437             /                                       @@0410=1237
  267 00411 3410      DCA I AI0               / AUTO INDEX REGISTER                   @@0411=3410
  268 00412 1246      TAD   C0446             /                                       @@0412=1246
  269 00413 1237      TAD   D0437             /                                       @@0413=1237
  270 00414 3410      DCA I AI0               / AUTO INDEX REGISTER                   @@0414=3410
  271 00415 1247      TAD   C0447             /                                       @@0415=1247
  272 00416 1237      TAD   D0437             /                                       @@0416=1237
  273 00417 3410      DCA I AI0               / AUTO INDEX REGISTER                   @@0417=3410
  274 00420 1244      TAD   C0444             /                                       @@0420=1244
  275 00421 1237      TAD   D0437             /                                       @@0421=1237
  276 00422 3410      DCA I AI0               / AUTO INDEX REGISTER                   @@0422=3410
  277 00423 1237      TAD   D0437             /                                       @@0423=1237
  278 00424 7640      SZA CLA                 /                                       @@0424=7640
  279 00425 5233      JMP   L0433             /                                       @@0425=5233
  280 00426 1240      TAD   C0440             /                                       @@0426=1240
  281 00427 3410      DCA I AI0               / AUTO INDEX REGISTER                   @@0427=3410
  282 00430 1250      TAD   C0450             /                                       @@0430=1250
  283 00431 3410      DCA I AI0               / AUTO INDEX REGISTER                   @@0431=3410
  284 00432 5377      JMP   L0577             /                                       @@0432=5377
  285             L0433,

      AUTOMATIC DISASSEMBLY OF MAINDEC-8E-D0DB-PB.bin BY D8TAPE           Page 6


  286 00433 3410      DCA I AI0               / AUTO INDEX REGISTER                   @@0433=3410
  287 00434 1251      TAD   C0451             /                                       @@0434=1251
  288 00435 3410      DCA I AI0               / AUTO INDEX REGISTER                   @@0435=3410
  289 00436 5377      JMP   L0577             /                                       @@0436=5377
  290 00437 0000  D0437,  0000                / AND   L0000                           
  291 00440 0200  C0440,  0200                / AND   C0400                           
  292 00441 7000      NOP                     /                                       @@0441=7000
  293 00442 0753  C0442,  0753                / AND I C0553                           
  294 00443 1000  C0443,  1000                / TAD   L0000                           
  295 00444 0321  C0444,  0321                / AND   C0521                           
  296 00445 0300  C0445,  0300                / AND   C0500                           
  297 00446 0712  C0446,  0712                / AND I C0512                           
  298 00447 0312  C0447,  0312                / AND   C0512                           
  299 00450 6600  C0450,  6600                / 6600                                  
  300 00451 1201  C0451,  1201                / TAD   C0401                           
  301             
  302       0577  *0577
  303             L0577,
  304 00577 7000      NOP                     /                                       @@0577=7000
  305             
  306       0600  *0600
  307             L0600,
  308 00600 7300      CLA CLL                 / AC = 0000                             @@0600=7300
  309 00601 1355      TAD   C0755             /                                       @@0601=1355
  310 00602 3000      DCA   L0000             /                                       @@0602=3000
  311 00603 7001      IAC                     /                                       @@0603=7001
  312 00604 4757      JMS I C0757             / long call to S0000                    @@0604=4757
  313 00605 5224      JMP   L0624             /                                       @@0605=5224
  314 00606 1362      TAD   C0762             /                                       @@0606=1362
  315 00607 3006      DCA   D0006             /                                       @@0607=3006
  316 00610 1361      TAD   C0761             /                                       @@0610=1361
  317 00611 3007      DCA   D0007             /                                       @@0611=3007
  318 00612 4754      JMS I C0754             / long call to S0000                    @@0612=4754
  319 00613 3365      DCA   D0765             /                                       @@0613=3365
  320 00614 1001      TAD   L0001             /                                       @@0614=1001
  321 00615 3363      DCA   D0763             /                                       @@0615=3363
  322 00616 1002      TAD   D0002             /                                       @@0616=1002
  323 00617 3364      DCA   D0764             /                                       @@0617=3364
  324 00620 1003      TAD   D0003             /                                       @@0620=1003
  325 00621 3366      DCA   D0766             /                                       @@0621=3366
  326 00622 1005      TAD   D0005             /                                       @@0622=1005
  327 00623 3367      DCA   D0767             /                                       @@0623=3367
  328             L0624,
  329 00624 7105      CLL IAC RAL             /                                       @@0624=7105
  330 00625 4757      JMS I C0757             / long call to S0000                    @@0625=4757
  331 00626 5234      JMP   L0634             /                                       @@0626=5234
  332 00627 1370      TAD   D0770             /                                       @@0627=1370
  333 00630 7104      CLL RAL                 /                                       @@0630=7104
  334 00631 7430      SZL                     /                                       @@0631=7430
  335 00632 1374      TAD   C0774             /                                       @@0632=1374
  336 00633 3370      DCA   D0770             /                                       @@0633=3370
  337             L0634,
  338 00634 7307      CLA CLL IAC RTL         / AC = 0004                             @@0634=7307
  339 00635 4757      JMS I C0757             / long call to S0000                    @@0635=4757
  340 00636 5244      JMP   L0644             /                                       @@0636=5244
  341 00637 1371      TAD   D0771             /                                       @@0637=1371
  342 00640 7104      CLL RAL                 /                                       @@0640=7104

      AUTOMATIC DISASSEMBLY OF MAINDEC-8E-D0DB-PB.bin BY D8TAPE           Page 7


  343 00641 7430      SZL                     /                                       @@0641=7430
  344 00642 1374      TAD   C0774             /                                       @@0642=1374
  345 00643 3371      DCA   D0771             /                                       @@0643=3371
  346             L0644,
  347 00644 7300      CLA CLL                 / AC = 0000                             @@0644=7300
  348 00645 1363      TAD   D0763             /                                       @@0645=1363
  349 00646 3764      DCA I D0764             /                                       @@0646=3764
  350 00647 1365      TAD   D0765             /                                       @@0647=1365
  351 00650 7650      SNA CLA                 /                                       @@0650=7650
  352 00651 5267      JMP   L0667             /                                       @@0651=5267
  353 00652 1366      TAD   D0766             /                                       @@0652=1366
  354 00653 1375      TAD   C0775             /                                       @@0653=1375
  355 00654 7630      SZL CLA                 /                                       @@0654=7630
  356 00655 5262      JMP   L0662             /                                       @@0655=5262
  357 00656 1366      TAD   D0766             /                                       @@0656=1366
  358 00657 1376      TAD   C0776             /                                       @@0657=1376
  359 00660 7630      SZL CLA                 /                                       @@0660=7630
  360 00661 7040      CMA                     /                                       @@0661=7040
  361             L0662,
  362 00662 1367      TAD   D0767             /                                       @@0662=1367
  363 00663 3766      DCA I D0766             /                                       @@0663=3766
  364 00664 1370      TAD   D0770             /                                       @@0664=1370
  365 00665 3767      DCA I D0767             /                                       @@0665=3767
  366 00666 5271      JMP   L0671             /                                       @@0666=5271
  367             L0667,
  368 00667 1370      TAD   D0770             /                                       @@0667=1370
  369 00670 3766      DCA I D0766             /                                       @@0670=3766
  370             L0671,
  371 00671 7300      CLA CLL                 / AC = 0000                             @@0671=7300
  372 00672 1370      TAD   D0770             /                                       @@0672=1370
  373 00673 7421      MQL                     /                                       @@0673=7421
  374 00674 1371      TAD   D0771             /                                       @@0674=1371
  375 00675 4755      JMS I C0755             / long call to S0000                    @@0675=4755
  376 00676 3372      DCA   D0772             /                                       @@0676=3372
  377 00677 1356      TAD   C0756             /                                       @@0677=1356
  378 00700 3000      DCA   L0000             /                                       @@0700=3000
  379 00701 1364      TAD   D0764             /                                       @@0701=1364
  380 00702 7001      IAC                     /                                       @@0702=7001
  381 00703 7450      SNA                     /                                       @@0703=7450
  382 00704 5200      JMP   L0600             /                                       @@0704=5200
  383 00705 3353      DCA   D0753             /                                       @@0705=3353
  384 00706 1373      TAD   C0773             /                                       @@0706=1373
  385 00707 3753      DCA I D0753             /                                       @@0707=3753
  386 00710 1371      TAD   D0771             /                                       @@0710=1371
  387 00711 5764      JMP I D0764             / long jump to L0000                    @@0711=5764
  388 00712 3377      DCA   D0777             /                                       @@0712=3377
  389 00713 7430      SZL                     /                                       @@0713=7430
  390 00714 4324      JMS   S0724             /                                       @@0714=4324
  391 00715 1372      TAD   D0772             /                                       @@0715=1372
  392 00716 7041      CIA                     /                                       @@0716=7041
  393 00717 1377      TAD   D0777             /                                       @@0717=1377
  394 00720 7640      SZA CLA                 /                                       @@0720=7640
  395 00721 4324      JMS   S0724             /                                       @@0721=4324
  396 00722 4760      JMS I C0760             / long call to S0000                    @@0722=4760
  397 00723 5200      JMP   L0600             /                                       @@0723=5200
  398             
  399             ////////////////////////////////////////////////////////////////////////////////

      AUTOMATIC DISASSEMBLY OF MAINDEC-8E-D0DB-PB.bin BY D8TAPE           Page 8


  400             /
  401             /   SUBROUTINE:  S0724
  402             /
  403             /   Called from:
  404             /   0714 0721 
  405             /   Total 0002 (2) calls
  406             ////////////////////////////////////////////////////////////////////////////////
  407             S0724,
  408 00724 0000      0                       / return area
  409 00725 7330      CLA CLL CML RAR         / AC = 4000 (-4000 = -2048 dec)         @@0725=7330
  410 00726 4757      JMS I C0757             / long call to S0000                    @@0726=4757
  411 00727 5351      JMP   L0751             /                                       @@0727=5351
  412 00730 1370      TAD   D0770             /                                       @@0730=1370
  413 00731 7402      HLT                     /                                       @@0731=7402
  414 00732 7200      CLA                     /                                       @@0732=7200
  415 00733 1371      TAD   D0771             /                                       @@0733=1371
  416 00734 7402      HLT                     /                                       @@0734=7402
  417 00735 7200      CLA                     /                                       @@0735=7200
  418 00736 1001      TAD   L0001             /                                       @@0736=1001
  419 00737 7402      HLT                     /                                       @@0737=7402
  420 00740 7200      CLA                     /                                       @@0740=7200
  421 00741 1364      TAD   D0764             /                                       @@0741=1364
  422 00742 7402      HLT                     /                                       @@0742=7402
  423 00743 7200      CLA                     /                                       @@0743=7200
  424 00744 1366      TAD   D0766             /                                       @@0744=1366
  425 00745 7402      HLT                     /                                       @@0745=7402
  426 00746 7200      CLA                     /                                       @@0746=7200
  427 00747 1367      TAD   D0767             /                                       @@0747=1367
  428 00750 7402      HLT                     /                                       @@0750=7402
  429             L0751,
  430 00751 7300      CLA CLL                 / AC = 0000                             @@0751=7300
  431 00752 5724      JMP I S0724             / return                                @@0752=5724
  432 00753 0000  D0753,  0000                / AND   L0000                           
  433             C0754,
  434 00754 0000  C0754,  0000                / AND   L0000                           
  435             C0755,
  436 00755 0000  C0755,  0000                / AND   L0000                           
  437 00756 0000  C0756,  0000                / AND   L0000                           
  438             C0757,
  439 00757 0000  C0757,  0000                / AND   L0000                           
  440             C0760,
  441 00760 0000  C0760,  0000                / AND   L0000                           
  442 00761 0000  C0761,  0000                / AND   L0000                           
  443 00762 0000  C0762,  0000                / AND   L0000                           
  444 00763 0000  D0763,  0000                / AND   L0000                           
  445 00764 0000  D0764,  0000                / AND   L0000                           
  446 00765 0000  D0765,  0000                / AND   L0000                           
  447 00766 0000  D0766,  0000                / AND   L0000                           
  448 00767 0000  D0767,  0000                / AND   L0000                           
  449 00770 0021  D0770,  0021                / AND   C0021                           
  450 00771 0037  D0771,  0037                / AND   C0037                           
  451 00772 0000  D0772,  0000                / AND   L0000                           
  452 00773 5400  C0773,  5400                / JMP I L0000                           
  453 00774 0003  C0774,  0003                / AND   D0003                           
  454 00775 7760  C0775,  7760                / SMA SZA SNL CLA                       
  455 00776 7770  C0776,  7770                / SPA SNA SZL CLA                       
  456 00777 0000  D0777,  0000                / AND   L0000                           

      AUTOMATIC DISASSEMBLY OF MAINDEC-8E-D0DB-PB.bin BY D8TAPE           Page 9


  457             
  458       1000  *1000
  459             C1000,
  460 01000 0000  C1000,  0000                / AND   L0000                           
  461             L1001,
  462 01001 1367      TAD   D1167             /                                       @@1001=1367
  463 01002 4340      JMS   S1140             /                                       @@1002=4340
  464 01003 3367      DCA   D1167             /                                       @@1003=3367
  465 01004 1367      TAD   D1167             /                                       @@1004=1367
  466 01005 7421      MQL                     /                                       @@1005=7421
  467 01006 1007      TAD   D0007             /                                       @@1006=1007
  468 01007 7501      MQA                     /                                       @@1007=7501
  469 01010 7421      MQL                     /                                       @@1010=7421
  470 01011 1371      TAD   C1171             /                                       @@1011=1371
  471 01012 4400      JMS I L0000             / long call to S0000                    @@1012=4400
  472 01013 3001      DCA   L0001             /                                       @@1013=3001
  473 01014 1001      TAD   L0001             /                                       @@1014=1001
  474 01015 4354      JMS   S1154             /                                       @@1015=4354
  475 01016 3020      DCA   D0020             /                                       @@1016=3020
  476             L1017,
  477 01017 1372      TAD   D1172             /                                       @@1017=1372
  478 01020 4340      JMS   S1140             /                                       @@1020=4340
  479 01021 3372      DCA   D1172             /                                       @@1021=3372
  480 01022 4345      JMS   S1145             /                                       @@1022=4345
  481 01023 1372      TAD   D1172             /                                       @@1023=1372
  482 01024 7620      SNL CLA                 /                                       @@1024=7620
  483 01025 5217      JMP   L1017             /                                       @@1025=5217
  484 01026 1372      TAD   D1172             /                                       @@1026=1372
  485 01027 1373      TAD   C1173             /                                       @@1027=1373
  486 01030 7620      SNL CLA                 /                                       @@1030=7620
  487 01031 5246      JMP   L1046             /                                       @@1031=5246
  488 01032 1020      TAD   D0020             /                                       @@1032=1020
  489 01033 7041      CIA                     /                                       @@1033=7041
  490 01034 1372      TAD   D1172             /                                       @@1034=1372
  491             L1035,
  492 01035 4361      JMS   S1161             /                                       @@1035=4361
  493 01036 7700      SMA CLA                 /                                       @@1036=7700
  494 01037 5217      JMP   L1017             /                                       @@1037=5217
  495             L1040,
  496 01040 1020      TAD   D0020             /                                       @@1040=1020
  497 01041 7650      SNA CLA                 /                                       @@1041=7650
  498 01042 5201      JMP   L1001             /                                       @@1042=5201
  499 01043 1372      TAD   D1172             /                                       @@1043=1372
  500 01044 3002      DCA   D0002             /                                       @@1044=3002
  501 01045 5261      JMP   L1061             /                                       @@1045=5261
  502             L1046,
  503 01046 1001      TAD   L0001             /                                       @@1046=1001
  504 01047 7421      MQL                     /                                       @@1047=7421
  505 01050 1376      TAD   C1176             /                                       @@1050=1376
  506 01051 4400      JMS I L0000             / long call to S0000                    @@1051=4400
  507 01052 7650      SNA CLA                 /                                       @@1052=7650
  508 01053 5240      JMP   L1040             /                                       @@1053=5240
  509 01054 1372      TAD   D1172             /                                       @@1054=1372
  510 01055 4354      JMS   S1154             /                                       @@1055=4354
  511 01056 7041      CIA                     /                                       @@1056=7041
  512 01057 1020      TAD   D0020             /                                       @@1057=1020
  513 01060 5235      JMP   L1035             /                                       @@1060=5235

      AUTOMATIC DISASSEMBLY OF MAINDEC-8E-D0DB-PB.bin BY D8TAPE          Page 10


  514             L1061,
  515 01061 1001      TAD   L0001             /                                       @@1061=1001
  516 01062 7421      MQL                     /                                       @@1062=7421
  517 01063 1376      TAD   C1176             /                                       @@1063=1376
  518 01064 4400      JMS I L0000             / long call to S0000                    @@1064=4400
  519 01065 7650      SNA CLA                 /                                       @@1065=7650
  520 01066 5306      JMP   L1106             /                                       @@1066=5306
  521 01067 1002      TAD   D0002             /                                       @@1067=1002
  522 01070 7421      MQL                     /                                       @@1070=7421
  523 01071 1373      TAD   C1173             /                                       @@1071=1373
  524 01072 4400      JMS I L0000             / long call to S0000                    @@1072=4400
  525 01073 7421      MQL                     /                                       @@1073=7421
  526 01074 1020      TAD   D0020             /                                       @@1074=1020
  527 01075 7501      MQA                     /                                       @@1075=7501
  528 01076 3003      DCA   D0003             /                                       @@1076=3003
  529             L1077,
  530 01077 1001      TAD   L0001             /                                       @@1077=1001
  531 01100 7421      MQL                     /                                       @@1100=7421
  532 01101 1375      TAD   C1175             /                                       @@1101=1375
  533 01102 4400      JMS I L0000             / long call to S0000                    @@1102=4400
  534 01103 7640      SZA CLA                 /                                       @@1103=7640
  535 01104 5311      JMP   L1111             /                                       @@1104=5311
  536 01105 5600      JMP I C1000             / long jump to L0000                    @@1105=5600
  537             L1106,
  538 01106 1020      TAD   D0020             /                                       @@1106=1020
  539 01107 3003      DCA   D0003             /                                       @@1107=3003
  540 01110 5277      JMP   L1077             /                                       @@1110=5277
  541             L1111,
  542 01111 1377      TAD   D1177             /                                       @@1111=1377
  543 01112 4340      JMS   S1140             /                                       @@1112=4340
  544 01113 3377      DCA   D1177             /                                       @@1113=3377
  545 01114 4345      JMS   S1145             /                                       @@1114=4345
  546 01115 1377      TAD   D1177             /                                       @@1115=1377
  547 01116 7620      SNL CLA                 /                                       @@1116=7620
  548 01117 5311      JMP   L1111             /                                       @@1117=5311
  549 01120 1002      TAD   D0002             /                                       @@1120=1002
  550 01121 7041      CIA                     /                                       @@1121=7041
  551 01122 1377      TAD   D1177             /                                       @@1122=1377
  552 01123 4361      JMS   S1161             /                                       @@1123=4361
  553 01124 7700      SMA CLA                 /                                       @@1124=7700
  554 01125 5311      JMP   L1111             /                                       @@1125=5311
  555 01126 1003      TAD   D0003             /                                       @@1126=1003
  556 01127 7041      CIA                     /                                       @@1127=7041
  557 01130 1377      TAD   D1177             /                                       @@1130=1377
  558 01131 4361      JMS   S1161             /                                       @@1131=4361
  559 01132 7700      SMA CLA                 /                                       @@1132=7700
  560 01133 5311      JMP   L1111             /                                       @@1133=5311
  561 01134 1377      TAD   D1177             /                                       @@1134=1377
  562 01135 3005      DCA   D0005             /                                       @@1135=3005
  563 01136 7040      CMA                     /                                       @@1136=7040
  564 01137 5600      JMP I C1000             / long jump to L0000                    @@1137=5600
  565             
  566             ////////////////////////////////////////////////////////////////////////////////
  567             /
  568             /   SUBROUTINE:  S1140
  569             /
  570             /   Called from:

      AUTOMATIC DISASSEMBLY OF MAINDEC-8E-D0DB-PB.bin BY D8TAPE          Page 11


  571             /   1002 1020 1112 
  572             /   Total 0003 (3) calls
  573             ////////////////////////////////////////////////////////////////////////////////
  574             S1140,
  575 01140 0000      0                       / return area
  576 01141 7104      CLL RAL                 /                                       @@1141=7104
  577 01142 7430      SZL                     /                                       @@1142=7430
  578 01143 1370      TAD   C1170             /                                       @@1143=1370
  579 01144 5740      JMP I S1140             / return                                @@1144=5740
  580             
  581             ////////////////////////////////////////////////////////////////////////////////
  582             /
  583             /   SUBROUTINE:  S1145
  584             /
  585             /   Called from:
  586             /   1022 1114 
  587             /   Total 0002 (2) calls
  588             ////////////////////////////////////////////////////////////////////////////////
  589             S1145,
  590 01145 0000      0                       / return area
  591 01146 1007      TAD   D0007             /                                       @@1146=1007
  592 01147 7100      CLL                     /                                       @@1147=7100
  593 01150 7650      SNA CLA                 /                                       @@1150=7650
  594 01151 7020      CML                     /                                       @@1151=7020
  595 01152 1006      TAD   D0006             /                                       @@1152=1006
  596 01153 5745      JMP I S1145             / return                                @@1153=5745
  597             
  598             ////////////////////////////////////////////////////////////////////////////////
  599             /
  600             /   SUBROUTINE:  S1154
  601             /
  602             /   Called from:
  603             /   1015 1055 
  604             /   Total 0002 (2) calls
  605             ////////////////////////////////////////////////////////////////////////////////
  606             S1154,
  607 01154 0000      0                       / return area
  608 01155 7421      MQL                     /                                       @@1155=7421
  609 01156 1374      TAD   C1174             /                                       @@1156=1374
  610 01157 4400      JMS I L0000             / long call to S0000                    @@1157=4400
  611 01160 5754      JMP I S1154             / return                                @@1160=5754
  612             
  613             ////////////////////////////////////////////////////////////////////////////////
  614             /
  615             /   SUBROUTINE:  S1161
  616             /
  617             /   Called from:
  618             /   1035 1123 1131 
  619             /   Total 0003 (3) calls
  620             ////////////////////////////////////////////////////////////////////////////////
  621             S1161,
  622 01161 0000      0                       / return area
  623 01162 7500      SMA                     /                                       @@1162=7500
  624 01163 7041      CIA                     /                                       @@1163=7041
  625 01164 7001      IAC                     /                                       @@1164=7001
  626 01165 7001      IAC                     /                                       @@1165=7001
  627 01166 5761      JMP I S1161             / return                                @@1166=5761

      AUTOMATIC DISASSEMBLY OF MAINDEC-8E-D0DB-PB.bin BY D8TAPE          Page 12


  628 01167 0001  D1167,  0001                / AND   L0001                           
  629 01170 0003  C1170,  0003                / AND   D0003                           
  630 01171 0777  C1171,  0777                / AND I D1177                           
  631 01172 0005  D1172,  0005                / AND   D0005                           
  632 01173 7600  C1173,  7600                / 7600                                  
  633 01174 0177  C1174,  0177                / AND   C0177                           
  634 01175 0400  C1175,  0400                / AND I L0000                           
  635 01176 0200  C1176,  0200                / AND   C1000                           
  636 01177 0015  D1177,  0015                / AND   AI5                             
  637             
  638       7751  *7751                       / align to RIMLDR location
  639 07751 0200      0200                    / addr of program start
  640 07752 6032      KCC                     / first instr in std RIMLDR
  641 07753 1352      TAD .-1                 / get KCC instr
  642 07754 3356      DCA .+2                 / restore into RIMLDR
  643 07755 5751      JMP I .-4               / start program
  644 07756 5353      JMP .-3                 / overlay first word of RIMLDR
  645             

      No detected errors

      AUTOMATIC DISASSEMBLY OF MAINDEC-8E-D0DB-PB.bin BY D8TAPE          Page 13
                                                                    Symbol Table

    1  AI0    00010   D0770  00770 
    2  C0200  00200   D0771  00771 
    3  C0321  00321   D0772  00772 
    4  C0365  00365   D0777  00777 
    5  C0366  00366   D1167  01167 
    6  C0367  00367   D1172  01172 
    7  C0370  00370   D1177  01177 
    8  C0371  00371   L0000  00000 
    9  C0372  00372   L0001  00001 
   10  C0373  00373   L0200  00200 
   11  C0374  00374   L0226  00226 
   12  C0440  00440   L0244  00244 
   13  C0442  00442   L0255  00255 
   14  C0443  00443   L0336  00336 
   15  C0444  00444   L0341  00341 
   16  C0445  00445   L0345  00345 
   17  C0446  00446   L0355  00355 
   18  C0447  00447   L0377  00377 
   19  C0450  00450   L0433  00433 
   20  C0451  00451   L0577  00577 
   21  C0754  00754   L0600  00600 
   22  C0755  00755   L0624  00624 
   23  C0756  00756   L0634  00634 
   24  C0757  00757   L0644  00644 
   25  C0760  00760   L0662  00662 
   26  C0761  00761   L0667  00667 
   27  C0762  00762   L0671  00671 
   28  C0773  00773   L0751  00751 
   29  C0774  00774   L1001  01001 
   30  C0775  00775   L1017  01017 
   31  C0776  00776   L1035  01035 
   32  C1000  01000   L1040  01040 
   33  C1170  01170   L1046  01046 
   34  C1171  01171   L1061  01061 
   35  C1173  01173   L1077  01077 
   36  C1174  01174   L1106  01106 
   37  C1175  01175   L1111  01111 
   38  C1176  01176   S0205  00205 
   39  D0000  00000   S0215  00215 
   40  D0001  00001   S0225  00225 
   41  D0002  00002   S0266  00266 
   42  D0003  00003   S0300  00300 
   43  D0005  00005   S0312  00312 
   44  D0006  00006   S0337  00337 
   45  D0007  00007   S0724  00724 
   46  D0020  00020   S1140  01140 
   47  D0201  00201   S1145  01145 
   48  D0202  00202   S1154  01154 
   49  D0203  00203   S1161  01161 
   50  D0204  00204 
   51  D0437  00437 
   52  D0753  00753 
   53  D0763  00763 
   54  D0764  00764 
   55  D0765  00765 
   56  D0766  00766 
   57  D0767  00767 

      AUTOMATIC DISASSEMBLY OF MAINDEC-8E-D0DB-PB.bin BY D8TAPE          Page 14
                                                                 Cross Reference

    1 A     40  AI0         261    264    267    270    273    276    281    283
    2                       286    288
    3 A     47  C0200   
    4 A    192  C0321       194    237
    5 A    243  C0365       118    130    133
    6 A    244  C0366       199
    7 A    245  C0367       201
    8 A    246  C0370       203
    9 A    247  C0371       148
   10 A    249  C0372       120    123    128
   11 A    250  C0373       116    126
   12 A    251  C0374        63     65     81     84
   13 A    291  C0440       280
   14 A    293  C0442       259
   15 A    294  C0443       262
   16 A    295  C0444       274
   17 A    296  C0445       265
   18 A    297  C0446       268
   19 A    298  C0447       271
   20 A    299  C0450       282
   21 A    300  C0451       287
   22 A    434  C0754       318
   23 A    436  C0755       309    375
   24 A    437  C0756       377
   25 A    439  C0757       312    330    339    410
   26 A    441  C0760       396
   27 A    442  C0761       316
   28 A    443  C0762       314
   29 A    452  C0773       384
   30 A    453  C0774       335    344
   31 A    454  C0775       354
   32 A    455  C0776       358
   33 A    460  C1000       536    564
   34 A    629  C1170       578
   35 A    630  C1171       470
   36 A    632  C1173       485    523
   37 A    633  C1174       609
   38 A    634  C1175       532
   39 A    635  C1176       505    517
   40 A     29  D0000   
   41 A     31  D0001   
   42 A     32  D0002       322    500    521    549
   43 A     33  D0003        34    324    528    539    555
   44 A     35  D0005       326    562
   45 A     36  D0006       315    595
   46 A     37  D0007       317    467    591
   47 A     43  D0020       475    488    496    512    526    538
   48 A     48  D0201   
   49 A     49  D0202        66     83    100    102    107    119    129    151
   50                       193
   51 A     50  D0203        67     85    101    104    109    121    131
   52 A     51  D0204       166    170
   53 A    290  D0437       258    260    263    266    269    272    275    277
   54 A    432  D0753       383    385
   55 A    444  D0763       321    348
   56 A    445  D0764       323    349    379    387    421
   57 A    446  D0765       319    350

      AUTOMATIC DISASSEMBLY OF MAINDEC-8E-D0DB-PB.bin BY D8TAPE          Page 15
                                                                 Cross Reference

   58 A    447  D0766       325    353    357    363    369    424
   59 A    448  D0767       327    362    365    427
   60 A    449  D0770       332    336    364    368    372    412
   61 A    450  D0771       341    345    374    386    415
   62 A    451  D0772       376    391
   63 A    456  D0777       388    393
   64 A    628  D1167       462    464    465
   65 A    631  D1172       477    479    481    484    490    499    509
   66 A    636  D1177       542    544    546    551    557    561
   67 A     28  L0000       310    378    471    506    518    524    533    610
   68 A     30  L0001       320    418    472    473    503    515    530
   69 A     46  L0200   
   70 A     99  L0226       112
   71 A    114  L0244       240
   72 A    124  L0255       241
   73 A    205  L0336       198
   74 A    219  L0341       221
   75 A    224  L0345       206
   76 A    233  L0355       228
   77 A    254  L0377       153
   78 A    285  L0433       279
   79 A    303  L0577       284    289
   80 A    307  L0600       382    397
   81 A    328  L0624       313
   82 A    337  L0634       331
   83 A    346  L0644       340
   84 A    361  L0662       356
   85 A    367  L0667       352
   86 A    370  L0671       366
   87 A    429  L0751       411
   88 A    461  L1001       498
   89 A    476  L1017       483    494
   90 A    491  L1035       513
   91 A    495  L1040       508
   92 A    502  L1046       487
   93 A    514  L1061       501
   94 A    529  L1077       540
   95 A    537  L1106       520
   96 A    541  L1111       535    548    554    560
   97 A     61  S0205        69    125
   98 A     79  S0215        87    115    231
   99 A     97  S0225        68     86    113    122    132
  100 A    143  S0266        64     82    111    117    127    146    149    152
  101                       229    238
  102 A    163  S0300       173    187
  103 A    183  S0312       189    190    197    226    236
  104 A    216  S0337       200    202    204    223
  105 A    407  S0724       390    395    431
  106 A    574  S1140       463    478    543    579
  107 A    589  S1145       480    545    596
  108 A    606  S1154       474    510    611
  109 A    621  S1161       492    552    558    627

      AUTOMATIC DISASSEMBLY OF MAINDEC-8E-D0DB-PB.bin BY D8TAPE          Page 16
                                                                      Memory Map

    1 00000/ XXXXXXXX X....... X....... ........ ........ ........ ........ ........
    2 00100/ ........ ........ ........ ........ ........ ........ ........ ........
    3
    4 00200/ XXXXXXXX XXXXXXXX XXXXXXXX XXXXXXXX XXXXXXXX XXXXXXXX XXXXXXXX XXXXXXXX
    5 00300/ XXXXXXXX XXXXXXXX XXXXXXXX XXXXXXXX XXXXXXXX XXXXXXXX XXXXXXXX XXXXX..X
    6
    7 00400/ XXXXXXXX XXXXXXXX XXXXXXXX XXXXXXXX XXXXXXXX XX...... ........ ........
    8 00500/ ........ ........ ........ ........ ........ ........ ........ .......X
    9
   10 00600/ XXXXXXXX XXXXXXXX XXXXXXXX XXXXXXXX XXXXXXXX XXXXXXXX XXXXXXXX XXXXXXXX
   11 00700/ XXXXXXXX XXXXXXXX XXXXXXXX XXXXXXXX XXXXXXXX XXXXXXXX XXXXXXXX XXXXXXXX
   12
   13 01000/ XXXXXXXX XXXXXXXX XXXXXXXX XXXXXXXX XXXXXXXX XXXXXXXX XXXXXXXX XXXXXXXX
   14 01100/ XXXXXXXX XXXXXXXX XXXXXXXX XXXXXXXX XXXXXXXX XXXXXXXX XXXXXXXX XXXXXXXX
   15
   16 01200/ ........ ........ ........ ........ ........ ........ ........ ........
   17 01300/ ........ ........ ........ ........ ........ ........ ........ ........
   18
   19 01400/ ........ ........ ........ ........ ........ ........ ........ ........
   20 01500/ ........ ........ ........ ........ ........ ........ ........ ........
   21
   22 01600/ ........ ........ ........ ........ ........ ........ ........ ........
   23 01700/ ........ ........ ........ ........ ........ ........ ........ ........
   24
   25 02000/ ........ ........ ........ ........ ........ ........ ........ ........
   26 02100/ ........ ........ ........ ........ ........ ........ ........ ........
   27
   28 02200/ ........ ........ ........ ........ ........ ........ ........ ........
   29 02300/ ........ ........ ........ ........ ........ ........ ........ ........
   30
   31 02400/ ........ ........ ........ ........ ........ ........ ........ ........
   32 02500/ ........ ........ ........ ........ ........ ........ ........ ........
   33
   34 02600/ ........ ........ ........ ........ ........ ........ ........ ........
   35 02700/ ........ ........ ........ ........ ........ ........ ........ ........
   36
   37 03000/ ........ ........ ........ ........ ........ ........ ........ ........
   38 03100/ ........ ........ ........ ........ ........ ........ ........ ........
   39
   40 03200/ ........ ........ ........ ........ ........ ........ ........ ........
   41 03300/ ........ ........ ........ ........ ........ ........ ........ ........
   42
   43 03400/ ........ ........ ........ ........ ........ ........ ........ ........
   44 03500/ ........ ........ ........ ........ ........ ........ ........ ........
   45
   46 03600/ ........ ........ ........ ........ ........ ........ ........ ........
   47 03700/ ........ ........ ........ ........ ........ ........ ........ ........
   48

      AUTOMATIC DISASSEMBLY OF MAINDEC-8E-D0DB-PB.bin BY D8TAPE          Page 17
                                                                      Memory Map

   49 04000/ ........ ........ ........ ........ ........ ........ ........ ........
   50 04100/ ........ ........ ........ ........ ........ ........ ........ ........
   51
   52 04200/ ........ ........ ........ ........ ........ ........ ........ ........
   53 04300/ ........ ........ ........ ........ ........ ........ ........ ........
   54
   55 04400/ ........ ........ ........ ........ ........ ........ ........ ........
   56 04500/ ........ ........ ........ ........ ........ ........ ........ ........
   57
   58 04600/ ........ ........ ........ ........ ........ ........ ........ ........
   59 04700/ ........ ........ ........ ........ ........ ........ ........ ........
   60
   61 05000/ ........ ........ ........ ........ ........ ........ ........ ........
   62 05100/ ........ ........ ........ ........ ........ ........ ........ ........
   63
   64 05200/ ........ ........ ........ ........ ........ ........ ........ ........
   65 05300/ ........ ........ ........ ........ ........ ........ ........ ........
   66
   67 05400/ ........ ........ ........ ........ ........ ........ ........ ........
   68 05500/ ........ ........ ........ ........ ........ ........ ........ ........
   69
   70 05600/ ........ ........ ........ ........ ........ ........ ........ ........
   71 05700/ ........ ........ ........ ........ ........ ........ ........ ........
   72
   73 06000/ ........ ........ ........ ........ ........ ........ ........ ........
   74 06100/ ........ ........ ........ ........ ........ ........ ........ ........
   75
   76 06200/ ........ ........ ........ ........ ........ ........ ........ ........
   77 06300/ ........ ........ ........ ........ ........ ........ ........ ........
   78
   79 06400/ ........ ........ ........ ........ ........ ........ ........ ........
   80 06500/ ........ ........ ........ ........ ........ ........ ........ ........
   81
   82 06600/ ........ ........ ........ ........ ........ ........ ........ ........
   83 06700/ ........ ........ ........ ........ ........ ........ ........ ........
   84
   85 07000/ ........ ........ ........ ........ ........ ........ ........ ........
   86 07100/ ........ ........ ........ ........ ........ ........ ........ ........
   87
   88 07200/ ........ ........ ........ ........ ........ ........ ........ ........
   89 07300/ ........ ........ ........ ........ ........ ........ ........ ........
   90
   91 07400/ ........ ........ ........ ........ ........ ........ ........ ........
   92 07500/ ........ ........ ........ ........ ........ ........ ........ ........
   93
   94 07600/ ........ ........ ........ ........ ........ ........ ........ ........
   95 07700/ ........ ........ ........ ........ ........ .XXXXXX. ........ ........
   96
