
      AUTOMATIC DISASSEMBLY OF MAINDEC-8E-D0GC-PB.bin BY D8TAPE           Page 1


    1             TITLE "AUTOMATIC DISASSEMBLY OF MAINDEC-8E-D0GC-PB.bin BY D8TAPE"
    2             ////////////////////////////////////////////////////////////////////////////////
    3             /
    4             /   Automatic Disassembly of MAINDEC-8E-D0GC-PB.bin
    5             /   Generated 2015 10 26 22:25:47
    6             /   Generated by d8tape version 0.347
    7             /   Visit http://www.pdp12.org/pdp8/software/index.html for updates
    8             /
    9             /   Symbol format:
   10             /       AIx   -- Auto-index variables (address range 001x)
   11             /       Caaaa -- Constants (non-unique)
   12             /       Daaaa -- Data (read/write variables)
   13             /       Kvvvv -- Program-wide unique constants
   14             /       Laaaa -- Labels for control flow targets
   15             /       Saaaa -- Subroutines
   16             /
   17             /   Where:
   18             /       aaaa is the definition address
   19             /       vvvv is the value of the constant
   20             /       x    is the last digit of the address 001x for auto-index variables
   21             /
   22             /   0405 locations used, 0324 code and 0061 data
   23             ////////////////////////////////////////////////////////////////////////////////
   24             
   25       0200  *0200
   26             
   27       0000  *0000
   28             L0000,
   29 00000 0000  C0000,  0000                / AND   L0000                           
   30             L0001,
   31 00001 5001  C0001,  5001                / JMP   L0001                           
   32 00002 0002  C0002,  0002                / AND   C0002                           
   33 00003 0003  C0003,  0003                / AND   C0003                           
   34 00004 0000      AND   L0000             /                                       @@0004=0000
   35 00005 0000      AND   L0000             /                                       @@0005=0000
   36 00006 7771  D0006,  7771                / CLA MQA SCA MQL NMI                   
   37             C0007,
   38 00007 0400  C0007,  0400                / AND I L0000                           
   39 00010 0000  AI0,    0000                / AUTO-INDEX REGISTER AND   L0000                           
   40 00011 0000  AI1,    0000                / AUTO-INDEX REGISTER AND   L0000                           
   41 00012 0300  AI2,    0300                / AUTO-INDEX REGISTER AND   C0100                           
   42 00013 0256  AI3,    0256                / AUTO-INDEX REGISTER AND   C0007  change 0207/BELL to 0256/period
   43 00014 0003  AI4,    0003                / AUTO-INDEX REGISTER AND   C0003                           
   44             
   45       0020  *0020
   46             L0020,
   47 00020 1175      TAD   C0175             /                                       @@0020=1175
   48 00021 3010      DCA   AI0               / AUTO INDEX REGISTER                   @@0021=3010
   49             L0022,
   50 00022 3410      DCA I AI0               / AUTO INDEX REGISTER                   @@0022=3410
   51 00023 1010      TAD   AI0               / AUTO INDEX REGISTER                   @@0023=1010
   52 00024 7041      CIA                     /                                       @@0024=7041
   53 00025 1174      TAD   C0174             /                                       @@0025=1174
   54 00026 7640      SZA CLA                 /                                       @@0026=7640
   55 00027 5022      JMP   L0022             /                                       @@0027=5022
   56             L0030,
   57 00030 7604      LAS                     /                                       @@0030=7604

      AUTOMATIC DISASSEMBLY OF MAINDEC-8E-D0GC-PB.bin BY D8TAPE           Page 2


   58 00031 7006      RTL                     /                                       @@0031=7006
   59 00032 7510      SPA                     /                                       @@0032=7510
   60 00033 5052      JMP   L0052             /                                       @@0033=5052
   61             L0034,
   62 00034 4154      JMS   S0154             /                                       @@0034=4154
   63 00035 3167      DCA   D0167             /                                       @@0035=3167
   64 00036 1167      TAD   D0167             /                                       @@0036=1167
   65 00037 7510      SPA                     /                                       @@0037=7510
   66 00040 5046      JMP   L0046             /                                       @@0040=5046
   67 00041 7041      CIA                     /                                       @@0041=7041
   68 00042 1175      TAD   C0175             /                                       @@0042=1175
   69 00043 7710      SPA CLA                 /                                       @@0043=7710
   70 00044 5052      JMP   L0052             /                                       @@0044=5052
   71 00045 5034      JMP   L0034             /                                       @@0045=5034
   72             L0046,
   73 00046 7041      CIA                     /                                       @@0046=7041
   74 00047 1174      TAD   C0174             /                                       @@0047=1174
   75 00050 7710      SPA CLA                 /                                       @@0050=7710
   76 00051 5034      JMP   L0034             /                                       @@0051=5034
   77             L0052,
   78 00052 7604      LAS                     /                                       @@0052=7604
   79 00053 7006      RTL                     /                                       @@0053=7006
   80 00054 7004      RAL                     /                                       @@0054=7004
   81 00055 7510      SPA                     /                                       @@0055=7510
   82 00056 5075      JMP   L0075             /                                       @@0056=5075
   83             L0057,
   84 00057 4154      JMS   S0154             /                                       @@0057=4154
   85 00060 3166      DCA   D0166             /                                       @@0060=3166
   86 00061 1166      TAD   D0166             /                                       @@0061=1166
   87 00062 7510      SPA                     /                                       @@0062=7510
   88 00063 5071      JMP   L0071             /                                       @@0063=5071
   89 00064 7041      CIA                     /                                       @@0064=7041
   90 00065 1175      TAD   C0175             /                                       @@0065=1175
   91 00066 7710      SPA CLA                 /                                       @@0066=7710
   92 00067 5075      JMP   L0075             /                                       @@0067=5075
   93 00070 5057      JMP   L0057             /                                       @@0070=5057
   94             L0071,
   95 00071 7041      CIA                     /                                       @@0071=7041
   96 00072 1174      TAD   C0174             /                                       @@0072=1174
   97 00073 7710      SPA CLA                 /                                       @@0073=7710
   98 00074 5057      JMP   L0057             /                                       @@0074=5057
   99             L0075,
  100 00075 7604      LAS                     /                                       @@0075=7604
  101 00076 7006      RTL                     /                                       @@0076=7006
  102 00077 7006      RTL                     /                                       @@0077=7006
  103 00100 7710  C0100,  7710                / SPA CLA                               
  104 00101 5104      JMP   L0104             /                                       @@0101=5104
  105 00102 4154      JMS   S0154             /                                       @@0102=4154
  106 00103 3170      DCA   D0170             /                                       @@0103=3170
  107             L0104,
  108 00104 1167      TAD   D0167             /                                       @@0104=1167
  109 00105 7041      CIA                     /                                       @@0105=7041
  110 00106 1166      TAD   D0166             /                                       @@0106=1166
  111 00107 7450      SNA                     /                                       @@0107=7450
  112 00110 5030      JMP   L0030             /                                       @@0110=5030
  113 00111 7041      CIA                     /                                       @@0111=7041
  114 00112 7040      CMA                     /                                       @@0112=7040

      AUTOMATIC DISASSEMBLY OF MAINDEC-8E-D0GC-PB.bin BY D8TAPE           Page 3


  115 00113 7650      SNA CLA                 /                                       @@0113=7650
  116 00114 5030      JMP   L0030             /                                       @@0114=5030
  117 00115 1171      TAD   C0171             /                                       @@0115=1171
  118 00116 3567      DCA I D0167             /                                       @@0116=3567
  119 00117 1167      TAD   D0167             /                                       @@0117=1167
  120 00120 7001      IAC                     /                                       @@0120=7001
  121 00121 3173      DCA   D0173             /                                       @@0121=3173
  122 00122 1172      TAD   C0172             /                                       @@0122=1172
  123 00123 3573      DCA I D0173             /                                       @@0123=3573
  124 00124 1170      TAD   D0170             /                                       @@0124=1170
  125 00125 7000      NOP                     /                                       @@0125=7000
  126 00126 5567      JMP I D0167             / long jump to L3001                    @@0126=5567
  127 00127 7402      HLT                     /                                       @@0127=7402
  128 00130 1566      TAD I D0166             /                                       @@0130=1566
  129 00131 7041      CIA                     /                                       @@0131=7041
  130 00132 1170      TAD   D0170             /                                       @@0132=1170
  131 00133 7640      SZA CLA                 /                                       @@0133=7640
  132 00134 4577      JMS I C0177             / long call to S0201                    @@0134=4577
  133 00135 3566      DCA I D0166             /                                       @@0135=3566
  134 00136 3567      DCA I D0167             /                                       @@0136=3567
  135 00137 3573      DCA I D0173             /                                       @@0137=3573
  136 00140 1011      TAD   AI1               / AUTO INDEX REGISTER                   @@0140=1011
  137 00141 7001      IAC                     /                                       @@0141=7001
  138 00142 3011      DCA   AI1               / AUTO INDEX REGISTER                   @@0142=3011
  139 00143 1011      TAD   AI1               / AUTO INDEX REGISTER                   @@0143=1011
  140 00144 1012      TAD   AI2               / AUTO INDEX REGISTER                   @@0144=1012
  141 00145 7640      SZA CLA                 /                                       @@0145=7640
  142 00146 5030      JMP   L0030             /                                       @@0146=5030
  143 00147 3011      DCA   AI1               / AUTO INDEX REGISTER                   @@0147=3011
  144 00150 2006      ISZ   D0006             /                                       @@0150=2006
  145 00151 5030      JMP   L0030             /                                       @@0151=5030
  146 00152 4407      JMS I C0007             / long call to S0400                    @@0152=4407
  147 00153 5030      JMP   L0030             /                                       @@0153=5030
  148             
  149             ////////////////////////////////////////////////////////////////////////////////
  150             /
  151             /   SUBROUTINE:  S0154
  152             /
  153             /   Called from:
  154             /   0034 0057 0102 
  155             /   Total 0003 (3) calls
  156             ////////////////////////////////////////////////////////////////////////////////
  157             S0154,
  158 00154 0000      0                       / return area
  159 00155 7200      CLA                     /                                       @@0155=7200
  160 00156 1165      TAD   D0165             /                                       @@0156=1165
  161 00157 7104      CLL RAL                 /                                       @@0157=7104
  162 00160 7430      SZL                     /                                       @@0160=7430
  163 00161 1014      TAD   AI4               / AUTO INDEX REGISTER                   @@0161=1014
  164 00162 3165      DCA   D0165             /                                       @@0162=3165
  165 00163 1165      TAD   D0165             /                                       @@0163=1165
  166 00164 5554      JMP I S0154             / return                                @@0164=5554
  167 00165 2525  D0165,  2525                / ISZ I C0125                           
  168 00166 3000  D0166,  3000                / DCA   L0000                           
  169 00167 3001  D0167,  3001                / DCA   L0001                           
  170 00170 2525  D0170,  2525                / ISZ I C0125                           
  171 00171 3566  C0171,  3566                / DCA I D0166                           

      AUTOMATIC DISASSEMBLY OF MAINDEC-8E-D0GC-PB.bin BY D8TAPE           Page 4


  172 00172 5130  C0172,  5130                / JMP   C0130                           
  173 00173 3002  D0173,  3002                / DCA   C0002                           
  174 00174 7600  C0174,  7600                / 7600                                  
  175 00175 0410  C0175,  0410                / AND I AI0                             
  176 00176 0000  D0176,  0000                / AND   L0000                           
  177             C0177,
  178 00177 0201  C0177,  0201                / AND   L0001                           
  179             
  180       0200  *0200
  181 00200 5020      JMP   L0020             /                                       @@0200=5020
  182             
  183             ////////////////////////////////////////////////////////////////////////////////
  184             /
  185             /   SUBROUTINE:  S0201
  186             /
  187             /   Called from:
  188             /   0134 
  189             /   Total 0001 (1) calls
  190             ////////////////////////////////////////////////////////////////////////////////
  191             S0201,
  192 00201 0000      0                       / return area
  193 00202 7604      LAS                     /                                       @@0202=7604
  194 00203 7004      RAL                     /                                       @@0203=7004
  195 00204 7710      SPA CLA                 /                                       @@0204=7710
  196 00205 5601      JMP I S0201             / return                                @@0205=5601
  197 00206 4265      JMS   S0265             /                                       @@0206=4265
  198 00207 1175      TAD   C0175             /                                       @@0207=1175
  199 00210 3010      DCA   AI0               / AUTO INDEX REGISTER                   @@0210=3010
  200             L0211,
  201 00211 1410      TAD I AI0               / AUTO INDEX REGISTER                   @@0211=1410
  202 00212 7640      SZA CLA                 /                                       @@0212=7640
  203 00213 4233      JMS   S0233             /                                       @@0213=4233
  204 00214 1010      TAD   AI0               / AUTO INDEX REGISTER                   @@0214=1010
  205 00215 7041      CIA                     /                                       @@0215=7041
  206 00216 1174      TAD   C0174             /                                       @@0216=1174
  207 00217 7640      SZA CLA                 /                                       @@0217=7640
  208 00220 5211      JMP   L0211             /                                       @@0220=5211
  209 00221 1374      TAD   C0374             /                                       @@0221=1374
  210 00222 4351      JMS   S0351             /                                       @@0222=4351
  211 00223 1375      TAD   C0375             /                                       @@0223=1375
  212 00224 4351      JMS   S0351             /                                       @@0224=4351
  213 00225 1376      TAD   C0376             /                                       @@0225=1376
  214 00226 4351      JMS   S0351             /                                       @@0226=4351
  215 00227 7604      LAS                     /                                       @@0227=7604
  216 00230 7700      SMA CLA                 /                                       @@0230=7700
  217 00231 7402      HLT                     /                                       @@0231=7402
  218 00232 5601      JMP I S0201             / return                                @@0232=5601
  219             
  220             ////////////////////////////////////////////////////////////////////////////////
  221             /
  222             /   SUBROUTINE:  S0233
  223             /
  224             /   Called from:
  225             /   0213 
  226             /   Total 0001 (1) calls
  227             ////////////////////////////////////////////////////////////////////////////////
  228             S0233,

      AUTOMATIC DISASSEMBLY OF MAINDEC-8E-D0GC-PB.bin BY D8TAPE           Page 5


  229 00233 0000      0                       / return area
  230 00234 1010      TAD   AI0               / AUTO INDEX REGISTER                   @@0234=1010
  231 00235 7041      CIA                     /                                       @@0235=7041
  232 00236 1167      TAD   D0167             /                                       @@0236=1167
  233 00237 7650      SNA CLA                 /                                       @@0237=7650
  234 00240 5633      JMP I S0233             / return                                @@0240=5633
  235 00241 1010      TAD   AI0               / AUTO INDEX REGISTER                   @@0241=1010
  236 00242 7041      CIA                     /                                       @@0242=7041
  237 00243 1173      TAD   D0173             /                                       @@0243=1173
  238 00244 7650      SNA CLA                 /                                       @@0244=7650
  239 00245 5633      JMP I S0233             / return                                @@0245=5633
  240 00246 1372      TAD   C0372             /                                       @@0246=1372
  241 00247 4351      JMS   S0351             /                                       @@0247=4351
  242 00250 1010      TAD   AI0               / AUTO INDEX REGISTER                   @@0250=1010
  243 00251 4310  C0251,  4310                / JMS   L0310                           
  244 00252 1010      TAD   AI0               / AUTO INDEX REGISTER                   @@0252=1010
  245 00253 3176      DCA   D0176             /                                       @@0253=3176
  246 00254 1373      TAD   C0373             /                                       @@0254=1373
  247 00255 4351      JMS   S0351             /                                       @@0255=4351
  248 00256 1576      TAD I D0176             /                                       @@0256=1576
  249 00257 4310  C0257,  4310                / JMS   L0310                           
  250 00260 1375      TAD   C0375             /                                       @@0260=1375
  251 00261 4351      JMS   S0351             /                                       @@0261=4351
  252 00262 1376      TAD   C0376             /                                       @@0262=1376
  253 00263 4351      JMS   S0351             /                                       @@0263=4351
  254 00264 5633      JMP I S0233             / return                                @@0264=5633
  255             
  256             ////////////////////////////////////////////////////////////////////////////////
  257             /
  258             /   SUBROUTINE:  S0265
  259             /
  260             /   Called from:
  261             /   0206 
  262             /   Total 0001 (1) calls
  263             ////////////////////////////////////////////////////////////////////////////////
  264             S0265,
  265 00265 0000      0                       / return area
  266 00266 7200      CLA                     /                                       @@0266=7200
  267 00267 1367      TAD   C0367             /                                       @@0267=1367
  268 00270 4351      JMS   S0351             /                                       @@0270=4351
  269 00271 1167      TAD   D0167             /                                       @@0271=1167
  270 00272 4310  C0272,  4310                / JMS   L0310                           
  271 00273 1371      TAD   C0371             /                                       @@0273=1371
  272 00274 4351      JMS   S0351             /                                       @@0274=4351
  273 00275 1166      TAD   D0166             /                                       @@0275=1166
  274 00276 4310  C0276,  4310                / JMS   L0310                           
  275 00277 1377      TAD   C0377             /                                       @@0277=1377
  276 00300 4351      JMS   S0351             /                                       @@0300=4351
  277 00301 1170      TAD   D0170             /                                       @@0301=1170
  278 00302 4310  C0302,  4310                / JMS   L0310                           
  279 00303 1375      TAD   C0375             /                                       @@0303=1375
  280 00304 4351      JMS   S0351             /                                       @@0304=4351
  281 00305 1376      TAD   C0376             /                                       @@0305=1376
  282 00306 4351      JMS   S0351             /                                       @@0306=4351
  283 00307 5665      JMP I S0265             / return                                @@0307=5665
  284             L0310,
  285             C0310,

      AUTOMATIC DISASSEMBLY OF MAINDEC-8E-D0GC-PB.bin BY D8TAPE           Page 6


  286 00310 5310  C0310,  5310                / JMP   L0310                           
  287 00311 3366      DCA   D0366             /                                       @@0311=3366
  288 00312 1366      TAD   D0366             /                                       @@0312=1366
  289 00313 7012      RTR                     /                                       @@0313=7012
  290 00314 7010      RAR                     /                                       @@0314=7010
  291 00315 3365      DCA   D0365             /                                       @@0315=3365
  292 00316 1365      TAD   D0365             /                                       @@0316=1365
  293 00317 7012      RTR                     /                                       @@0317=7012
  294 00320 7010      RAR                     /                                       @@0320=7010
  295 00321 3364      DCA   D0364             /                                       @@0321=3364
  296 00322 1364      TAD   D0364             /                                       @@0322=1364
  297 00323 7012      RTR                     /                                       @@0323=7012
  298 00324 7010      RAR                     /                                       @@0324=7010
  299 00325 3363      DCA   D0363             /                                       @@0325=3363
  300 00326 1370      TAD   C0370             /                                       @@0326=1370
  301 00327 4351      JMS   S0351             /                                       @@0327=4351
  302 00330 1357      TAD   C0357             /                                       @@0330=1357
  303 00331 3360      DCA   D0360             /                                       @@0331=3360
  304             L0332,
  305 00332 1363      TAD   D0363             /                                       @@0332=1363
  306 00333 0361      AND   C0361             /                                       @@0333=0361
  307 00334 1362      TAD   C0362             /                                       @@0334=1362
  308 00335 4351      JMS   S0351             /                                       @@0335=4351
  309 00336 1364      TAD   D0364             /                                       @@0336=1364
  310 00337 3363      DCA   D0363             /                                       @@0337=3363
  311 00340 1365      TAD   D0365             /                                       @@0340=1365
  312 00341 3364      DCA   D0364             /                                       @@0341=3364
  313 00342 1366      TAD   D0366             /                                       @@0342=1366
  314 00343 3365      DCA   D0365             /                                       @@0343=3365
  315 00344 2360      ISZ   D0360             /                                       @@0344=2360
  316 00345 5332      JMP   L0332             /                                       @@0345=5332
  317 00346 1370      TAD   C0370             /                                       @@0346=1370
  318 00347 4351      JMS   S0351             /                                       @@0347=4351
  319 00350 5710      JMP I L0310             / long jump to L5310                    @@0350=5710
  320             
  321             ////////////////////////////////////////////////////////////////////////////////
  322             /
  323             /   SUBROUTINE:  S0351
  324             /
  325             /   Called from:
  326             /   0222 0224 0226 0247 0255 0261 0263 0270 0274 0300 0304 0306 0327 0335 0347 
  327             /   
  328             /   Total 0017 (15) calls
  329             ////////////////////////////////////////////////////////////////////////////////
  330             S0351,
  331 00351 0000      0                       / return area
  332 00352 6046      TLS                     / Load the TTO from the content of AC4  @@0352=6046
  333             L0353,
  334 00353 6041      TSF                     / Skip if teleprinter flag is a 1.      @@0353=6041
  335 00354 5353      JMP   L0353             /                                       @@0354=5353
  336 00355 7200      CLA                     /                                       @@0355=7200
  337 00356 5751      JMP I S0351             / return                                @@0356=5751
  338 00357 7774  C0357,  7774                / SPA SNA SZL CLA OSR                   
  339 00360 0000  D0360,  0000                / AND   L0000                           
  340 00361 0007  C0361,  0007                / AND   C0007                           
  341 00362 0260  C0362,  0260                / AND   C0260                           
  342 00363 0000  D0363,  0000                / AND   L0000                           

      AUTOMATIC DISASSEMBLY OF MAINDEC-8E-D0GC-PB.bin BY D8TAPE           Page 7


  343 00364 0000  D0364,  0000                / AND   L0000                           
  344 00365 0000  D0365,  0000                / AND   L0000                           
  345 00366 0000  D0366,  0000                / AND   L0000                           
  346 00367 0306  C0367,  0306                / AND   C0306                           
  347 00370 0240  C0370,  0240                / AND   C0240                           
  348 00371 0301  C0371,  0301                / AND   C0301                           
  349 00372 0314  C0372,  0314                / AND   C0314                           
  350 00373 0303  C0373,  0303                / AND   C0303                           
  351 00374 0305  C0374,  0305                / AND   C0305                           
  352 00375 0215  C0375,  0215                / AND   C0215                           
  353 00376 0212  C0376,  0212                / AND   C0212                           
  354 00377 0317  C0377,  0317                / AND   C0317                           
  355             
  356       0400  *0400
  357             
  358             ////////////////////////////////////////////////////////////////////////////////
  359             /
  360             /   SUBROUTINE:  S0400
  361             /
  362             /   Called from:
  363             /   0152 
  364             /   Total 0001 (1) calls
  365             ////////////////////////////////////////////////////////////////////////////////
  366             S0400,
  367 00400 0000      0                       / return area
  368 00401 1207      TAD   C0407             /                                       @@0401=1207
  369 00402 3006      DCA   D0006             /                                       @@0402=3006
  370 00403 1013      TAD   AI3               / AUTO INDEX REGISTER                   @@0403=1013
  371 00404 6046      TLS                     / Load the TTO from the content of AC4  @@0404=6046
  372 00405 7200      CLA                     /                                       @@0405=7200
  373 00406 5600      JMP I S0400             / return                                @@0406=5600
  374 00407 7771  C0407,  7771                / CLA MQA SCA MQL NMI                   
  375             
  376       7751  *7751                       / align to RIMLDR location
  377 07751 0200      0200                    / addr of program start
  378 07752 6032      KCC                     / first instr in std RIMLDR
  379 07753 1352      TAD .-1                 / get KCC instr
  380 07754 3356      DCA .+2                 / restore into RIMLDR
  381 07755 5751      JMP I .-4               / start program
  382 07756 5353      JMP .-3                 / overlay first word of RIMLDR
  383             

      No detected errors

      AUTOMATIC DISASSEMBLY OF MAINDEC-8E-D0GC-PB.bin BY D8TAPE           Page 8
                                                                    Symbol Table

    1  AI0    00010   L0075  00075 
    2  AI1    00011   L0104  00104 
    3  AI2    00012   L0211  00211 
    4  AI3    00013   L0310  00310 
    5  AI4    00014   L0332  00332 
    6  C0000  00000   L0353  00353 
    7  C0001  00001   S0154  00154 
    8  C0002  00002   S0201  00201 
    9  C0003  00003   S0233  00233 
   10  C0007  00007   S0265  00265 
   11  C0100  00100   S0351  00351 
   12  C0171  00171   S0400  00400 
   13  C0172  00172 
   14  C0174  00174 
   15  C0175  00175 
   16  C0177  00177 
   17  C0251  00251 
   18  C0257  00257 
   19  C0272  00272 
   20  C0276  00276 
   21  C0302  00302 
   22  C0310  00310 
   23  C0357  00357 
   24  C0361  00361 
   25  C0362  00362 
   26  C0367  00367 
   27  C0370  00370 
   28  C0371  00371 
   29  C0372  00372 
   30  C0373  00373 
   31  C0374  00374 
   32  C0375  00375 
   33  C0376  00376 
   34  C0377  00377 
   35  C0407  00407 
   36  D0006  00006 
   37  D0165  00165 
   38  D0166  00166 
   39  D0167  00167 
   40  D0170  00170 
   41  D0173  00173 
   42  D0176  00176 
   43  D0360  00360 
   44  D0363  00363 
   45  D0364  00364 
   46  D0365  00365 
   47  D0366  00366 
   48  L0000  00000 
   49  L0001  00001 
   50  L0020  00020 
   51  L0022  00022 
   52  L0030  00030 
   53  L0034  00034 
   54  L0046  00046 
   55  L0052  00052 
   56  L0057  00057 
   57  L0071  00071 

      AUTOMATIC DISASSEMBLY OF MAINDEC-8E-D0GC-PB.bin BY D8TAPE           Page 9
                                                                 Cross Reference

    1 A     39  AI0          48     50     51    199    201    204    230    235
    2                       242    244
    3 A     40  AI1         136    138    139    143
    4 A     41  AI2         140
    5 A     42  AI3         370
    6 A     43  AI4         163
    7 A     29  C0000   
    8 A     31  C0001   
    9 A     32  C0002   
   10 A     33  C0003   
   11 A     38  C0007       146
   12 A    103  C0100   
   13 A    171  C0171       117
   14 A    172  C0172       122
   15 A    174  C0174        53     74     96    206
   16 A    175  C0175        47     68     90    198
   17 A    178  C0177       132
   18 A    243  C0251   
   19 A    249  C0257   
   20 A    270  C0272   
   21 A    274  C0276   
   22 A    278  C0302   
   23 A    286  C0310   
   24 A    338  C0357       302
   25 A    340  C0361       306
   26 A    341  C0362       307
   27 A    346  C0367       267
   28 A    347  C0370       300    317
   29 A    348  C0371       271
   30 A    349  C0372       240
   31 A    350  C0373       246
   32 A    351  C0374       209
   33 A    352  C0375       211    250    279
   34 A    353  C0376       213    252    281
   35 A    354  C0377       275
   36 A    374  C0407       368
   37 A     36  D0006       144    369
   38 A    167  D0165       160    164    165
   39 A    168  D0166        85     86    110    128    133    273
   40 A    169  D0167        63     64    108    118    119    126    134    232
   41                       269
   42 A    170  D0170       106    124    130    277
   43 A    173  D0173       121    123    135    237
   44 A    176  D0176       245    248
   45 A    339  D0360       303    315
   46 A    342  D0363       299    305    310
   47 A    343  D0364       295    296    309    312
   48 A    344  D0365       291    292    311    314
   49 A    345  D0366       287    288    313
   50 A     28  L0000        34     35
   51 A     30  L0001   
   52 A     46  L0020       181
   53 A     49  L0022        55
   54 A     56  L0030       112    116    142    145    147
   55 A     61  L0034        71     76
   56 A     72  L0046        66
   57 A     77  L0052        60     70

      AUTOMATIC DISASSEMBLY OF MAINDEC-8E-D0GC-PB.bin BY D8TAPE          Page 10
                                                                 Cross Reference

   58 A     83  L0057        93     98
   59 A     94  L0071        88
   60 A     99  L0075        82     92
   61 A    107  L0104       104
   62 A    200  L0211       208
   63 A    284  L0310       319
   64 A    304  L0332       316
   65 A    333  L0353       335
   66 A    157  S0154        62     84    105    166
   67 A    191  S0201       196    218
   68 A    228  S0233       203    234    239    254
   69 A    264  S0265       197    283
   70 A    330  S0351       210    212    214    241    247    251    253    268
   71                       272    276    280    282    301    308    318    337
   72 A    366  S0400       373

      AUTOMATIC DISASSEMBLY OF MAINDEC-8E-D0GC-PB.bin BY D8TAPE          Page 11
                                                                      Memory Map

    1 00000/ XXXXXXXX XXXXX... XXXXXXXX XXXXXXXX XXXXXXXX XXXXXXXX XXXXXXXX XXXXXXXX
    2 00100/ XXXXXXXX XXXXXXXX XXXXXXXX XXXXXXXX XXXXXXXX XXXXXXXX XXXXXXXX XXXXXXXX
    3
    4 00200/ XXXXXXXX XXXXXXXX XXXXXXXX XXXXXXXX XXXXXXXX XXXXXXXX XXXXXXXX XXXXXXXX
    5 00300/ XXXXXXXX XXXXXXXX XXXXXXXX XXXXXXXX XXXXXXXX XXXXXXXX XXXXXXXX XXXXXXXX
    6
    7 00400/ XXXXXXXX ........ ........ ........ ........ ........ ........ ........
    8 00500/ ........ ........ ........ ........ ........ ........ ........ ........
    9
   10 00600/ ........ ........ ........ ........ ........ ........ ........ ........
   11 00700/ ........ ........ ........ ........ ........ ........ ........ ........
   12
   13 01000/ ........ ........ ........ ........ ........ ........ ........ ........
   14 01100/ ........ ........ ........ ........ ........ ........ ........ ........
   15
   16 01200/ ........ ........ ........ ........ ........ ........ ........ ........
   17 01300/ ........ ........ ........ ........ ........ ........ ........ ........
   18
   19 01400/ ........ ........ ........ ........ ........ ........ ........ ........
   20 01500/ ........ ........ ........ ........ ........ ........ ........ ........
   21
   22 01600/ ........ ........ ........ ........ ........ ........ ........ ........
   23 01700/ ........ ........ ........ ........ ........ ........ ........ ........
   24
   25 02000/ ........ ........ ........ ........ ........ ........ ........ ........
   26 02100/ ........ ........ ........ ........ ........ ........ ........ ........
   27
   28 02200/ ........ ........ ........ ........ ........ ........ ........ ........
   29 02300/ ........ ........ ........ ........ ........ ........ ........ ........
   30
   31 02400/ ........ ........ ........ ........ ........ ........ ........ ........
   32 02500/ ........ ........ ........ ........ ........ ........ ........ ........
   33
   34 02600/ ........ ........ ........ ........ ........ ........ ........ ........
   35 02700/ ........ ........ ........ ........ ........ ........ ........ ........
   36
   37 03000/ ........ ........ ........ ........ ........ ........ ........ ........
   38 03100/ ........ ........ ........ ........ ........ ........ ........ ........
   39
   40 03200/ ........ ........ ........ ........ ........ ........ ........ ........
   41 03300/ ........ ........ ........ ........ ........ ........ ........ ........
   42
   43 03400/ ........ ........ ........ ........ ........ ........ ........ ........
   44 03500/ ........ ........ ........ ........ ........ ........ ........ ........
   45
   46 03600/ ........ ........ ........ ........ ........ ........ ........ ........
   47 03700/ ........ ........ ........ ........ ........ ........ ........ ........
   48

      AUTOMATIC DISASSEMBLY OF MAINDEC-8E-D0GC-PB.bin BY D8TAPE          Page 12
                                                                      Memory Map

   49 04000/ ........ ........ ........ ........ ........ ........ ........ ........
   50 04100/ ........ ........ ........ ........ ........ ........ ........ ........
   51
   52 04200/ ........ ........ ........ ........ ........ ........ ........ ........
   53 04300/ ........ ........ ........ ........ ........ ........ ........ ........
   54
   55 04400/ ........ ........ ........ ........ ........ ........ ........ ........
   56 04500/ ........ ........ ........ ........ ........ ........ ........ ........
   57
   58 04600/ ........ ........ ........ ........ ........ ........ ........ ........
   59 04700/ ........ ........ ........ ........ ........ ........ ........ ........
   60
   61 05000/ ........ ........ ........ ........ ........ ........ ........ ........
   62 05100/ ........ ........ ........ ........ ........ ........ ........ ........
   63
   64 05200/ ........ ........ ........ ........ ........ ........ ........ ........
   65 05300/ ........ ........ ........ ........ ........ ........ ........ ........
   66
   67 05400/ ........ ........ ........ ........ ........ ........ ........ ........
   68 05500/ ........ ........ ........ ........ ........ ........ ........ ........
   69
   70 05600/ ........ ........ ........ ........ ........ ........ ........ ........
   71 05700/ ........ ........ ........ ........ ........ ........ ........ ........
   72
   73 06000/ ........ ........ ........ ........ ........ ........ ........ ........
   74 06100/ ........ ........ ........ ........ ........ ........ ........ ........
   75
   76 06200/ ........ ........ ........ ........ ........ ........ ........ ........
   77 06300/ ........ ........ ........ ........ ........ ........ ........ ........
   78
   79 06400/ ........ ........ ........ ........ ........ ........ ........ ........
   80 06500/ ........ ........ ........ ........ ........ ........ ........ ........
   81
   82 06600/ ........ ........ ........ ........ ........ ........ ........ ........
   83 06700/ ........ ........ ........ ........ ........ ........ ........ ........
   84
   85 07000/ ........ ........ ........ ........ ........ ........ ........ ........
   86 07100/ ........ ........ ........ ........ ........ ........ ........ ........
   87
   88 07200/ ........ ........ ........ ........ ........ ........ ........ ........
   89 07300/ ........ ........ ........ ........ ........ ........ ........ ........
   90
   91 07400/ ........ ........ ........ ........ ........ ........ ........ ........
   92 07500/ ........ ........ ........ ........ ........ ........ ........ ........
   93
   94 07600/ ........ ........ ........ ........ ........ ........ ........ ........
   95 07700/ ........ ........ ........ ........ ........ .XXXXXX. ........ ........
   96
