
      AUTOMATIC DISASSEMBLY OF MAINDEC-8E-D0CC-PB.bin BY D8TAPE           Page 1


    1             TITLE "AUTOMATIC DISASSEMBLY OF MAINDEC-8E-D0CC-PB.bin BY D8TAPE"
    2             ////////////////////////////////////////////////////////////////////////////////
    3             /
    4             /   Automatic Disassembly of MAINDEC-8E-D0CC-PB.bin
    5             /   Generated 2015 10 26 22:25:41
    6             /   Generated by d8tape version 0.347
    7             /   Visit http://www.pdp12.org/pdp8/software/index.html for updates
    8             /
    9             /   Symbol format:
   10             /       AIx   -- Auto-index variables (address range 001x)
   11             /       Caaaa -- Constants (non-unique)
   12             /       Daaaa -- Data (read/write variables)
   13             /       Kvvvv -- Program-wide unique constants
   14             /       Laaaa -- Labels for control flow targets
   15             /       Saaaa -- Subroutines
   16             /
   17             /   Where:
   18             /       aaaa is the definition address
   19             /       vvvv is the value of the constant
   20             /       x    is the last digit of the address 001x for auto-index variables
   21             /
   22             /   4463 locations used, 3740 code and 0523 data
   23             ////////////////////////////////////////////////////////////////////////////////
   24             
   25       0200  *0200
   26             
   27       7775  *7775
   28 07775 0000      AND   L0000             /                                       @@7775=0000
   29             L7776,
   30 07776 0000  D7776,  0000                / AND   L0000                           
   31             L7777,
   32 07777 0000  D7777,  0000                / AND   L0000                           
   33             
   34       0000  *0000
   35             L0000,
   36 00000 0000  D0000,  0000                / AND   L0000                           
   37             L0001,
   38 00001 5001  D0001,  5001                / JMP   L0001                           
   39             
   40             ////////////////////////////////////////////////////////////////////////////////
   41             /
   42             /   SUBROUTINE:  S0002
   43             /
   44             /   Called from:
   45             /   5326 5555 5774 
   46             /   Total 0003 (3) calls
   47             ////////////////////////////////////////////////////////////////////////////////
   48 00002 0002  S0002,  0002
   49             L0003,
   50 00003 0003  D0003,  0003                / AND   L0003                           
   51             
   52             ////////////////////////////////////////////////////////////////////////////////
   53             /
   54             /   SUBROUTINE:  S0004
   55             /
   56             /   Called from:
   57             /   5746 

      AUTOMATIC DISASSEMBLY OF MAINDEC-8E-D0CC-PB.bin BY D8TAPE           Page 2


   58             /   Total 0001 (1) calls
   59             ////////////////////////////////////////////////////////////////////////////////
   60             S0004,
   61 00004 0000      0                       / return area
   62             
   63       0010  *0010
   64 00010 0000  AI0,    0000                / AUTO-INDEX REGISTER AND   L0000                           
   65 00011 0000  AI1,    0000                / AUTO-INDEX REGISTER AND   L0000                           
   66 00012 0000  AI2,    0000                / AUTO-INDEX REGISTER AND   L0000                           
   67             
   68       0020  *0020
   69 00020 0000  D0020,  0000                / AND   L0000                           
   70 00021 0022      AND   C0022             /                                       @@0021=0022
   71 00022 7777  C0022,  7777                / CLA MQA SCA MQL LSR +                 
   72 00023 0000  D0023,  0000                / AND   L0000                           
   73 00024 0000  D0024,  0000                / AND   L0000                           
   74 00025 0000  D0025,  0000                / AND   L0000                           
   75             L0026,
   76 00026 0000  D0026,  0000                / AND   L0000                           
   77 00027 0000  D0027,  0000                / AND   L0000                           
   78 00030 0000  D0030,  0000                / AND   L0000                           
   79 00031 0000  D0031,  0000                / AND   L0000                           
   80 00032 0000  D0032,  0000                / AND   L0000                           
   81 00033 0000  D0033,  0000                / AND   L0000                           
   82 00034 0000  D0034,  0000                / AND   L0000                           
   83 00035 0000  D0035,  0000                / AND   L0000                           
   84 00036 0000  D0036,  0000                / AND   L0000                           
   85 00037 0000  D0037,  0000                / AND   L0000                           
   86 00040 0000  D0040,  0000                / AND   L0000                           
   87             L0041,
   88 00041 0037  D0041,  0037                / AND   D0037                           
   89 00042 0000      AND   L0000             /                                       @@0042=0000
   90 00043 0000  D0043,  0000                / AND   L0000                           
   91 00044 0000  D0044,  0000                / AND   L0000                           
   92 00045 0000  D0045,  0000                / AND   L0000                           
   93 00046 1600  D0046,  1600                / TAD I L0000                           
   94             C0047,
   95 00047 1652  C0047,  1652                / TAD I C0052                           
   96 00050 1133  C0050,  1133                / TAD   C0133                           
   97             C0051,
   98 00051 1200  C0051,  1200                / TAD   L0000                           
   99 00052 0756  C0052,  0756                / AND I L0156                           
  100 00053 1157  C0053,  1157                / TAD   C0157                           
  101 00054 1140  C0054,  1140                / TAD   D0140                           
  102 00055 1657  C0055,  1657                / TAD I C0057                           
  103             C0056,
  104 00056 1000  C0056,  1000                / TAD   L0000                           
  105             C0057,
  106 00057 1031  C0057,  1031                / TAD   D0031                           
  107             C0060,
  108 00060 0504  C0060,  0504                / AND I C0104                           
  109             C0061,
  110 00061 0523  C0061,  0523                / AND I C0123                           
  111             C0062,
  112 00062 3000  C0062,  3000                / DCA   L0000                           
  113             C0063,
  114 00063 3730  C0063,  3730                / DCA I C0130                           

      AUTOMATIC DISASSEMBLY OF MAINDEC-8E-D0CC-PB.bin BY D8TAPE           Page 3


  115             C0064,
  116 00064 3017  C0064,  3017                / DCA   AI7                             
  117             C0065,
  118 00065 3037  C0065,  3037                / DCA   D0037                           
  119             C0066,
  120 00066 3027  C0066,  3027                / DCA   D0027                           
  121             C0067,
  122 00067 3046  C0067,  3046                / DCA   D0046                           
  123 00070 7775  D0070,  7775                / CLA MQA SCA MQL ASR +                 
  124             C0071,
  125 00071 7776  C0071,  7776                / SPA SNA SZL CLA OSR HLT               
  126             C0072,
  127 00072 7777  C0072,  7777                / CLA MQA SCA MQL LSR +                 
  128             C0073,
  129 00073 3512  C0073,  3512                / DCA I C0112                           
  130             C0074,
  131 00074 0410  C0074,  0410                / AND I AI0                             
  132             C0075,
  133 00075 0552  C0075,  0552                / AND I C0152                           
  134 00076 0240  D0076,  0240                / AND   D0040                           
  135 00077 0260  C0077,  0260                / AND   C0060                           
  136             L0100,
  137 00100 0261  C0100,  0261                / AND   C0061                           
  138             L0101,
  139 00101 6000  C0101,  6000                / 6000                                  
  140 00102 0102  C0102,  0102                / AND   C0102                           
  141 00103 4000  C0103,  4000                / JMS   L0000                           
  142 00104 2000  C0104,  2000                / ISZ   L0000                           
  143 00105 1000  C0105,  1000                / TAD   L0000                           
  144 00106 0400  C0106,  0400                / AND I L0000                           
  145 00107 0200  C0107,  0200                / AND   L0000                           
  146 00110 0100      AND   L0100             /                                       @@0110=0100
  147 00111 0040  C0111,  0040                / AND   D0040                           
  148 00112 0020  C0112,  0020                / AND   D0020                           
  149 00113 0010  C0113,  0010                / AND   AI0                             
  150 00114 0004  C0114,  0004                / AND   S0004                           
  151             L0115,
  152 00115 0002  C0115,  0002                / AND   S0002                           
  153 00116 0001  C0116,  0001                / AND   L0001                           
  154 00117 0000      AND   L0000             /                                       @@0117=0000
  155 00120 4000      JMS   L0000             /                                       @@0120=4000
  156 00121 0001      AND   L0001             /                                       @@0121=0001
  157 00122 2004  C0122,  2004                / ISZ   S0004                           
  158 00123 2043  C0123,  2043                / ISZ   D0043                           
  159 00124 2076  C0124,  2076                / ISZ   D0076                           
  160 00125 2200  C0125,  2200                / ISZ   L0000                           
  161 00126 2232  C0126,  2232                / ISZ   D0032                           
  162 00127 2270  C0127,  2270                / ISZ   D0070                           
  163 00130 2400  C0130,  2400                / ISZ I L0000                           
  164 00131 2436  C0131,  2436                / ISZ I D0036                           
  165 00132 2472  C0132,  2472                / ISZ I C0072                           
  166 00133 2600  C0133,  2600                / ISZ I L0000                           
  167 00134 2634  C0134,  2634                / ISZ I D0034                           
  168 00135 2667  C0135,  2667                / ISZ I C0067                           
  169 00136 1376  C0136,  1376                / TAD   D0176                           
  170 00137 7001  C0137,  7001                / IAC                                   
  171 00140 5404  D0140,  5404                / JMP I S0004                           

      AUTOMATIC DISASSEMBLY OF MAINDEC-8E-D0CC-PB.bin BY D8TAPE           Page 4


  172 00141 5402  C0141,  5402                / JMP I S0002                           
  173 00142 7070  C0142,  7070                / CMA CML RAR                           
  174 00143 2376  C0143,  2376                / ISZ   D0176                           
  175 00144 2000  C0144,  2000                / ISZ   L0000                           
  176 00145 2410  C0145,  2410                / ISZ I AI0                             
  177 00146 4000  C0146,  4000                / JMS   L0000                           
  178 00147 4776  C0147,  4776                / JMS I D0176                           
  179 00150 4410  C0150,  4410                / JMS I AI0                             
  180 00151 5403  C0151,  5403                / JMP I L0003                           
  181 00152 5401  C0152,  5401                / JMP I L0001                           
  182 00153 4377  C0153,  4377                / JMS   L0177                           
  183 00154 2004  D0154,  2004                / ISZ   S0004                           
  184 00155 5301  C0155,  5301                / JMP   L0101                           
  185             L0156,
  186 00156 6007  C0156,  6007                / 6007                                  
  187 00157 7604  C0157,  7604                / LAS                                   
  188 00160 0106      AND   C0106             /                                       @@0160=0106
  189 00161 7650      SNA CLA                 /                                       @@0161=7650
  190 00162 5177      JMP   L0177             /                                       @@0162=5177
  191 00163 7240      STA                     / AC = 7777 (-0001)                     @@0163=7240
  192 00164 0170      AND   C0170             /                                       @@0164=0170
  193             C0165,
  194 00165 3024  C0165,  3024                / DCA   D0024                           
  195 00166 5567      JMP I C0167             / long jump to L0202                    @@0166=5567
  196             C0167,
  197 00167 0202  C0167,  0202                / AND   S0002                           
  198 00170 0000  C0170,  0000                / AND   L0000                           
  199 00171 0000  C0171,  0000                / AND   L0000                           
  200 00172 0007  C0172,  0007                / AND   C0007                           
  201 00173 0070  C0173,  0070                / AND   D0070                           
  202 00174 0000  D0174,  0000                / AND   L0000                           
  203 00175 0000  D0175,  0000                / AND   L0000                           
  204 00176 0000  D0176,  0000                / AND   L0000                           
  205             
  206       0177  *0177
  207             L0177,
  208 00177 7410      SKP                     /                                       @@0177=7410
  209             
  210       0200  *0200
  211             L0200,
  212 00200 5156      JMP   L0156             /                                       @@0200=5156
  213 00201 3024      DCA   D0024             /                                       @@0201=3024
  214             L0202,
  215 00202 3023      DCA   D0023             /                                       @@0202=3023
  216 00203 3035      DCA   D0035             /                                       @@0203=3035
  217             L0204,
  218 00204 7340      CLA CLL CMA             / AC = 7777 (-0001)                     @@0204=7340
  219 00205 0023      AND   D0023             /                                       @@0205=0023
  220 00206 7421      MQL                     /                                       @@0206=7421
  221 00207 7040      CMA                     /                                       @@0207=7040
  222 00210 0024      AND   D0024             /                                       @@0210=0024
  223 00211 7501      MQA                     /                                       @@0211=7501
  224 00212 3027      DCA   D0027             /                                       @@0212=3027
  225 00213 7501      MQA                     /                                       @@0213=7501
  226 00214 7040      CMA                     /                                       @@0214=7040
  227 00215 0024      AND   D0024             /                                       @@0215=0024
  228 00216 7421      MQL                     /                                       @@0216=7421

      AUTOMATIC DISASSEMBLY OF MAINDEC-8E-D0CC-PB.bin BY D8TAPE           Page 5


  229 00217 7040      CMA                     /                                       @@0217=7040
  230 00220 0024      AND   D0024             /                                       @@0220=0024
  231 00221 7040      CMA                     /                                       @@0221=7040
  232 00222 0023      AND   D0023             /                                       @@0222=0023
  233 00223 7501      MQA                     /                                       @@0223=7501
  234 00224 3025      DCA   D0025             /                                       @@0224=3025
  235 00225 3026      DCA   L0026             /                                       @@0225=3026
  236 00226 7040      CMA                     /                                       @@0226=7040
  237 00227 0023      AND   D0023             /                                       @@0227=0023
  238 00230 0024      AND   D0024             /                                       @@0230=0024
  239 00231 7450      SNA                     /                                       @@0231=7450
  240 00232 5274      JMP   L0274             /                                       @@0232=5274
  241 00233 7421      MQL                     /                                       @@0233=7421
  242             L0234,
  243 00234 7521      MQA MQL                 /                                       @@0234=7521
  244 00235 0027      AND   D0027             /                                       @@0235=0027
  245 00236 7450      SNA                     /                                       @@0236=7450
  246 00237 5244      JMP   L0244             /                                       @@0237=5244
  247 00240 7104      CLL RAL                 /                                       @@0240=7104
  248 00241 7521      MQA MQL                 /                                       @@0241=7521
  249 00242 7501      MQA                     /                                       @@0242=7501
  250 00243 5234      JMP   L0234             /                                       @@0243=5234
  251             L0244,
  252 00244 7501      MQA                     /                                       @@0244=7501
  253 00245 0027      AND   D0027             /                                       @@0245=0027
  254 00246 0103      AND   C0103             /                                       @@0246=0103
  255 00247 7450      SNA                     /                                       @@0247=7450
  256 00250 5253      JMP   L0253             /                                       @@0250=5253
  257 00251 3026      DCA   L0026             /                                       @@0251=3026
  258 00252 5260      JMP   L0260             /                                       @@0252=5260
  259             L0253,
  260 00253 7130      CLL CML RAR             /                                       @@0253=7130
  261 00254 0023      AND   D0023             /                                       @@0254=0023
  262 00255 0024      AND   D0024             /                                       @@0255=0024
  263 00256 7440      SZA                     /                                       @@0256=7440
  264 00257 3026      DCA   L0026             /                                       @@0257=3026
  265             L0260,
  266 00260 7501      MQA                     /                                       @@0260=7501
  267 00261 3030      DCA   D0030             /                                       @@0261=3030
  268 00262 7501      MQA                     /                                       @@0262=7501
  269 00263 7040      CMA                     /                                       @@0263=7040
  270 00264 0025      AND   D0025             /                                       @@0264=0025
  271 00265 7421      MQL                     /                                       @@0265=7421
  272 00266 7040      CMA                     /                                       @@0266=7040
  273 00267 0025      AND   D0025             /                                       @@0267=0025
  274 00270 7040      CMA                     /                                       @@0270=7040
  275 00271 0030      AND   D0030             /                                       @@0271=0030
  276 00272 7501      MQA                     /                                       @@0272=7501
  277 00273 3025      DCA   D0025             /                                       @@0273=3025
  278             L0274,
  279 00274 7340      CLA CLL CMA             / AC = 7777 (-0001)                     @@0274=7340
  280 00275 0023      AND   D0023             /                                       @@0275=0023
  281 00276 1024      TAD   D0024             /                                       @@0276=1024
  282 00277 7000      NOP                     /                                       @@0277=7000
  283 00300 3031      DCA   D0031             /                                       @@0300=3031
  284 00301 7010      RAR                     /                                       @@0301=7010
  285 00302 3032      DCA   D0032             /                                       @@0302=3032

      AUTOMATIC DISASSEMBLY OF MAINDEC-8E-D0CC-PB.bin BY D8TAPE           Page 6


  286 00303 7040      CMA                     /                                       @@0303=7040
  287 00304 0024      AND   D0024             /                                       @@0304=0024
  288 00305 1023      TAD   D0023             /                                       @@0305=1023
  289 00306 7000      NOP                     /                                       @@0306=7000
  290 00307 3033      DCA   D0033             /                                       @@0307=3033
  291 00310 7010      RAR                     /                                       @@0310=7010
  292 00311 3034      DCA   D0034             /                                       @@0311=3034
  293 00312 7000      NOP                     /                                       @@0312=7000
  294 00313 7340      CLA CLL CMA             / AC = 7777 (-0001)                     @@0313=7340
  295 00314 0031      AND   D0031             /                                       @@0314=0031
  296 00315 7040      CMA                     /                                       @@0315=7040
  297 00316 0033      AND   D0033             /                                       @@0316=0033
  298 00317 7440      SZA                     /                                       @@0317=7440
  299 00320 5377      JMP   L0377             /                                       @@0320=5377
  300 00321 7040      CMA                     /                                       @@0321=7040
  301 00322 0033      AND   D0033             /                                       @@0322=0033
  302 00323 7040      CMA                     /                                       @@0323=7040
  303 00324 0031      AND   D0031             /                                       @@0324=0031
  304 00325 7440      SZA                     /                                       @@0325=7440
  305 00326 5377      JMP   L0377             /                                       @@0326=5377
  306 00327 7340      CLA CLL CMA             / AC = 7777 (-0001)                     @@0327=7340
  307 00330 0031      AND   D0031             /                                       @@0330=0031
  308 00331 7040      CMA                     /                                       @@0331=7040
  309 00332 0025      AND   D0025             /                                       @@0332=0025
  310 00333 7440      SZA                     /                                       @@0333=7440
  311 00334 5377      JMP   L0377             /                                       @@0334=5377
  312 00335 7040      CMA                     /                                       @@0335=7040
  313 00336 0025      AND   D0025             /                                       @@0336=0025
  314 00337 7040      CMA                     /                                       @@0337=7040
  315 00340 0031      AND   D0031             /                                       @@0340=0031
  316 00341 7440      SZA                     /                                       @@0341=7440
  317 00342 5377      JMP   L0377             /                                       @@0342=5377
  318 00343 7340      CLA CLL CMA             / AC = 7777 (-0001)                     @@0343=7340
  319 00344 0032      AND   D0032             /                                       @@0344=0032
  320 00345 7004      RAL                     /                                       @@0345=7004
  321 00346 7240      STA                     / AC = 7777 (-0001)                     @@0346=7240
  322 00347 0034      AND   D0034             /                                       @@0347=0034
  323 00350 7640      SZA CLA                 /                                       @@0350=7640
  324 00351 7020      CML                     /                                       @@0351=7020
  325 00352 7430      SZL                     /                                       @@0352=7430
  326 00353 5377      JMP   L0377             /                                       @@0353=5377
  327 00354 7340      CLA CLL CMA             / AC = 7777 (-0001)                     @@0354=7340
  328 00355 0032      AND   D0032             /                                       @@0355=0032
  329 00356 7004      RAL                     /                                       @@0356=7004
  330 00357 7240      STA                     / AC = 7777 (-0001)                     @@0357=7240
  331 00360 0026      AND   L0026             /                                       @@0360=0026
  332 00361 7640      SZA CLA                 /                                       @@0361=7640
  333 00362 7020      CML                     /                                       @@0362=7020
  334 00363 7430      SZL                     /                                       @@0363=7430
  335 00364 5377      JMP   L0377             /                                       @@0364=5377
  336 00365 5474      JMP I C0074             / long jump to L0410                    @@0365=5474
  337             L0366,
  338 00366 2023      ISZ   D0023             /                                       @@0366=2023
  339 00367 5204      JMP   L0204             /                                       @@0367=5204
  340 00370 2024      ISZ   D0024             /                                       @@0370=2024
  341 00371 7410      SKP                     /                                       @@0371=7410
  342 00372 5475      JMP I C0075             / long jump to L0552                    @@0372=5475

      AUTOMATIC DISASSEMBLY OF MAINDEC-8E-D0CC-PB.bin BY D8TAPE           Page 7


  343 00373 7240      STA                     / AC = 7777 (-0001)                     @@0373=7240
  344 00374 0024      AND   D0024             /                                       @@0374=0024
  345 00375 3023      DCA   D0023             /                                       @@0375=3023
  346 00376 5204      JMP   L0204             /                                       @@0376=5204
  347             
  348       0377  *0377
  349             L0377,
  350 00377 7000      NOP                     /                                       @@0377=7000
  351             
  352       0400  *0400
  353             L0400,
  354 00400 7604      LAS                     /                                       @@0400=7604
  355 00401 0104      AND   C0104             /                                       @@0401=0104
  356 00402 7650      SNA CLA                 /                                       @@0402=7650
  357 00403 4217      JMS   D0417             /                                       @@0403=4217
  358             L0404,
  359 00404 7604  C0404,  7604                / LAS                                   
  360 00405 0103      AND   C0103             /                                       @@0405=0103
  361 00406 7650      SNA CLA                 /                                       @@0406=7650
  362 00407 4277      JMS   S0477             /                                       @@0407=4277
  363             L0410,
  364 00410 7604      LAS                     /                                       @@0410=7604
  365 00411 0105      AND   C0105             /                                       @@0411=0105
  366 00412 7640      SZA CLA                 /                                       @@0412=7640
  367 00413 5615      JMP I C0415             / long jump to L0274                    @@0413=5615
  368 00414 5616      JMP I C0416             / long jump to L0366                    @@0414=5616
  369             C0415,
  370 00415 0274  C0415,  0274                / AND   C0474                           
  371             C0416,
  372 00416 0366  C0416,  0366                / AND   C0566                           
  373 00417 0000  D0417,  0000                / AND   L0000                           
  374 00420 7340      CLA CLL CMA             / AC = 7777 (-0001)                     @@0420=7340
  375 00421 0035      AND   D0035             /                                       @@0421=0035
  376 00422 7650      SNA CLA                 /                                       @@0422=7650
  377 00423 4267      JMS   S0467             /                                       @@0423=4267
  378 00424 7040      CMA                     /                                       @@0424=7040
  379 00425 0023      AND   D0023             /                                       @@0425=0023
  380 00426 3037      DCA   D0037             /                                       @@0426=3037
  381 00427 4323      JMS   S0523             /                                       @@0427=4323
  382 00430 7040      CMA                     /                                       @@0430=7040
  383 00431 0024      AND   D0024             /                                       @@0431=0024
  384 00432 3037      DCA   D0037             /                                       @@0432=3037
  385 00433 4323      JMS   S0523             /                                       @@0433=4323
  386 00434 7040      CMA                     /                                       @@0434=7040
  387 00435 0026      AND   L0026             /                                       @@0435=0026
  388 00436 3040      DCA   D0040             /                                       @@0436=3040
  389 00437 7040      CMA                     /                                       @@0437=7040
  390 00440 0025      AND   D0025             /                                       @@0440=0025
  391 00441 3037      DCA   D0037             /                                       @@0441=3037
  392 00442 4304      JMS   S0504             /                                       @@0442=4304
  393 00443 4323      JMS   S0523             /                                       @@0443=4323
  394 00444 7040      CMA                     /                                       @@0444=7040
  395 00445 0032      AND   D0032             /                                       @@0445=0032
  396 00446 3040      DCA   D0040             /                                       @@0446=3040
  397 00447 7040      CMA                     /                                       @@0447=7040
  398 00450 0031      AND   D0031             /                                       @@0450=0031
  399 00451 3037      DCA   D0037             /                                       @@0451=3037

      AUTOMATIC DISASSEMBLY OF MAINDEC-8E-D0CC-PB.bin BY D8TAPE           Page 8


  400 00452 4304      JMS   S0504             /                                       @@0452=4304
  401 00453 4323      JMS   S0523             /                                       @@0453=4323
  402 00454 7040      CMA                     /                                       @@0454=7040
  403 00455 0034      AND   D0034             /                                       @@0455=0034
  404 00456 3040      DCA   D0040             /                                       @@0456=3040
  405 00457 7040      CMA                     /                                       @@0457=7040
  406 00460 0033      AND   D0033             /                                       @@0460=0033
  407 00461 3037      DCA   D0037             /                                       @@0461=3037
  408 00462 4304      JMS   S0504             /                                       @@0462=4304
  409 00463 4323      JMS   S0523             /                                       @@0463=4323
  410 00464 4446      JMS I D0046             / long call to S1600                    @@0464=4446
  411 00465 5742      JMP I L0542             / long jump to L7040                    @@0465=5742
  412 00466 5204      JMP   L0404             /                                       @@0466=5204
  413             
  414             ////////////////////////////////////////////////////////////////////////////////
  415             /
  416             /   SUBROUTINE:  S0467
  417             /
  418             /   Called from:
  419             /   0423 
  420             /   Total 0001 (1) calls
  421             ////////////////////////////////////////////////////////////////////////////////
  422             S0467,
  423 00467 0000      0                       / return area
  424 00470 4446      JMS I D0046             / long call to S1600                    @@0470=4446
  425 00471 5417  C0471,  5417                / JMP I AI7                             
  426 00472 4446      JMS I D0046             / long call to S1600                    @@0472=4446
  427 00473 5177      JMP   L0177             /                                       @@0473=5177
  428 00474 7240  C0474,  7240                / STA                                   
  429 00475 3035      DCA   D0035             /                                       @@0475=3035
  430 00476 5667      JMP I S0467             / return                                @@0476=5667
  431             
  432             ////////////////////////////////////////////////////////////////////////////////
  433             /
  434             /   SUBROUTINE:  S0477
  435             /
  436             /   Called from:
  437             /   0407 
  438             /   Total 0001 (1) calls
  439             ////////////////////////////////////////////////////////////////////////////////
  440             S0477,
  441 00477 0000      0                       / return area
  442 00500 7240      STA                     / AC = 7777 (-0001)                     @@0500=7240
  443 00501 0351      AND   C0551             /                                       @@0501=0351
  444 00502 7402      HLT                     /                                       @@0502=7402
  445 00503 5677      JMP I S0477             / return                                @@0503=5677
  446             
  447             ////////////////////////////////////////////////////////////////////////////////
  448             /
  449             /   SUBROUTINE:  S0504
  450             /
  451             /   Called from:
  452             /   0442 0452 0462 1104 1114 1124 3070 3476 5075 
  453             /   Total 0011 (9) calls
  454             ////////////////////////////////////////////////////////////////////////////////
  455             S0504,
  456 00504 0000      0                       / return area

      AUTOMATIC DISASSEMBLY OF MAINDEC-8E-D0CC-PB.bin BY D8TAPE           Page 9


  457 00505 7340      CLA CLL CMA             / AC = 7777 (-0001)                     @@0505=7340
  458 00506 0040      AND   D0040             /                                       @@0506=0040
  459 00507 7640  D0507,  7640                / SZA CLA                               
  460 00510 5320      JMP   L0520             /                                       @@0510=5320
  461 00511 7040      CMA                     /                                       @@0511=7040
  462 00512 0077      AND   C0077             /                                       @@0512=0077
  463             L0513,
  464 00513 4447      JMS I C0047             / long call to S1652                    @@0513=4447
  465 00514 7040      CMA                     /                                       @@0514=7040
  466 00515 0076      AND   D0076             /                                       @@0515=0076
  467 00516 4447      JMS I C0047             / long call to S1652                    @@0516=4447
  468 00517 5704      JMP I S0504             / return                                @@0517=5704
  469             L0520,
  470 00520 7040      CMA                     /                                       @@0520=7040
  471             C0521,
  472 00521 0100  C0521,  0100                / AND   L0100                           
  473 00522 5313      JMP   L0513             /                                       @@0522=5313
  474             
  475             ////////////////////////////////////////////////////////////////////////////////
  476             /
  477             /   SUBROUTINE:  S0523
  478             /
  479             /   Called from:
  480             /   0427 0433 0443 0453 0463 1105 1115 1125 3071 3463 3467 3477 4014 4020 4030 
  481             /   5076 5106 
  482             /   Total 0021 (17) calls
  483             ////////////////////////////////////////////////////////////////////////////////
  484             S0523,
  485 00523 0000      0                       / return area
  486 00524 7340      CLA CLL CMA             / AC = 7777 (-0001)                     @@0524=7340
  487 00525 0102      AND   C0102             /                                       @@0525=0102
  488 00526 3011      DCA   AI1               / AUTO INDEX REGISTER                   @@0526=3011
  489             L0527,
  490 00527 7040      CMA                     /                                       @@0527=7040
  491 00530 0411      AND I AI1               / AUTO INDEX REGISTER                   @@0530=0411
  492 00531 7450      SNA                     /                                       @@0531=7450
  493 00532 5345      JMP   L0545             /                                       @@0532=5345
  494 00533 0037      AND   D0037             /                                       @@0533=0037
  495 00534 7640      SZA CLA                 /                                       @@0534=7640
  496 00535 5342      JMP   L0542             /                                       @@0535=5342
  497 00536 7040      CMA                     /                                       @@0536=7040
  498 00537 0077      AND   C0077             /                                       @@0537=0077
  499             L0540,
  500 00540 4447      JMS I C0047             / long call to S1652                    @@0540=4447
  501 00541 5327      JMP   L0527             /                                       @@0541=5327
  502             L0542,
  503             C0542,
  504 00542 7040  C0542,  7040                / CMA                                   
  505 00543 0100      AND   L0100             /                                       @@0543=0100
  506 00544 5340      JMP   L0540             /                                       @@0544=5340
  507             L0545,
  508 00545 7040      CMA                     /                                       @@0545=7040
  509 00546 0076      AND   D0076             /                                       @@0546=0076
  510 00547 4447      JMS I C0047             / long call to S1652                    @@0547=4447
  511 00550 5723      JMP I S0523             / return                                @@0550=5723
  512 00551 0204  C0551,  0204                / AND   L0404                           
  513             L0552,

      AUTOMATIC DISASSEMBLY OF MAINDEC-8E-D0CC-PB.bin BY D8TAPE          Page 10


  514 00552 7604      LAS                     /                                       @@0552=7604
  515 00553 0115      AND   L0115             /                                       @@0553=0115
  516 00554 7650      SNA CLA                 /                                       @@0554=7650
  517 00555 5370      JMP   L0570             /                                       @@0555=5370
  518             L0556,
  519 00556 7604      LAS                     /                                       @@0556=7604
  520 00557 0114      AND   C0114             /                                       @@0557=0114
  521 00560 7640      SZA CLA                 /                                       @@0560=7640
  522 00561 7402      HLT                     /                                       @@0561=7402
  523 00562 7604      LAS                     /                                       @@0562=7604
  524 00563 0116      AND   C0116             /                                       @@0563=0116
  525 00564 7650      SNA CLA                 /                                       @@0564=7650
  526 00565 5377      JMP   L0577             /                                       @@0565=5377
  527 00566 5767  C0566,  5767                / JMP I C0567                           
  528 00567 0204      AND   L0404             /                                       @@0567=0204
  529             L0570,
  530 00570 4446      JMS I D0046             / long call to S1600                    @@0570=4446
  531 00571 5721      JMP I C0521             / long jump to L0100                    @@0571=5721
  532 00572 5356      JMP   L0556             /                                       @@0572=5356
  533             
  534       0577  *0577
  535             L0577,
  536 00577 7000      NOP                     /                                       @@0577=7000
  537             
  538       0600  *0600
  539             L0600,
  540 00600 4752  C0600,  4752                / JMS I C0752                           
  541             L0601,
  542 00601 7340      CLA CLL CMA             / AC = 7777 (-0001)                     @@0601=7340
  543 00602 0052      AND   C0052             /                                       @@0602=0052
  544 00603 3012      DCA   AI2               / AUTO INDEX REGISTER                   @@0603=3012
  545 00604 4451      JMS I C0051             / long call to S1200                    @@0604=4451
  546             L0605,
  547 00605 7340      CLA CLL CMA             / AC = 7777 (-0001)                     @@0605=7340
  548 00606 0024      AND   D0024             /                                       @@0606=0024
  549 00607 7640      SZA CLA                 /                                       @@0607=7640
  550 00610 7020      CML                     /                                       @@0610=7020
  551 00611 7040      CMA                     /                                       @@0611=7040
  552 00612 0023      AND   D0023             /                                       @@0612=0023
  553 00613 7004      RAL                     /                                       @@0613=7004
  554 00614 7000      NOP                     /                                       @@0614=7000
  555 00615 3031      DCA   D0031             /                                       @@0615=3031
  556 00616 7430      SZL                     /                                       @@0616=7430
  557 00617 7040      CMA                     /                                       @@0617=7040
  558 00620 3033      DCA   D0033             /                                       @@0620=3033
  559 00621 4456      JMS I C0056             / long call to S1000                    @@0621=4456
  560 00622 5205      JMP   L0605             /                                       @@0622=5205
  561 00623 4457      JMS I C0057             / long call to S1031                    @@0623=4457
  562 00624 5201      JMP   L0601             /                                       @@0624=5201
  563 00625 4753      JMS I C0753             / long call to S1410                    @@0625=4753
  564             L0626,
  565 00626 7340      CLA CLL CMA             / AC = 7777 (-0001)                     @@0626=7340
  566 00627 0102      AND   C0102             /                                       @@0627=0102
  567 00630 3012      DCA   AI2               / AUTO INDEX REGISTER                   @@0630=3012
  568 00631 4451      JMS I C0051             / long call to S1200                    @@0631=4451
  569             L0632,
  570 00632 7340      CLA CLL CMA             / AC = 7777 (-0001)                     @@0632=7340

      AUTOMATIC DISASSEMBLY OF MAINDEC-8E-D0CC-PB.bin BY D8TAPE          Page 11


  571 00633 0024      AND   D0024             /                                       @@0633=0024
  572 00634 7640      SZA CLA                 /                                       @@0634=7640
  573 00635 7020      CML                     /                                       @@0635=7020
  574 00636 7040  C0636,  7040                / CMA                                   
  575 00637 0023      AND   D0023             /                                       @@0637=0023
  576 00640 7010      RAR                     /                                       @@0640=7010
  577 00641 7000      NOP                     /                                       @@0641=7000
  578 00642 3031      DCA   D0031             /                                       @@0642=3031
  579 00643 7430      SZL                     /                                       @@0643=7430
  580 00644 7040      CMA                     /                                       @@0644=7040
  581 00645 3033      DCA   D0033             /                                       @@0645=3033
  582 00646 4456      JMS I C0056             / long call to S1000                    @@0646=4456
  583 00647 5232      JMP   L0632             /                                       @@0647=5232
  584 00650 4457      JMS I C0057             / long call to S1031                    @@0650=4457
  585 00651 5226      JMP   L0626             /                                       @@0651=5226
  586 00652 4754      JMS I C0754             / long call to S1420                    @@0652=4754
  587             L0653,
  588 00653 7340      CLA CLL CMA             / AC = 7777 (-0001)                     @@0653=7340
  589 00654 0053      AND   C0053             /                                       @@0654=0053
  590 00655 3012      DCA   AI2               / AUTO INDEX REGISTER                   @@0655=3012
  591 00656 4451      JMS I C0051             / long call to S1200                    @@0656=4451
  592             L0657,
  593 00657 7340      CLA CLL CMA             / AC = 7777 (-0001)                     @@0657=7340
  594 00660 0024      AND   D0024             /                                       @@0660=0024
  595 00661 7640      SZA CLA                 /                                       @@0661=7640
  596 00662 7020      CML                     /                                       @@0662=7020
  597 00663 7040      CMA                     /                                       @@0663=7040
  598 00664 0023      AND   D0023             /                                       @@0664=0023
  599 00665 7006      RTL                     /                                       @@0665=7006
  600 00666 7000      NOP                     /                                       @@0666=7000
  601 00667 3031      DCA   D0031             /                                       @@0667=3031
  602 00670 7430      SZL                     /                                       @@0670=7430
  603 00671 7040      CMA                     /                                       @@0671=7040
  604 00672 3033      DCA   D0033             /                                       @@0672=3033
  605 00673 4456      JMS I C0056             / long call to S1000                    @@0673=4456
  606 00674 5257      JMP   L0657             /                                       @@0674=5257
  607 00675 4457      JMS I C0057             / long call to S1031                    @@0675=4457
  608 00676 5253      JMP   L0653             /                                       @@0676=5253
  609 00677 4755      JMS I C0755             / long call to S1430                    @@0677=4755
  610             L0700,
  611 00700 7340      CLA CLL CMA             / AC = 7777 (-0001)                     @@0700=7340
  612 00701 0054      AND   C0054             /                                       @@0701=0054
  613 00702 3012      DCA   AI2               / AUTO INDEX REGISTER                   @@0702=3012
  614 00703 4451      JMS I C0051             / long call to S1200                    @@0703=4451
  615             L0704,
  616 00704 7340      CLA CLL CMA             / AC = 7777 (-0001)                     @@0704=7340
  617 00705 0024      AND   D0024             /                                       @@0705=0024
  618 00706 7640      SZA CLA                 /                                       @@0706=7640
  619 00707 7020      CML                     /                                       @@0707=7020
  620 00710 7040      CMA                     /                                       @@0710=7040
  621 00711 0023      AND   D0023             /                                       @@0711=0023
  622 00712 7012      RTR                     /                                       @@0712=7012
  623 00713 7000      NOP                     /                                       @@0713=7000
  624 00714 3031      DCA   D0031             /                                       @@0714=3031
  625 00715 7430      SZL                     /                                       @@0715=7430
  626 00716 7040      CMA                     /                                       @@0716=7040
  627 00717 3033      DCA   D0033             /                                       @@0717=3033

      AUTOMATIC DISASSEMBLY OF MAINDEC-8E-D0CC-PB.bin BY D8TAPE          Page 12


  628 00720 4456      JMS I C0056             / long call to S1000                    @@0720=4456
  629 00721 5304      JMP   L0704             /                                       @@0721=5304
  630 00722 4457      JMS I C0057             / long call to S1031                    @@0722=4457
  631 00723 5300  C0723,  5300                / JMP   L0700                           
  632 00724 4756      JMS I C0756             / long call to S1440                    @@0724=4756
  633             L0725,
  634 00725 7340      CLA CLL CMA             / AC = 7777 (-0001)                     @@0725=7340
  635 00726 0055      AND   C0055             /                                       @@0726=0055
  636 00727 3012      DCA   AI2               / AUTO INDEX REGISTER                   @@0727=3012
  637 00730 4776      JMS I C0776             / long call to S1236                    @@0730=4776
  638             L0731,
  639 00731 7340      CLA CLL CMA             / AC = 7777 (-0001)                     @@0731=7340
  640 00732 0024      AND   D0024             /                                       @@0732=0024
  641 00733 7640      SZA CLA                 /                                       @@0733=7640
  642 00734 7020      CML                     /                                       @@0734=7020
  643 00735 7040      CMA                     /                                       @@0735=7040
  644 00736 0023      AND   D0023             /                                       @@0736=0023
  645 00737 7002      BSW                     /                                       @@0737=7002
  646 00740 7000      NOP                     /                                       @@0740=7000
  647 00741 3031      DCA   D0031             /                                       @@0741=3031
  648 00742 7430      SZL                     /                                       @@0742=7430
  649 00743 7040      CMA                     /                                       @@0743=7040
  650 00744 3033      DCA   D0033             /                                       @@0744=3033
  651 00745 4456      JMS I C0056             / long call to S1000                    @@0745=4456
  652 00746 5331      JMP   L0731             /                                       @@0746=5331
  653 00747 4457      JMS I C0057             / long call to S1031                    @@0747=4457
  654 00750 5325      JMP   L0725             /                                       @@0750=5325
  655 00751 5777      JMP I C0777             / long jump to L1323                    @@0751=5777
  656 00752 1400      TAD I L0000             /                                       @@0752=1400
  657             C0753,
  658 00753 1410  C0753,  1410                / TAD I AI0                             
  659             C0754,
  660 00754 1420  C0754,  1420                / TAD I D0020                           
  661             C0755,
  662 00755 1430  C0755,  1430                / TAD I D0030                           
  663             C0756,
  664 00756 1440  C0756,  1440                / TAD I D0040                           
  665 00757 0001      AND   L0001             /                                       @@0757=0001
  666 00760 0002      AND   S0002             /                                       @@0760=0002
  667 00761 0004      AND   S0004             /                                       @@0761=0004
  668 00762 0010      AND   AI0               / AUTO INDEX REGISTER                   @@0762=0010
  669 00763 0020      AND   D0020             /                                       @@0763=0020
  670 00764 0040      AND   D0040             /                                       @@0764=0040
  671 00765 0100      AND   L0100             /                                       @@0765=0100
  672 00766 0200      AND   L0600             /                                       @@0766=0200
  673 00767 0400      AND I L0000             /                                       @@0767=0400
  674 00770 1000      TAD   L0000             /                                       @@0770=1000
  675 00771 2000      ISZ   L0000             /                                       @@0771=2000
  676 00772 4000      JMS   L0000             /                                       @@0772=4000
  677 00773 0000      AND   L0000             /                                       @@0773=0000
  678 00774 0001      AND   L0001             /                                       @@0774=0001
  679 00775 4000      JMS   L0000             /                                       @@0775=4000
  680             C0776,
  681 00776 1236  C0776,  1236                / TAD   C0636                           
  682             C0777,
  683 00777 1323  C0777,  1323                / TAD   C0723                           
  684             

      AUTOMATIC DISASSEMBLY OF MAINDEC-8E-D0CC-PB.bin BY D8TAPE          Page 13


  685       1000  *1000
  686             
  687             ////////////////////////////////////////////////////////////////////////////////
  688             /
  689             /   SUBROUTINE:  S1000
  690             /
  691             /   Called from:
  692             /   0621 0646 0673 0720 0745 
  693             /   Total 0005 (5) calls
  694             ////////////////////////////////////////////////////////////////////////////////
  695             S1000,
  696 01000 0000      0                       / return area
  697 01001 7340      CLA CLL CMA             / AC = 7777 (-0001)                     @@1001=7340
  698 01002 0025      AND   D0025             /                                       @@1002=0025
  699 01003 7040      CMA                     /                                       @@1003=7040
  700 01004 0031      AND   D0031             /                                       @@1004=0031
  701 01005 7440      SZA                     /                                       @@1005=7440
  702 01006 5226      JMP   L1026             /                                       @@1006=5226
  703 01007 7040      CMA                     /                                       @@1007=7040
  704 01010 0031      AND   D0031             /                                       @@1010=0031
  705 01011 7040      CMA                     /                                       @@1011=7040
  706 01012 0025      AND   D0025             /                                       @@1012=0025
  707 01013 7440      SZA                     /                                       @@1013=7440
  708 01014 5226      JMP   L1026             /                                       @@1014=5226
  709 01015 7340      CLA CLL CMA             / AC = 7777 (-0001)                     @@1015=7340
  710 01016 0026      AND   L0026             /                                       @@1016=0026
  711 01017 7640      SZA CLA                 /                                       @@1017=7640
  712 01020 7020      CML                     /                                       @@1020=7020
  713 01021 7040      CMA                     /                                       @@1021=7040
  714 01022 0033      AND   D0033             /                                       @@1022=0033
  715 01023 7440      SZA                     /                                       @@1023=7440
  716 01024 7020      CML                     /                                       @@1024=7020
  717 01025 7430      SZL                     /                                       @@1025=7430
  718             L1026,
  719 01026 5246      JMP   L1046             /                                       @@1026=5246
  720             L1027,
  721 01027 2200      ISZ   S1000             /                                       @@1027=2200
  722             L1030,
  723 01030 5600      JMP I S1000             / return                                @@1030=5600
  724             
  725             ////////////////////////////////////////////////////////////////////////////////
  726             /
  727             /   SUBROUTINE:  S1031
  728             /
  729             /   Called from:
  730             /   0623 0650 0675 0722 0747 
  731             /   Total 0005 (5) calls
  732             ////////////////////////////////////////////////////////////////////////////////
  733             S1031,
  734 01031 0000      0                       / return area
  735 01032 7340      CLA CLL CMA             / AC = 7777 (-0001)                     @@1032=7340
  736 01033 0024      AND   D0024             /                                       @@1033=0024
  737 01034 7640      SZA CLA                 /                                       @@1034=7640
  738 01035 5244      JMP   L1044             /                                       @@1035=5244
  739 01036 7040      CMA                     /                                       @@1036=7040
  740 01037 3024      DCA   D0024             /                                       @@1037=3024
  741 01040 2023      ISZ   D0023             /                                       @@1040=2023

      AUTOMATIC DISASSEMBLY OF MAINDEC-8E-D0CC-PB.bin BY D8TAPE          Page 14


  742 01041 5631      JMP I S1031             / return                                @@1041=5631
  743 01042 2231      ISZ   S1031             /                                       @@1042=2231
  744 01043 5631      JMP I S1031             / return                                @@1043=5631
  745             L1044,
  746 01044 3024      DCA   D0024             /                                       @@1044=3024
  747 01045 5631      JMP I S1031             / return                                @@1045=5631
  748             L1046,
  749 01046 7604      LAS                     /                                       @@1046=7604
  750 01047 0104      AND   C0104             /                                       @@1047=0104
  751 01050 7650      SNA CLA                 /                                       @@1050=7650
  752 01051 4271      JMS   S1071             /                                       @@1051=4271
  753 01052 7604      LAS                     /                                       @@1052=7604
  754 01053 0103      AND   C0103             /                                       @@1053=0103
  755 01054 7650      SNA CLA                 /                                       @@1054=7650
  756 01055 5263      JMP   L1063             /                                       @@1055=5263
  757             L1056,
  758 01056 7604      LAS                     /                                       @@1056=7604
  759 01057 0105      AND   C0105             /                                       @@1057=0105
  760 01060 7650      SNA CLA                 /                                       @@1060=7650
  761 01061 5227      JMP   L1027             /                                       @@1061=5227
  762 01062 5230      JMP   L1030             /                                       @@1062=5230
  763             L1063,
  764 01063 7340      CLA CLL CMA             / AC = 7777 (-0001)                     @@1063=7340
  765 01064 0451      AND I C0051             /                                       @@1064=0451
  766 01065 1270      TAD   C1070             /                                       @@1065=1270
  767 01066 7402      HLT                     /                                       @@1066=7402
  768 01067 5256      JMP   L1056             /                                       @@1067=5256
  769 01070 7774  C1070,  7774                / SPA SNA SZL CLA OSR                   
  770             
  771             ////////////////////////////////////////////////////////////////////////////////
  772             /
  773             /   SUBROUTINE:  S1071
  774             /
  775             /   Called from:
  776             /   1051 
  777             /   Total 0001 (1) calls
  778             ////////////////////////////////////////////////////////////////////////////////
  779             S1071,
  780 01071 0000      0                       / return area
  781 01072 7340      CLA CLL CMA             / AC = 7777 (-0001)                     @@1072=7340
  782 01073 0035      AND   D0035             /                                       @@1073=0035
  783 01074 7650      SNA CLA                 /                                       @@1074=7650
  784 01075 4331      JMS   S1131             /                                       @@1075=4331
  785 01076 7040      CMA                     /                                       @@1076=7040
  786             L1077,
  787 01077 0023      AND   D0023             /                                       @@1077=0023
  788 01100 3037      DCA   D0037             /                                       @@1100=3037
  789 01101 7040      CMA                     /                                       @@1101=7040
  790 01102 0024      AND   D0024             /                                       @@1102=0024
  791 01103 3040      DCA   D0040             /                                       @@1103=3040
  792 01104 4460      JMS I C0060             / long call to S0504                    @@1104=4460
  793 01105 4461      JMS I C0061             / long call to S0523                    @@1105=4461
  794 01106 7040      CMA                     /                                       @@1106=7040
  795 01107 0025      AND   D0025             /                                       @@1107=0025
  796 01110 3037      DCA   D0037             /                                       @@1110=3037
  797 01111 7040      CMA                     /                                       @@1111=7040
  798 01112 0026      AND   L0026             /                                       @@1112=0026

      AUTOMATIC DISASSEMBLY OF MAINDEC-8E-D0CC-PB.bin BY D8TAPE          Page 15


  799 01113 3040      DCA   D0040             /                                       @@1113=3040
  800 01114 4460      JMS I C0060             / long call to S0504                    @@1114=4460
  801 01115 4461      JMS I C0061             / long call to S0523                    @@1115=4461
  802 01116 7040      CMA                     /                                       @@1116=7040
  803 01117 0031      AND   D0031             /                                       @@1117=0031
  804 01120 3037      DCA   D0037             /                                       @@1120=3037
  805 01121 7040      CMA                     /                                       @@1121=7040
  806 01122 0033      AND   D0033             /                                       @@1122=0033
  807 01123 3040      DCA   D0040             /                                       @@1123=3040
  808 01124 4460      JMS I C0060             / long call to S0504                    @@1124=4460
  809 01125 4461      JMS I C0061             / long call to S0523                    @@1125=4461
  810 01126 4446      JMS I D0046             / long call to S1600                    @@1126=4446
  811 01127 5742      JMP I C1142             / long jump to L0400                    @@1127=5742
  812 01130 5671      JMP I S1071             / return                                @@1130=5671
  813             
  814             ////////////////////////////////////////////////////////////////////////////////
  815             /
  816             /   SUBROUTINE:  S1131
  817             /
  818             /   Called from:
  819             /   1075 
  820             /   Total 0001 (1) calls
  821             ////////////////////////////////////////////////////////////////////////////////
  822             S1131,
  823 01131 0000      0                       / return area
  824 01132 4446      JMS I D0046             / long call to S1600                    @@1132=4446
  825 01133 0000  D1133,  0000                / AND   L0000                           
  826 01134 4446      JMS I D0046             / long call to S1600                    @@1134=4446
  827 01135 5244      JMP   L1044             /                                       @@1135=5244
  828 01136 7240      STA                     / AC = 7777 (-0001)                     @@1136=7240
  829 01137 3035      DCA   D0035             /                                       @@1137=3035
  830 01140 5731      JMP I S1131             / return                                @@1140=5731
  831 01141 2000      ISZ   L0000             /                                       @@1141=2000
  832             C1142,
  833 01142 0400  C1142,  0400                / AND I L0000                           
  834 01143 0100      AND   L0100             /                                       @@1143=0100
  835 01144 0020      AND   D0020             /                                       @@1144=0020
  836 01145 0004      AND   S0004             /                                       @@1145=0004
  837 01146 0001      AND   L0001             /                                       @@1146=0001
  838 01147 4000      JMS   L0000             /                                       @@1147=4000
  839 01150 1000      TAD   L0000             /                                       @@1150=1000
  840 01151 0200      AND   S1000             /                                       @@1151=0200
  841 01152 0040      AND   D0040             /                                       @@1152=0040
  842 01153 0010      AND   AI0               / AUTO INDEX REGISTER                   @@1153=0010
  843 01154 0002      AND   S0002             /                                       @@1154=0002
  844 01155 0000      AND   L0000             /                                       @@1155=0000
  845 01156 2000      ISZ   L0000             /                                       @@1156=2000
  846 01157 0002      AND   S0002             /                                       @@1157=0002
  847 01160 0002      AND   S0002             /                                       @@1160=0002
  848 01161 0010      AND   AI0               / AUTO INDEX REGISTER                   @@1161=0010
  849 01162 0040      AND   D0040             /                                       @@1162=0040
  850 01163 0200      AND   S1000             /                                       @@1163=0200
  851 01164 1000      TAD   L0000             /                                       @@1164=1000
  852 01165 4000      JMS   L0000             /                                       @@1165=4000
  853 01166 0001      AND   L0001             /                                       @@1166=0001
  854 01167 0004      AND   S0004             /                                       @@1167=0004
  855 01170 0020      AND   D0020             /                                       @@1170=0020

      AUTOMATIC DISASSEMBLY OF MAINDEC-8E-D0CC-PB.bin BY D8TAPE          Page 16


  856 01171 0100      AND   L0100             /                                       @@1171=0100
  857 01172 0400      AND I L0000             /                                       @@1172=0400
  858 01173 2000      ISZ   L0000             /                                       @@1173=2000
  859 01174 0000      AND   L0000             /                                       @@1174=0000
  860 01175 0002      AND   S0002             /                                       @@1175=0002
  861 01176 2000      ISZ   L0000             /                                       @@1176=2000
  862             
  863       1200  *1200
  864             
  865             ////////////////////////////////////////////////////////////////////////////////
  866             /
  867             /   SUBROUTINE:  S1200
  868             /
  869             /   Called from:
  870             /   0604 0631 0656 0703 
  871             /   Total 0004 (4) calls
  872             ////////////////////////////////////////////////////////////////////////////////
  873             S1200,
  874 01200 0000      0                       / return area
  875 01201 7300      CLA CLL                 / AC = 0000                             @@1201=7300
  876 01202 3025      DCA   D0025             /                                       @@1202=3025
  877 01203 3026      DCA   L0026             /                                       @@1203=3026
  878 01204 7040      CMA                     /                                       @@1204=7040
  879 01205 0412      AND I AI2               / AUTO INDEX REGISTER                   @@1205=0412
  880 01206 3037      DCA   D0037             /                                       @@1206=3037
  881             L1207,
  882 01207 7040      CMA                     /                                       @@1207=7040
  883 01210 0412      AND I AI2               / AUTO INDEX REGISTER                   @@1210=0412
  884 01211 7450      SNA                     /                                       @@1211=7450
  885 01212 5303      JMP   L1303             /                                       @@1212=5303
  886 01213 3040      DCA   D0040             /                                       @@1213=3040
  887 01214 7040      CMA                     /                                       @@1214=7040
  888 01215 0023      AND   D0023             /                                       @@1215=0023
  889 01216 0037      AND   D0037             /                                       @@1216=0037
  890 01217 7440      SZA                     /                                       @@1217=7440
  891 01220 4225      JMS   S1225             /                                       @@1220=4225
  892 01221 7040      CMA                     /                                       @@1221=7040
  893 01222 0040      AND   D0040             /                                       @@1222=0040
  894 01223 3037      DCA   D0037             /                                       @@1223=3037
  895 01224 5207      JMP   L1207             /                                       @@1224=5207
  896             
  897             ////////////////////////////////////////////////////////////////////////////////
  898             /
  899             /   SUBROUTINE:  S1225
  900             /
  901             /   Called from:
  902             /   1220 1260 1275 1312 
  903             /   Total 0004 (4) calls
  904             ////////////////////////////////////////////////////////////////////////////////
  905             S1225,
  906 01225 0000      0                       / return area
  907 01226 7240      STA                     / AC = 7777 (-0001)                     @@1226=7240
  908 01227 0040      AND   D0040             /                                       @@1227=0040
  909 01230 7421      MQL                     /                                       @@1230=7421
  910 01231 7040      CMA                     /                                       @@1231=7040
  911 01232 0025      AND   D0025             /                                       @@1232=0025
  912 01233 7501      MQA                     /                                       @@1233=7501

      AUTOMATIC DISASSEMBLY OF MAINDEC-8E-D0CC-PB.bin BY D8TAPE          Page 17


  913 01234 3025      DCA   D0025             /                                       @@1234=3025
  914 01235 5625      JMP I S1225             / return                                @@1235=5625
  915             
  916             ////////////////////////////////////////////////////////////////////////////////
  917             /
  918             /   SUBROUTINE:  S1236
  919             /
  920             /   Called from:
  921             /   0730 
  922             /   Total 0001 (1) calls
  923             ////////////////////////////////////////////////////////////////////////////////
  924             S1236,
  925 01236 0000      0                       / return area
  926 01237 7340      CLA CLL CMA             / AC = 7777 (-0001)                     @@1237=7340
  927 01240 0236      AND   S1236             /                                       @@1240=0236
  928 01241 3451      DCA I C0051             /                                       @@1241=3451
  929 01242 3025      DCA   D0025             /                                       @@1242=3025
  930 01243 3026      DCA   L0026             /                                       @@1243=3026
  931             L1244,
  932 01244 7040      CMA                     /                                       @@1244=7040
  933 01245 0412      AND I AI2               / AUTO INDEX REGISTER                   @@1245=0412
  934 01246 7450      SNA                     /                                       @@1246=7450
  935 01247 5277      JMP   L1277             /                                       @@1247=5277
  936 01250 3037      DCA   D0037             /                                       @@1250=3037
  937 01251 7040      CMA                     /                                       @@1251=7040
  938 01252 0412      AND I AI2               / AUTO INDEX REGISTER                   @@1252=0412
  939 01253 3040      DCA   D0040             /                                       @@1253=3040
  940 01254 7040      CMA                     /                                       @@1254=7040
  941 01255 0023      AND   D0023             /                                       @@1255=0023
  942 01256 0037      AND   D0037             /                                       @@1256=0037
  943 01257 7440      SZA                     /                                       @@1257=7440
  944 01260 4225      JMS   S1225             /                                       @@1260=4225
  945 01261 7040      CMA                     /                                       @@1261=7040
  946 01262 0037      AND   D0037             /                                       @@1262=0037
  947 01263 7421      MQL                     /                                       @@1263=7421
  948 01264 7040      CMA                     /                                       @@1264=7040
  949 01265 0040      AND   D0040             /                                       @@1265=0040
  950 01266 3037      DCA   D0037             /                                       @@1266=3037
  951 01267 7501      MQA                     /                                       @@1267=7501
  952 01270 3040      DCA   D0040             /                                       @@1270=3040
  953 01271 7040      CMA                     /                                       @@1271=7040
  954 01272 0023      AND   D0023             /                                       @@1272=0023
  955 01273 0037      AND   D0037             /                                       @@1273=0037
  956 01274 7440      SZA                     /                                       @@1274=7440
  957 01275 4225      JMS   S1225             /                                       @@1275=4225
  958 01276 5244      JMP   L1244             /                                       @@1276=5244
  959             L1277,
  960 01277 7340      CLA CLL CMA             / AC = 7777 (-0001)                     @@1277=7340
  961 01300 0024      AND   D0024             /                                       @@1300=0024
  962 01301 3026      DCA   L0026             /                                       @@1301=3026
  963 01302 5636      JMP I S1236             / return                                @@1302=5636
  964             L1303,
  965 01303 7340      CLA CLL CMA             / AC = 7777 (-0001)                     @@1303=7340
  966 01304 0412      AND I AI2               / AUTO INDEX REGISTER                   @@1304=0412
  967 01305 3040      DCA   D0040             /                                       @@1305=3040
  968 01306 7040      CMA                     /                                       @@1306=7040
  969 01307 0116      AND   C0116             /                                       @@1307=0116

      AUTOMATIC DISASSEMBLY OF MAINDEC-8E-D0CC-PB.bin BY D8TAPE          Page 18


  970 01310 0024      AND   D0024             /                                       @@1310=0024
  971 01311 7440      SZA                     /                                       @@1311=7440
  972 01312 4225      JMS   S1225             /                                       @@1312=4225
  973 01313 7040      CMA                     /                                       @@1313=7040
  974 01314 0412      AND I AI2               / AUTO INDEX REGISTER                   @@1314=0412
  975 01315 0023      AND   D0023             /                                       @@1315=0023
  976 01316 7440      SZA                     /                                       @@1316=7440
  977 01317 7240      STA                     / AC = 7777 (-0001)                     @@1317=7240
  978 01320 0116      AND   C0116             /                                       @@1320=0116
  979 01321 3026      DCA   L0026             /                                       @@1321=3026
  980 01322 5600      JMP I S1200             / return                                @@1322=5600
  981             L1323,
  982 01323 7604      LAS                     /                                       @@1323=7604
  983 01324 0115      AND   L0115             /                                       @@1324=0115
  984             C1325,
  985 01325 7650  C1325,  7650                / SNA CLA                               
  986 01326 5342      JMP   L1342             /                                       @@1326=5342
  987             L1327,
  988 01327 7604      LAS                     /                                       @@1327=7604
  989 01330 0114      AND   C0114             /                                       @@1330=0114
  990 01331 7640      SZA CLA                 /                                       @@1331=7640
  991 01332 7402      HLT                     /                                       @@1332=7402
  992 01333 7604      LAS                     /                                       @@1333=7604
  993 01334 0116      AND   C0116             /                                       @@1334=0116
  994 01335 7650      SNA CLA                 /                                       @@1335=7650
  995 01336 5740      JMP I C1340             / long jump to L2000                    @@1336=5740
  996 01337 5741      JMP I C1341             / long jump to L0600                    @@1337=5741
  997             C1340,
  998 01340 2000  C1340,  2000                / ISZ   L0000                           
  999             C1341,
 1000 01341 0600  C1341,  0600                / AND I S1200                           
 1001             L1342,
 1002 01342 4446      JMS I D0046             / long call to S1600                    @@1342=4446
 1003 01343 5725      JMP I C1325             / long jump to L7650                    @@1343=5725
 1004 01344 5327      JMP   L1327             /                                       @@1344=5327
 1005             
 1006       1400  *1400
 1007             C1400,
 1008 01400 0000  C1400,  0000                / AND   L0000                           
 1009 01401 7340      CLA CLL CMA             / AC = 7777 (-0001)                     @@1401=7340
 1010 01402 0250      AND   C1450             /                                       @@1402=0250
 1011 01403 3450      DCA I C0050             /                                       @@1403=3450
 1012 01404 3035      DCA   D0035             /                                       @@1404=3035
 1013 01405 3024      DCA   D0024             /                                       @@1405=3024
 1014 01406 3023      DCA   D0023             /                                       @@1406=3023
 1015 01407 5600      JMP I C1400             / long jump to L0000                    @@1407=5600
 1016             
 1017             ////////////////////////////////////////////////////////////////////////////////
 1018             /
 1019             /   SUBROUTINE:  S1410
 1020             /
 1021             /   Called from:
 1022             /   0625 
 1023             /   Total 0001 (1) calls
 1024             ////////////////////////////////////////////////////////////////////////////////
 1025             S1410,
 1026 01410 0000      0                       / return area

      AUTOMATIC DISASSEMBLY OF MAINDEC-8E-D0CC-PB.bin BY D8TAPE          Page 19


 1027 01411 7340      CLA CLL CMA             / AC = 7777 (-0001)                     @@1411=7340
 1028 01412 0251      AND   C1451             /                                       @@1412=0251
 1029 01413 3450      DCA I C0050             /                                       @@1413=3450
 1030 01414 3035      DCA   D0035             /                                       @@1414=3035
 1031 01415 3024      DCA   D0024             /                                       @@1415=3024
 1032 01416 3023      DCA   D0023             /                                       @@1416=3023
 1033 01417 5610      JMP I S1410             / return                                @@1417=5610
 1034             
 1035             ////////////////////////////////////////////////////////////////////////////////
 1036             /
 1037             /   SUBROUTINE:  S1420
 1038             /
 1039             /   Called from:
 1040             /   0652 
 1041             /   Total 0001 (1) calls
 1042             ////////////////////////////////////////////////////////////////////////////////
 1043             S1420,
 1044 01420 0000      0                       / return area
 1045 01421 7340      CLA CLL CMA             / AC = 7777 (-0001)                     @@1421=7340
 1046 01422 0252      AND   C1452             /                                       @@1422=0252
 1047 01423 3450      DCA I C0050             /                                       @@1423=3450
 1048 01424 3035      DCA   D0035             /                                       @@1424=3035
 1049 01425 3024      DCA   D0024             /                                       @@1425=3024
 1050 01426 3023      DCA   D0023             /                                       @@1426=3023
 1051 01427 5620      JMP I S1420             / return                                @@1427=5620
 1052             
 1053             ////////////////////////////////////////////////////////////////////////////////
 1054             /
 1055             /   SUBROUTINE:  S1430
 1056             /
 1057             /   Called from:
 1058             /   0677 
 1059             /   Total 0001 (1) calls
 1060             ////////////////////////////////////////////////////////////////////////////////
 1061             S1430,
 1062 01430 0000      0                       / return area
 1063 01431 7340      CLA CLL CMA             / AC = 7777 (-0001)                     @@1431=7340
 1064 01432 0253      AND   C1453             /                                       @@1432=0253
 1065 01433 3450      DCA I C0050             /                                       @@1433=3450
 1066 01434 3035      DCA   D0035             /                                       @@1434=3035
 1067 01435 3024      DCA   D0024             /                                       @@1435=3024
 1068 01436 3023      DCA   D0023             /                                       @@1436=3023
 1069 01437 5630      JMP I S1430             / return                                @@1437=5630
 1070             
 1071             ////////////////////////////////////////////////////////////////////////////////
 1072             /
 1073             /   SUBROUTINE:  S1440
 1074             /
 1075             /   Called from:
 1076             /   0724 
 1077             /   Total 0001 (1) calls
 1078             ////////////////////////////////////////////////////////////////////////////////
 1079             S1440,
 1080 01440 0000      0                       / return area
 1081 01441 7340      CLA CLL CMA             / AC = 7777 (-0001)                     @@1441=7340
 1082 01442 0254      AND   C1454             /                                       @@1442=0254
 1083 01443 3450      DCA I C0050             /                                       @@1443=3450

      AUTOMATIC DISASSEMBLY OF MAINDEC-8E-D0CC-PB.bin BY D8TAPE          Page 20


 1084 01444 3035      DCA   D0035             /                                       @@1444=3035
 1085 01445 3024      DCA   D0024             /                                       @@1445=3024
 1086 01446 3023      DCA   D0023             /                                       @@1446=3023
 1087 01447 5640      JMP I S1440             / return                                @@1447=5640
 1088 01450 5440  C1450,  5440                / JMP I D0040                           
 1089 01451 5461  C1451,  5461                / JMP I C0061                           
 1090 01452 5502  C1452,  5502                / JMP I C0102                           
 1091 01453 5523  C1453,  5523                / JMP I C0123                           
 1092 01454 5544  C1454,  5544                / JMP I C0144                           
 1093             
 1094       1600  *1600
 1095 01600 0000  D1600,  0000                / AND   L0000                           
 1096 01601 7300      CLA CLL                 / AC = 0000                             @@1601=7300
 1097 01602 1600      TAD I D1600             /                                       @@1602=1600
 1098 01603 3011      DCA   AI1               / AUTO INDEX REGISTER                   @@1603=3011
 1099 01604 2200      ISZ   D1600             /                                       @@1604=2200
 1100             L1605,
 1101 01605 1411      TAD I AI1               / AUTO INDEX REGISTER                   @@1605=1411
 1102 01606 3036      DCA   D0036             /                                       @@1606=3036
 1103 01607 1036      TAD   D0036             /                                       @@1607=1036
 1104 01610 7012      RTR                     /                                       @@1610=7012
 1105 01611 7012      RTR                     /                                       @@1611=7012
 1106 01612 7012      RTR                     /                                       @@1612=7012
 1107 01613 4217      JMS   S1617             /                                       @@1613=4217
 1108 01614 1036      TAD   D0036             /                                       @@1614=1036
 1109 01615 4217      JMS   S1617             /                                       @@1615=4217
 1110 01616 5205      JMP   L1605             /                                       @@1616=5205
 1111             
 1112             ////////////////////////////////////////////////////////////////////////////////
 1113             /
 1114             /   SUBROUTINE:  S1617
 1115             /
 1116             /   Called from:
 1117             /   1613 1615 
 1118             /   Total 0002 (2) calls
 1119             ////////////////////////////////////////////////////////////////////////////////
 1120             S1617,
 1121 01617 0000      0                       / return area
 1122 01620 0245      AND   C1645             /                                       @@1620=0245
 1123 01621 7450      SNA                     /                                       @@1621=7450
 1124 01622 5600      JMP I D1600             / long jump to L0000                    @@1622=5600
 1125 01623 1246      TAD   C1646             /                                       @@1623=1246
 1126 01624 7510      SPA                     /                                       @@1624=7510
 1127 01625 5230      JMP   L1630             /                                       @@1625=5230
 1128 01626 1076      TAD   D0076             /                                       @@1626=1076
 1129 01627 5243      JMP   L1643             /                                       @@1627=5243
 1130             L1630,
 1131 01630 7001      IAC                     /                                       @@1630=7001
 1132 01631 7440      SZA                     /                                       @@1631=7440
 1133 01632 5235      JMP   L1635             /                                       @@1632=5235
 1134 01633 1251      TAD   C1651             /                                       @@1633=1251
 1135 01634 5243      JMP   L1643             /                                       @@1634=5243
 1136             L1635,
 1137 01635 7001      IAC                     /                                       @@1635=7001
 1138 01636 7440      SZA                     /                                       @@1636=7440
 1139 01637 5242      JMP   L1642             /                                       @@1637=5242
 1140 01640 1250      TAD   C1650             /                                       @@1640=1250

      AUTOMATIC DISASSEMBLY OF MAINDEC-8E-D0CC-PB.bin BY D8TAPE          Page 21


 1141 01641 5243      JMP   L1643             /                                       @@1641=5243
 1142             L1642,
 1143 01642 1247      TAD   C1647             /                                       @@1642=1247
 1144             L1643,
 1145 01643 4447      JMS I C0047             / long call to S1652                    @@1643=4447
 1146 01644 5617      JMP I S1617             / return                                @@1644=5617
 1147 01645 0077  C1645,  0077                / AND   C0077                           
 1148 01646 7740  C1646,  7740                / SMA SZA CLA                           
 1149 01647 0336  C1647,  0336                / AND   C1736                           
 1150 01650 0212  C1650,  0212                / AND   C1612                           
 1151 01651 0215  C1651,  0215                / AND   C1615                           
 1152             
 1153             ////////////////////////////////////////////////////////////////////////////////
 1154             /
 1155             /   SUBROUTINE:  S1652
 1156             /
 1157             /   Called from:
 1158             /   0513 0516 0540 0547 1643 4735 4744 4746 4756 4766 
 1159             /   Total 0012 (10) calls
 1160             ////////////////////////////////////////////////////////////////////////////////
 1161             S1652,
 1162 01652 0000      0                       / return area
 1163 01653 6046      TLS                     / Load the TTO from the content of AC4  @@1653=6046
 1164             L1654,
 1165 01654 6041      TSF                     / Skip if teleprinter flag is a 1.      @@1654=6041
 1166 01655 5254      JMP   L1654             /                                       @@1655=5254
 1167 01656 7200      CLA                     /                                       @@1656=7200
 1168 01657 5652      JMP I S1652             / return                                @@1657=5652
 1169 01660 0001      AND   L0001             /                                       @@1660=0001
 1170 01661 0100      AND   L0100             /                                       @@1661=0100
 1171 01662 0002      AND   S0002             /                                       @@1662=0002
 1172 01663 0200      AND   D1600             /                                       @@1663=0200
 1173 01664 0004      AND   S0004             /                                       @@1664=0004
 1174 01665 0400      AND I L0000             /                                       @@1665=0400
 1175 01666 0010      AND   AI0               / AUTO INDEX REGISTER                   @@1666=0010
 1176 01667 1000      TAD   L0000             /                                       @@1667=1000
 1177 01670 0020      AND   D0020             /                                       @@1670=0020
 1178 01671 2000      ISZ   L0000             /                                       @@1671=2000
 1179 01672 0040      AND   D0040             /                                       @@1672=0040
 1180 01673 4000      JMS   L0000             /                                       @@1673=4000
 1181 01674 0000      AND   L0000             /                                       @@1674=0000
 1182             
 1183       2000  *2000
 1184             L2000,
 1185 02000 7300  C2000,  7300                / CLA CLL                               
 1186 02001 1122      TAD   C0122             /                                       @@2001=1122
 1187 02002 3154      DCA   D0154             /                                       @@2002=3154
 1188 02003 3020      DCA   D0020             /                                       @@2003=3020
 1189 02004 7300  C2004,  7300                / CLA CLL                               
 1190 02005 7300      CLA CLL                 / AC = 0000                             @@2005=7300
 1191 02006 3471      DCA I C0071             /                                       @@2006=3471
 1192 02007 1136      TAD   C0136             /                                       @@2007=1136
 1193 02010 3472      DCA I C0072             /                                       @@2010=3472
 1194 02011 1332      TAD   C2132             /                                       @@2011=1332
 1195 02012 3000      DCA   L0000             /                                       @@2012=3000
 1196 02013 1137      TAD   C0137             /                                       @@2013=1137
 1197 02014 3001      DCA   L0001             /                                       @@2014=3001

      AUTOMATIC DISASSEMBLY OF MAINDEC-8E-D0CC-PB.bin BY D8TAPE          Page 22


 1198 02015 1140      TAD   D0140             /                                       @@2015=1140
 1199 02016 3002      DCA   S0002             /                                       @@2016=3002
 1200 02017 7240      STA                     / AC = 7777 (-0001)                     @@2017=7240
 1201 02020 3003      DCA   L0003             /                                       @@2020=3003
 1202 02021 1327      TAD   C2127             /                                       @@2021=1327
 1203 02022 3004      DCA   S0004             /                                       @@2022=3004
 1204             L2023,
 1205 02023 7300      CLA CLL                 / AC = 0000                             @@2023=7300
 1206 02024 5472      JMP I C0072             / long jump to L7777                    @@2024=5472
 1207 02025 7000      NOP                     /                                       @@2025=7000
 1208 02026 7000      NOP                     /                                       @@2026=7000
 1209 02027 4464      JMS I C0064             / long call to S3017                    @@2027=4464
 1210 02030 7430      SZL                     /                                       @@2030=7430
 1211 02031 7440      SZA                     /                                       @@2031=7440
 1212 02032 4465      JMS I C0065             / long call to S3037                    @@2032=4465
 1213 02033 7410      SKP                     /                                       @@2033=7410
 1214 02034 4466      JMS I C0066             / long call to S3027                    @@2034=4466
 1215 02035 4467      JMS I C0067             / long call to S3046                    @@2035=4467
 1216 02036 5223      JMP   L2023             /                                       @@2036=5223
 1217 02037 7200      CLA                     /                                       @@2037=7200
 1218 02040 1123      TAD   C0123             /                                       @@2040=1123
 1219 02041 3154      DCA   D0154             /                                       @@2041=3154
 1220 02042 5554      JMP I D0154             / long jump to L2004                    @@2042=5554
 1221 02043 7300  C2043,  7300                / CLA CLL                               
 1222 02044 7340      CLA CLL CMA             / AC = 7777 (-0001)                     @@2044=7340
 1223 02045 3471      DCA I C0071             /                                       @@2045=3471
 1224 02046 1136      TAD   C0136             /                                       @@2046=1136
 1225 02047 3472      DCA I C0072             /                                       @@2047=3472
 1226 02050 1137      TAD   C0137             /                                       @@2050=1137
 1227 02051 3000      DCA   L0000             /                                       @@2051=3000
 1228 02052 1141      TAD   C0141             /                                       @@2052=1141
 1229 02053 3001      DCA   L0001             /                                       @@2053=3001
 1230 02054 1330      TAD   C2130             /                                       @@2054=1330
 1231 02055 3002      DCA   S0002             /                                       @@2055=3002
 1232             L2056,
 1233 02056 7300      CLA CLL                 / AC = 0000                             @@2056=7300
 1234 02057 5472      JMP I C0072             / long jump to L7777                    @@2057=5472
 1235 02060 7000      NOP                     /                                       @@2060=7000
 1236 02061 7000      NOP                     /                                       @@2061=7000
 1237 02062 4464      JMS I C0064             / long call to S3017                    @@2062=4464
 1238 02063 7430      SZL                     /                                       @@2063=7430
 1239 02064 7440      SZA                     /                                       @@2064=7440
 1240 02065 4465      JMS I C0065             / long call to S3037                    @@2065=4465
 1241 02066 7410      SKP                     /                                       @@2066=7410
 1242 02067 4466      JMS I C0066             / long call to S3027                    @@2067=4466
 1243 02070 4467      JMS I C0067             / long call to S3046                    @@2070=4467
 1244 02071 5256      JMP   L2056             /                                       @@2071=5256
 1245 02072 7200      CLA                     /                                       @@2072=7200
 1246 02073 1124      TAD   C0124             /                                       @@2073=1124
 1247 02074 3154      DCA   D0154             /                                       @@2074=3154
 1248 02075 5554      JMP I D0154             / long jump to L2004                    @@2075=5554
 1249 02076 7300      CLA CLL                 / AC = 0000                             @@2076=7300
 1250 02077 1137      TAD   C0137             /                                       @@2077=1137
 1251 02100 3471      DCA I C0071             /                                       @@2100=3471
 1252 02101 1333      TAD   C2133             /                                       @@2101=1333
 1253 02102 3472      DCA I C0072             /                                       @@2102=3472
 1254 02103 1152      TAD   C0152             /                                       @@2103=1152

      AUTOMATIC DISASSEMBLY OF MAINDEC-8E-D0CC-PB.bin BY D8TAPE          Page 23


 1255 02104 3000      DCA   L0000             /                                       @@2104=3000
 1256 02105 1331      TAD   C2131             /                                       @@2105=1331
 1257 02106 3001      DCA   L0001             /                                       @@2106=3001
 1258             L2107,
 1259 02107 7300      CLA CLL                 / AC = 0000                             @@2107=7300
 1260 02110 5471      JMP I C0071             / long jump to L7776                    @@2110=5471
 1261 02111 7000      NOP                     /                                       @@2111=7000
 1262 02112 7000      NOP                     /                                       @@2112=7000
 1263 02113 4464      JMS I C0064             / long call to S3017                    @@2113=4464
 1264 02114 7430      SZL                     /                                       @@2114=7430
 1265 02115 7440      SZA                     /                                       @@2115=7440
 1266 02116 4465      JMS I C0065             / long call to S3037                    @@2116=4465
 1267 02117 7410      SKP                     /                                       @@2117=7410
 1268 02120 4466      JMS I C0066             / long call to S3027                    @@2120=4466
 1269 02121 4467      JMS I C0067             / long call to S3046                    @@2121=4467
 1270 02122 5307      JMP   L2107             /                                       @@2122=5307
 1271 02123 7200      CLA                     /                                       @@2123=7200
 1272 02124 1125      TAD   C0125             /                                       @@2124=1125
 1273 02125 3154      DCA   D0154             /                                       @@2125=3154
 1274 02126 5554      JMP I D0154             / long jump to L2004                    @@2126=5554
 1275 02127 2025  C2127,  2025                / ISZ   D0025                           
 1276 02130 2060  C2130,  2060                / ISZ   C0060                           
 1277 02131 2111  C2131,  2111                / ISZ   C0111                           
 1278 02132 1003  C2132,  1003                / TAD   L0003                           
 1279 02133 1421  C2133,  1421                / TAD I C0021                           
 1280             
 1281       2200  *2200
 1282 02200 7300      CLA CLL                 / AC = 0000                             @@2200=7300
 1283 02201 7340      CLA CLL CMA             / AC = 7777 (-0001)                     @@2201=7340
 1284 02202 3471      DCA I C0071             /                                       @@2202=3471
 1285 02203 1136      TAD   C0136             /                                       @@2203=1136
 1286 02204 3472      DCA I C0072             /                                       @@2204=3472
 1287 02205 1142      TAD   C0142             /                                       @@2205=1142
 1288 02206 3000      DCA   L0000             /                                       @@2206=3000
 1289 02207 1141      TAD   C0141             /                                       @@2207=1141
 1290 02210 3001      DCA   L0001             /                                       @@2210=3001
 1291 02211 1324      TAD   D2324             /                                       @@2211=1324
 1292 02212 3002      DCA   S0002             /                                       @@2212=3002
 1293             L2213,
 1294 02213 7340      CLA CLL CMA             / AC = 7777 (-0001)                     @@2213=7340
 1295 02214 5472      JMP I C0072             / long jump to L7777                    @@2214=5472
 1296 02215 7000      NOP                     /                                       @@2215=7000
 1297 02216 7000      NOP                     /                                       @@2216=7000
 1298 02217 4464      JMS I C0064             / long call to S3017                    @@2217=4464
 1299 02220 7430      SZL                     /                                       @@2220=7430
 1300 02221 7440      SZA                     /                                       @@2221=7440
 1301 02222 4465      JMS I C0065             / long call to S3037                    @@2222=4465
 1302 02223 7410      SKP                     /                                       @@2223=7410
 1303 02224 4466      JMS I C0066             / long call to S3027                    @@2224=4466
 1304 02225 4467      JMS I C0067             / long call to S3046                    @@2225=4467
 1305 02226 5213      JMP   L2213             /                                       @@2226=5213
 1306 02227 1126      TAD   C0126             /                                       @@2227=1126
 1307 02230 3154      DCA   D0154             /                                       @@2230=3154
 1308 02231 5554      JMP I D0154             / long jump to L2004                    @@2231=5554
 1309 02232 7300      CLA CLL                 / AC = 0000                             @@2232=7300
 1310 02233 7300      CLA CLL                 / AC = 0000                             @@2233=7300
 1311 02234 1143      TAD   C0143             /                                       @@2234=1143

      AUTOMATIC DISASSEMBLY OF MAINDEC-8E-D0CC-PB.bin BY D8TAPE          Page 24


 1312 02235 3472      DCA I C0072             /                                       @@2235=3472
 1313 02236 1137      TAD   C0137             /                                       @@2236=1137
 1314 02237 3000      DCA   L0000             /                                       @@2237=3000
 1315 02240 1137      TAD   C0137             /                                       @@2240=1137
 1316 02241 3001      DCA   L0001             /                                       @@2241=3001
 1317 02242 1151      TAD   C0151             /                                       @@2242=1151
 1318 02243 3002      DCA   S0002             /                                       @@2243=3002
 1319 02244 1325      TAD   C2325             /                                       @@2244=1325
 1320 02245 3003      DCA   L0003             /                                       @@2245=3003
 1321             L2246,
 1322 02246 7340      CLA CLL CMA             / AC = 7777 (-0001)                     @@2246=7340
 1323 02247 3471      DCA I C0071             /                                       @@2247=3471
 1324 02250 7040      CMA                     /                                       @@2250=7040
 1325 02251 5472      JMP I C0072             / long jump to L7777                    @@2251=5472
 1326 02252 7000      NOP                     /                                       @@2252=7000
 1327 02253 7000      NOP                     /                                       @@2253=7000
 1328 02254 4464      JMS I C0064             / long call to S3017                    @@2254=4464
 1329 02255 7430      SZL                     /                                       @@2255=7430
 1330 02256 7440      SZA                     /                                       @@2256=7440
 1331 02257 4465      JMS I C0065             / long call to S3037                    @@2257=4465
 1332 02260 7410      SKP                     /                                       @@2260=7410
 1333 02261 4466      JMS I C0066             / long call to S3027                    @@2261=4466
 1334 02262 4467      JMS I C0067             / long call to S3046                    @@2262=4467
 1335 02263 5246      JMP   L2246             /                                       @@2263=5246
 1336 02264 7200      CLA                     /                                       @@2264=7200
 1337 02265 1127      TAD   C0127             /                                       @@2265=1127
 1338 02266 3154      DCA   D0154             /                                       @@2266=3154
 1339 02267 5554      JMP I D0154             / long jump to L2004                    @@2267=5554
 1340 02270 7300      CLA CLL                 / AC = 0000                             @@2270=7300
 1341 02271 7300      CLA CLL                 / AC = 0000                             @@2271=7300
 1342 02272 1144      TAD   C0144             /                                       @@2272=1144
 1343 02273 3472      DCA I C0072             /                                       @@2273=3472
 1344 02274 1137      TAD   C0137             /                                       @@2274=1137
 1345 02275 3001      DCA   L0001             /                                       @@2275=3001
 1346 02276 1151      TAD   C0151             /                                       @@2276=1151
 1347 02277 3002      DCA   S0002             /                                       @@2277=3002
 1348 02300 1326      TAD   C2326             /                                       @@2300=1326
 1349 02301 3003      DCA   L0003             /                                       @@2301=3003
 1350             L2302,
 1351 02302 7340      CLA CLL CMA             / AC = 7777 (-0001)                     @@2302=7340
 1352 02303 3000      DCA   L0000             /                                       @@2303=3000
 1353 02304 7240      STA                     / AC = 7777 (-0001)                     @@2304=7240
 1354 02305 5472      JMP I C0072             / long jump to L7777                    @@2305=5472
 1355 02306 7000      NOP                     /                                       @@2306=7000
 1356 02307 7000      NOP                     /                                       @@2307=7000
 1357 02310 4464      JMS I C0064             / long call to S3017                    @@2310=4464
 1358 02311 7430      SZL                     /                                       @@2311=7430
 1359 02312 7440      SZA                     /                                       @@2312=7440
 1360 02313 4465      JMS I C0065             / long call to S3037                    @@2313=4465
 1361 02314 7410      SKP                     /                                       @@2314=7410
 1362 02315 4466      JMS I C0066             / long call to S3027                    @@2315=4466
 1363 02316 4467      JMS I C0067             / long call to S3046                    @@2316=4467
 1364 02317 5302      JMP   L2302             /                                       @@2317=5302
 1365 02320 7200      CLA                     /                                       @@2320=7200
 1366 02321 1130      TAD   C0130             /                                       @@2321=1130
 1367 02322 3154      DCA   D0154             /                                       @@2322=3154
 1368 02323 5554      JMP I D0154             / long jump to L2004                    @@2323=5554

      AUTOMATIC DISASSEMBLY OF MAINDEC-8E-D0CC-PB.bin BY D8TAPE          Page 25


 1369 02324 2215  D2324,  2215                / ISZ   C2215                           
 1370 02325 2252  C2325,  2252                / ISZ   C2252                           
 1371 02326 2306  C2326,  2306                / ISZ   C2306                           
 1372             
 1373       2400  *2400
 1374 02400 7300  D2400,  7300                / CLA CLL                               
 1375 02401 7300      CLA CLL                 / AC = 0000                             @@2401=7300
 1376 02402 1145      TAD   C0145             /                                       @@2402=1145
 1377 02403 3472      DCA I C0072             /                                       @@2403=3472
 1378 02404 1137      TAD   C0137             /                                       @@2404=1137
 1379 02405 3001      DCA   L0001             /                                       @@2405=3001
 1380 02406 1151      TAD   C0151             /                                       @@2406=1151
 1381 02407 3002      DCA   S0002             /                                       @@2407=3002
 1382 02410 1326      TAD   C2526             /                                       @@2410=1326
 1383 02411 3003      DCA   L0003             /                                       @@2411=3003
 1384             L2412,
 1385 02412 7340      CLA CLL CMA             / AC = 7777 (-0001)                     @@2412=7340
 1386 02413 3010      DCA   AI0               / AUTO INDEX REGISTER                   @@2413=3010
 1387 02414 7040      CMA                     /                                       @@2414=7040
 1388 02415 3000      DCA   L0000             /                                       @@2415=3000
 1389 02416 7040      CMA                     /                                       @@2416=7040
 1390 02417 5472      JMP I C0072             / long jump to L7777                    @@2417=5472
 1391 02420 7000      NOP                     /                                       @@2420=7000
 1392 02421 7000      NOP                     /                                       @@2421=7000
 1393 02422 4464      JMS I C0064             / long call to S3017                    @@2422=4464
 1394 02423 7430      SZL                     /                                       @@2423=7430
 1395 02424 7440      SZA                     /                                       @@2424=7440
 1396 02425 4465  C2425,  4465                / JMS I C0065                           
 1397 02426 7410      SKP                     /                                       @@2426=7410
 1398 02427 4466      JMS I C0066             / long call to S3027                    @@2427=4466
 1399 02430 4467      JMS I C0067             / long call to S3046                    @@2430=4467
 1400 02431 5212      JMP   L2412             /                                       @@2431=5212
 1401 02432 7200      CLA                     /                                       @@2432=7200
 1402 02433 1131      TAD   C0131             /                                       @@2433=1131
 1403 02434 3154      DCA   D0154             /                                       @@2434=3154
 1404 02435 5554      JMP I D0154             / long jump to L2004                    @@2435=5554
 1405 02436 7300      CLA CLL                 / AC = 0000                             @@2436=7300
 1406 02437 7300      CLA CLL                 / AC = 0000                             @@2437=7300
 1407 02440 1137      TAD   C0137             /                                       @@2440=1137
 1408 02441 3000      DCA   L0000             /                                       @@2441=3000
 1409 02442 1137      TAD   C0137             /                                       @@2442=1137
 1410 02443 3001      DCA   L0001             /                                       @@2443=3001
 1411 02444 1140      TAD   D0140             /                                       @@2444=1140
 1412 02445 3002      DCA   S0002             /                                       @@2445=3002
 1413 02446 1327      TAD   C2527             /                                       @@2446=1327
 1414 02447 3004      DCA   S0004             /                                       @@2447=3004
 1415             L2450,
 1416 02450 7300      CLA CLL                 / AC = 0000                             @@2450=7300
 1417 02451 1146      TAD   C0146             /                                       @@2451=1146
 1418 02452 3472      DCA I C0072             /                                       @@2452=3472
 1419 02453 7240      STA                     / AC = 7777 (-0001)                     @@2453=7240
 1420 02454 5472      JMP I C0072             / long jump to L7777                    @@2454=5472
 1421 02455 7000      NOP                     /                                       @@2455=7000
 1422 02456 7000      NOP                     /                                       @@2456=7000
 1423 02457 7430      SZL                     /                                       @@2457=7430
 1424 02460 7440      SZA                     /                                       @@2460=7440
 1425 02461 4465      JMS I C0065             / long call to S3037                    @@2461=4465

      AUTOMATIC DISASSEMBLY OF MAINDEC-8E-D0CC-PB.bin BY D8TAPE          Page 26


 1426 02462 7410      SKP                     /                                       @@2462=7410
 1427 02463 4466      JMS I C0066             / long call to S3027                    @@2463=4466
 1428 02464 4467      JMS I C0067             / long call to S3046                    @@2464=4467
 1429 02465 5250      JMP   L2450             /                                       @@2465=5250
 1430 02466 7200      CLA                     /                                       @@2466=7200
 1431 02467 1132      TAD   C0132             /                                       @@2467=1132
 1432 02470 3154      DCA   D0154             /                                       @@2470=3154
 1433 02471 5554      JMP I D0154             / long jump to L2004                    @@2471=5554
 1434 02472 7300      CLA CLL                 / AC = 0000                             @@2472=7300
 1435 02473 7340      CLA CLL CMA             / AC = 7777 (-0001)                     @@2473=7340
 1436 02474 3471      DCA I C0071             /                                       @@2474=3471
 1437 02475 1137      TAD   C0137             /                                       @@2475=1137
 1438 02476 3000      DCA   L0000             /                                       @@2476=3000
 1439 02477 1141      TAD   C0141             /                                       @@2477=1141
 1440 02500 3001      DCA   L0001             /                                       @@2500=3001
 1441 02501 1330      TAD   C2530             /                                       @@2501=1330
 1442 02502 3002      DCA   S0002             /                                       @@2502=3002
 1443             L2503,
 1444 02503 7300      CLA CLL                 / AC = 0000                             @@2503=7300
 1445 02504 1147      TAD   C0147             /                                       @@2504=1147
 1446 02505 3472      DCA I C0072             /                                       @@2505=3472
 1447 02506 7240      STA                     / AC = 7777 (-0001)                     @@2506=7240
 1448 02507 5472      JMP I C0072             / long jump to L7777                    @@2507=5472
 1449 02510 7000      NOP                     /                                       @@2510=7000
 1450 02511 7000      NOP                     /                                       @@2511=7000
 1451 02512 4464      JMS I C0064             / long call to S3017                    @@2512=4464
 1452 02513 7430      SZL                     /                                       @@2513=7430
 1453 02514 7440      SZA                     /                                       @@2514=7440
 1454 02515 4465      JMS I C0065             / long call to S3037                    @@2515=4465
 1455 02516 7410      SKP                     /                                       @@2516=7410
 1456 02517 4466      JMS I C0066             / long call to S3027                    @@2517=4466
 1457 02520 4467      JMS I C0067             / long call to S3046                    @@2520=4467
 1458 02521 5303      JMP   L2503             /                                       @@2521=5303
 1459 02522 7200      CLA                     /                                       @@2522=7200
 1460 02523 1133      TAD   C0133             /                                       @@2523=1133
 1461 02524 3154      DCA   D0154             /                                       @@2524=3154
 1462 02525 5554      JMP I D0154             / long jump to L2004                    @@2525=5554
 1463 02526 2420  C2526,  2420                / ISZ I D0020                           
 1464 02527 2455  C2527,  2455                / ISZ I C0055                           
 1465 02530 2510  C2530,  2510                / ISZ I C0110                           
 1466             
 1467       2600  *2600
 1468 02600 7300  D2600,  7300                / CLA CLL                               
 1469 02601 7300      CLA CLL                 / AC = 0000                             @@2601=7300
 1470 02602 1150      TAD   C0150             /                                       @@2602=1150
 1471 02603 3472      DCA I C0072             /                                       @@2603=3472
 1472 02604 1137      TAD   C0137             /                                       @@2604=1137
 1473 02605 3001      DCA   L0001             /                                       @@2605=3001
 1474 02606 1151      TAD   C0151             /                                       @@2606=1151
 1475 02607 3002      DCA   S0002             /                                       @@2607=3002
 1476 02610 1315      TAD   C2715             /                                       @@2610=1315
 1477 02611 3003      DCA   L0003             /                                       @@2611=3003
 1478             L2612,
 1479 02612 7340      CLA CLL CMA             / AC = 7777 (-0001)                     @@2612=7340
 1480 02613 3010      DCA   AI0               / AUTO INDEX REGISTER                   @@2613=3010
 1481 02614 7040      CMA                     /                                       @@2614=7040
 1482 02615 5472      JMP I C0072             / long jump to L7777                    @@2615=5472

      AUTOMATIC DISASSEMBLY OF MAINDEC-8E-D0CC-PB.bin BY D8TAPE          Page 27


 1483 02616 7000      NOP                     /                                       @@2616=7000
 1484 02617 7000      NOP                     /                                       @@2617=7000
 1485 02620 4464      JMS I C0064             / long call to S3017                    @@2620=4464
 1486 02621 7430      SZL                     /                                       @@2621=7430
 1487 02622 7440      SZA                     /                                       @@2622=7440
 1488 02623 4465      JMS I C0065             / long call to S3037                    @@2623=4465
 1489 02624 7410      SKP                     /                                       @@2624=7410
 1490 02625 4466      JMS I C0066             / long call to S3027                    @@2625=4466
 1491 02626 4467      JMS I C0067             / long call to S3046                    @@2626=4467
 1492 02627 5212      JMP   L2612             /                                       @@2627=5212
 1493 02630 7200      CLA                     /                                       @@2630=7200
 1494 02631 1134      TAD   C0134             /                                       @@2631=1134
 1495 02632 3154      DCA   D0154             /                                       @@2632=3154
 1496 02633 5554      JMP I D0154             / long jump to L2004                    @@2633=5554
 1497 02634 7300      CLA CLL                 / AC = 0000                             @@2634=7300
 1498 02635 7300      CLA CLL                 / AC = 0000                             @@2635=7300
 1499 02636 1137      TAD   C0137             /                                       @@2636=1137
 1500 02637 3000      DCA   L0000             /                                       @@2637=3000
 1501 02640 1141      TAD   C0141             /                                       @@2640=1141
 1502 02641 3001      DCA   L0001             /                                       @@2641=3001
 1503 02642 1316      TAD   C2716             /                                       @@2642=1316
 1504 02643 3002      DCA   S0002             /                                       @@2643=3002
 1505             L2644,
 1506 02644 7300      CLA CLL                 / AC = 0000                             @@2644=7300
 1507 02645 1153      TAD   C0153             /                                       @@2645=1153
 1508 02646 3472      DCA I C0072             /                                       @@2646=3472
 1509 02647 7240      STA                     / AC = 7777 (-0001)                     @@2647=7240
 1510 02650 5472      JMP I C0072             / long jump to L7777                    @@2650=5472
 1511 02651 7000      NOP                     /                                       @@2651=7000
 1512 02652 7000      NOP                     /                                       @@2652=7000
 1513 02653 4464      JMS I C0064             / long call to S3017                    @@2653=4464
 1514 02654 7430      SZL                     /                                       @@2654=7430
 1515 02655 7440      SZA                     /                                       @@2655=7440
 1516 02656 4465      JMS I C0065             / long call to S3037                    @@2656=4465
 1517 02657 7410      SKP                     /                                       @@2657=7410
 1518 02660 4466      JMS I C0066             / long call to S3027                    @@2660=4466
 1519 02661 4467      JMS I C0067             / long call to S3046                    @@2661=4467
 1520 02662 5244      JMP   L2644             /                                       @@2662=5244
 1521 02663 7200      CLA                     /                                       @@2663=7200
 1522 02664 1135      TAD   C0135             /                                       @@2664=1135
 1523 02665 3154      DCA   D0154             /                                       @@2665=3154
 1524 02666 5554      JMP I D0154             / long jump to L2004                    @@2666=5554
 1525 02667 7300      CLA CLL                 / AC = 0000                             @@2667=7300
 1526 02670 7300      CLA CLL                 / AC = 0000                             @@2670=7300
 1527 02671 1137      TAD   C0137             /                                       @@2671=1137
 1528 02672 3472      DCA I C0072             /                                       @@2672=3472
 1529 02673 1152      TAD   C0152             /                                       @@2673=1152
 1530 02674 3000      DCA   L0000             /                                       @@2674=3000
 1531 02675 1317      TAD   C2717             /                                       @@2675=1317
 1532 02676 3001      DCA   L0001             /                                       @@2676=3001
 1533             L2677,
 1534 02677 7340      CLA CLL CMA             / AC = 7777 (-0001)                     @@2677=7340
 1535 02700 5472      JMP I C0072             / long jump to L7777                    @@2700=5472
 1536 02701 7000      NOP                     /                                       @@2701=7000
 1537 02702 7000      NOP                     /                                       @@2702=7000
 1538 02703 4464      JMS I C0064             / long call to S3017                    @@2703=4464
 1539 02704 7430      SZL                     /                                       @@2704=7430

      AUTOMATIC DISASSEMBLY OF MAINDEC-8E-D0CC-PB.bin BY D8TAPE          Page 28


 1540 02705 7440      SZA                     /                                       @@2705=7440
 1541 02706 4465      JMS I C0065             / long call to S3037                    @@2706=4465
 1542 02707 7410      SKP                     /                                       @@2707=7410
 1543 02710 4466      JMS I C0066             / long call to S3027                    @@2710=4466
 1544 02711 4467      JMS I C0067             / long call to S3046                    @@2711=4467
 1545 02712 5277      JMP   L2677             /                                       @@2712=5277
 1546 02713 5714      JMP I C2714             / long jump to L3200                    @@2713=5714
 1547             C2714,
 1548 02714 3200  C2714,  3200                / DCA   D2600                           
 1549 02715 2616  C2715,  2616                / ISZ I C2616                           
 1550 02716 2651  C2716,  2651                / ISZ I C2651                           
 1551 02717 2701  C2717,  2701                / ISZ I C2701                           
 1552             
 1553       3000  *3000
 1554             
 1555             ////////////////////////////////////////////////////////////////////////////////
 1556             /
 1557             /   SUBROUTINE:  S3000
 1558             /
 1559             /   Called from:
 1560             /   4251 4326 4451 4526 
 1561             /   Total 0004 (4) calls
 1562             ////////////////////////////////////////////////////////////////////////////////
 1563             S3000,
 1564 03000 0000      0                       / return area
 1565 03001 7340      CLA CLL CMA             / AC = 7777 (-0001)                     @@3001=7340
 1566 03002 0040      AND   D0040             /                                       @@3002=0040
 1567 03003 7040      CMA                     /                                       @@3003=7040
 1568 03004 0037      AND   D0037             /                                       @@3004=0037
 1569 03005 7640      SZA CLA                 /                                       @@3005=7640
 1570 03006 5600      JMP I S3000             / return                                @@3006=5600
 1571 03007 7040      CMA                     /                                       @@3007=7040
 1572 03010 0037      AND   D0037             /                                       @@3010=0037
 1573 03011 7040      CMA                     /                                       @@3011=7040
 1574 03012 0040      AND   D0040             /                                       @@3012=0040
 1575 03013 7640      SZA CLA                 /                                       @@3013=7640
 1576 03014 5600      JMP I S3000             / return                                @@3014=5600
 1577 03015 2200      ISZ   S3000             /                                       @@3015=2200
 1578 03016 5600      JMP I S3000             / return                                @@3016=5600
 1579             
 1580             ////////////////////////////////////////////////////////////////////////////////
 1581             /
 1582             /   SUBROUTINE:  S3017
 1583             /
 1584             /   Called from:
 1585             /   2027 2062 2113 2217 2254 2310 2422 2512 2620 2653 2703 3436 3645 3661 4241 
 1586             /   4316 4441 4516 
 1587             /   Total 0022 (18) calls
 1588             ////////////////////////////////////////////////////////////////////////////////
 1589             S3017,
 1590 03017 0000      0                       / return area
 1591 03020 3025      DCA   D0025             /                                       @@3020=3025
 1592 03021 7430      SZL                     /                                       @@3021=7430
 1593 03022 7040      CMA                     /                                       @@3022=7040
 1594 03023 3026      DCA   L0026             /                                       @@3023=3026
 1595             L3024,
 1596 03024 7040      CMA                     /                                       @@3024=7040

      AUTOMATIC DISASSEMBLY OF MAINDEC-8E-D0CC-PB.bin BY D8TAPE          Page 29


 1597 03025 0025      AND   D0025             /                                       @@3025=0025
 1598 03026 5617      JMP I S3017             / return                                @@3026=5617
 1599             
 1600             ////////////////////////////////////////////////////////////////////////////////
 1601             /
 1602             /   SUBROUTINE:  S3027
 1603             /
 1604             /   Called from:
 1605             /   2034 2067 2120 2224 2261 2315 2427 2463 2517 2625 2660 2710 
 1606             /   Total 0014 (12) calls
 1607             ////////////////////////////////////////////////////////////////////////////////
 1608             S3027,
 1609 03027 0000      0                       / return area
 1610 03030 7604      LAS                     /                                       @@3030=7604
 1611 03031 0103      AND   C0103             /                                       @@3031=0103
 1612 03032 7640      SZA CLA                 /                                       @@3032=7640
 1613 03033 5627      JMP I S3027             / return                                @@3033=5627
 1614 03034 1154      TAD   D0154             /                                       @@3034=1154
 1615 03035 7402      HLT                     /                                       @@3035=7402
 1616 03036 5627      JMP I S3027             / return                                @@3036=5627
 1617             
 1618             ////////////////////////////////////////////////////////////////////////////////
 1619             /
 1620             /   SUBROUTINE:  S3037
 1621             /
 1622             /   Called from:
 1623             /   2032 2065 2116 2222 2257 2313 2461 2515 2623 2656 2706 
 1624             /   Total 0013 (11) calls
 1625             ////////////////////////////////////////////////////////////////////////////////
 1626             S3037,
 1627 03037 0000      0                       / return area
 1628 03040 7604      LAS                     /                                       @@3040=7604
 1629 03041 0104      AND   C0104             /                                       @@3041=0104
 1630 03042 7450      SNA                     /                                       @@3042=7450
 1631 03043 4256      JMS   S3056             /                                       @@3043=4256
 1632 03044 2237      ISZ   S3037             /                                       @@3044=2237
 1633 03045 5637      JMP I S3037             / return                                @@3045=5637
 1634             
 1635             ////////////////////////////////////////////////////////////////////////////////
 1636             /
 1637             /   SUBROUTINE:  S3046
 1638             /
 1639             /   Called from:
 1640             /   2035 2070 2121 2225 2262 2316 2430 2464 2520 2626 2661 2711 3442 3651 3665 
 1641             /   3675 4253 4330 4453 4530 
 1642             /   Total 0024 (20) calls
 1643             ////////////////////////////////////////////////////////////////////////////////
 1644             S3046,
 1645 03046 0000      0                       / return area
 1646 03047 7604      LAS                     /                                       @@3047=7604
 1647 03050 0105      AND   C0105             /                                       @@3050=0105
 1648 03051 7650      SNA CLA                 /                                       @@3051=7650
 1649 03052 5254      JMP   L3054             /                                       @@3052=5254
 1650 03053 5646      JMP I S3046             / return                                @@3053=5646
 1651             L3054,
 1652 03054 2246      ISZ   S3046             /                                       @@3054=2246
 1653 03055 5646      JMP I S3046             / return                                @@3055=5646

      AUTOMATIC DISASSEMBLY OF MAINDEC-8E-D0CC-PB.bin BY D8TAPE          Page 30


 1654             
 1655             ////////////////////////////////////////////////////////////////////////////////
 1656             /
 1657             /   SUBROUTINE:  S3056
 1658             /
 1659             /   Called from:
 1660             /   3043 
 1661             /   Total 0001 (1) calls
 1662             ////////////////////////////////////////////////////////////////////////////////
 1663             S3056,
 1664 03056 0000      0                       / return area
 1665 03057 4446      JMS I D0046             / long call to S1600                    @@3057=4446
 1666 03060 5744  C3060,  5744                / JMP I C3144                           
 1667 03061 1037      TAD   D0037             /                                       @@3061=1037
 1668 03062 4673      JMS I C3073             / long call to S3227                    @@3062=4673
 1669 03063 7340      CLA CLL CMA             / AC = 7777 (-0001)                     @@3063=7340
 1670 03064 0025      AND   D0025             /                                       @@3064=0025
 1671 03065 3037      DCA   D0037             /                                       @@3065=3037
 1672 03066 0026      AND   L0026             /                                       @@3066=0026
 1673 03067 3040      DCA   D0040             /                                       @@3067=3040
 1674 03070 4460      JMS I C0060             / long call to S0504                    @@3070=4460
 1675 03071 4461      JMS I C0061             / long call to S0523                    @@3071=4461
 1676 03072 5656      JMP I S3056             / return                                @@3072=5656
 1677             C3073,
 1678 03073 3227  C3073,  3227                / DCA   S3027                           
 1679             
 1680       3200  *3200
 1681             L3200,
 1682 03200 7300      CLA CLL                 / AC = 0000                             @@3200=7300
 1683 03201 2020      ISZ   D0020             /                                       @@3201=2020
 1684 03202 5224      JMP   L3224             /                                       @@3202=5224
 1685 03203 7604      LAS                     /                                       @@3203=7604
 1686 03204 0115      AND   L0115             /                                       @@3204=0115
 1687 03205 7650      SNA CLA                 /                                       @@3205=7650
 1688 03206 5221      JMP   L3221             /                                       @@3206=5221
 1689             L3207,
 1690 03207 7604      LAS                     /                                       @@3207=7604
 1691 03210 0114      AND   C0114             /                                       @@3210=0114
 1692 03211 7640      SZA CLA                 /                                       @@3211=7640
 1693 03212 7402      HLT                     /                                       @@3212=7402
 1694 03213 7604      LAS                     /                                       @@3213=7604
 1695 03214 0116      AND   C0116             /                                       @@3214=0116
 1696 03215 7640      SZA CLA                 /                                       @@3215=7640
 1697 03216 5224      JMP   L3224             /                                       @@3216=5224
 1698 03217 5620      JMP I C3220             / long jump to L3400                    @@3217=5620
 1699             C3220,
 1700 03220 3400  C3220,  3400                / DCA I L0000                           
 1701             L3221,
 1702 03221 4446      JMS I D0046             / long call to S1600                    @@3221=4446
 1703 03222 5732  C3222,  5732                / JMP I C3332                           
 1704 03223 5207      JMP   L3207             /                                       @@3223=5207
 1705             L3224,
 1706 03224 1122      TAD   C0122             /                                       @@3224=1122
 1707 03225 3154      DCA   D0154             /                                       @@3225=3154
 1708 03226 5554      JMP I D0154             / long jump to L2004                    @@3226=5554
 1709             
 1710             ////////////////////////////////////////////////////////////////////////////////

      AUTOMATIC DISASSEMBLY OF MAINDEC-8E-D0CC-PB.bin BY D8TAPE          Page 31


 1711             /
 1712             /   SUBROUTINE:  S3227
 1713             /
 1714             /   Called from:
 1715             /   3062 
 1716             /   Total 0001 (1) calls
 1717             ////////////////////////////////////////////////////////////////////////////////
 1718             S3227,
 1719 03227 0000      0                       / return area
 1720 03230 3037      DCA   D0037             /                                       @@3230=3037
 1721 03231 1037      TAD   D0037             /                                       @@3231=1037
 1722 03232 0172      AND   C0172             /                                       @@3232=0172
 1723 03233 3264      DCA   D3264             /                                       @@3233=3264
 1724 03234 1037      TAD   D0037             /                                       @@3234=1037
 1725 03235 7006      RTL                     /                                       @@3235=7006
 1726 03236 7004      RAL                     /                                       @@3236=7004
 1727 03237 0266      AND   C3266             /                                       @@3237=0266
 1728 03240 1264      TAD   D3264             /                                       @@3240=1264
 1729 03241 1267      TAD   C3267             /                                       @@3241=1267
 1730 03242 3264      DCA   D3264             /                                       @@3242=3264
 1731 03243 1037      TAD   D0037             /                                       @@3243=1037
 1732 03244 7012      RTR                     /                                       @@3244=7012
 1733 03245 7012      RTR                     /                                       @@3245=7012
 1734 03246 7012      RTR                     /                                       @@3246=7012
 1735 03247 0172      AND   C0172             /                                       @@3247=0172
 1736 03250 3263      DCA   D3263             /                                       @@3250=3263
 1737 03251 1037      TAD   D0037             /                                       @@3251=1037
 1738 03252 7012      RTR                     /                                       @@3252=7012
 1739 03253 7010      RAR                     /                                       @@3253=7010
 1740 03254 0266      AND   C3266             /                                       @@3254=0266
 1741 03255 1263      TAD   D3263             /                                       @@3255=1263
 1742 03256 1267      TAD   C3267             /                                       @@3256=1267
 1743 03257 3263      DCA   D3263             /                                       @@3257=3263
 1744 03260 4446      JMS I D0046             / long call to S1600                    @@3260=4446
 1745 03261 3262      DCA   D3262             /                                       @@3261=3262
 1746 03262 5627  D3262,  5627                / JMP I S3227                           
 1747 03263 0000  D3263,  0000                / AND   L0000                           
 1748 03264 0000  D3264,  0000                / AND   L0000                           
 1749 03265 4000      JMS   L0000             /                                       @@3265=4000
 1750 03266 0700  C3266,  0700                / AND I C3300                           
 1751 03267 6060  C3267,  6060                / 6060                                  
 1752             
 1753       3400  *3400
 1754             L3400,
 1755 03400 7300  C3400,  7300                / CLA CLL                               
 1756 03401 4473      JMS I C0073             / long call to S3512                    @@3401=4473
 1757             L3402,
 1758 03402 7300      CLA CLL                 / AC = 0000                             @@3402=7300
 1759 03403 1041      TAD   L0041             /                                       @@3403=1041
 1760 03404 1043      TAD   D0043             /                                       @@3404=1043
 1761 03405 1043      TAD   D0043             /                                       @@3405=1043
 1762 03406 1041      TAD   L0041             /                                       @@3406=1041
 1763 03407 1041      TAD   L0041             /                                       @@3407=1041
 1764 03410 1041      TAD   L0041             /                                       @@3410=1041
 1765 03411 1043      TAD   D0043             /                                       @@3411=1043
 1766 03412 1043      TAD   D0043             /                                       @@3412=1043
 1767 03413 1041      TAD   L0041             /                                       @@3413=1041

      AUTOMATIC DISASSEMBLY OF MAINDEC-8E-D0CC-PB.bin BY D8TAPE          Page 32


 1768 03414 1041      TAD   L0041             /                                       @@3414=1041
 1769 03415 1043      TAD   D0043             /                                       @@3415=1043
 1770 03416 1041      TAD   L0041             /                                       @@3416=1041
 1771 03417 1043      TAD   D0043             /                                       @@3417=1043
 1772 03420 1043      TAD   D0043             /                                       @@3420=1043
 1773 03421 1041      TAD   L0041             /                                       @@3421=1041
 1774 03422 1041      TAD   L0041             /                                       @@3422=1041
 1775 03423 1043      TAD   D0043             /                                       @@3423=1043
 1776 03424 1043      TAD   D0043             /                                       @@3424=1043
 1777 03425 1043      TAD   D0043             /                                       @@3425=1043
 1778 03426 1041      TAD   L0041             /                                       @@3426=1041
 1779 03427 1043      TAD   D0043             /                                       @@3427=1043
 1780 03430 1041      TAD   L0041             /                                       @@3430=1041
 1781 03431 1041      TAD   L0041             /                                       @@3431=1041
 1782 03432 1041      TAD   L0041             /                                       @@3432=1041
 1783 03433 1043      TAD   D0043             /                                       @@3433=1043
 1784 03434 1043      TAD   D0043             /                                       @@3434=1043
 1785 03435 7000      NOP                     /                                       @@3435=7000
 1786 03436 4464      JMS I C0064             / long call to S3017                    @@3436=4464
 1787 03437 7430      SZL                     /                                       @@3437=7430
 1788 03440 7440      SZA                     /                                       @@3440=7440
 1789 03441 4646      JMS I C3446             / long call to S3447                    @@3441=4646
 1790 03442 4467      JMS I C0067             / long call to S3046                    @@3442=4467
 1791 03443 5202      JMP   L3402             /                                       @@3443=5202
 1792 03444 5645      JMP I C3445             / long jump to L3600                    @@3444=5645
 1793             C3445,
 1794 03445 3600  C3445,  3600                / DCA I L3400                           
 1795             C3446,
 1796 03446 3447  C3446,  3447                / DCA I C0047                           
 1797             
 1798             ////////////////////////////////////////////////////////////////////////////////
 1799             /
 1800             /   SUBROUTINE:  S3447
 1801             /
 1802             /   Called from:
 1803             /   3441 
 1804             /   Total 0001 (1) calls
 1805             ////////////////////////////////////////////////////////////////////////////////
 1806             S3447,
 1807 03447 0000      0                       / return area
 1808 03450 7604      LAS                     /                                       @@3450=7604
 1809 03451 0104      AND   C0104             /                                       @@3451=0104
 1810 03452 7640      SZA CLA                 /                                       @@3452=7640
 1811 03453 5302      JMP   L3502             /                                       @@3453=5302
 1812 03454 4446      JMS I D0046             / long call to S1600                    @@3454=4446
 1813 03455 5565      JMP I C0165             / long jump to L3024                    @@3455=5565
 1814 03456 4446      JMS I D0046             / long call to S1600                    @@3456=4446
 1815 03457 5316      JMP   L3516             /                                       @@3457=5316
 1816 03460 7340      CLA CLL CMA             / AC = 7777 (-0001)                     @@3460=7340
 1817 03461 0041      AND   L0041             /                                       @@3461=0041
 1818 03462 3037      DCA   D0037             /                                       @@3462=3037
 1819 03463 4461      JMS I C0061             / long call to S0523                    @@3463=4461
 1820 03464 7340      CLA CLL CMA             / AC = 7777 (-0001)                     @@3464=7340
 1821 03465 0043      AND   D0043             /                                       @@3465=0043
 1822 03466 3037      DCA   D0037             /                                       @@3466=3037
 1823 03467 4461      JMS I C0061             / long call to S0523                    @@3467=4461
 1824 03470 7340      CLA CLL CMA             / AC = 7777 (-0001)                     @@3470=7340

      AUTOMATIC DISASSEMBLY OF MAINDEC-8E-D0CC-PB.bin BY D8TAPE          Page 33


 1825 03471 0025      AND   D0025             /                                       @@3471=0025
 1826 03472 3037      DCA   D0037             /                                       @@3472=3037
 1827 03473 7040      CMA                     /                                       @@3473=7040
 1828 03474 0026      AND   L0026             /                                       @@3474=0026
 1829 03475 3040      DCA   D0040             /                                       @@3475=3040
 1830 03476 4460      JMS I C0060             / long call to S0504                    @@3476=4460
 1831 03477 4461      JMS I C0061             / long call to S0523                    @@3477=4461
 1832 03500 4446      JMS I D0046             / long call to S1600                    @@3500=4446
 1833 03501 5742      JMP I C3542             / long jump to L0003                    @@3501=5742
 1834             L3502,
 1835 03502 7604      LAS                     /                                       @@3502=7604
 1836 03503 0103      AND   C0103             /                                       @@3503=0103
 1837 03504 7640      SZA CLA                 /                                       @@3504=7640
 1838 03505 5647      JMP I S3447             / return                                @@3505=5647
 1839 03506 7300      CLA CLL                 / AC = 0000                             @@3506=7300
 1840 03507 1247      TAD   S3447             /                                       @@3507=1247
 1841 03510 7402      HLT                     /                                       @@3510=7402
 1842 03511 5647      JMP I S3447             / return                                @@3511=5647
 1843             
 1844             ////////////////////////////////////////////////////////////////////////////////
 1845             /
 1846             /   SUBROUTINE:  S3512
 1847             /
 1848             /   Called from:
 1849             /   3401 
 1850             /   Total 0001 (1) calls
 1851             ////////////////////////////////////////////////////////////////////////////////
 1852             S3512,
 1853 03512 0000      0                       / return area
 1854 03513 7300      CLA CLL                 / AC = 0000                             @@3513=7300
 1855 03514 1041      TAD   L0041             /                                       @@3514=1041
 1856 03515 7004      RAL                     /                                       @@3515=7004
 1857             L3516,
 1858 03516 7430      SZL                     /                                       @@3516=7430
 1859 03517 1342      TAD   C3542             /                                       @@3517=1342
 1860 03520 3041      DCA   L0041             /                                       @@3520=3041
 1861 03521 1041      TAD   L0041             /                                       @@3521=1041
 1862 03522 7041      CIA                     /                                       @@3522=7041
 1863 03523 3043      DCA   D0043             /                                       @@3523=3043
 1864 03524 7100      CLL                     /                                       @@3524=7100
 1865 03525 1341      TAD   D3541             /                                       @@3525=1341
 1866 03526 7004      RAL                     /                                       @@3526=7004
 1867 03527 7430      SZL                     /                                       @@3527=7430
 1868 03530 1342      TAD   C3542             /                                       @@3530=1342
 1869 03531 3341      DCA   D3541             /                                       @@3531=3341
 1870 03532 7430      SZL                     /                                       @@3532=7430
 1871 03533 7040      CMA                     /                                       @@3533=7040
 1872 03534 3044      DCA   D0044             /                                       @@3534=3044
 1873 03535 1044      TAD   D0044             /                                       @@3535=1044
 1874 03536 7040      CMA                     /                                       @@3536=7040
 1875 03537 3045      DCA   D0045             /                                       @@3537=3045
 1876 03540 5712      JMP I S3512             / return                                @@3540=5712
 1877 03541 0001  D3541,  0001                / AND   L0001                           
 1878             C3542,
 1879 03542 0003  C3542,  0003                / AND   L0003                           
 1880             
 1881       3600  *3600

      AUTOMATIC DISASSEMBLY OF MAINDEC-8E-D0CC-PB.bin BY D8TAPE          Page 34


 1882             L3600,
 1883 03600 7340      CLA CLL CMA             / AC = 7777 (-0001)                     @@3600=7340
 1884 03601 0041      AND   L0041             /                                       @@3601=0041
 1885 03602 3346      DCA   D3746             /                                       @@3602=3346
 1886 03603 7040      CMA                     /                                       @@3603=7040
 1887 03604 0041      AND   L0041             /                                       @@3604=0041
 1888 03605 7040      CMA                     /                                       @@3605=7040
 1889 03606 3347      DCA   D3747             /                                       @@3606=3347
 1890 03607 7040      CMA                     /                                       @@3607=7040
 1891 03610 0103      AND   C0103             /                                       @@3610=0103
 1892 03611 3352      DCA   D3752             /                                       @@3611=3352
 1893             L3612,
 1894 03612 7040      CMA                     /                                       @@3612=7040
 1895 03613 0352      AND   D3752             /                                       @@3613=0352
 1896 03614 7040      CMA                     /                                       @@3614=7040
 1897 03615 3353      DCA   D3753             /                                       @@3615=3353
 1898 03616 7040      CMA                     /                                       @@3616=7040
 1899 03617 0346      AND   D3746             /                                       @@3617=0346
 1900 03620 0352      AND   D3752             /                                       @@3620=0352
 1901 03621 7440      SZA                     /                                       @@3621=7440
 1902 03622 5232      JMP   L3632             /                                       @@3622=5232
 1903 03623 7040      CMA                     /                                       @@3623=7040
 1904 03624 0346      AND   D3746             /                                       @@3624=0346
 1905 03625 4301      JMS   S3701             /                                       @@3625=4301
 1906 03626 7040      CMA                     /                                       @@3626=7040
 1907 03627 0347      AND   D3747             /                                       @@3627=0347
 1908 03630 3351      DCA   D3751             /                                       @@3630=3351
 1909 03631 5240      JMP   L3640             /                                       @@3631=5240
 1910             L3632,
 1911 03632 7240      STA                     / AC = 7777 (-0001)                     @@3632=7240
 1912 03633 0347      AND   D3747             /                                       @@3633=0347
 1913 03634 4315      JMS   S3715             /                                       @@3634=4315
 1914 03635 7040      CMA                     /                                       @@3635=7040
 1915 03636 0346      AND   D3746             /                                       @@3636=0346
 1916 03637 3351      DCA   D3751             /                                       @@3637=3351
 1917             L3640,
 1918 03640 7340      CLA CLL CMA             / AC = 7777 (-0001)                     @@3640=7340
 1919 03641 0350      AND   D3750             /                                       @@3641=0350
 1920 03642 1351      TAD   D3751             /                                       @@3642=1351
 1921 03643 7430      SZL                     /                                       @@3643=7430
 1922 03644 7001      IAC                     /                                       @@3644=7001
 1923 03645 4464      JMS I C0064             / long call to S3017                    @@3645=4464
 1924 03646 4463      JMS I C0063             / long call to S3730                    @@3646=4463
 1925 03647 7410      SKP                     /                                       @@3647=7410
 1926 03650 4756      JMS I C3756             / long call to S4000                    @@3650=4756
 1927 03651 4467      JMS I C0067             / long call to S3046                    @@3651=4467
 1928 03652 5240      JMP   L3640             /                                       @@3652=5240
 1929 03653 5254      JMP   L3654             /                                       @@3653=5254
 1930             L3654,
 1931 03654 7340      CLA CLL CMA             / AC = 7777 (-0001)                     @@3654=7340
 1932 03655 0351      AND   D3751             /                                       @@3655=0351
 1933 03656 1350      TAD   D3750             /                                       @@3656=1350
 1934 03657 7430      SZL                     /                                       @@3657=7430
 1935 03660 7001      IAC                     /                                       @@3660=7001
 1936 03661 4464      JMS I C0064             / long call to S3017                    @@3661=4464
 1937 03662 4463      JMS I C0063             / long call to S3730                    @@3662=4463
 1938 03663 7410      SKP                     /                                       @@3663=7410

      AUTOMATIC DISASSEMBLY OF MAINDEC-8E-D0CC-PB.bin BY D8TAPE          Page 35


 1939 03664 4756      JMS I C3756             / long call to S4000                    @@3664=4756
 1940 03665 4467      JMS I C0067             / long call to S3046                    @@3665=4467
 1941 03666 5254      JMP   L3654             /                                       @@3666=5254
 1942 03667 7340      CLA CLL CMA             / AC = 7777 (-0001)                     @@3667=7340
 1943 03670 0352      AND   D3752             /                                       @@3670=0352
 1944 03671 7010      RAR                     /                                       @@3671=7010
 1945 03672 3352      DCA   D3752             /                                       @@3672=3352
 1946 03673 7420      SNL                     /                                       @@3673=7420
 1947 03674 5212      JMP   L3612             /                                       @@3674=5212
 1948 03675 4467      JMS I C0067             / long call to S3046                    @@3675=4467
 1949 03676 5200      JMP   L3600             /                                       @@3676=5200
 1950 03677 5700      JMP I C3700             / long jump to L4200                    @@3677=5700
 1951             C3700,
 1952 03700 4200  C3700,  4200                / JMS   L3600                           
 1953             
 1954             ////////////////////////////////////////////////////////////////////////////////
 1955             /
 1956             /   SUBROUTINE:  S3701
 1957             /
 1958             /   Called from:
 1959             /   3625 
 1960             /   Total 0001 (1) calls
 1961             ////////////////////////////////////////////////////////////////////////////////
 1962             S3701,
 1963 03701 0000      0                       / return area
 1964 03702 0353      AND   D3753             /                                       @@3702=0353
 1965 03703 7040      CMA                     /                                       @@3703=7040
 1966 03704 3354      DCA   D3754             /                                       @@3704=3354
 1967 03705 7040      CMA                     /                                       @@3705=7040
 1968 03706 0347      AND   D3747             /                                       @@3706=0347
 1969 03707 0352      AND   D3752             /                                       @@3707=0352
 1970 03710 7040      CMA                     /                                       @@3710=7040
 1971 03711 0354      AND   D3754             /                                       @@3711=0354
 1972 03712 7040      CMA                     /                                       @@3712=7040
 1973 03713 3350      DCA   D3750             /                                       @@3713=3350
 1974 03714 5701      JMP I S3701             / return                                @@3714=5701
 1975             
 1976             ////////////////////////////////////////////////////////////////////////////////
 1977             /
 1978             /   SUBROUTINE:  S3715
 1979             /
 1980             /   Called from:
 1981             /   3634 
 1982             /   Total 0001 (1) calls
 1983             ////////////////////////////////////////////////////////////////////////////////
 1984             S3715,
 1985 03715 0000      0                       / return area
 1986 03716 0352      AND   D3752             /                                       @@3716=0352
 1987 03717 7040      CMA                     /                                       @@3717=7040
 1988 03720 3354      DCA   D3754             /                                       @@3720=3354
 1989 03721 7040      CMA                     /                                       @@3721=7040
 1990 03722 0346      AND   D3746             /                                       @@3722=0346
 1991 03723 0353      AND   D3753             /                                       @@3723=0353
 1992 03724 7040      CMA                     /                                       @@3724=7040
 1993 03725 0354      AND   D3754             /                                       @@3725=0354
 1994 03726 3350      DCA   D3750             /                                       @@3726=3350
 1995 03727 5715      JMP I S3715             / return                                @@3727=5715

      AUTOMATIC DISASSEMBLY OF MAINDEC-8E-D0CC-PB.bin BY D8TAPE          Page 36


 1996             
 1997             ////////////////////////////////////////////////////////////////////////////////
 1998             /
 1999             /   SUBROUTINE:  S3730
 2000             /
 2001             /   Called from:
 2002             /   3646 3662 
 2003             /   Total 0002 (2) calls
 2004             ////////////////////////////////////////////////////////////////////////////////
 2005             S3730,
 2006 03730 0000      0                       / return area
 2007 03731 7040      CMA                     /                                       @@3731=7040
 2008 03732 3355      DCA   D3755             /                                       @@3732=3355
 2009 03733 7040      CMA                     /                                       @@3733=7040
 2010 03734 0025      AND   D0025             /                                       @@3734=0025
 2011 03735 0353      AND   D3753             /                                       @@3735=0353
 2012 03736 7440  D3736,  7440                / SZA                                   
 2013 03737 5344      JMP   L3744             /                                       @@3737=5344
 2014 03740 7040      CMA                     /                                       @@3740=7040
 2015 03741 0352      AND   D3752             /                                       @@3741=0352
 2016 03742 0355      AND   D3755             /                                       @@3742=0355
 2017 03743 7440      SZA                     /                                       @@3743=7440
 2018             L3744,
 2019 03744 2330      ISZ   S3730             /                                       @@3744=2330
 2020 03745 5730      JMP I S3730             / return                                @@3745=5730
 2021 03746 0000  D3746,  0000                / AND   L0000                           
 2022 03747 0000  D3747,  0000                / AND   L0000                           
 2023 03750 0000  D3750,  0000                / AND   L0000                           
 2024 03751 0000  D3751,  0000                / AND   L0000                           
 2025 03752 0000  D3752,  0000                / AND   L0000                           
 2026 03753 0000  D3753,  0000                / AND   L0000                           
 2027 03754 0000  D3754,  0000                / AND   L0000                           
 2028 03755 0000  D3755,  0000                / AND   L0000                           
 2029             C3756,
 2030 03756 4000  C3756,  4000                / JMS   L0000                           
 2031             
 2032       4000  *4000
 2033             
 2034             ////////////////////////////////////////////////////////////////////////////////
 2035             /
 2036             /   SUBROUTINE:  S4000
 2037             /
 2038             /   Called from:
 2039             /   3650 3664 
 2040             /   Total 0002 (2) calls
 2041             ////////////////////////////////////////////////////////////////////////////////
 2042             S4000,
 2043 04000 0000      0                       / return area
 2044 04001 7604      LAS                     /                                       @@4001=7604
 2045 04002 0104      AND   C0104             /                                       @@4002=0104
 2046 04003 7640      SZA CLA                 /                                       @@4003=7640
 2047 04004 5233      JMP   L4033             /                                       @@4004=5233
 2048             C4005,
 2049 04005 4446  C4005,  4446                / JMS I D0046                           
 2050 04006 5605      JMP I C4005             / long jump to L4446                    @@4006=5605
 2051 04007 4446      JMS I D0046             / long call to S1600                    @@4007=4446
 2052 04010 5364  C4010,  5364                / JMP   C4164                           

      AUTOMATIC DISASSEMBLY OF MAINDEC-8E-D0CC-PB.bin BY D8TAPE          Page 37


 2053 04011 7340      CLA CLL CMA             / AC = 7777 (-0001)                     @@4011=7340
 2054 04012 0777      AND I C4177             /                                       @@4012=0777
 2055 04013 3037      DCA   D0037             /                                       @@4013=3037
 2056 04014 4461      JMS I C0061             / long call to S0523                    @@4014=4461
 2057 04015 7040      CMA                     /                                       @@4015=7040
 2058 04016 0776      AND I C4176             /                                       @@4016=0776
 2059 04017 3037      DCA   D0037             /                                       @@4017=3037
 2060 04020 4461      JMS I C0061             / long call to S0523                    @@4020=4461
 2061 04021 7040      CMA                     /                                       @@4021=7040
 2062 04022 0775  C4022,  0775                / AND I C4175                           
 2063 04023 3037      DCA   D0037             /                                       @@4023=3037
 2064 04024 4461  D4024,  4461                / JMS I C0061                           
 2065 04025 7040      CMA                     /                                       @@4025=7040
 2066 04026 0025      AND   D0025             /                                       @@4026=0025
 2067 04027 3037      DCA   D0037             /                                       @@4027=3037
 2068 04030 4461      JMS I C0061             / long call to S0523                    @@4030=4461
 2069 04031 4446      JMS I D0046             / long call to S1600                    @@4031=4446
 2070 04032 5742  C4032,  5742                / JMP I C4142                           
 2071             L4033,
 2072 04033 7604      LAS                     /                                       @@4033=7604
 2073 04034 0103      AND   C0103             /                                       @@4034=0103
 2074 04035 7640      SZA CLA                 /                                       @@4035=7640
 2075 04036 5600      JMP I S4000             / return                                @@4036=5600
 2076 04037 7300      CLA CLL                 / AC = 0000                             @@4037=7300
 2077 04040 1200  C4040,  1200                / TAD   S4000                           
 2078 04041 7402      HLT                     /                                       @@4041=7402
 2079 04042 5600      JMP I S4000             / return                                @@4042=5600
 2080             
 2081       4175  *4175
 2082 04175 3752  C4175,  3752                / DCA I C4152                           
 2083 04176 3751  C4176,  3751                / DCA I C4151                           
 2084 04177 3750  C4177,  3750                / DCA I C4150                           
 2085             
 2086       4200  *4200
 2087             L4200,
 2088 04200 7300      CLA CLL                 / AC = 0000                             @@4200=7300
 2089 04201 1044      TAD   D0044             /                                       @@4201=1044
 2090 04202 7440      SZA                     /                                       @@4202=7440
 2091 04203 7220      CLA CML                 /                                       @@4203=7220
 2092 04204 1041      TAD   L0041             /                                       @@4204=1041
 2093 04205 7010      RAR                     /                                       @@4205=7010
 2094 04206 7010      RAR                     /                                       @@4206=7010
 2095 04207 7010      RAR                     /                                       @@4207=7010
 2096 04210 7010      RAR                     /                                       @@4210=7010
 2097 04211 7010      RAR                     /                                       @@4211=7010
 2098 04212 7010      RAR                     /                                       @@4212=7010
 2099 04213 7010      RAR                     /                                       @@4213=7010
 2100 04214 7010      RAR                     /                                       @@4214=7010
 2101 04215 7010      RAR                     /                                       @@4215=7010
 2102 04216 7010      RAR                     /                                       @@4216=7010
 2103 04217 7010      RAR                     /                                       @@4217=7010
 2104 04220 7010      RAR                     /                                       @@4220=7010
 2105 04221 7010      RAR                     /                                       @@4221=7010
 2106 04222 7010      RAR                     /                                       @@4222=7010
 2107 04223 7010      RAR                     /                                       @@4223=7010
 2108 04224 7010      RAR                     /                                       @@4224=7010
 2109 04225 7010      RAR                     /                                       @@4225=7010

      AUTOMATIC DISASSEMBLY OF MAINDEC-8E-D0CC-PB.bin BY D8TAPE          Page 38


 2110 04226 7010      RAR                     /                                       @@4226=7010
 2111 04227 7010      RAR                     /                                       @@4227=7010
 2112 04230 7010      RAR                     /                                       @@4230=7010
 2113 04231 7010      RAR                     /                                       @@4231=7010
 2114 04232 7010      RAR                     /                                       @@4232=7010
 2115 04233 7010      RAR                     /                                       @@4233=7010
 2116 04234 7010      RAR                     /                                       @@4234=7010
 2117 04235 7010      RAR                     /                                       @@4235=7010
 2118 04236 7010      RAR                     /                                       @@4236=7010
 2119 04237 7000      NOP                     /                                       @@4237=7000
 2120 04240 7000      NOP                     /                                       @@4240=7000
 2121 04241 4464      JMS I C0064             / long call to S3017                    @@4241=4464
 2122 04242 1043      TAD   D0043             /                                       @@4242=1043
 2123 04243 7640      SZA CLA                 /                                       @@4243=7640
 2124 04244 5250      JMP   L4250             /                                       @@4244=5250
 2125 04245 1044      TAD   D0044             /                                       @@4245=1044
 2126 04246 3037      DCA   D0037             /                                       @@4246=3037
 2127 04247 1026      TAD   L0026             /                                       @@4247=1026
 2128             L4250,
 2129 04250 3040      DCA   D0040             /                                       @@4250=3040
 2130 04251 4462      JMS I C0062             / long call to S3000                    @@4251=4462
 2131 04252 4735      JMS I C4335             / long call to S5000                    @@4252=4735
 2132 04253 4467      JMS I C0067             / long call to S3046                    @@4253=4467
 2133 04254 5200      JMP   L4200             /                                       @@4254=5200
 2134             L4255,
 2135 04255 7300      CLA CLL                 / AC = 0000                             @@4255=7300
 2136 04256 1044      TAD   D0044             /                                       @@4256=1044
 2137 04257 7440      SZA                     /                                       @@4257=7440
 2138 04260 7220      CLA CML                 /                                       @@4260=7220
 2139 04261 1041      TAD   L0041             /                                       @@4261=1041
 2140 04262 7004      RAL                     /                                       @@4262=7004
 2141 04263 7004      RAL                     /                                       @@4263=7004
 2142 04264 7004      RAL                     /                                       @@4264=7004
 2143 04265 7004      RAL                     /                                       @@4265=7004
 2144 04266 7004      RAL                     /                                       @@4266=7004
 2145 04267 7004      RAL                     /                                       @@4267=7004
 2146 04270 7004      RAL                     /                                       @@4270=7004
 2147 04271 7004      RAL                     /                                       @@4271=7004
 2148 04272 7004      RAL                     /                                       @@4272=7004
 2149 04273 7004      RAL                     /                                       @@4273=7004
 2150 04274 7004      RAL                     /                                       @@4274=7004
 2151 04275 7004      RAL                     /                                       @@4275=7004
 2152 04276 7004      RAL                     /                                       @@4276=7004
 2153 04277 7004      RAL                     /                                       @@4277=7004
 2154 04300 7004      RAL                     /                                       @@4300=7004
 2155 04301 7004      RAL                     /                                       @@4301=7004
 2156 04302 7004      RAL                     /                                       @@4302=7004
 2157 04303 7004      RAL                     /                                       @@4303=7004
 2158 04304 7004      RAL                     /                                       @@4304=7004
 2159 04305 7004      RAL                     /                                       @@4305=7004
 2160 04306 7004      RAL                     /                                       @@4306=7004
 2161 04307 7004      RAL                     /                                       @@4307=7004
 2162 04310 7004      RAL                     /                                       @@4310=7004
 2163 04311 7004      RAL                     /                                       @@4311=7004
 2164 04312 7004      RAL                     /                                       @@4312=7004
 2165 04313 7004      RAL                     /                                       @@4313=7004
 2166 04314 7000      NOP                     /                                       @@4314=7000

      AUTOMATIC DISASSEMBLY OF MAINDEC-8E-D0CC-PB.bin BY D8TAPE          Page 39


 2167 04315 7000      NOP                     /                                       @@4315=7000
 2168 04316 4464      JMS I C0064             / long call to S3017                    @@4316=4464
 2169 04317 1043      TAD   D0043             /                                       @@4317=1043
 2170 04320 7440      SZA                     /                                       @@4320=7440
 2171 04321 5325      JMP   L4325             /                                       @@4321=5325
 2172 04322 1044      TAD   D0044             /                                       @@4322=1044
 2173 04323 3037      DCA   D0037             /                                       @@4323=3037
 2174 04324 1026      TAD   L0026             /                                       @@4324=1026
 2175             L4325,
 2176 04325 3040      DCA   D0040             /                                       @@4325=3040
 2177 04326 4462      JMS I C0062             / long call to S3000                    @@4326=4462
 2178 04327 4734      JMS I C4334             / long call to S5013                    @@4327=4734
 2179 04330 4467      JMS I C0067             / long call to S3046                    @@4330=4467
 2180 04331 5255      JMP   L4255             /                                       @@4331=5255
 2181 04332 5733      JMP I C4333             / long jump to L4400                    @@4332=5733
 2182             C4333,
 2183 04333 4400  C4333,  4400                / JMS I L0000                           
 2184             C4334,
 2185 04334 5013  C4334,  5013                / JMP   AI3                             
 2186             C4335,
 2187 04335 5000  C4335,  5000                / JMP   L0000                           
 2188             
 2189       4400  *4400
 2190             L4400,
 2191 04400 7300  C4400,  7300                / CLA CLL                               
 2192 04401 1044      TAD   D0044             /                                       @@4401=1044
 2193 04402 7440      SZA                     /                                       @@4402=7440
 2194 04403 7220      CLA CML                 /                                       @@4403=7220
 2195 04404 1041      TAD   L0041             /                                       @@4404=1041
 2196 04405 7006      RTL                     /                                       @@4405=7006
 2197 04406 7006      RTL                     /                                       @@4406=7006
 2198 04407 7006      RTL                     /                                       @@4407=7006
 2199 04410 7006      RTL                     /                                       @@4410=7006
 2200 04411 7006      RTL                     /                                       @@4411=7006
 2201 04412 7006      RTL                     /                                       @@4412=7006
 2202 04413 7006      RTL                     /                                       @@4413=7006
 2203 04414 7006      RTL                     /                                       @@4414=7006
 2204 04415 7006      RTL                     /                                       @@4415=7006
 2205 04416 7006      RTL                     /                                       @@4416=7006
 2206 04417 7006      RTL                     /                                       @@4417=7006
 2207 04420 7006      RTL                     /                                       @@4420=7006
 2208 04421 7006      RTL                     /                                       @@4421=7006
 2209 04422 7006      RTL                     /                                       @@4422=7006
 2210 04423 7006      RTL                     /                                       @@4423=7006
 2211 04424 7006      RTL                     /                                       @@4424=7006
 2212 04425 7006      RTL                     /                                       @@4425=7006
 2213 04426 7006      RTL                     /                                       @@4426=7006
 2214 04427 7006      RTL                     /                                       @@4427=7006
 2215 04430 7006      RTL                     /                                       @@4430=7006
 2216 04431 7006      RTL                     /                                       @@4431=7006
 2217 04432 7006      RTL                     /                                       @@4432=7006
 2218 04433 7006      RTL                     /                                       @@4433=7006
 2219 04434 7006      RTL                     /                                       @@4434=7006
 2220 04435 7006      RTL                     /                                       @@4435=7006
 2221 04436 7006      RTL                     /                                       @@4436=7006
 2222 04437 7000      NOP                     /                                       @@4437=7000
 2223 04440 7000      NOP                     /                                       @@4440=7000

      AUTOMATIC DISASSEMBLY OF MAINDEC-8E-D0CC-PB.bin BY D8TAPE          Page 40


 2224 04441 4464      JMS I C0064             / long call to S3017                    @@4441=4464
 2225 04442 1043      TAD   D0043             /                                       @@4442=1043
 2226 04443 7440      SZA                     /                                       @@4443=7440
 2227 04444 5250      JMP   L4450             /                                       @@4444=5250
 2228 04445 1044      TAD   D0044             /                                       @@4445=1044
 2229             L4446,
 2230 04446 3037      DCA   D0037             /                                       @@4446=3037
 2231 04447 1026      TAD   L0026             /                                       @@4447=1026
 2232             L4450,
 2233 04450 3040      DCA   D0040             /                                       @@4450=3040
 2234 04451 4462      JMS I C0062             / long call to S3000                    @@4451=4462
 2235 04452 4771      JMS I C4571             / long call to S5041                    @@4452=4771
 2236 04453 4467      JMS I C0067             / long call to S3046                    @@4453=4467
 2237 04454 5200      JMP   L4400             /                                       @@4454=5200
 2238             L4455,
 2239 04455 7300      CLA CLL                 / AC = 0000                             @@4455=7300
 2240 04456 1044      TAD   D0044             /                                       @@4456=1044
 2241 04457 7440      SZA                     /                                       @@4457=7440
 2242             L4460,
 2243 04460 7220      CLA CML                 /                                       @@4460=7220
 2244 04461 1041      TAD   L0041             /                                       @@4461=1041
 2245 04462 7012      RTR                     /                                       @@4462=7012
 2246 04463 7012      RTR                     /                                       @@4463=7012
 2247 04464 7012      RTR                     /                                       @@4464=7012
 2248 04465 7012      RTR                     /                                       @@4465=7012
 2249 04466 7012      RTR                     /                                       @@4466=7012
 2250 04467 7012      RTR                     /                                       @@4467=7012
 2251 04470 7012      RTR                     /                                       @@4470=7012
 2252 04471 7012      RTR                     /                                       @@4471=7012
 2253 04472 7012      RTR                     /                                       @@4472=7012
 2254 04473 7012      RTR                     /                                       @@4473=7012
 2255 04474 7012      RTR                     /                                       @@4474=7012
 2256 04475 7012      RTR                     /                                       @@4475=7012
 2257 04476 7012      RTR                     /                                       @@4476=7012
 2258 04477 7012      RTR                     /                                       @@4477=7012
 2259 04500 7012      RTR                     /                                       @@4500=7012
 2260 04501 7012      RTR                     /                                       @@4501=7012
 2261 04502 7012      RTR                     /                                       @@4502=7012
 2262 04503 7012      RTR                     /                                       @@4503=7012
 2263 04504 7012      RTR                     /                                       @@4504=7012
 2264 04505 7012      RTR                     /                                       @@4505=7012
 2265 04506 7012      RTR                     /                                       @@4506=7012
 2266 04507 7012      RTR                     /                                       @@4507=7012
 2267 04510 7012      RTR                     /                                       @@4510=7012
 2268 04511 7012      RTR                     /                                       @@4511=7012
 2269 04512 7012      RTR                     /                                       @@4512=7012
 2270 04513 7012      RTR                     /                                       @@4513=7012
 2271 04514 7000      NOP                     /                                       @@4514=7000
 2272 04515 7000      NOP                     /                                       @@4515=7000
 2273 04516 4464      JMS I C0064             / long call to S3017                    @@4516=4464
 2274 04517 1043      TAD   D0043             /                                       @@4517=1043
 2275 04520 7440      SZA                     /                                       @@4520=7440
 2276 04521 5325      JMP   L4525             /                                       @@4521=5325
 2277 04522 1044      TAD   D0044             /                                       @@4522=1044
 2278 04523 3037      DCA   D0037             /                                       @@4523=3037
 2279 04524 1026      TAD   L0026             /                                       @@4524=1026
 2280             L4525,

      AUTOMATIC DISASSEMBLY OF MAINDEC-8E-D0CC-PB.bin BY D8TAPE          Page 41


 2281 04525 3040      DCA   D0040             /                                       @@4525=3040
 2282 04526 4462      JMS I C0062             / long call to S3000                    @@4526=4462
 2283 04527 4770      JMS I C4570             / long call to S5026                    @@4527=4770
 2284 04530 4467      JMS I C0067             / long call to S3046                    @@4530=4467
 2285 04531 5255      JMP   L4455             /                                       @@4531=5255
 2286 04532 2020      ISZ   D0020             /                                       @@4532=2020
 2287 04533 5366      JMP   L4566             /                                       @@4533=5366
 2288 04534 7604      LAS                     /                                       @@4534=7604
 2289             C4535,
 2290 04535 0115  C4535,  0115                / AND   L0115                           
 2291 04536 7650      SNA CLA                 /                                       @@4536=7650
 2292 04537 5363      JMP   L4563             /                                       @@4537=5363
 2293             L4540,
 2294 04540 7604      LAS                     /                                       @@4540=7604
 2295 04541 0114      AND   C0114             /                                       @@4541=0114
 2296 04542 7640      SZA CLA                 /                                       @@4542=7640
 2297 04543 7402      HLT                     /                                       @@4543=7402
 2298 04544 7604      LAS                     /                                       @@4544=7604
 2299 04545 0116      AND   C0116             /                                       @@4545=0116
 2300 04546 7640      SZA CLA                 /                                       @@4546=7640
 2301 04547 5366      JMP   L4566             /                                       @@4547=5366
 2302             L4550,
 2303 04550 7604      LAS                     /                                       @@4550=7604
 2304 04551 0173      AND   C0173             /                                       @@4551=0173
 2305 04552 7110      CLL RAR                 /                                       @@4552=7110
 2306 04553 7012      RTR                     /                                       @@4553=7012
 2307 04554 3175      DCA   D0175             /                                       @@4554=3175
 2308 04555 7604      LAS                     /                                       @@4555=7604
 2309 04556 0107      AND   C0107             /                                       @@4556=0107
 2310 04557 7640      SZA CLA                 /                                       @@4557=7640
 2311 04560 5772      JMP I C4572             / long jump to L4600                    @@4560=5772
 2312 04561 5762      JMP I C4562             / long jump to L0200                    @@4561=5762
 2313             C4562,
 2314 04562 0200  C4562,  0200                / AND   L4400                           
 2315             L4563,
 2316 04563 4446      JMS I D0046             / long call to S1600                    @@4563=4446
 2317 04564 5735      JMP I C4535             / long jump to L0115                    @@4564=5735
 2318 04565 5340      JMP   L4540             /                                       @@4565=5340
 2319             L4566,
 2320 04566 5767      JMP I C4567             / long jump to L3400                    @@4566=5767
 2321             C4567,
 2322 04567 3400  C4567,  3400                / DCA I L0000                           
 2323             C4570,
 2324 04570 5026  C4570,  5026                / JMP   L0026                           
 2325             C4571,
 2326 04571 5041  C4571,  5041                / JMP   L0041                           
 2327             C4572,
 2328 04572 4600  C4572,  4600                / JMS I L4400                           
 2329             
 2330       4600  *4600
 2331             L4600,
 2332 04600 4231  C4600,  4231                / JMS   S4631                           
 2333 04601 4264      JMS   S4664             /                                       @@4601=4264
 2334 04602 7346      CLA CLL CMA RTL         / AC = 7775 (-0003)                     @@4602=7346
 2335 04603 4341      JMS   S4741             /                                       @@4603=4341
 2336 04604 4331      JMS   S4731             /                                       @@4604=4331
 2337 04605 4352      JMS   S4752             /                                       @@4605=4352

      AUTOMATIC DISASSEMBLY OF MAINDEC-8E-D0CC-PB.bin BY D8TAPE          Page 42


 2338 04606 4446      JMS I D0046             / long call to S1600                    @@4606=4446
 2339 04607 5755      JMP I C4755             / long jump to L1077                    @@4607=5755
 2340 04610 4360      JMS   S4760             /                                       @@4610=4360
 2341 04611 4331      JMS   S4731             /                                       @@4611=4331
 2342 04612 7344      CLA CLL CMA RAL         / AC = 7776 (-0002)                     @@4612=7344
 2343 04613 4341      JMS   S4741             /                                       @@4613=4341
 2344 04614 1175      TAD   D0175             /                                       @@4614=1175
 2345 04615 7041      CIA                     /                                       @@4615=7041
 2346 04616 1174      TAD   D0174             /                                       @@4616=1174
 2347 04617 7650      SNA CLA                 /                                       @@4617=7650
 2348 04620 5223      JMP   L4623             /                                       @@4620=5223
 2349 04621 7602      CLA HLT                 /                                       @@4621=7602
 2350 04622 5770      JMP I C4770             / long jump to L4550                    @@4622=5770
 2351             L4623,
 2352 04623 1314      TAD   D4714             /                                       @@4623=1314
 2353 04624 1115      TAD   L0115             /                                       @@4624=1115
 2354 04625 3226      DCA   D4626             /                                       @@4625=3226
 2355 04626 0000  D4626,  0000                / AND   L0000                           
 2356 04627 5630      JMP I C4630             / long jump to L0200                    @@4627=5630
 2357             C4630,
 2358 04630 0200  C4630,  0200                / AND   L4600                           
 2359             
 2360             ////////////////////////////////////////////////////////////////////////////////
 2361             /
 2362             /   SUBROUTINE:  S4631
 2363             /
 2364             /   Never called
 2365             ////////////////////////////////////////////////////////////////////////////////
 2366             S4631,
 2367 04631 0000      0                       / return area
 2368 04632 7300      CLA CLL                 / AC = 0000                             @@4632=7300
 2369 04633 3174      DCA   D0174             /                                       @@4633=3174
 2370 04634 1371      TAD   C4771             /                                       @@4634=1371
 2371 04635 3176      DCA   D0176             /                                       @@4635=3176
 2372 04636 6201      CDF   0                 /                                       @@4636=6201
 2373 04637 3571      DCA I C0171             /                                       @@4637=3571
 2374 04640 1372      TAD   C4772             /                                       @@4640=1372
 2375             L4641,
 2376 04641 1113      TAD   C0113             /                                       @@4641=1113
 2377 04642 3243      DCA   D4643             /                                       @@4642=3243
 2378 04643 0000  D4643,  0000                / AND   L0000                           
 2379 04644 7340      CLA CLL CMA             / AC = 7777 (-0001)                     @@4644=7340
 2380 04645 3571      DCA I C0171             /                                       @@4645=3571
 2381 04646 1571      TAD I C0171             /                                       @@4646=1571
 2382 04647 7650      SNA CLA                 /                                       @@4647=7650
 2383 04650 5255      JMP   L4655             /                                       @@4650=5255
 2384 04651 2174      ISZ   D0174             /                                       @@4651=2174
 2385 04652 1243      TAD   D4643             /                                       @@4652=1243
 2386 04653 2176      ISZ   D0176             /                                       @@4653=2176
 2387 04654 5241      JMP   L4641             /                                       @@4654=5241
 2388             L4655,
 2389 04655 7300      CLA CLL                 / AC = 0000                             @@4655=7300
 2390 04656 6201      CDF   0                 /                                       @@4656=6201
 2391 04657 1571      TAD I C0171             /                                       @@4657=1571
 2392 04660 7650      SNA CLA                 /                                       @@4660=7650
 2393 04661 5631      JMP I S4631             / return                                @@4661=5631
 2394 04662 7602      CLA HLT                 /                                       @@4662=7602

      AUTOMATIC DISASSEMBLY OF MAINDEC-8E-D0CC-PB.bin BY D8TAPE          Page 43


 2395 04663 5274      JMP   L4674             /                                       @@4663=5274
 2396             
 2397             ////////////////////////////////////////////////////////////////////////////////
 2398             /
 2399             /   SUBROUTINE:  S4664
 2400             /
 2401             /   Called from:
 2402             /   4601 
 2403             /   Total 0001 (1) calls
 2404             ////////////////////////////////////////////////////////////////////////////////
 2405             S4664,
 2406 04664 0000      0                       / return area
 2407 04665 7300      CLA CLL                 / AC = 0000                             @@4665=7300
 2408 04666 3176      DCA   D0176             /                                       @@4666=3176
 2409 04667 6224      RIF                     / Same as RDF except reads the instruc  @@4667=6224
 2410 04670 1113      TAD   C0113             /                                       @@4670=1113
 2411 04671 0375      AND   C4775             /                                       @@4671=0375
 2412 04672 3312      DCA   L4712             /                                       @@4672=3312
 2413 04673 7301      CLA CLL IAC             / AC = 0001                             @@4673=7301
 2414             L4674,
 2415 04674 1174      TAD   D0174             /                                       @@4674=1174
 2416 04675 7004      RAL                     /                                       @@4675=7004
 2417 04676 7006      RTL                     /                                       @@4676=7006
 2418 04677 7041      CIA                     /                                       @@4677=7041
 2419 04700 1312      TAD   L4712             /                                       @@4700=1312
 2420 04701 7620      SNL CLA                 /                                       @@4701=7620
 2421 04702 1312      TAD   L4712             /                                       @@4702=1312
 2422 04703 1372      TAD   C4772             /                                       @@4703=1372
 2423 04704 3314      DCA   D4714             /                                       @@4704=3314
 2424 04705 6224      RIF                     / Same as RDF except reads the instruc  @@4705=6224
 2425 04706 1372      TAD   C4772             /                                       @@4706=1372
 2426 04707 3312      DCA   L4712             /                                       @@4707=3312
 2427 04710 1312      TAD   L4712             /                                       @@4710=1312
 2428 04711 3317      DCA   D4717             /                                       @@4711=3317
 2429             L4712,
 2430 04712 0000  D4712,  0000                / AND   L0000                           
 2431 04713 1576      TAD I D0176             /                                       @@4713=1576
 2432 04714 0000  D4714,  0000                / AND   L0000                           
 2433 04715 3576      DCA I D0176             /                                       @@4715=3576
 2434 04716 1576      TAD I D0176             /                                       @@4716=1576
 2435 04717 0000  D4717,  0000                / AND   L0000                           
 2436 04720 7041      CIA                     /                                       @@4720=7041
 2437 04721 1576      TAD I D0176             /                                       @@4721=1576
 2438 04722 7650      SNA CLA                 /                                       @@4722=7650
 2439 04723 5326      JMP   L4726             /                                       @@4723=5326
 2440 04724 7602      CLA HLT                 /                                       @@4724=7602
 2441 04725 5312      JMP   L4712             /                                       @@4725=5312
 2442             L4726,
 2443 04726 2176      ISZ   D0176             /                                       @@4726=2176
 2444 04727 5312      JMP   L4712             /                                       @@4727=5312
 2445 04730 5664      JMP I S4664             / return                                @@4730=5664
 2446             
 2447             ////////////////////////////////////////////////////////////////////////////////
 2448             /
 2449             /   SUBROUTINE:  S4731
 2450             /
 2451             /   Called from:

      AUTOMATIC DISASSEMBLY OF MAINDEC-8E-D0CC-PB.bin BY D8TAPE          Page 44


 2452             /   4604 4611 
 2453             /   Total 0002 (2) calls
 2454             ////////////////////////////////////////////////////////////////////////////////
 2455             S4731,
 2456 04731 0000      0                       / return area
 2457 04732 1371      TAD   C4771             /                                       @@4732=1371
 2458 04733 3176      DCA   D0176             /                                       @@4733=3176
 2459             L4734,
 2460 04734 1376      TAD   C4776             /                                       @@4734=1376
 2461 04735 4447      JMS I C0047             / long call to S1652                    @@4735=4447
 2462 04736 2176      ISZ   D0176             /                                       @@4736=2176
 2463 04737 5334      JMP   L4734             /                                       @@4737=5334
 2464 04740 5731      JMP I S4731             / return                                @@4740=5731
 2465             
 2466             ////////////////////////////////////////////////////////////////////////////////
 2467             /
 2468             /   SUBROUTINE:  S4741
 2469             /
 2470             /   Called from:
 2471             /   4603 4613 
 2472             /   Total 0002 (2) calls
 2473             ////////////////////////////////////////////////////////////////////////////////
 2474             S4741,
 2475 04741 0000      0                       / return area
 2476 04742 3176      DCA   D0176             /                                       @@4742=3176
 2477             L4743,
 2478 04743 1374      TAD   C4774             /                                       @@4743=1374
 2479 04744 4447      JMS I C0047             / long call to S1652                    @@4744=4447
 2480 04745 1373      TAD   C4773             /                                       @@4745=1373
 2481 04746 4447      JMS I C0047             / long call to S1652                    @@4746=4447
 2482 04747 2176      ISZ   D0176             /                                       @@4747=2176
 2483 04750 5343      JMP   L4743             /                                       @@4750=5343
 2484 04751 5741      JMP I S4741             / return                                @@4751=5741
 2485             
 2486             ////////////////////////////////////////////////////////////////////////////////
 2487             /
 2488             /   SUBROUTINE:  S4752
 2489             /
 2490             /   Called from:
 2491             /   4605 
 2492             /   Total 0001 (1) calls
 2493             ////////////////////////////////////////////////////////////////////////////////
 2494             S4752,
 2495 04752 0000      0                       / return area
 2496 04753 1174      TAD   D0174             /                                       @@4753=1174
 2497 04754 0172      AND   C0172             /                                       @@4754=0172
 2498             C4755,
 2499 04755 1077  C4755,  1077                / TAD   C0077                           
 2500 04756 4447      JMS I C0047             / long call to S1652                    @@4756=4447
 2501 04757 5752      JMP I S4752             / return                                @@4757=5752
 2502             
 2503             ////////////////////////////////////////////////////////////////////////////////
 2504             /
 2505             /   SUBROUTINE:  S4760
 2506             /
 2507             /   Called from:
 2508             /   4610 

      AUTOMATIC DISASSEMBLY OF MAINDEC-8E-D0CC-PB.bin BY D8TAPE          Page 45


 2509             /   Total 0001 (1) calls
 2510             ////////////////////////////////////////////////////////////////////////////////
 2511             S4760,
 2512 04760 0000      0                       / return area
 2513 04761 1314      TAD   D4714             /                                       @@4761=1314
 2514 04762 0173      AND   C0173             /                                       @@4762=0173
 2515 04763 7010      RAR                     /                                       @@4763=7010
 2516 04764 7012      RTR                     /                                       @@4764=7012
 2517 04765 1077      TAD   C0077             /                                       @@4765=1077
 2518 04766 4447      JMS I C0047             / long call to S1652                    @@4766=4447
 2519 04767 5760      JMP I S4760             / return                                @@4767=5760
 2520             C4770,
 2521 04770 4550  C4770,  4550                / JMS I C0150                           
 2522 04771 7771  C4771,  7771                / CLA MQA SCA MQL NMI                   
 2523 04772 6201  C4772,  6201                / CDF0                                  
 2524 04773 0212  C4773,  0212                / AND   C4612                           
 2525 04774 0215  C4774,  0215                / AND   C4615                           
 2526 04775 0170  C4775,  0170                / AND   C0170                           
 2527 04776 0252  C4776,  0252                / AND   C4652                           
 2528             
 2529       5000  *5000
 2530 05000 0000  C5000,  0000                / AND   L0000                           
 2531 05001 7604      LAS                     /                                       @@5001=7604
 2532 05002 0104      AND   C0104             /                                       @@5002=0104
 2533 05003 7640      SZA CLA                 /                                       @@5003=7640
 2534 05004 5210      JMP   L5010             /                                       @@5004=5210
 2535 05005 4446      JMS I D0046             / long call to S1600                    @@5005=4446
 2536 05006 5625      JMP I C5025             / long jump to L5253                    @@5006=5625
 2537 05007 4264      JMS   S5064             /                                       @@5007=4264
 2538             L5010,
 2539 05010 7300      CLA CLL                 / AC = 0000                             @@5010=7300
 2540 05011 1200      TAD   C5000             /                                       @@5011=1200
 2541 05012 5253      JMP   L5053             /                                       @@5012=5253
 2542 05013 0000  C5013,  0000                / AND   L0000                           
 2543 05014 7604      LAS                     /                                       @@5014=7604
 2544 05015 0104      AND   C0104             /                                       @@5015=0104
 2545 05016 7640      SZA CLA                 /                                       @@5016=7640
 2546 05017 5223      JMP   L5023             /                                       @@5017=5223
 2547 05020 4446      JMS I D0046             / long call to S1600                    @@5020=4446
 2548 05021 5644      JMP I C5044             / long jump to L7640                    @@5021=5644
 2549 05022 4264      JMS   S5064             /                                       @@5022=4264
 2550             L5023,
 2551 05023 7300      CLA CLL                 / AC = 0000                             @@5023=7300
 2552 05024 1213      TAD   C5013             /                                       @@5024=1213
 2553             C5025,
 2554 05025 5253  C5025,  5253                / JMP   L5053                           
 2555 05026 0000  C5026,  0000                / AND   L0000                           
 2556 05027 7604      LAS                     /                                       @@5027=7604
 2557 05030 0104      AND   C0104             /                                       @@5030=0104
 2558 05031 7640      SZA CLA                 /                                       @@5031=7640
 2559 05032 5236      JMP   L5036             /                                       @@5032=5236
 2560 05033 4446      JMS I D0046             / long call to S1600                    @@5033=4446
 2561 05034 5663      JMP I D5063             / long jump to L0000                    @@5034=5663
 2562 05035 4264      JMS   S5064             /                                       @@5035=4264
 2563             L5036,
 2564 05036 7300      CLA CLL                 / AC = 0000                             @@5036=7300
 2565 05037 1226      TAD   C5026             /                                       @@5037=1226

      AUTOMATIC DISASSEMBLY OF MAINDEC-8E-D0CC-PB.bin BY D8TAPE          Page 46


 2566 05040 5253      JMP   L5053             /                                       @@5040=5253
 2567 05041 0000  C5041,  0000                / AND   L0000                           
 2568 05042 7604      LAS                     /                                       @@5042=7604
 2569 05043 0104      AND   C0104             /                                       @@5043=0104
 2570             C5044,
 2571 05044 7640  C5044,  7640                / SZA CLA                               
 2572 05045 5251      JMP   L5051             /                                       @@5045=5251
 2573 05046 4446      JMS I D0046             / long call to S1600                    @@5046=4446
 2574 05047 5702      JMP I C5102             / long jump to L4460                    @@5047=5702
 2575 05050 4264      JMS   S5064             /                                       @@5050=4264
 2576             L5051,
 2577 05051 7300      CLA CLL                 / AC = 0000                             @@5051=7300
 2578 05052 1241      TAD   C5041             /                                       @@5052=1241
 2579             L5053,
 2580 05053 3263      DCA   D5063             /                                       @@5053=3263
 2581 05054 7604      LAS                     /                                       @@5054=7604
 2582 05055 0103      AND   C0103             /                                       @@5055=0103
 2583 05056 7640      SZA CLA                 /                                       @@5056=7640
 2584 05057 5262      JMP   L5062             /                                       @@5057=5262
 2585 05060 1263      TAD   D5063             /                                       @@5060=1263
 2586 05061 7402      HLT                     /                                       @@5061=7402
 2587             L5062,
 2588 05062 5663      JMP I D5063             / long jump to L0000                    @@5062=5663
 2589 05063 0000  D5063,  0000                / AND   L0000                           
 2590             
 2591             ////////////////////////////////////////////////////////////////////////////////
 2592             /
 2593             /   SUBROUTINE:  S5064
 2594             /
 2595             /   Called from:
 2596             /   5007 5022 5035 5050 
 2597             /   Total 0004 (4) calls
 2598             ////////////////////////////////////////////////////////////////////////////////
 2599             S5064,
 2600 05064 0000      0                       / return area
 2601 05065 4446      JMS I D0046             / long call to S1600                    @@5065=4446
 2602 05066 5347  C5066,  5347                / JMP   C5147                           
 2603 05067 7340      CLA CLL CMA             / AC = 7777 (-0001)                     @@5067=7340
 2604 05070 0044      AND   D0044             /                                       @@5070=0044
 2605 05071 3040      DCA   D0040             /                                       @@5071=3040
 2606 05072 7040      CMA                     /                                       @@5072=7040
 2607 05073 0041      AND   L0041             /                                       @@5073=0041
 2608 05074 3037      DCA   D0037             /                                       @@5074=3037
 2609 05075 4460      JMS I C0060             / long call to S0504                    @@5075=4460
 2610 05076 4461      JMS I C0061             / long call to S0523                    @@5076=4461
 2611 05077 7040      CMA                     /                                       @@5077=7040
 2612 05100 0026      AND   L0026             /                                       @@5100=0026
 2613 05101 3040      DCA   D0040             /                                       @@5101=3040
 2614             C5102,
 2615 05102 4460  C5102,  4460                / JMS I C0060                           
 2616 05103 7040      CMA                     /                                       @@5103=7040
 2617 05104 0025      AND   D0025             /                                       @@5104=0025
 2618 05105 3037      DCA   D0037             /                                       @@5105=3037
 2619 05106 4461      JMS I C0061             / long call to S0523                    @@5106=4461
 2620 05107 4446      JMS I D0046             / long call to S1600                    @@5107=4446
 2621 05110 5742  C5110,  5742                / JMP I C5142                           
 2622 05111 5664      JMP I S5064             / return                                @@5111=5664

      AUTOMATIC DISASSEMBLY OF MAINDEC-8E-D0CC-PB.bin BY D8TAPE          Page 47


 2623             
 2624       5200  *5200
 2625 05200 3736  C5200,  3736                / DCA I C5336                           
 2626 05201 4040  D5201,  4040                / JMS   D0040                           
 2627 05202 4001  C5202,  4001                / JMS   L0001                           
 2628 05203 2207      ISZ   D5207             /                                       @@5203=2207
 2629 05204 6140  C5204,  6140                / 6140                                  
 2630 05205 4040  D5205,  4040                / JMS   D0040                           
 2631 05206 4040      JMS   D0040             /                                       @@5206=4040
 2632 05207 4040  D5207,  4040                / JMS   D0040                           
 2633 05210 4040      JMS   D0040             /                                       @@5210=4040
 2634 05211 0122  D5211,  0122                / AND   C0122                           
 2635 05212 0762      AND I C5362             /                                       @@5212=0762
 2636 05213 4040      JMS   D0040             /                                       @@5213=4040
 2637 05214 4040      JMS   D0040             /                                       @@5214=4040
 2638 05215 4040      JMS   D0040             /                                       @@5215=4040
 2639 05216 4040  C5216,  4040                / JMS   D0040                           
 2640 05217 4023      JMS   D0023             /                                       @@5217=4023
 2641 05220 1115      TAD   L0115             /                                       @@5220=1115
 2642 05221 2514      ISZ I C0114             /                                       @@5221=2514
 2643 05222 0124      AND   C0124             /                                       @@5222=0124
 2644 05223 0504      AND I C0104             /                                       @@5223=0504
 2645 05224 4040      JMS   D0040             /                                       @@5224=4040
 2646 05225 4040      JMS   D0040             /                                       @@5225=4040
 2647 05226 4040      JMS   D0040             /                                       @@5226=4040
 2648 05227 4001  C5227,  4001                / JMS   L0001                           
 2649 05230 2207      ISZ   D5207             /                                       @@5230=2207
 2650 05231 6153  C5231,  6153                / 6153                                  
 2651 05232 0122      AND   C0122             /                                       @@5232=0122
 2652 05233 0762      AND I C5362             /                                       @@5233=0762
 2653 05234 4040      JMS   D0040             /                                       @@5234=4040
 2654 05235 4040      JMS   D0040             /                                       @@5235=4040
 2655 05236 4001  C5236,  4001                / JMS   L0001                           
 2656 05237 2207      ISZ   D5207             /                                       @@5237=2207
 2657 05240 6253  C5240,  6253                / 6253                                  
 2658 05241 0122      AND   C0122             /                                       @@5241=0122
 2659 05242 0761      AND I C5361             /                                       @@5242=0761
 2660 05243 3736      DCA I C5336             /                                       @@5243=3736
 2661 05244 0000      AND   L0000             /                                       @@5244=0000
 2662 05245 3736      DCA I C5336             /                                       @@5245=3736
 2663 05246 4040      JMS   D0040             /                                       @@5246=4040
 2664 05247 4040      JMS   D0040             /                                       @@5247=4040
 2665 05250 4017  C5250,  4017                / JMS   AI7                             
 2666 05251 2211      ISZ   D5211             /                                       @@5251=2211
 2667 05252 0711      AND I C5311             /                                       @@5252=0711
 2668             L5253,
 2669 05253 1601      TAD I D5201             /                                       @@5253=1601
 2670 05254 1440      TAD I D0040             /                                       @@5254=1440
 2671 05255 4040      JMS   D0040             /                                       @@5255=4040
 2672 05256 4040      JMS   D0040             /                                       @@5256=4040
 2673 05257 4023      JMS   D0023             /                                       @@5257=4023
 2674 05260 1115      TAD   L0115             /                                       @@5260=1115
 2675 05261 2514      ISZ I C0114             /                                       @@5261=2514
 2676 05262 0124      AND   C0124             /                                       @@5262=0124
 2677 05263 0504      AND I C0104             /                                       @@5263=0504
 2678 05264 4040      JMS   D0040             /                                       @@5264=4040
 2679 05265 4040      JMS   D0040             /                                       @@5265=4040

      AUTOMATIC DISASSEMBLY OF MAINDEC-8E-D0CC-PB.bin BY D8TAPE          Page 48


 2680 05266 4040      JMS   D0040             /                                       @@5266=4040
 2681 05267 4001  C5267,  4001                / JMS   L0001                           
 2682 05270 0324      AND   C5324             /                                       @@5270=0324
 2683 05271 2501      ISZ I L0101             /                                       @@5271=2501
 2684 05272 1437      TAD I D0037             /                                       @@5272=1437
 2685 05273 3600      DCA I C5200             /                                       @@5273=3600
 2686 05274 3736      DCA I C5336             /                                       @@5274=3736
 2687 05275 2201      ISZ   D5201             /                                       @@5275=2201
 2688 05276 1604      TAD I C5204             /                                       @@5276=1604
 2689 05277 0140      AND   D0140             /                                       @@5277=0140
 2690 05300 4040      JMS   D0040             /                                       @@5300=4040
 2691 05301 4040      JMS   D0040             /                                       @@5301=4040
 2692 05302 4040      JMS   D0040             /                                       @@5302=4040
 2693 05303 4022  C5303,  4022                / JMS   C0022                           
 2694 05304 0116      AND   C0116             /                                       @@5304=0116
 2695 05305 0403      AND I L0003             /                                       @@5305=0403
 2696 05306 4040      JMS   D0040             /                                       @@5306=4040
 2697 05307 4040      JMS   D0040             /                                       @@5307=4040
 2698 05310 4040      JMS   D0040             /                                       @@5310=4040
 2699 05311 4040  C5311,  4040                / JMS   D0040                           
 2700 05312 2205      ISZ   D5205             /                                       @@5312=2205
 2701 05313 2325      ISZ   D5325             /                                       @@5313=2325
 2702 05314 1424      TAD I D0024             /                                       @@5314=1424
 2703 05315 3736      DCA I C5336             /                                       @@5315=3736
 2704 05316 0000      AND   L0000             /                                       @@5316=0000
 2705 05317 3736      DCA I C5336             /                                       @@5317=3736
 2706 05320 2201      ISZ   D5201             /                                       @@5320=2201
 2707 05321 1604      TAD I C5204             /                                       @@5321=1604
 2708 05322 0140  C5322,  0140                / AND   D0140                           
 2709 05323 4040      JMS   D0040             /                                       @@5323=4040
 2710 05324 4040  C5324,  4040                / JMS   D0040                           
 2711 05325 4040  D5325,  4040                / JMS   D0040                           
 2712 05326 4002      JMS   S0002             /                                       @@5326=4002
 2713 05327 2017  C5327,  2017                / ISZ   AI7                             
 2714 05330 2340      ISZ   D5340             /                                       @@5330=2340
 2715 05331 4040      JMS   D0040             /                                       @@5331=4040
 2716 05332 4040      JMS   D0040             /                                       @@5332=4040
 2717 05333 4040      JMS   D0040             /                                       @@5333=4040
 2718 05334 4040      JMS   D0040             /                                       @@5334=4040
 2719 05335 0216      AND   C5216             /                                       @@5335=0216
 2720 05336 0507  C5336,  0507                / AND I C0107                           
 2721 05337 4040      JMS   D0040             /                                       @@5337=4040
 2722 05340 4040  D5340,  4040                / JMS   D0040                           
 2723 05341 4040      JMS   D0040             /                                       @@5341=4040
 2724 05342 4040      JMS   D0040             /                                       @@5342=4040
 2725 05343 4022  C5343,  4022                / JMS   C0022                           
 2726 05344 0523      AND I C0123             /                                       @@5344=0523
 2727 05345 2514      ISZ I C0114             /                                       @@5345=2514
 2728 05346 2437      ISZ I D0037             /                                       @@5346=2437
 2729 05347 3600      DCA I C5200             /                                       @@5347=3600
 2730 05350 3736      DCA I C5336             /                                       @@5350=3736
 2731 05351 1722      TAD I C5322             /                                       @@5351=1722
 2732 05352 1107      TAD   C0107             /                                       @@5352=1107
 2733 05353 1116      TAD   C0116             /                                       @@5353=1116
 2734 05354 0114      AND   C0114             /                                       @@5354=0114
 2735 05355 4040      JMS   D0040             /                                       @@5355=4040
 2736 05356 4040      JMS   D0040             /                                       @@5356=4040

      AUTOMATIC DISASSEMBLY OF MAINDEC-8E-D0CC-PB.bin BY D8TAPE          Page 49


 2737 05357 4040      JMS   D0040             /                                       @@5357=4040
 2738 05360 0103      AND   C0103             /                                       @@5360=0103
 2739 05361 2425  C5361,  2425                / ISZ I D0025                           
 2740 05362 0114  C5362,  0114                / AND   C0114                           
 2741 05363 3736      DCA I C5336             /                                       @@5363=3736
 2742 05364 0000      AND   L0000             /                                       @@5364=0000
 2743 05365 3736      DCA I C5336             /                                       @@5365=3736
 2744 05366 4040      JMS   D0040             /                                       @@5366=4040
 2745 05367 4040      JMS   D0040             /                                       @@5367=4040
 2746 05370 0122      AND   C0122             /                                       @@5370=0122
 2747 05371 0761      AND I C5361             /                                       @@5371=0761
 2748 05372 4040      JMS   D0040             /                                       @@5372=4040
 2749 05373 4040      JMS   D0040             /                                       @@5373=4040
 2750 05374 4040      JMS   D0040             /                                       @@5374=4040
 2751 05375 4040      JMS   D0040             /                                       @@5375=4040
 2752 05376 4001  C5376,  4001                / JMS   L0001                           
 2753 05377 2207      ISZ   D5207             /                                       @@5377=2207
 2754 05400 6240  C5400,  6240                / 6240                                  
 2755 05401 4040  C5401,  4040                / JMS   D0040                           
 2756 05402 4040      JMS   D0040             /                                       @@5402=4040
 2757 05403 4040      JMS   D0040             /                                       @@5403=4040
 2758 05404 0530      AND I C0130             /                                       @@5404=0530
 2759 05405 2005  C5405,  2005                / ISZ   C0005                           
 2760 05406 0324      AND   C5524             /                                       @@5406=0324
 2761 05407 0504      AND I C0104             /                                       @@5407=0504
 2762 05410 4040      JMS   D0040             /                                       @@5410=4040
 2763 05411 4040      JMS   D0040             /                                       @@5411=4040
 2764 05412 4040      JMS   D0040             /                                       @@5412=4040
 2765 05413 0103      AND   C0103             /                                       @@5413=0103
 2766 05414 2425      ISZ I D0025             /                                       @@5414=2425
 2767 05415 0114      AND   C0114             /                                       @@5415=0114
 2768 05416 3736      DCA I C5536             /                                       @@5416=3736
 2769 05417 0000      AND   L0000             /                                       @@5417=0000
 2770 05420 3736      DCA I C5536             /                                       @@5420=3736
 2771 05421 4040      JMS   D0040             /                                       @@5421=4040
 2772 05422 4040      JMS   D0040             /                                       @@5422=4040
 2773 05423 4023      JMS   D0023             /                                       @@5423=4023
 2774 05424 1115      TAD   L0115             /                                       @@5424=1115
 2775 05425 2514      ISZ I C0114             /                                       @@5425=2514
 2776 05426 0124      AND   C0124             /                                       @@5426=0124
 2777 05427 0504      AND I C0104             /                                       @@5427=0504
 2778 05430 4001  C5430,  4001                / JMS   L0001                           
 2779 05431 0404      AND I S0004             /                                       @@5431=0404
 2780 05432 4024      JMS   D0024             /                                       @@5432=4024
 2781 05433 0523      AND I C0123             /                                       @@5433=0523
 2782 05434 2440      ISZ I D0040             /                                       @@5434=2440
 2783 05435 0601      AND I C5401             /                                       @@5435=0601
 2784 05436 1114      TAD   C0114             /                                       @@5436=1114
 2785 05437 0504      AND I C0104             /                                       @@5437=0504
 2786 05440 0000      AND   L0000             /                                       @@5440=0000
 2787 05441 3736      DCA I C5536             /                                       @@5441=3736
 2788 05442 4040      JMS   D0040             /                                       @@5442=4040
 2789 05443 4040      JMS   D0040             /                                       @@5443=4040
 2790 05444 4023      JMS   D0023             /                                       @@5444=4023
 2791 05445 1115      TAD   L0115             /                                       @@5445=1115
 2792 05446 2514      ISZ I C0114             /                                       @@5446=2514
 2793 05447 0124      AND   C0124             /                                       @@5447=0124

      AUTOMATIC DISASSEMBLY OF MAINDEC-8E-D0CC-PB.bin BY D8TAPE          Page 50


 2794 05450 0504      AND I C0104             /                                       @@5450=0504
 2795 05451 4022  C5451,  4022                / JMS   C0022                           
 2796 05452 0114      AND   C0114             /                                       @@5452=0114
 2797 05453 4024      JMS   D0024             /                                       @@5453=4024
 2798 05454 0523      AND I C0123             /                                       @@5454=0523
 2799 05455 2440      ISZ I D0040             /                                       @@5455=2440
 2800 05456 0601      AND I C5401             /                                       @@5456=0601
 2801 05457 1114      TAD   C0114             /                                       @@5457=1114
 2802 05460 0504      AND I C0104             /                                       @@5460=0504
 2803 05461 0000      AND   L0000             /                                       @@5461=0000
 2804 05462 3736      DCA I C5536             /                                       @@5462=3736
 2805 05463 4040      JMS   D0040             /                                       @@5463=4040
 2806 05464 4040      JMS   D0040             /                                       @@5464=4040
 2807 05465 4023      JMS   D0023             /                                       @@5465=4023
 2808 05466 1115      TAD   L0115             /                                       @@5466=1115
 2809 05467 2514      ISZ I C0114             /                                       @@5467=2514
 2810 05470 0124      AND   C0124             /                                       @@5470=0124
 2811 05471 0504      AND I C0104             /                                       @@5471=0504
 2812 05472 4022  C5472,  4022                / JMS   C0022                           
 2813 05473 0122      AND   C0122             /                                       @@5473=0122
 2814 05474 4024      JMS   D0024             /                                       @@5474=4024
 2815 05475 0523      AND I C0123             /                                       @@5475=0523
 2816 05476 2440      ISZ I D0040             /                                       @@5476=2440
 2817 05477 0601      AND I C5401             /                                       @@5477=0601
 2818 05500 1114      TAD   C0114             /                                       @@5500=1114
 2819 05501 0504      AND I C0104             /                                       @@5501=0504
 2820 05502 0000      AND   L0000             /                                       @@5502=0000
 2821 05503 3736      DCA I C5536             /                                       @@5503=3736
 2822 05504 4040      JMS   D0040             /                                       @@5504=4040
 2823 05505 4040      JMS   D0040             /                                       @@5505=4040
 2824 05506 4023      JMS   D0023             /                                       @@5506=4023
 2825 05507 1115      TAD   L0115             /                                       @@5507=1115
 2826 05510 2514      ISZ I C0114             /                                       @@5510=2514
 2827 05511 0124      AND   C0124             /                                       @@5511=0124
 2828 05512 0504      AND I C0104             /                                       @@5512=0504
 2829 05513 4022  C5513,  4022                / JMS   C0022                           
 2830 05514 2414  C5514,  2414                / ISZ I AI4                             
 2831 05515 4024      JMS   D0024             /                                       @@5515=4024
 2832 05516 0523      AND I C0123             /                                       @@5516=0523
 2833 05517 2440      ISZ I D0040             /                                       @@5517=2440
 2834 05520 0601      AND I C5401             /                                       @@5520=0601
 2835 05521 1114      TAD   C0114             /                                       @@5521=1114
 2836 05522 0504      AND I C0104             /                                       @@5522=0504
 2837 05523 0000      AND   L0000             /                                       @@5523=0000
 2838 05524 3736  C5524,  3736                / DCA I C5536                           
 2839 05525 4040      JMS   D0040             /                                       @@5525=4040
 2840 05526 4040      JMS   D0040             /                                       @@5526=4040
 2841 05527 4023  D5527,  4023                / JMS   D0023                           
 2842 05530 1115      TAD   L0115             /                                       @@5530=1115
 2843 05531 2514      ISZ I C0114             /                                       @@5531=2514
 2844 05532 0124      AND   C0124             /                                       @@5532=0124
 2845 05533 0504      AND I C0104             /                                       @@5533=0504
 2846 05534 4022  C5534,  4022                / JMS   C0022                           
 2847 05535 2422      ISZ I C0022             /                                       @@5535=2422
 2848 05536 4024  C5536,  4024                / JMS   D0024                           
 2849 05537 0523      AND I C0123             /                                       @@5537=0523
 2850 05540 2440      ISZ I D0040             /                                       @@5540=2440

      AUTOMATIC DISASSEMBLY OF MAINDEC-8E-D0CC-PB.bin BY D8TAPE          Page 51


 2851 05541 0601      AND I C5401             /                                       @@5541=0601
 2852 05542 1114      TAD   C0114             /                                       @@5542=1114
 2853 05543 0504      AND I C0104             /                                       @@5543=0504
 2854 05544 0000      AND   L0000             /                                       @@5544=0000
 2855 05545 3736      DCA I C5536             /                                       @@5545=3736
 2856 05546 4040      JMS   D0040             /                                       @@5546=4040
 2857 05547 4040      JMS   D0040             /                                       @@5547=4040
 2858 05550 4023      JMS   D0023             /                                       @@5550=4023
 2859 05551 1115      TAD   L0115             /                                       @@5551=1115
 2860 05552 2514      ISZ I C0114             /                                       @@5552=2514
 2861 05553 0124      AND   C0124             /                                       @@5553=0124
 2862 05554 0504      AND I C0104             /                                       @@5554=0504
 2863 05555 4002      JMS   S0002             /                                       @@5555=4002
 2864 05556 2327      ISZ   D5527             /                                       @@5556=2327
 2865 05557 4024      JMS   D0024             /                                       @@5557=4024
 2866 05560 0523      AND I C0123             /                                       @@5560=0523
 2867 05561 2440      ISZ I D0040             /                                       @@5561=2440
 2868 05562 0601      AND I C5401             /                                       @@5562=0601
 2869 05563 1114      TAD   C0114             /                                       @@5563=1114
 2870 05564 0504      AND I C0104             /                                       @@5564=0504
 2871 05565 0000      AND   L0000             /                                       @@5565=0000
 2872 05566 3736      DCA I C5536             /                                       @@5566=3736
 2873 05567 4040      JMS   D0040             /                                       @@5567=4040
 2874 05570 4040      JMS   D0040             /                                       @@5570=4040
 2875 05571 4022  C5571,  4022                / JMS   C0022                           
 2876 05572 0116      AND   C0116             /                                       @@5572=0116
 2877 05573 0417  C5573,  0417                / AND I AI7                             
 2878 05574 1540      TAD I D0140             /                                       @@5574=1540
 2879 05575 0104      AND   C0104             /                                       @@5575=0104
 2880 05576 0440      AND I D0040             /                                       @@5576=0440
 2881 05577 2405  C5577,  2405                / ISZ I C0005                           
 2882 05600 2324  C5600,  2324                / ISZ   D5724                           
 2883 05601 4061  D5601,  4061                / JMS   C0061                           
 2884 05602 4006  C5602,  4006                / JMS   C0006                           
 2885 05603 0111  C5603,  0111                / AND   C0111                           
 2886 05604 1405  C5604,  1405                / TAD I C0005                           
 2887 05605 0400      AND I L0000             /                                       @@5605=0400
 2888 05606 3736      DCA I C5736             /                                       @@5606=3736
 2889 05607 4040      JMS   D0040             /                                       @@5607=4040
 2890 05610 4040      JMS   D0040             /                                       @@5610=4040
 2891 05611 4022  C5611,  4022                / JMS   C0022                           
 2892 05612 0116      AND   C0116             /                                       @@5612=0116
 2893 05613 0417  C5613,  0417                / AND I AI7                             
 2894 05614 1540      TAD I D0140             /                                       @@5614=1540
 2895 05615 0104      AND   C0104             /                                       @@5615=0104
 2896 05616 0440      AND I D0040             /                                       @@5616=0440
 2897 05617 2405  D5617,  2405                / ISZ I C0005                           
 2898 05620 2324      ISZ   D5724             /                                       @@5620=2324
 2899 05621 4062  C5621,  4062                / JMS   C0062                           
 2900 05622 4006  C5622,  4006                / JMS   C0006                           
 2901 05623 0111      AND   C0111             /                                       @@5623=0111
 2902 05624 1405  D5624,  1405                / TAD I C0005                           
 2903 05625 0400      AND I L0000             /                                       @@5625=0400
 2904 05626 3736      DCA I C5736             /                                       @@5626=3736
 2905 05627 4040      JMS   D0040             /                                       @@5627=4040
 2906 05630 4040      JMS   D0040             /                                       @@5630=4040
 2907 05631 4022  C5631,  4022                / JMS   C0022                           

      AUTOMATIC DISASSEMBLY OF MAINDEC-8E-D0CC-PB.bin BY D8TAPE          Page 52


 2908 05632 0116      AND   C0116             /                                       @@5632=0116
 2909 05633 0417  C5633,  0417                / AND I AI7                             
 2910 05634 1540      TAD I D0140             /                                       @@5634=1540
 2911 05635 2201      ISZ   D5601             /                                       @@5635=2201
 2912 05636 2240      ISZ   D5640             /                                       @@5636=2240
 2913 05637 2405  D5637,  2405                / ISZ I C0005                           
 2914 05640 2324  D5640,  2324                / ISZ   D5724                           
 2915 05641 4006  C5641,  4006                / JMS   C0006                           
 2916 05642 0111      AND   C0111             /                                       @@5642=0111
 2917 05643 1405  C5643,  1405                / TAD I C0005                           
 2918 05644 0400      AND I L0000             /                                       @@5644=0400
 2919 05645 3736      DCA I C5736             /                                       @@5645=3736
 2920 05646 4040      JMS   D0040             /                                       @@5646=4040
 2921 05647 4040      JMS   D0040             /                                       @@5647=4040
 2922 05650 4022  C5650,  4022                / JMS   C0022                           
 2923 05651 0116      AND   C0116             /                                       @@5651=0116
 2924 05652 0417  C5652,  0417                / AND I AI7                             
 2925 05653 1540      TAD I D0140             /                                       @@5653=1540
 2926 05654 2201      ISZ   D5601             /                                       @@5654=2201
 2927 05655 1440      TAD I D0040             /                                       @@5655=1440
 2928 05656 2405  C5656,  2405                / ISZ I C0005                           
 2929 05657 2324      ISZ   D5724             /                                       @@5657=2324
 2930 05660 4006  C5660,  4006                / JMS   C0006                           
 2931 05661 0111      AND   C0111             /                                       @@5661=0111
 2932 05662 1405  C5662,  1405                / TAD I C0005                           
 2933 05663 0400      AND I L0000             /                                       @@5663=0400
 2934 05664 3736      DCA I C5736             /                                       @@5664=3736
 2935 05665 4040      JMS   D0040             /                                       @@5665=4040
 2936 05666 4040      JMS   D0040             /                                       @@5666=4040
 2937 05667 4022  C5667,  4022                / JMS   C0022                           
 2938 05670 0116      AND   C0116             /                                       @@5670=0116
 2939 05671 0417  C5671,  0417                / AND I AI7                             
 2940 05672 1540      TAD I D0140             /                                       @@5672=1540
 2941 05673 2224      ISZ   D5624             /                                       @@5673=2224
 2942 05674 1440      TAD I D0040             /                                       @@5674=1440
 2943 05675 2405  C5675,  2405                / ISZ I C0005                           
 2944 05676 2324      ISZ   D5724             /                                       @@5676=2324
 2945 05677 4006  C5677,  4006                / JMS   C0006                           
 2946 05700 0111      AND   C0111             /                                       @@5700=0111
 2947 05701 1405  C5701,  1405                / TAD I C0005                           
 2948 05702 0400      AND I L0000             /                                       @@5702=0400
 2949 05703 3736      DCA I C5736             /                                       @@5703=3736
 2950 05704 4040      JMS   D0040             /                                       @@5704=4040
 2951 05705 4040      JMS   D0040             /                                       @@5705=4040
 2952 05706 4022  C5706,  4022                / JMS   C0022                           
 2953 05707 0116      AND   C0116             /                                       @@5707=0116
 2954 05710 0417  C5710,  0417                / AND I AI7                             
 2955 05711 1540  D5711,  1540                / TAD I D0140                           
 2956 05712 2224      ISZ   D5624             /                                       @@5712=2224
 2957 05713 2240      ISZ   D5640             /                                       @@5713=2240
 2958 05714 2405  C5714,  2405                / ISZ I C0005                           
 2959 05715 2324  C5715,  2324                / ISZ   D5724                           
 2960 05716 4006  C5716,  4006                / JMS   C0006                           
 2961 05717 0111      AND   C0111             /                                       @@5717=0111
 2962 05720 1405  C5720,  1405                / TAD I C0005                           
 2963 05721 0400      AND I L0000             /                                       @@5721=0400
 2964 05722 3736  C5722,  3736                / DCA I C5736                           

      AUTOMATIC DISASSEMBLY OF MAINDEC-8E-D0CC-PB.bin BY D8TAPE          Page 53


 2965 05723 2311      ISZ   D5711             /                                       @@5723=2311
 2966 05724 1501  D5724,  1501                / TAD I L0101                           
 2967 05725 0400      AND I L0000             /                                       @@5725=0400
 2968 05726 3736      DCA I C5736             /                                       @@5726=3736
 2969 05727 2311      ISZ   D5711             /                                       @@5727=2311
 2970 05730 1522      TAD I C0122             /                                       @@5730=1522
 2971 05731 1724      TAD I D5724             /                                       @@5731=1724
 2972 05732 0000      AND   L0000             /                                       @@5732=0000
 2973 05733 3736      DCA I C5736             /                                       @@5733=3736
 2974 05734 0603      AND I C5603             /                                       @@5734=0603
 2975 05735 2400      ISZ I L0000             /                                       @@5735=2400
 2976 05736 3736  C5736,  3736                / DCA I C5736                           
 2977 05737 2201      ISZ   D5601             /                                       @@5737=2201
 2978 05740 1604  D5740,  1604                / TAD I C5604                           
 2979 05741 1715      TAD I C5715             /                                       @@5741=1715
 2980 05742 0000      AND   L0000             /                                       @@5742=0000
 2981 05743 3736      DCA I C5736             /                                       @@5743=3736
 2982 05744 0000      AND   L0000             /                                       @@5744=0000
 2983 05745 3736      DCA I C5736             /                                       @@5745=3736
 2984 05746 4004      JMS   S0004             /                                       @@5746=4004
 2985 05747 0124      AND   C0124             /                                       @@5747=0124
 2986 05750 0140      AND   D0140             /                                       @@5750=0140
 2987 05751 0522      AND I C0122             /                                       @@5751=0522
 2988 05752 2217      ISZ   D5617             /                                       @@5752=2217
 2989 05753 2237      ISZ   D5637             /                                       @@5753=2237
 2990 05754 3600      DCA I C5600             /                                       @@5754=3600
 2991 05755 7777  C5755,  7777                / CLA MQA SCA MQL LSR +                 
 2992 05756 4005  C5756,  4005                / JMS   C0005                           
 2993 05757 3024      DCA   D0024             /                                       @@5757=3024
 2994 05760 0516      AND I C0116             /                                       @@5760=0516
 2995 05761 0405  C5761,  0405                / AND I C0005                           
 2996 05762 0440      AND I D0040             /                                       @@5762=0440
 2997 05763 0201      AND   D5601             /                                       @@5763=0201
 2998 05764 1613      TAD I C5613             /                                       @@5764=1613
 2999 05765 2340      ISZ   D5740             /                                       @@5765=2340
 3000 05766 1706      TAD I C5706             /                                       @@5766=1706
 3001 05767 4015  C5767,  4015                / JMS   AI5                             
 3002 05770 0515      AND I L0115             /                                       @@5770=0515
 3003 05771 1722      TAD I C5722             /                                       @@5771=1722
 3004 05772 3140      DCA   D0140             /                                       @@5772=3140
 3005 05773 2417  C5773,  2417                / ISZ I AI7                             
 3006 05774 4002      JMS   S0002             /                                       @@5774=4002
 3007 05775 0116      AND   C0116             /                                       @@5775=0116
 3008 05776 1340      TAD   D5740             /                                       @@5776=1340
 3009 05777 0000      AND   L0000             /                                       @@5777=0000
 3010             
 3011       7600  *7600
 3012 07600 7300      CLA CLL                 / AC = 0000                             @@7600=7300
 3013 07601 1155      TAD   C0155             /                                       @@7601=1155
 3014 07602 3377      DCA   L7777             /                                       @@7602=3377
 3015 07603 5377      JMP   L7777             /                                       @@7603=5377
 3016             
 3017       7751  *7751                       / align to RIMLDR location
 3018 07751 0200      0200                    / addr of program start
 3019 07752 6032      KCC                     / first instr in std RIMLDR
 3020 07753 1352      TAD .-1                 / get KCC instr
 3021 07754 3356      DCA .+2                 / restore into RIMLDR

      AUTOMATIC DISASSEMBLY OF MAINDEC-8E-D0CC-PB.bin BY D8TAPE          Page 54


 3022 07755 5751      JMP I .-4               / start program
 3023 07756 5353      JMP .-3                 / overlay first word of RIMLDR
 3024             

      No detected errors

      AUTOMATIC DISASSEMBLY OF MAINDEC-8E-D0CC-PB.bin BY D8TAPE          Page 55
                                                                    Symbol Table

    1  AI0    00010   C0143  00143   C2131  02131   C5041  05041   C5671  05671 
    2  AI1    00011   C0144  00144   C2132  02132   C5044  05044   C5675  05675 
    3  AI2    00012   C0145  00145   C2133  02133   C5066  05066   C5677  05677 
    4  C0022  00022   C0146  00146   C2325  02325   C5102  05102   C5701  05701 
    5  C0047  00047   C0147  00147   C2326  02326   C5110  05110   C5706  05706 
    6  C0050  00050   C0150  00150   C2425  02425   C5200  05200   C5710  05710 
    7  C0051  00051   C0151  00151   C2526  02526   C5202  05202   C5714  05714 
    8  C0052  00052   C0152  00152   C2527  02527   C5204  05204   C5715  05715 
    9  C0053  00053   C0153  00153   C2530  02530   C5216  05216   C5716  05716 
   10  C0054  00054   C0155  00155   C2714  02714   C5227  05227   C5720  05720 
   11  C0055  00055   C0156  00156   C2715  02715   C5231  05231   C5722  05722 
   12  C0056  00056   C0157  00157   C2716  02716   C5236  05236   C5736  05736 
   13  C0057  00057   C0165  00165   C2717  02717   C5240  05240   C5755  05755 
   14  C0060  00060   C0167  00167   C3060  03060   C5250  05250   C5756  05756 
   15  C0061  00061   C0170  00170   C3073  03073   C5267  05267   C5761  05761 
   16  C0062  00062   C0171  00171   C3220  03220   C5303  05303   C5767  05767 
   17  C0063  00063   C0172  00172   C3222  03222   C5311  05311   C5773  05773 
   18  C0064  00064   C0173  00173   C3266  03266   C5322  05322   D0000  00000 
   19  C0065  00065   C0404  00404   C3267  03267   C5324  05324   D0001  00001 
   20  C0066  00066   C0415  00415   C3400  03400   C5327  05327   D0003  00003 
   21  C0067  00067   C0416  00416   C3445  03445   C5336  05336   D0020  00020 
   22  C0071  00071   C0471  00471   C3446  03446   C5343  05343   D0023  00023 
   23  C0072  00072   C0474  00474   C3542  03542   C5361  05361   D0024  00024 
   24  C0073  00073   C0521  00521   C3700  03700   C5362  05362   D0025  00025 
   25  C0074  00074   C0542  00542   C3756  03756   C5376  05376   D0026  00026 
   26  C0075  00075   C0551  00551   C4005  04005   C5400  05400   D0027  00027 
   27  C0077  00077   C0566  00566   C4010  04010   C5401  05401   D0030  00030 
   28  C0100  00100   C0600  00600   C4022  04022   C5405  05405   D0031  00031 
   29  C0101  00101   C0636  00636   C4032  04032   C5430  05430   D0032  00032 
   30  C0102  00102   C0723  00723   C4040  04040   C5451  05451   D0033  00033 
   31  C0103  00103   C0753  00753   C4175  04175   C5472  05472   D0034  00034 
   32  C0104  00104   C0754  00754   C4176  04176   C5513  05513   D0035  00035 
   33  C0105  00105   C0755  00755   C4177  04177   C5514  05514   D0036  00036 
   34  C0106  00106   C0756  00756   C4333  04333   C5524  05524   D0037  00037 
   35  C0107  00107   C0776  00776   C4334  04334   C5534  05534   D0040  00040 
   36  C0111  00111   C0777  00777   C4335  04335   C5536  05536   D0041  00041 
   37  C0112  00112   C1070  01070   C4400  04400   C5571  05571   D0043  00043 
   38  C0113  00113   C1142  01142   C4535  04535   C5573  05573   D0044  00044 
   39  C0114  00114   C1325  01325   C4562  04562   C5577  05577   D0045  00045 
   40  C0115  00115   C1340  01340   C4567  04567   C5600  05600   D0046  00046 
   41  C0116  00116   C1341  01341   C4570  04570   C5602  05602   D0070  00070 
   42  C0122  00122   C1400  01400   C4571  04571   C5603  05603   D0076  00076 
   43  C0123  00123   C1450  01450   C4572  04572   C5604  05604   D0140  00140 
   44  C0124  00124   C1451  01451   C4600  04600   C5611  05611   D0154  00154 
   45  C0125  00125   C1452  01452   C4630  04630   C5613  05613   D0174  00174 
   46  C0126  00126   C1453  01453   C4755  04755   C5621  05621   D0175  00175 
   47  C0127  00127   C1454  01454   C4770  04770   C5622  05622   D0176  00176 
   48  C0130  00130   C1645  01645   C4771  04771   C5631  05631   D0417  00417 
   49  C0131  00131   C1646  01646   C4772  04772   C5633  05633   D0507  00507 
   50  C0132  00132   C1647  01647   C4773  04773   C5641  05641   D1133  01133 
   51  C0133  00133   C1650  01650   C4774  04774   C5643  05643   D1600  01600 
   52  C0134  00134   C1651  01651   C4775  04775   C5650  05650   D2324  02324 
   53  C0135  00135   C2000  02000   C4776  04776   C5652  05652   D2400  02400 
   54  C0136  00136   C2004  02004   C5000  05000   C5656  05656   D2600  02600 
   55  C0137  00137   C2043  02043   C5013  05013   C5660  05660   D3262  03262 
   56  C0141  00141   C2127  02127   C5025  05025   C5662  05662   D3263  03263 
   57  C0142  00142   C2130  02130   C5026  05026   C5667  05667   D3264  03264 

      AUTOMATIC DISASSEMBLY OF MAINDEC-8E-D0CC-PB.bin BY D8TAPE          Page 56
                                                                    Symbol Table

   58  D3541  03541   L0513  00513   L3200  03200   S1200  01200 
   59  D3736  03736   L0520  00520   L3207  03207   S1225  01225 
   60  D3746  03746   L0527  00527   L3221  03221   S1236  01236 
   61  D3747  03747   L0540  00540   L3224  03224   S1410  01410 
   62  D3750  03750   L0542  00542   L3400  03400   S1420  01420 
   63  D3751  03751   L0545  00545   L3402  03402   S1430  01430 
   64  D3752  03752   L0552  00552   L3502  03502   S1440  01440 
   65  D3753  03753   L0556  00556   L3516  03516   S1617  01617 
   66  D3754  03754   L0570  00570   L3600  03600   S1652  01652 
   67  D3755  03755   L0577  00577   L3612  03612   S3000  03000 
   68  D4024  04024   L0600  00600   L3632  03632   S3017  03017 
   69  D4626  04626   L0601  00601   L3640  03640   S3027  03027 
   70  D4643  04643   L0605  00605   L3654  03654   S3037  03037 
   71  D4712  04712   L0626  00626   L3744  03744   S3046  03046 
   72  D4714  04714   L0632  00632   L4033  04033   S3056  03056 
   73  D4717  04717   L0653  00653   L4200  04200   S3227  03227 
   74  D5063  05063   L0657  00657   L4250  04250   S3447  03447 
   75  D5201  05201   L0700  00700   L4255  04255   S3512  03512 
   76  D5205  05205   L0704  00704   L4325  04325   S3701  03701 
   77  D5207  05207   L0725  00725   L4400  04400   S3715  03715 
   78  D5211  05211   L0731  00731   L4446  04446   S3730  03730 
   79  D5325  05325   L1026  01026   L4450  04450   S4000  04000 
   80  D5340  05340   L1027  01027   L4455  04455   S4631  04631 
   81  D5527  05527   L1030  01030   L4460  04460   S4664  04664 
   82  D5601  05601   L1044  01044   L4525  04525   S4731  04731 
   83  D5617  05617   L1046  01046   L4540  04540   S4741  04741 
   84  D5624  05624   L1056  01056   L4550  04550   S4752  04752 
   85  D5637  05637   L1063  01063   L4563  04563   S4760  04760 
   86  D5640  05640   L1077  01077   L4566  04566   S5064  05064 
   87  D5711  05711   L1207  01207   L4600  04600 
   88  D5724  05724   L1244  01244   L4623  04623 
   89  D5740  05740   L1277  01277   L4641  04641 
   90  D7776  07776   L1303  01303   L4655  04655 
   91  D7777  07777   L1323  01323   L4674  04674 
   92  L0000  00000   L1327  01327   L4712  04712 
   93  L0001  00001   L1342  01342   L4726  04726 
   94  L0003  00003   L1605  01605   L4734  04734 
   95  L0026  00026   L1630  01630   L4743  04743 
   96  L0041  00041   L1635  01635   L5010  05010 
   97  L0100  00100   L1642  01642   L5023  05023 
   98  L0101  00101   L1643  01643   L5036  05036 
   99  L0115  00115   L1654  01654   L5051  05051 
  100  L0156  00156   L2000  02000   L5053  05053 
  101  L0177  00177   L2023  02023   L5062  05062 
  102  L0200  00200   L2056  02056   L5253  05253 
  103  L0202  00202   L2107  02107   L7776  07776 
  104  L0204  00204   L2213  02213   L7777  07777 
  105  L0234  00234   L2246  02246   S0002  00002 
  106  L0244  00244   L2302  02302   S0004  00004 
  107  L0253  00253   L2412  02412   S0467  00467 
  108  L0260  00260   L2450  02450   S0477  00477 
  109  L0274  00274   L2503  02503   S0504  00504 
  110  L0366  00366   L2612  02612   S0523  00523 
  111  L0377  00377   L2644  02644   S1000  01000 
  112  L0400  00400   L2677  02677   S1031  01031 
  113  L0404  00404   L3024  03024   S1071  01071 
  114  L0410  00410   L3054  03054   S1131  01131 

      AUTOMATIC DISASSEMBLY OF MAINDEC-8E-D0CC-PB.bin BY D8TAPE          Page 57
                                                                 Cross Reference

    1 A     64  AI0         668    842    848   1175   1386   1480
    2 A     65  AI1         488    491   1098   1101
    3 A     66  AI2         544    567    590    613    636    879    883    933
    4                       938    966    974
    5 A     71  C0022        70   2847
    6 A     95  C0047       464    467    500    510   1145   2461   2479   2481
    7                      2500   2518
    8 A     96  C0050      1011   1029   1047   1065   1083
    9 A     98  C0051       545    568    591    614    765    928
   10 A     99  C0052       543
   11 A    100  C0053       589
   12 A    101  C0054       612
   13 A    102  C0055       635
   14 A    104  C0056       559    582    605    628    651
   15 A    106  C0057       561    584    607    630    653
   16 A    108  C0060       792    800    808   1674   1830   2609
   17 A    110  C0061       793    801    809   1675   1819   1823   1831   2056
   18                      2060   2068   2610   2619
   19 A    112  C0062      2130   2177   2234   2282
   20 A    114  C0063      1924   1937
   21 A    116  C0064      1209   1237   1263   1298   1328   1357   1393   1451
   22                      1485   1513   1538   1786   1923   1936   2121   2168
   23                      2224   2273
   24 A    118  C0065      1212   1240   1266   1301   1331   1360   1425   1454
   25                      1488   1516   1541
   26 A    120  C0066      1214   1242   1268   1303   1333   1362   1398   1427
   27                      1456   1490   1518   1543
   28 A    122  C0067      1215   1243   1269   1304   1334   1363   1399   1428
   29                      1457   1491   1519   1544   1790   1927   1940   1948
   30                      2132   2179   2236   2284
   31 A    125  C0071      1191   1223   1251   1260   1284   1323   1436
   32 A    127  C0072      1193   1206   1225   1234   1253   1286   1295   1312
   33                      1325   1343   1354   1377   1390   1418   1420   1446
   34                      1448   1471   1482   1508   1510   1528   1535
   35 A    129  C0073      1756
   36 A    131  C0074       336
   37 A    133  C0075       342
   38 A    135  C0077       462    498   2517
   39 A    137  C0100   
   40 A    139  C0101   
   41 A    140  C0102       487    566
   42 A    141  C0103       254    360    754   1611   1836   1891   2073   2582
   43                      2738   2765
   44 A    142  C0104       355    750   1629   1809   2045   2532   2544   2557
   45                      2569   2644   2677   2761   2777   2785   2794   2802
   46                      2811   2819   2828   2836   2845   2853   2862   2870
   47                      2879   2895
   48 A    143  C0105       365    759   1647
   49 A    144  C0106       188
   50 A    145  C0107      2309   2732
   51 A    147  C0111      2901   2916   2931   2946   2961
   52 A    148  C0112   
   53 A    149  C0113      2376   2410
   54 A    150  C0114       520    989   1691   2295   2642   2675   2727   2734
   55                      2767   2775   2784   2792   2796   2801   2809   2818
   56                      2826   2835   2843   2852   2860   2869
   57 A    152  C0115   

      AUTOMATIC DISASSEMBLY OF MAINDEC-8E-D0CC-PB.bin BY D8TAPE          Page 58
                                                                 Cross Reference

   58 A    153  C0116       524    969    978    993   1695   2299   2694   2733
   59                      2876   2892   2908   2923   2938   2953   2994   3007
   60 A    157  C0122      1186   1706   2651   2658   2746   2813   2970   2987
   61 A    158  C0123      1218   2726   2781   2798   2815   2832   2849   2866
   62 A    159  C0124      1246   2643   2676   2776   2793   2810   2827   2844
   63                      2861   2985
   64 A    160  C0125      1272
   65 A    161  C0126      1306
   66 A    162  C0127      1337
   67 A    163  C0130      1366   2758
   68 A    164  C0131      1402
   69 A    165  C0132      1431
   70 A    166  C0133      1460
   71 A    167  C0134      1494
   72 A    168  C0135      1522
   73 A    169  C0136      1192   1224   1285
   74 A    170  C0137      1196   1226   1250   1313   1315   1344   1378   1407
   75                      1409   1437   1472   1499   1527
   76 A    172  C0141      1228   1289   1439   1501
   77 A    173  C0142      1287
   78 A    174  C0143      1311
   79 A    175  C0144      1342
   80 A    176  C0145      1376
   81 A    177  C0146      1417
   82 A    178  C0147      1445
   83 A    179  C0150      1470
   84 A    180  C0151      1317   1346   1380   1474
   85 A    181  C0152      1254   1529
   86 A    182  C0153      1507
   87 A    184  C0155      3013
   88 A    186  C0156   
   89 A    187  C0157   
   90 A    194  C0165      1813
   91 A    197  C0167       195
   92 A    198  C0170       192
   93 A    199  C0171      2373   2380   2381   2391
   94 A    200  C0172      1722   1735   2497
   95 A    201  C0173      2304   2514
   96 A    359  C0404   
   97 A    370  C0415       367
   98 A    372  C0416       368
   99 A    425  C0471   
  100 A    428  C0474   
  101 A    472  C0521       531
  102 A    504  C0542   
  103 A    512  C0551       443
  104 A    527  C0566   
  105 A    540  C0600   
  106 A    574  C0636   
  107 A    631  C0723   
  108 A    658  C0753       563
  109 A    660  C0754       586
  110 A    662  C0755       609
  111 A    664  C0756       632
  112 A    681  C0776       637
  113 A    683  C0777       655
  114 A    769  C1070       766

      AUTOMATIC DISASSEMBLY OF MAINDEC-8E-D0CC-PB.bin BY D8TAPE          Page 59
                                                                 Cross Reference

  115 A    833  C1142       811
  116 A    985  C1325      1003
  117 A    998  C1340       995
  118 A   1000  C1341       996
  119 A   1008  C1400      1015
  120 A   1088  C1450      1010
  121 A   1089  C1451      1028
  122 A   1090  C1452      1046
  123 A   1091  C1453      1064
  124 A   1092  C1454      1082
  125 A   1147  C1645      1122
  126 A   1148  C1646      1125
  127 A   1149  C1647      1143
  128 A   1150  C1650      1140
  129 A   1151  C1651      1134
  130 A   1185  C2000   
  131 A   1189  C2004   
  132 A   1221  C2043   
  133 A   1275  C2127      1202
  134 A   1276  C2130      1230
  135 A   1277  C2131      1256
  136 A   1278  C2132      1194
  137 A   1279  C2133      1252
  138 A   1370  C2325      1319
  139 A   1371  C2326      1348
  140 A   1396  C2425   
  141 A   1463  C2526      1382
  142 A   1464  C2527      1413
  143 A   1465  C2530      1441
  144 A   1548  C2714      1546
  145 A   1549  C2715      1476
  146 A   1550  C2716      1503
  147 A   1551  C2717      1531
  148 A   1666  C3060   
  149 A   1678  C3073      1668
  150 A   1700  C3220      1698
  151 A   1703  C3222   
  152 A   1750  C3266      1727   1740
  153 A   1751  C3267      1729   1742
  154 A   1755  C3400   
  155 A   1794  C3445      1792
  156 A   1796  C3446      1789
  157 A   1879  C3542      1833   1859   1868
  158 A   1952  C3700      1950
  159 A   2030  C3756      1926   1939
  160 A   2049  C4005      2050
  161 A   2052  C4010   
  162 A   2062  C4022   
  163 A   2070  C4032   
  164 A   2077  C4040   
  165 A   2082  C4175   
  166 A   2083  C4176      2058
  167 A   2084  C4177      2054
  168 A   2183  C4333      2181
  169 A   2185  C4334      2178
  170 A   2187  C4335      2131
  171 A   2191  C4400   

      AUTOMATIC DISASSEMBLY OF MAINDEC-8E-D0CC-PB.bin BY D8TAPE          Page 60
                                                                 Cross Reference

  172 A   2290  C4535      2317
  173 A   2314  C4562      2312
  174 A   2322  C4567      2320
  175 A   2324  C4570      2283
  176 A   2326  C4571      2235
  177 A   2328  C4572      2311
  178 A   2332  C4600   
  179 A   2358  C4630      2356
  180 A   2499  C4755      2339
  181 A   2521  C4770      2350
  182 A   2522  C4771      2370   2457
  183 A   2523  C4772      2374   2422   2425
  184 A   2524  C4773      2480
  185 A   2525  C4774      2478
  186 A   2526  C4775      2411
  187 A   2527  C4776      2460
  188 A   2530  C5000      2540
  189 A   2542  C5013      2552
  190 A   2554  C5025      2536
  191 A   2555  C5026      2565
  192 A   2567  C5041      2578
  193 A   2571  C5044      2548
  194 A   2602  C5066   
  195 A   2615  C5102      2574
  196 A   2621  C5110   
  197 A   2625  C5200      2685   2729
  198 A   2627  C5202   
  199 A   2629  C5204      2688   2707
  200 A   2639  C5216      2719
  201 A   2648  C5227   
  202 A   2650  C5231   
  203 A   2655  C5236   
  204 A   2657  C5240   
  205 A   2665  C5250   
  206 A   2681  C5267   
  207 A   2693  C5303   
  208 A   2699  C5311      2667
  209 A   2708  C5322      2731
  210 A   2710  C5324      2682
  211 A   2713  C5327   
  212 A   2720  C5336      2660   2662   2686   2703   2705   2730   2741   2743
  213 A   2725  C5343   
  214 A   2739  C5361      2659   2747
  215 A   2740  C5362      2635   2652
  216 A   2752  C5376   
  217 A   2754  C5400   
  218 A   2755  C5401      2783   2800   2817   2834   2851   2868
  219 A   2759  C5405   
  220 A   2778  C5430   
  221 A   2795  C5451   
  222 A   2812  C5472   
  223 A   2829  C5513   
  224 A   2830  C5514   
  225 A   2838  C5524      2760
  226 A   2846  C5534   
  227 A   2848  C5536      2768   2770   2787   2804   2821   2855   2872
  228 A   2875  C5571   

      AUTOMATIC DISASSEMBLY OF MAINDEC-8E-D0CC-PB.bin BY D8TAPE          Page 61
                                                                 Cross Reference

  229 A   2877  C5573   
  230 A   2881  C5577   
  231 A   2882  C5600      2990
  232 A   2884  C5602   
  233 A   2885  C5603      2974
  234 A   2886  C5604   
  235 A   2891  C5611   
  236 A   2893  C5613      2998
  237 A   2899  C5621   
  238 A   2900  C5622   
  239 A   2907  C5631   
  240 A   2909  C5633   
  241 A   2915  C5641   
  242 A   2917  C5643   
  243 A   2922  C5650   
  244 A   2924  C5652   
  245 A   2928  C5656   
  246 A   2930  C5660   
  247 A   2932  C5662   
  248 A   2937  C5667   
  249 A   2939  C5671   
  250 A   2943  C5675   
  251 A   2945  C5677   
  252 A   2947  C5701   
  253 A   2952  C5706      3000
  254 A   2954  C5710   
  255 A   2958  C5714   
  256 A   2959  C5715      2979
  257 A   2960  C5716   
  258 A   2962  C5720   
  259 A   2964  C5722      3003
  260 A   2976  C5736      2888   2904   2919   2934   2949   2968   2973   2981
  261                      2983
  262 A   2991  C5755   
  263 A   2992  C5756   
  264 A   2995  C5761   
  265 A   3001  C5767   
  266 A   3005  C5773   
  267 A     36  D0000   
  268 A     38  D0001   
  269 A     50  D0003   
  270 A     69  D0020       669    835    855   1177   1188   1683   2286
  271 A     72  D0023       215    219    232    237    261    280    288    338
  272                       345    379    552    575    598    621    644    741
  273                       787    888    941    954    975   1014   1032   1050
  274                      1068   1086   2640   2673   2773   2790   2807   2824
  275                      2858
  276 A     73  D0024       213    222    227    230    238    262    281    287
  277                       340    344    383    548    571    594    617    640
  278                       736    740    746    790    961    970   1013   1031
  279                      1049   1067   1085   2702   2780   2797   2814   2831
  280                      2865   2993
  281 A     74  D0025       234    270    273    277    309    313    390    698
  282                       706    795    876    911    913    929   1591   1597
  283                      1670   1825   2010   2066   2617   2766
  284 A     76  D0026   
  285 A     77  D0027       224    244    253

      AUTOMATIC DISASSEMBLY OF MAINDEC-8E-D0CC-PB.bin BY D8TAPE          Page 62
                                                                 Cross Reference

  286 A     78  D0030       267    275
  287 A     79  D0031       283    295    303    307    315    398    555    578
  288                       601    624    647    700    704    803
  289 A     80  D0032       285    319    328    395
  290 A     81  D0033       290    297    301    406    558    581    604    627
  291                       650    714    806
  292 A     82  D0034       292    322    403
  293 A     83  D0035       216    375    429    782    829   1012   1030   1048
  294                      1066   1084
  295 A     84  D0036      1102   1103   1108
  296 A     85  D0037       380    384    391    399    407    494    788    796
  297                       804    880    889    894    936    942    946    950
  298                       955   1568   1572   1667   1671   1720   1721   1724
  299                      1731   1737   1818   1822   1826   2055   2059   2063
  300                      2067   2126   2173   2230   2278   2608   2618   2684
  301                      2728
  302 A     86  D0040       388    396    404    458    670    791    799    807
  303                       841    849    886    893    908    939    949    952
  304                       967   1179   1566   1574   1673   1829   2129   2176
  305                      2233   2281   2605   2613   2631   2633   2636   2637
  306                      2638   2645   2646   2647   2653   2654   2663   2664
  307                      2670   2671   2672   2678   2679   2680   2690   2691
  308                      2692   2696   2697   2698   2709   2715   2716   2717
  309                      2718   2721   2723   2724   2735   2736   2737   2744
  310                      2745   2748   2749   2750   2751   2756   2757   2762
  311                      2763   2764   2771   2772   2782   2788   2789   2799
  312                      2805   2806   2816   2822   2823   2833   2839   2840
  313                      2850   2856   2857   2867   2873   2874   2880   2889
  314                      2890   2896   2905   2906   2920   2921   2927   2935
  315                      2936   2942   2950   2951   2996
  316 A     88  D0041   
  317 A     90  D0043      1760   1761   1765   1766   1769   1771   1772   1775
  318                      1776   1777   1779   1783   1784   1821   1863   2122
  319                      2169   2225   2274
  320 A     91  D0044      1872   1873   2089   2125   2136   2172   2192   2228
  321                      2240   2277   2604
  322 A     92  D0045      1875
  323 A     93  D0046       410    424    426    530    810    824    826   1002
  324                      1665   1702   1744   1812   1814   1832   2051   2069
  325                      2316   2338   2535   2547   2560   2573   2601   2620
  326 A    123  D0070   
  327 A    134  D0076       466    509   1128
  328 A    171  D0140      1198   1411   2689   2878   2894   2910   2925   2940
  329                      2986   3004
  330 A    183  D0154      1187   1219   1220   1247   1248   1273   1274   1307
  331                      1308   1338   1339   1367   1368   1403   1404   1432
  332                      1433   1461   1462   1495   1496   1523   1524   1614
  333                      1707   1708
  334 A    202  D0174      2346   2369   2384   2415   2496
  335 A    203  D0175      2307   2344
  336 A    204  D0176      2371   2386   2408   2431   2433   2434   2437   2443
  337                      2458   2462   2476   2482
  338 A    373  D0417       357
  339 A    459  D0507   
  340 A    825  D1133   
  341 A   1095  D1600      1097   1099   1124   1172
  342 A   1369  D2324      1291

      AUTOMATIC DISASSEMBLY OF MAINDEC-8E-D0CC-PB.bin BY D8TAPE          Page 63
                                                                 Cross Reference

  343 A   1374  D2400   
  344 A   1468  D2600   
  345 A   1746  D3262      1745
  346 A   1747  D3263      1736   1741   1743
  347 A   1748  D3264      1723   1728   1730
  348 A   1877  D3541      1865   1869
  349 A   2012  D3736   
  350 A   2021  D3746      1885   1899   1904   1915   1990
  351 A   2022  D3747      1889   1907   1912   1968
  352 A   2023  D3750      1919   1933   1973   1994
  353 A   2024  D3751      1908   1916   1920   1932
  354 A   2025  D3752      1892   1895   1900   1943   1945   1969   1986   2015
  355 A   2026  D3753      1897   1964   1991   2011
  356 A   2027  D3754      1966   1971   1988   1993
  357 A   2028  D3755      2008   2016
  358 A   2064  D4024   
  359 A   2355  D4626      2354
  360 A   2378  D4643      2377   2385
  361 A   2430  D4712   
  362 A   2432  D4714      2352   2423   2513
  363 A   2435  D4717      2428
  364 A   2589  D5063      2561   2580   2585   2588
  365 A   2626  D5201      2669   2687   2706
  366 A   2630  D5205      2700
  367 A   2632  D5207      2628   2649   2656   2753
  368 A   2634  D5211      2666
  369 A   2711  D5325      2701
  370 A   2722  D5340      2714
  371 A   2841  D5527      2864
  372 A   2883  D5601      2911   2926   2977   2997
  373 A   2897  D5617      2988
  374 A   2902  D5624      2941   2956
  375 A   2913  D5637      2989
  376 A   2914  D5640      2912   2957
  377 A   2955  D5711      2965   2969
  378 A   2966  D5724      2898   2929   2944   2971
  379 A   2978  D5740      2999   3008
  380 A     30  D7776   
  381 A     32  D7777   
  382 A     35  L0000        28     89    154    155    656    673    674    675
  383                       676    677    679    831    838    839    844    845
  384                       851    852    857    858    859    861   1174   1176
  385                      1178   1180   1181   1195   1227   1255   1288   1314
  386                      1352   1388   1408   1438   1500   1530   1749   2661
  387                      2704   2742   2769   2786   2803   2820   2837   2854
  388                      2871   2887   2903   2918   2933   2948   2963   2967
  389                      2972   2975   2980   2982   3009
  390 A     37  L0001       156    665    678    837    853   1169   1197   1229
  391                      1257   1290   1316   1345   1379   1410   1440   1473
  392                      1502   1532
  393 A     49  L0003      1201   1320   1349   1383   1477   2695
  394 A     75  L0026       235    257    264    331    387    710    798    877
  395                       930    962    979   1594   1672   1828   2127   2174
  396                      2231   2279   2612
  397 A     87  L0041      1759   1762   1763   1764   1767   1768   1770   1773
  398                      1774   1778   1780   1781   1782   1817   1855   1860
  399                      1861   1884   1887   2092   2139   2195   2244   2607

      AUTOMATIC DISASSEMBLY OF MAINDEC-8E-D0CC-PB.bin BY D8TAPE          Page 64
                                                                 Cross Reference

  400 A    136  L0100       146    505    671    834    856   1170
  401 A    138  L0101      2683
  402 A    151  L0115       515    983   1686   2353   2641   2674   2774   2791
  403                      2808   2825   2842   2859   3002
  404 A    185  L0156       212
  405 A    207  L0177       190    427
  406 A    211  L0200   
  407 A    214  L0202   
  408 A    217  L0204       339    346
  409 A    242  L0234       250
  410 A    251  L0244       246
  411 A    259  L0253       256
  412 A    265  L0260       258
  413 A    278  L0274       240
  414 A    337  L0366   
  415 A    349  L0377       299    305    311    317    326    335
  416 A    353  L0400   
  417 A    358  L0404       412    528
  418 A    363  L0410   
  419 A    463  L0513       473
  420 A    469  L0520       460
  421 A    489  L0527       501
  422 A    499  L0540       506
  423 A    502  L0542       411    496
  424 A    507  L0545       493
  425 A    513  L0552   
  426 A    518  L0556       532
  427 A    529  L0570       517
  428 A    535  L0577       526
  429 A    539  L0600       672
  430 A    541  L0601       562
  431 A    546  L0605       560
  432 A    564  L0626       585
  433 A    569  L0632       583
  434 A    587  L0653       608
  435 A    592  L0657       606
  436 A    610  L0700   
  437 A    615  L0704       629
  438 A    633  L0725       654
  439 A    638  L0731       652
  440 A    718  L1026       702    708
  441 A    720  L1027       761
  442 A    722  L1030       762
  443 A    745  L1044       738    827
  444 A    748  L1046       719
  445 A    757  L1056       768
  446 A    763  L1063       756
  447 A    786  L1077   
  448 A    881  L1207       895
  449 A    931  L1244       958
  450 A    959  L1277       935
  451 A    964  L1303       885
  452 A    981  L1323   
  453 A    987  L1327      1004
  454 A   1001  L1342       986
  455 A   1100  L1605      1110
  456 A   1130  L1630      1127

      AUTOMATIC DISASSEMBLY OF MAINDEC-8E-D0CC-PB.bin BY D8TAPE          Page 65
                                                                 Cross Reference

  457 A   1136  L1635      1133
  458 A   1142  L1642      1139
  459 A   1144  L1643      1129   1135   1141
  460 A   1164  L1654      1166
  461 A   1184  L2000   
  462 A   1204  L2023      1216
  463 A   1232  L2056      1244
  464 A   1258  L2107      1270
  465 A   1293  L2213      1305
  466 A   1321  L2246      1335
  467 A   1350  L2302      1364
  468 A   1384  L2412      1400
  469 A   1415  L2450      1429
  470 A   1443  L2503      1458
  471 A   1478  L2612      1492
  472 A   1505  L2644      1520
  473 A   1533  L2677      1545
  474 A   1595  L3024   
  475 A   1651  L3054      1649
  476 A   1681  L3200   
  477 A   1689  L3207      1704
  478 A   1701  L3221      1688
  479 A   1705  L3224      1684   1697
  480 A   1754  L3400   
  481 A   1757  L3402      1791
  482 A   1834  L3502      1811
  483 A   1857  L3516      1815
  484 A   1882  L3600      1949
  485 A   1893  L3612      1947
  486 A   1910  L3632      1902
  487 A   1917  L3640      1909   1928
  488 A   1930  L3654      1929   1941
  489 A   2018  L3744      2013
  490 A   2071  L4033      2047
  491 A   2087  L4200      2133
  492 A   2128  L4250      2124
  493 A   2134  L4255      2180
  494 A   2175  L4325      2171
  495 A   2190  L4400      2237
  496 A   2229  L4446   
  497 A   2232  L4450      2227
  498 A   2238  L4455      2285
  499 A   2242  L4460   
  500 A   2280  L4525      2276
  501 A   2293  L4540      2318
  502 A   2302  L4550   
  503 A   2315  L4563      2292
  504 A   2319  L4566      2287   2301
  505 A   2331  L4600   
  506 A   2351  L4623      2348
  507 A   2375  L4641      2387
  508 A   2388  L4655      2383
  509 A   2414  L4674      2395
  510 A   2429  L4712      2412   2419   2421   2426   2427   2441   2444
  511 A   2442  L4726      2439
  512 A   2459  L4734      2463
  513 A   2477  L4743      2483

      AUTOMATIC DISASSEMBLY OF MAINDEC-8E-D0CC-PB.bin BY D8TAPE          Page 66
                                                                 Cross Reference

  514 A   2538  L5010      2534
  515 A   2550  L5023      2546
  516 A   2563  L5036      2559
  517 A   2576  L5051      2572
  518 A   2579  L5053      2541   2566
  519 A   2587  L5062      2584
  520 A   2668  L5253   
  521 A     29  L7776   
  522 A     31  L7777      3014   3015
  523 A     48  S0002       666    843    846    847    860   1171   1199   1231
  524                      1292   1318   1347   1381   1412   1442   1475   1504
  525                      2712   2863   3006
  526 A     60  S0004       667    836    854   1173   1203   1414   2779   2984
  527 A    422  S0467       377    430
  528 A    440  S0477       362    445
  529 A    455  S0504       392    400    408    468
  530 A    484  S0523       381    385    393    401    409    511
  531 A    695  S1000       721    723    840    850
  532 A    733  S1031       742    743    744    747
  533 A    779  S1071       752    812
  534 A    822  S1131       784    830
  535 A    873  S1200       980
  536 A    905  S1225       891    914    944    957    972
  537 A    924  S1236       927    963
  538 A   1025  S1410      1033
  539 A   1043  S1420      1051
  540 A   1061  S1430      1069
  541 A   1079  S1440      1087
  542 A   1120  S1617      1107   1109   1146
  543 A   1161  S1652      1168
  544 A   1563  S3000      1570   1576   1577   1578
  545 A   1589  S3017      1598
  546 A   1608  S3027      1613   1616
  547 A   1626  S3037      1632   1633
  548 A   1644  S3046      1650   1652   1653
  549 A   1663  S3056      1631   1676
  550 A   1718  S3227   
  551 A   1806  S3447      1838   1840   1842
  552 A   1852  S3512      1876
  553 A   1962  S3701      1905   1974
  554 A   1984  S3715      1913   1995
  555 A   2005  S3730      2019   2020
  556 A   2042  S4000      2075   2079
  557 A   2366  S4631      2393
  558 A   2405  S4664      2333   2445
  559 A   2455  S4731      2336   2341   2464
  560 A   2474  S4741      2335   2343   2484
  561 A   2494  S4752      2337   2501
  562 A   2511  S4760      2340   2519
  563 A   2599  S5064      2537   2549   2562   2575   2622

      AUTOMATIC DISASSEMBLY OF MAINDEC-8E-D0CC-PB.bin BY D8TAPE          Page 67
                                                                      Memory Map

    1 00000/ XXXXX... XXX..... XXXXXXXX XXXXXXXX XXXXXXXX XXXXXXXX XXXXXXXX XXXXXXXX
    2 00100/ XXXXXXXX XXXXXXXX XXXXXXXX XXXXXXXX XXXXXXXX XXXXXXXX XXXXXXXX XXXXXXXX
    3
    4 00200/ XXXXXXXX XXXXXXXX XXXXXXXX XXXXXXXX XXXXXXXX XXXXXXXX XXXXXXXX XXXXXXXX
    5 00300/ XXXXXXXX XXXXXXXX XXXXXXXX XXXXXXXX XXXXXXXX XXXXXXXX XXXXXXXX XXXXXXXX
    6
    7 00400/ XXXXXXXX XXXXXXXX XXXXXXXX XXXXXXXX XXXXXXXX XXXXXXXX XXXXXXXX XXXXXXXX
    8 00500/ XXXXXXXX XXXXXXXX XXXXXXXX XXXXXXXX XXXXXXXX XXXXXXXX XXXXXXXX XXX....X
    9
   10 00600/ XXXXXXXX XXXXXXXX XXXXXXXX XXXXXXXX XXXXXXXX XXXXXXXX XXXXXXXX XXXXXXXX
   11 00700/ XXXXXXXX XXXXXXXX XXXXXXXX XXXXXXXX XXXXXXXX XXXXXXXX XXXXXXXX XXXXXXXX
   12
   13 01000/ XXXXXXXX XXXXXXXX XXXXXXXX XXXXXXXX XXXXXXXX XXXXXXXX XXXXXXXX XXXXXXXX
   14 01100/ XXXXXXXX XXXXXXXX XXXXXXXX XXXXXXXX XXXXXXXX XXXXXXXX XXXXXXXX XXXXXXX.
   15
   16 01200/ XXXXXXXX XXXXXXXX XXXXXXXX XXXXXXXX XXXXXXXX XXXXXXXX XXXXXXXX XXXXXXXX
   17 01300/ XXXXXXXX XXXXXXXX XXXXXXXX XXXXXXXX XXXXX... ........ ........ ........
   18
   19 01400/ XXXXXXXX XXXXXXXX XXXXXXXX XXXXXXXX XXXXXXXX XXXXX... ........ ........
   20 01500/ ........ ........ ........ ........ ........ ........ ........ ........
   21
   22 01600/ XXXXXXXX XXXXXXXX XXXXXXXX XXXXXXXX XXXXXXXX XXXXXXXX XXXXXXXX XXXXX...
   23 01700/ ........ ........ ........ ........ ........ ........ ........ ........
   24
   25 02000/ XXXXXXXX XXXXXXXX XXXXXXXX XXXXXXXX XXXXXXXX XXXXXXXX XXXXXXXX XXXXXXXX
   26 02100/ XXXXXXXX XXXXXXXX XXXXXXXX XXXX.... ........ ........ ........ ........
   27
   28 02200/ XXXXXXXX XXXXXXXX XXXXXXXX XXXXXXXX XXXXXXXX XXXXXXXX XXXXXXXX XXXXXXXX
   29 02300/ XXXXXXXX XXXXXXXX XXXXXXX. ........ ........ ........ ........ ........
   30
   31 02400/ XXXXXXXX XXXXXXXX XXXXXXXX XXXXXXXX XXXXXXXX XXXXXXXX XXXXXXXX XXXXXXXX
   32 02500/ XXXXXXXX XXXXXXXX XXXXXXXX X....... ........ ........ ........ ........
   33
   34 02600/ XXXXXXXX XXXXXXXX XXXXXXXX XXXXXXXX XXXXXXXX XXXXXXXX XXXXXXXX XXXXXXXX
   35 02700/ XXXXXXXX XXXXXXXX ........ ........ ........ ........ ........ ........
   36
   37 03000/ XXXXXXXX XXXXXXXX XXXXXXXX XXXXXXXX XXXXXXXX XXXXXXXX XXXXXXXX XXXX....
   38 03100/ ........ ........ ........ ........ ........ ........ ........ ........
   39
   40 03200/ XXXXXXXX XXXXXXXX XXXXXXXX XXXXXXXX XXXXXXXX XXXXXXXX XXXXXXXX ........
   41 03300/ ........ ........ ........ ........ ........ ........ ........ ........
   42
   43 03400/ XXXXXXXX XXXXXXXX XXXXXXXX XXXXXXXX XXXXXXXX XXXXXXXX XXXXXXXX XXXXXXXX
   44 03500/ XXXXXXXX XXXXXXXX XXXXXXXX XXXXXXXX XXX..... ........ ........ ........
   45
   46 03600/ XXXXXXXX XXXXXXXX XXXXXXXX XXXXXXXX XXXXXXXX XXXXXXXX XXXXXXXX XXXXXXXX
   47 03700/ XXXXXXXX XXXXXXXX XXXXXXXX XXXXXXXX XXXXXXXX XXXXXXX. ........ ........
   48

      AUTOMATIC DISASSEMBLY OF MAINDEC-8E-D0CC-PB.bin BY D8TAPE          Page 68
                                                                      Memory Map

   49 04000/ XXXXXXXX XXXXXXXX XXXXXXXX XXXXXXXX XXX..... ........ ........ ........
   50 04100/ ........ ........ ........ ........ ........ ........ ........ .....XXX
   51
   52 04200/ XXXXXXXX XXXXXXXX XXXXXXXX XXXXXXXX XXXXXXXX XXXXXXXX XXXXXXXX XXXXXXXX
   53 04300/ XXXXXXXX XXXXXXXX XXXXXXXX XXXXXX.. ........ ........ ........ ........
   54
   55 04400/ XXXXXXXX XXXXXXXX XXXXXXXX XXXXXXXX XXXXXXXX XXXXXXXX XXXXXXXX XXXXXXXX
   56 04500/ XXXXXXXX XXXXXXXX XXXXXXXX XXXXXXXX XXXXXXXX XXXXXXXX XXXXXXXX XXX.....
   57
   58 04600/ XXXXXXXX XXXXXXXX XXXXXXXX XXXXXXXX XXXXXXXX XXXXXXXX XXXXXXXX XXXXXXXX
   59 04700/ XXXXXXXX XXXXXXXX XXXXXXXX XXXXXXXX XXXXXXXX XXXXXXXX XXXXXXXX XXXXXXX.
   60
   61 05000/ XXXXXXXX XXXXXXXX XXXXXXXX XXXXXXXX XXXXXXXX XXXXXXXX XXXXXXXX XXXXXXXX
   62 05100/ XXXXXXXX XX...... ........ ........ ........ ........ ........ ........
   63
   64 05200/ XXXXXXXX XXXXXXXX XXXXXXXX XXXXXXXX XXXXXXXX XXXXXXXX XXXXXXXX XXXXXXXX
   65 05300/ XXXXXXXX XXXXXXXX XXXXXXXX XXXXXXXX XXXXXXXX XXXXXXXX XXXXXXXX XXXXXXXX
   66
   67 05400/ XXXXXXXX XXXXXXXX XXXXXXXX XXXXXXXX XXXXXXXX XXXXXXXX XXXXXXXX XXXXXXXX
   68 05500/ XXXXXXXX XXXXXXXX XXXXXXXX XXXXXXXX XXXXXXXX XXXXXXXX XXXXXXXX XXXXXXXX
   69
   70 05600/ XXXXXXXX XXXXXXXX XXXXXXXX XXXXXXXX XXXXXXXX XXXXXXXX XXXXXXXX XXXXXXXX
   71 05700/ XXXXXXXX XXXXXXXX XXXXXXXX XXXXXXXX XXXXXXXX XXXXXXXX XXXXXXXX XXXXXXXX
   72
   73 06000/ ........ ........ ........ ........ ........ ........ ........ ........
   74 06100/ ........ ........ ........ ........ ........ ........ ........ ........
   75
   76 06200/ ........ ........ ........ ........ ........ ........ ........ ........
   77 06300/ ........ ........ ........ ........ ........ ........ ........ ........
   78
   79 06400/ ........ ........ ........ ........ ........ ........ ........ ........
   80 06500/ ........ ........ ........ ........ ........ ........ ........ ........
   81
   82 06600/ ........ ........ ........ ........ ........ ........ ........ ........
   83 06700/ ........ ........ ........ ........ ........ ........ ........ ........
   84
   85 07000/ ........ ........ ........ ........ ........ ........ ........ ........
   86 07100/ ........ ........ ........ ........ ........ ........ ........ ........
   87
   88 07200/ ........ ........ ........ ........ ........ ........ ........ ........
   89 07300/ ........ ........ ........ ........ ........ ........ ........ ........
   90
   91 07400/ ........ ........ ........ ........ ........ ........ ........ ........
   92 07500/ ........ ........ ........ ........ ........ ........ ........ ........
   93
   94 07600/ XXXX.... ........ ........ ........ ........ ........ ........ ........
   95 07700/ ........ ........ ........ ........ ........ .XXXXXX. ........ .....XXX
   96
