
      AUTOMATIC DISASSEMBLY OF MAINDEC-8E-D0BB-PB.bin BY D8TAPE           Page 1


    1             TITLE "AUTOMATIC DISASSEMBLY OF MAINDEC-8E-D0BB-PB.bin BY D8TAPE"
    2             ////////////////////////////////////////////////////////////////////////////////
    3             /
    4             /   Automatic Disassembly of MAINDEC-8E-D0BB-PB.bin
    5             /   Generated 2015 10 26 22:25:39
    6             /   Generated by d8tape version 0.347
    7             /   Visit http://www.pdp12.org/pdp8/software/index.html for updates
    8             /
    9             /   Symbol format:
   10             /       AIx   -- Auto-index variables (address range 001x)
   11             /       Caaaa -- Constants (non-unique)
   12             /       Daaaa -- Data (read/write variables)
   13             /       Kvvvv -- Program-wide unique constants
   14             /       Laaaa -- Labels for control flow targets
   15             /       Saaaa -- Subroutines
   16             /
   17             /   Where:
   18             /       aaaa is the definition address
   19             /       vvvv is the value of the constant
   20             /       x    is the last digit of the address 001x for auto-index variables
   21             /
   22             /   3704 locations used, 2632 code and 1052 data
   23             ////////////////////////////////////////////////////////////////////////////////
   24             
   25       0200  *0200
   26             
   27       0000  *0000
   28             L0000,
   29 00000 0000  D0000,  0000                / AND   L0000                           
   30             L0001,
   31 00001 5001  D0001,  5001                / JMP   L0001                           
   32 00002 0002  D0002,  0002                / AND   D0002                           
   33 00003 0003  D0003,  0003                / AND   D0003                           
   34             
   35       0007  *0007
   36 00007 0000  D0007,  0000                / AND   L0000                           
   37             
   38       0020  *0020
   39 00020 7777  C0020,  7777                / CLA MQA SCA MQL LSR +                 
   40 00021 3777  C0021,  3777                / DCA I C0177                           
   41 00022 5777  C0022,  5777                / JMP I C0177                           
   42 00023 6777  C0023,  6777                / 6777                                  
   43 00024 7377  C0024,  7377                / CLA CLL CMA CML IAC RTR RTL           
   44 00025 7577  C0025,  7577                / MQA SCA MQL LSR +                     
   45 00026 7677  C0026,  7677                / CLA SCA MQL LSR +                     
   46 00027 7737  C0027,  7737                / CLA MQA MQL LSR +                     
   47 00030 0000  D0030,  0000                / AND   L0000                           
   48 00031 7757  C0031,  7757                / CLA MQA SCA LSR +                     
   49 00032 7767  C0032,  7767                / CLA MQA SCA MQL DVI +                 
   50 00033 7773  C0033,  7773                / CLA MQA SCA MQL SHL +                 
   51 00034 7775  C0034,  7775                / CLA MQA SCA MQL ASR +                 
   52 00035 7776  C0035,  7776                / SPA SNA SZL CLA OSR HLT               
   53 00036 0000  C0036,  0000                / AND   L0000                           
   54 00037 1777  C0037,  1777                / TAD I C0177                           
   55 00040 0777  C0040,  0777                / AND I C0177                           
   56 00041 0377  C0041,  0377                / AND   C0177                           
   57 00042 0177  D0042,  0177                / AND   C0177                           

      AUTOMATIC DISASSEMBLY OF MAINDEC-8E-D0BB-PB.bin BY D8TAPE           Page 2


   58 00043 0077  C0043,  0077                / AND   C0077                           
   59 00044 0037  C0044,  0037                / AND   C0037                           
   60 00045 0017  C0045,  0017                / AND   AI7                             
   61 00046 0007  C0046,  0007                / AND   D0007                           
   62 00047 0003  C0047,  0003                / AND   D0003                           
   63 00050 0000  D0050,  0000                / AND   L0000                           
   64 00051 0001  C0051,  0001                / AND   L0001                           
   65             L0052,
   66 00052 4400  C0052,  4400                / JMS I L0000                           
   67 00053 4577  C0053,  4577                / JMS I C0177                           
   68 00054 2525  C0054,  2525                / ISZ I C0125                           
   69 00055 6666  C0055,  6666                / 6666                                  
   70 00056 4444  C0056,  4444                / JMS I C0044                           
   71 00057 7070  C0057,  7070                / CMA CML RAR                           
   72 00060 0707  C0060,  0707                / AND I C0107                           
   73 00061 5252  C0061,  5252                / JMP   L0052                           
   74 00062 1111  C0062,  1111                / TAD   C0111                           
   75 00063 5555  C0063,  5555                / JMP I C0155                           
   76 00064 5200  C0064,  5200                / JMP   L0000                           
   77 00065 0004  C0065,  0004                / AND   C0004                           
   78             
   79       0110  *0110
   80 00110 0000  D0110,  0000                / AND   L0000                           
   81             
   82       0172  *0172
   83 00172 0176  C0172,  0176                / AND   C0176                           
   84 00173 0172  D0173,  0172                / AND   C0172                           
   85 00174 0173  C0174,  0173                / AND   D0173                           
   86 00175 0174  C0175,  0174                / AND   C0174                           
   87 00176 0175  C0176,  0175                / AND   C0175                           
   88 00177 1234  C0177,  1234                / TAD   C0034                           
   89             
   90       0200  *0200
   91             L0200,
   92 00200 7200      CLA                     /                                       @@0200=7200
   93 00201 7410      SKP                     /                                       @@0201=7410
   94 00202 0000  D0202,  0000                / AND   L0000                           
   95 00203 1052      TAD   L0052             /                                       @@0203=1052
   96 00204 3377      DCA   D0377             /                                       @@0204=3377
   97 00205 7440      SZA                     /                                       @@0205=7440
   98 00206 7402      HLT                     /                                       @@0206=7402
   99 00207 7410      SKP                     /                                       @@0207=7410
  100 00210 0000  D0210,  0000                / AND   L0000                           
  101 00211 1052      TAD   L0052             /                                       @@0211=1052
  102 00212 7041      CIA                     /                                       @@0212=7041
  103 00213 1377      TAD   D0377             /                                       @@0213=1377
  104 00214 7440      SZA                     /                                       @@0214=7440
  105 00215 7402      HLT                     /                                       @@0215=7402
  106 00216 7200      CLA                     /                                       @@0216=7200
  107 00217 1053      TAD   C0053             /                                       @@0217=1053
  108 00220 3202      DCA   D0202             /                                       @@0220=3202
  109 00221 7440      SZA                     /                                       @@0221=7440
  110 00222 7402      HLT                     /                                       @@0222=7402
  111 00223 1053      TAD   C0053             /                                       @@0223=1053
  112 00224 7041      CIA                     /                                       @@0224=7041
  113 00225 1202      TAD   D0202             /                                       @@0225=1202
  114 00226 7440      SZA                     /                                       @@0226=7440

      AUTOMATIC DISASSEMBLY OF MAINDEC-8E-D0BB-PB.bin BY D8TAPE           Page 3


  115 00227 7402      HLT                     /                                       @@0227=7402
  116 00230 7200      CLA                     /                                       @@0230=7200
  117 00231 1020      TAD   C0020             /                                       @@0231=1020
  118 00232 3202      DCA   D0202             /                                       @@0232=3202
  119 00233 7440      SZA                     /                                       @@0233=7440
  120 00234 7402      HLT                     /                                       @@0234=7402
  121 00235 1202      TAD   D0202             /                                       @@0235=1202
  122 00236 7040      CMA                     /                                       @@0236=7040
  123 00237 7440      SZA                     /                                       @@0237=7440
  124 00240 7402      HLT                     /                                       @@0240=7402
  125 00241 7200      CLA                     /                                       @@0241=7200
  126 00242 1036      TAD   C0036             /                                       @@0242=1036
  127 00243 3202      DCA   D0202             /                                       @@0243=3202
  128 00244 7440      SZA                     /                                       @@0244=7440
  129 00245 7402      HLT                     /                                       @@0245=7402
  130 00246 1202      TAD   D0202             /                                       @@0246=1202
  131 00247 7440      SZA                     /                                       @@0247=7440
  132 00250 7402  C0250,  7402                / HLT                                   
  133 00251 7200      CLA                     /                                       @@0251=7200
  134 00252 1054      TAD   C0054             /                                       @@0252=1054
  135 00253 3202      DCA   D0202             /                                       @@0253=3202
  136 00254 7440      SZA                     /                                       @@0254=7440
  137 00255 7402      HLT                     /                                       @@0255=7402
  138 00256 1054      TAD   C0054             /                                       @@0256=1054
  139 00257 7041      CIA                     /                                       @@0257=7041
  140 00260 1202      TAD   D0202             /                                       @@0260=1202
  141 00261 7440      SZA                     /                                       @@0261=7440
  142 00262 7402      HLT                     /                                       @@0262=7402
  143 00263 7200      CLA                     /                                       @@0263=7200
  144 00264 1055      TAD   C0055             /                                       @@0264=1055
  145 00265 3202      DCA   D0202             /                                       @@0265=3202
  146 00266 7440      SZA                     /                                       @@0266=7440
  147 00267 7402      HLT                     /                                       @@0267=7402
  148 00270 1055      TAD   C0055             /                                       @@0270=1055
  149 00271 7041      CIA                     /                                       @@0271=7041
  150 00272 1202      TAD   D0202             /                                       @@0272=1202
  151 00273 7440      SZA                     /                                       @@0273=7440
  152 00274 7402      HLT                     /                                       @@0274=7402
  153 00275 7200      CLA                     /                                       @@0275=7200
  154 00276 1056      TAD   C0056             /                                       @@0276=1056
  155 00277 3377      DCA   D0377             /                                       @@0277=3377
  156 00300 7440      SZA                     /                                       @@0300=7440
  157 00301 7402      HLT                     /                                       @@0301=7402
  158 00302 1056      TAD   C0056             /                                       @@0302=1056
  159 00303 7041      CIA                     /                                       @@0303=7041
  160 00304 1377      TAD   D0377             /                                       @@0304=1377
  161 00305 7440      SZA                     /                                       @@0305=7440
  162 00306 7402      HLT                     /                                       @@0306=7402
  163 00307 7200      CLA                     /                                       @@0307=7200
  164 00310 1057      TAD   C0057             /                                       @@0310=1057
  165 00311 3377      DCA   D0377             /                                       @@0311=3377
  166 00312 7440      SZA                     /                                       @@0312=7440
  167 00313 7402      HLT                     /                                       @@0313=7402
  168 00314 1057      TAD   C0057             /                                       @@0314=1057
  169 00315 7041      CIA                     /                                       @@0315=7041
  170 00316 1377      TAD   D0377             /                                       @@0316=1377
  171 00317 7440      SZA                     /                                       @@0317=7440

      AUTOMATIC DISASSEMBLY OF MAINDEC-8E-D0BB-PB.bin BY D8TAPE           Page 4


  172 00320 7402      HLT                     /                                       @@0320=7402
  173 00321 7200      CLA                     /                                       @@0321=7200
  174 00322 1060      TAD   C0060             /                                       @@0322=1060
  175 00323 3000      DCA   L0000             /                                       @@0323=3000
  176 00324 7440      SZA                     /                                       @@0324=7440
  177 00325 7402      HLT                     /                                       @@0325=7402
  178 00326 1060      TAD   C0060             /                                       @@0326=1060
  179 00327 7041      CIA                     /                                       @@0327=7041
  180 00330 1000      TAD   L0000             /                                       @@0330=1000
  181 00331 7440      SZA                     /                                       @@0331=7440
  182 00332 7402      HLT                     /                                       @@0332=7402
  183 00333 7200      CLA                     /                                       @@0333=7200
  184 00334 1061      TAD   C0061             /                                       @@0334=1061
  185 00335 3000      DCA   L0000             /                                       @@0335=3000
  186 00336 7440      SZA                     /                                       @@0336=7440
  187 00337 7402      HLT                     /                                       @@0337=7402
  188 00340 1061      TAD   C0061             /                                       @@0340=1061
  189 00341 7041      CIA                     /                                       @@0341=7041
  190 00342 1000      TAD   L0000             /                                       @@0342=1000
  191 00343 7440      SZA                     /                                       @@0343=7440
  192 00344 7402      HLT                     /                                       @@0344=7402
  193 00345 7200      CLA                     /                                       @@0345=7200
  194 00346 1062      TAD   C0062             /                                       @@0346=1062
  195 00347 3000      DCA   L0000             /                                       @@0347=3000
  196 00350 7440      SZA                     /                                       @@0350=7440
  197 00351 7402      HLT                     /                                       @@0351=7402
  198 00352 1062      TAD   C0062             /                                       @@0352=1062
  199 00353 7041      CIA                     /                                       @@0353=7041
  200 00354 1000      TAD   L0000             /                                       @@0354=1000
  201 00355 7440      SZA                     /                                       @@0355=7440
  202 00356 7402      HLT                     /                                       @@0356=7402
  203 00357 7200      CLA                     /                                       @@0357=7200
  204 00360 1063      TAD   C0063             /                                       @@0360=1063
  205 00361 3000      DCA   L0000             /                                       @@0361=3000
  206 00362 7440      SZA                     /                                       @@0362=7440
  207 00363 7402      HLT                     /                                       @@0363=7402
  208 00364 1063      TAD   C0063             /                                       @@0364=1063
  209 00365 7041      CIA                     /                                       @@0365=7041
  210 00366 1000      TAD   L0000             /                                       @@0366=1000
  211 00367 7440      SZA                     /                                       @@0367=7440
  212 00370 7402      HLT                     /                                       @@0370=7402
  213 00371 7000      NOP //     JMP   L0375             /                                       @@0371=5375
  214             L0372,
  215 00372 7000      NOP //     AND I D0210             /                                       @@0372=0610
  216 00373 7000      NOP //     JMP I C0374             / long jump to L3650                    @@0373=5774
  217             C0374,
  218 00374 7000      NOP //    C0374,  3650                / DCA I C0250                           
  219             L0375,
  220 00375 7000      NOP                     /                                       @@0375=7000
  221 00376 7410      SKP                     /                                       @@0376=7410
  222 00377 0000  D0377,  0000                / AND   L0000                           
  223             
  224       0400  *0400
  225 00400 7200      CLA                     /                                       @@0400=7200
  226 00401 1442      TAD I D0042             /                                       @@0401=1442
  227 00402 7041      CIA                     /                                       @@0402=7041
  228 00403 1177      TAD   C0177             /                                       @@0403=1177

      AUTOMATIC DISASSEMBLY OF MAINDEC-8E-D0BB-PB.bin BY D8TAPE           Page 5


  229 00404 7440      SZA                     /                                       @@0404=7440
  230 00405 7402      HLT                     /                                       @@0405=7402
  231 00406 7200      CLA                     /                                       @@0406=7200
  232 00407 7410      SKP                     /                                       @@0407=7410
  233 00410 0000  D0410,  0000                / AND   L0000                           
  234 00411 1020      TAD   C0020             /                                       @@0411=1020
  235 00412 0442      AND I D0042             /                                       @@0412=0442
  236 00413 7041      CIA                     /                                       @@0413=7041
  237 00414 1177      TAD   C0177             /                                       @@0414=1177
  238 00415 7440      SZA                     /                                       @@0415=7440
  239 00416 7402      HLT                     /                                       @@0416=7402
  240 00417 7200      CLA                     /                                       @@0417=7200
  241 00420 1020      TAD   C0020             /                                       @@0420=1020
  242 00421 3000      DCA   L0000             /                                       @@0421=3000
  243 00422 2436      ISZ I C0036             /                                       @@0422=2436
  244 00423 7402      HLT                     /                                       @@0423=7402
  245 00424 1000      TAD   L0000             /                                       @@0424=1000
  246 00425 7440      SZA                     /                                       @@0425=7440
  247 00426 7402      HLT                     /                                       @@0426=7402
  248 00427 7200      CLA                     /                                       @@0427=7200
  249 00430 1572      TAD I C0172             /                                       @@0430=1572
  250 00431 7041      CIA                     /                                       @@0431=7041
  251 00432 1176      TAD   C0176             /                                       @@0432=1176
  252 00433 7440      SZA                     /                                       @@0433=7440
  253 00434 7402      HLT                     /                                       @@0434=7402
  254 00435 7200      CLA                     /                                       @@0435=7200
  255 00436 1020      TAD   C0020             /                                       @@0436=1020
  256 00437 0572  C0437,  0572                / AND I C0172                           
  257 00440 7041      CIA                     /                                       @@0440=7041
  258 00441 1176      TAD   C0176             /                                       @@0441=1176
  259 00442 7440      SZA                     /                                       @@0442=7440
  260 00443 7402      HLT                     /                                       @@0443=7402
  261 00444 7200      CLA                     /                                       @@0444=7200
  262 00445 1172      TAD   C0172             /                                       @@0445=1172
  263 00446 3000      DCA   L0000             /                                       @@0446=3000
  264 00447 2436      ISZ I C0036             /                                       @@0447=2436
  265 00450 7410      SKP                     /                                       @@0450=7410
  266 00451 7402      HLT                     /                                       @@0451=7402
  267 00452 1000      TAD   L0000             /                                       @@0452=1000
  268 00453 7041      CIA                     /                                       @@0453=7041
  269 00454 1172      TAD   C0172             /                                       @@0454=1172
  270 00455 7040      CMA                     /                                       @@0455=7040
  271 00456 7440      SZA                     /                                       @@0456=7440
  272 00457 7402      HLT                     /                                       @@0457=7402
  273 00460 7200      CLA                     /                                       @@0460=7200
  274 00461 1573      TAD I D0173             /                                       @@0461=1573
  275 00462 7041      CIA                     /                                       @@0462=7041
  276 00463 1172      TAD   C0172             /                                       @@0463=1172
  277 00464 7440      SZA                     /                                       @@0464=7440
  278 00465 7402      HLT                     /                                       @@0465=7402
  279 00466 7200      CLA                     /                                       @@0466=7200
  280 00467 1020      TAD   C0020             /                                       @@0467=1020
  281 00470 0573      AND I D0173             /                                       @@0470=0573
  282 00471 7041      CIA                     /                                       @@0471=7041
  283 00472 1172      TAD   C0172             /                                       @@0472=1172
  284 00473 7440      SZA                     /                                       @@0473=7440
  285 00474 7402      HLT                     /                                       @@0474=7402

      AUTOMATIC DISASSEMBLY OF MAINDEC-8E-D0BB-PB.bin BY D8TAPE           Page 6


  286 00475 7200      CLA                     /                                       @@0475=7200
  287 00476 1173      TAD   D0173             /                                       @@0476=1173
  288 00477 3000      DCA   L0000             /                                       @@0477=3000
  289 00500 2436      ISZ I C0036             /                                       @@0500=2436
  290 00501 7410      SKP                     /                                       @@0501=7410
  291 00502 7402      HLT                     /                                       @@0502=7402
  292 00503 1000      TAD   L0000             /                                       @@0503=1000
  293 00504 7041      CIA                     /                                       @@0504=7041
  294 00505 1173      TAD   D0173             /                                       @@0505=1173
  295 00506 7040      CMA                     /                                       @@0506=7040
  296 00507 7440      SZA                     /                                       @@0507=7440
  297 00510 7402      HLT                     /                                       @@0510=7402
  298 00511 7200      CLA                     /                                       @@0511=7200
  299 00512 1574      TAD I C0174             /                                       @@0512=1574
  300 00513 7041      CIA                     /                                       @@0513=7041
  301 00514 1173      TAD   D0173             /                                       @@0514=1173
  302 00515 7440      SZA                     /                                       @@0515=7440
  303 00516 7402      HLT                     /                                       @@0516=7402
  304 00517 7200      CLA                     /                                       @@0517=7200
  305 00520 1020      TAD   C0020             /                                       @@0520=1020
  306 00521 0574      AND I C0174             /                                       @@0521=0574
  307 00522 7041      CIA                     /                                       @@0522=7041
  308 00523 1173      TAD   D0173             /                                       @@0523=1173
  309 00524 7440      SZA                     /                                       @@0524=7440
  310 00525 7402      HLT                     /                                       @@0525=7402
  311 00526 7200      CLA                     /                                       @@0526=7200
  312 00527 1174      TAD   C0174             /                                       @@0527=1174
  313 00530 3000      DCA   L0000             /                                       @@0530=3000
  314 00531 2436      ISZ I C0036             /                                       @@0531=2436
  315 00532 7410      SKP                     /                                       @@0532=7410
  316 00533 7402      HLT                     /                                       @@0533=7402
  317 00534 1000      TAD   L0000             /                                       @@0534=1000
  318 00535 7041      CIA                     /                                       @@0535=7041
  319 00536 1174      TAD   C0174             /                                       @@0536=1174
  320 00537 7040      CMA                     /                                       @@0537=7040
  321 00540 7440      SZA                     /                                       @@0540=7440
  322 00541 7402      HLT                     /                                       @@0541=7402
  323 00542 7200      CLA                     /                                       @@0542=7200
  324 00543 1575      TAD I C0175             /                                       @@0543=1575
  325 00544 7041      CIA                     /                                       @@0544=7041
  326 00545 1174      TAD   C0174             /                                       @@0545=1174
  327 00546 7440      SZA                     /                                       @@0546=7440
  328 00547 7402      HLT                     /                                       @@0547=7402
  329 00550 7200      CLA                     /                                       @@0550=7200
  330 00551 1020      TAD   C0020             /                                       @@0551=1020
  331 00552 0575      AND I C0175             /                                       @@0552=0575
  332 00553 7041      CIA                     /                                       @@0553=7041
  333 00554 1174      TAD   C0174             /                                       @@0554=1174
  334 00555 7440      SZA                     /                                       @@0555=7440
  335 00556 7402      HLT                     /                                       @@0556=7402
  336 00557 7200      CLA                     /                                       @@0557=7200
  337 00560 1175      TAD   C0175             /                                       @@0560=1175
  338 00561 3000      DCA   L0000             /                                       @@0561=3000
  339 00562 2436      ISZ I C0036             /                                       @@0562=2436
  340 00563 7410      SKP                     /                                       @@0563=7410
  341 00564 7402      HLT                     /                                       @@0564=7402
  342 00565 1000      TAD   L0000             /                                       @@0565=1000

      AUTOMATIC DISASSEMBLY OF MAINDEC-8E-D0BB-PB.bin BY D8TAPE           Page 7


  343 00566 7041      CIA                     /                                       @@0566=7041
  344 00567 1175      TAD   C0175             /                                       @@0567=1175
  345 00570 7040      CMA                     /                                       @@0570=7040
  346 00571 7440      SZA                     /                                       @@0571=7440
  347 00572 7402      HLT                     /                                       @@0572=7402
  348 00573 5377      JMP   L0577             /                                       @@0573=5377
  349 00574 7000      NOP //    AND I D0410             /                                       @@0574=0610
  350 00575 7000      NOP //    JMP I C0576             / long jump to L3637                    @@0575=5776
  351 00576 7000      NOP //   C0576,  3637                / DCA I C0437                           
  352             L0577,
  353 00577 7000      NOP                     /                                       @@0577=7000
  354             
  355       0600  *0600
  356 00600 7200      CLA                     /                                       @@0600=7200
  357 00601 1576      TAD I C0176             /                                       @@0601=1576
  358 00602 7041      CIA                     /                                       @@0602=7041
  359 00603 1175      TAD   C0175             /                                       @@0603=1175
  360 00604 7440      SZA                     /                                       @@0604=7440
  361 00605 7402      HLT                     /                                       @@0605=7402
  362 00606 7200      CLA                     /                                       @@0606=7200
  363 00607 1036      TAD   C0036             /                                       @@0607=1036
  364 00610 3010  C0610,  3010                / DCA   AI0                             
  365 00611 0410  C0611,  0410                / AND I AI0                             
  366 00612 1010  C0612,  1010                / TAD   AI0                             
  367 00613 1035      TAD   C0035             /                                       @@0613=1035
  368 00614 7040      CMA                     /                                       @@0614=7040
  369 00615 7440      SZA                     /                                       @@0615=7440
  370 00616 7402      HLT                     /                                       @@0616=7402
  371 00617 7200      CLA                     /                                       @@0617=7200
  372 00620 1035      TAD   C0035             /                                       @@0620=1035
  373 00621 3010  C0621,  3010                / DCA   AI0                             
  374 00622 0410  C0622,  0410                / AND I AI0                             
  375 00623 1010  C0623,  1010                / TAD   AI0                             
  376 00624 1036      TAD   C0036             /                                       @@0624=1036
  377 00625 7040      CMA                     /                                       @@0625=7040
  378 00626 7440      SZA                     /                                       @@0626=7440
  379 00627 7402      HLT                     /                                       @@0627=7402
  380 00630 7200      CLA                     /                                       @@0630=7200
  381 00631 1034      TAD   C0034             /                                       @@0631=1034
  382 00632 3010  C0632,  3010                / DCA   AI0                             
  383 00633 3410  C0633,  3410                / DCA I AI0                             
  384 00634 1010  C0634,  1010                / TAD   AI0                             
  385 00635 1051      TAD   C0051             /                                       @@0635=1051
  386 00636 7040      CMA                     /                                       @@0636=7040
  387 00637 7440      SZA                     /                                       @@0637=7440
  388 00640 7402      HLT                     /                                       @@0640=7402
  389 00641 7200      CLA                     /                                       @@0641=7200
  390 00642 1033      TAD   C0033             /                                       @@0642=1033
  391 00643 3010  C0643,  3010                / DCA   AI0                             
  392 00644 1410  C0644,  1410                / TAD I AI0                             
  393 00645 7200      CLA                     /                                       @@0645=7200
  394 00646 1010  C0646,  1010                / TAD   AI0                             
  395 00647 1047      TAD   C0047             /                                       @@0647=1047
  396 00650 7040      CMA                     /                                       @@0650=7040
  397 00651 7440      SZA                     /                                       @@0651=7440
  398 00652 7402      HLT                     /                                       @@0652=7402
  399 00653 7200      CLA                     /                                       @@0653=7200

      AUTOMATIC DISASSEMBLY OF MAINDEC-8E-D0BB-PB.bin BY D8TAPE           Page 8


  400 00654 1032      TAD   C0032             /                                       @@0654=1032
  401 00655 3010  C0655,  3010                / DCA   AI0                             
  402 00656 0410  C0656,  0410                / AND I AI0                             
  403 00657 1010  C0657,  1010                / TAD   AI0                             
  404 00660 1046      TAD   C0046             /                                       @@0660=1046
  405 00661 7040      CMA                     /                                       @@0661=7040
  406 00662 7440      SZA                     /                                       @@0662=7440
  407 00663 7402      HLT                     /                                       @@0663=7402
  408 00664 7200      CLA                     /                                       @@0664=7200
  409 00665 1031      TAD   C0031             /                                       @@0665=1031
  410 00666 3010  C0666,  3010                / DCA   AI0                             
  411 00667 0410  C0667,  0410                / AND I AI0                             
  412 00670 1010  C0670,  1010                / TAD   AI0                             
  413 00671 1045      TAD   C0045             /                                       @@0671=1045
  414 00672 7040      CMA                     /                                       @@0672=7040
  415 00673 7440      SZA                     /                                       @@0673=7440
  416 00674 7402      HLT                     /                                       @@0674=7402
  417 00675 7200      CLA                     /                                       @@0675=7200
  418 00676 1027      TAD   C0027             /                                       @@0676=1027
  419 00677 3010  C0677,  3010                / DCA   AI0                             
  420 00700 0410  C0700,  0410                / AND I AI0                             
  421 00701 1010  C0701,  1010                / TAD   AI0                             
  422 00702 1044      TAD   C0044             /                                       @@0702=1044
  423 00703 7040      CMA                     /                                       @@0703=7040
  424 00704 7440      SZA                     /                                       @@0704=7440
  425 00705 7402      HLT                     /                                       @@0705=7402
  426 00706 7200      CLA                     /                                       @@0706=7200
  427 00707 1026      TAD   C0026             /                                       @@0707=1026
  428 00710 3010  C0710,  3010                / DCA   AI0                             
  429 00711 0410  C0711,  0410                / AND I AI0                             
  430 00712 1010  C0712,  1010                / TAD   AI0                             
  431 00713 1043      TAD   C0043             /                                       @@0713=1043
  432 00714 7040      CMA                     /                                       @@0714=7040
  433 00715 7440      SZA                     /                                       @@0715=7440
  434 00716 7402      HLT                     /                                       @@0716=7402
  435 00717 7200      CLA                     /                                       @@0717=7200
  436 00720 1025      TAD   C0025             /                                       @@0720=1025
  437 00721 3010  C0721,  3010                / DCA   AI0                             
  438 00722 0410  C0722,  0410                / AND I AI0                             
  439 00723 1010  C0723,  1010                / TAD   AI0                             
  440 00724 1042      TAD   D0042             /                                       @@0724=1042
  441 00725 7040      CMA                     /                                       @@0725=7040
  442 00726 7440      SZA                     /                                       @@0726=7440
  443 00727 7402      HLT                     /                                       @@0727=7402
  444 00730 7200      CLA                     /                                       @@0730=7200
  445 00731 1024      TAD   C0024             /                                       @@0731=1024
  446 00732 3010  C0732,  3010                / DCA   AI0                             
  447 00733 0410  C0733,  0410                / AND I AI0                             
  448 00734 1010  C0734,  1010                / TAD   AI0                             
  449 00735 1041      TAD   C0041             /                                       @@0735=1041
  450 00736 7040      CMA                     /                                       @@0736=7040
  451 00737 7440      SZA                     /                                       @@0737=7440
  452 00740 7402      HLT                     /                                       @@0740=7402
  453 00741 7200      CLA                     /                                       @@0741=7200
  454 00742 1023      TAD   C0023             /                                       @@0742=1023
  455 00743 3010  C0743,  3010                / DCA   AI0                             
  456 00744 0410  C0744,  0410                / AND I AI0                             

      AUTOMATIC DISASSEMBLY OF MAINDEC-8E-D0BB-PB.bin BY D8TAPE           Page 9


  457 00745 1010  C0745,  1010                / TAD   AI0                             
  458 00746 1040      TAD   C0040             /                                       @@0746=1040
  459 00747 7040      CMA                     /                                       @@0747=7040
  460 00750 7440      SZA                     /                                       @@0750=7440
  461 00751 7402      HLT                     /                                       @@0751=7402
  462 00752 7200      CLA                     /                                       @@0752=7200
  463 00753 1022      TAD   C0022             /                                       @@0753=1022
  464 00754 3010  C0754,  3010                / DCA   AI0                             
  465 00755 2410  C0755,  2410                / ISZ I AI0                             
  466 00756 7000      NOP                     /                                       @@0756=7000
  467 00757 1010  C0757,  1010                / TAD   AI0                             
  468 00760 1037      TAD   C0037             /                                       @@0760=1037
  469 00761 7040      CMA                     /                                       @@0761=7040
  470 00762 7440      SZA                     /                                       @@0762=7440
  471 00763 7402      HLT                     /                                       @@0763=7402
  472 00764 7200      CLA                     /                                       @@0764=7200
  473 00765 1021      TAD   C0021             /                                       @@0765=1021
  474 00766 3010  C0766,  3010                / DCA   AI0                             
  475 00767 0410  C0767,  0410                / AND I AI0                             
  476 00770 1010  C0770,  1010                / TAD   AI0                             
  477 00771 1021      TAD   C0021             /                                       @@0771=1021
  478 00772 7040      CMA                     /                                       @@0772=7040
  479 00773 7440      SZA                     /                                       @@0773=7440
  480 00774 7402      HLT                     /                                       @@0774=7402
  481 00775 7000      NOP                     /                                       @@0775=7000
  482 00776 7000      NOP                     /                                       @@0776=7000
  483 00777 7000      NOP                     /                                       @@0777=7000
  484             
  485       1000  *1000
  486 01000 7200      CLA                     /                                       @@1000=7200
  487 01001 1020      TAD   C0020             /                                       @@1001=1020
  488 01002 3010  C1002,  3010                / DCA   AI0                             
  489 01003 0410  C1003,  0410                / AND I AI0                             
  490 01004 1010  C1004,  1010                / TAD   AI0                             
  491 01005 1020      TAD   C0020             /                                       @@1005=1020
  492 01006 7040      CMA                     /                                       @@1006=7040
  493 01007 7410      SKP                     /                                       @@1007=7410
  494 01010 0000  D1010,  0000                / AND   L0000                           
  495 01011 7440      SZA                     /                                       @@1011=7440
  496 01012 7402      HLT                     /                                       @@1012=7402
  497 01013 7200      CLA                     /                                       @@1013=7200
  498 01014 1036      TAD   C0036             /                                       @@1014=1036
  499 01015 3011  C1015,  3011                / DCA   AI1                             
  500 01016 0411  C1016,  0411                / AND I AI1                             
  501 01017 1011  C1017,  1011                / TAD   AI1                             
  502 01020 1035      TAD   C0035             /                                       @@1020=1035
  503 01021 7040      CMA                     /                                       @@1021=7040
  504 01022 7440      SZA                     /                                       @@1022=7440
  505 01023 7402      HLT                     /                                       @@1023=7402
  506 01024 7200      CLA                     /                                       @@1024=7200
  507 01025 1035      TAD   C0035             /                                       @@1025=1035
  508 01026 3011  C1026,  3011                / DCA   AI1                             
  509 01027 0411  C1027,  0411                / AND I AI1                             
  510 01030 1011  C1030,  1011                / TAD   AI1                             
  511 01031 1036      TAD   C0036             /                                       @@1031=1036
  512 01032 7040      CMA                     /                                       @@1032=7040
  513 01033 7440      SZA                     /                                       @@1033=7440

      AUTOMATIC DISASSEMBLY OF MAINDEC-8E-D0BB-PB.bin BY D8TAPE          Page 10


  514 01034 7402      HLT                     /                                       @@1034=7402
  515 01035 7200      CLA                     /                                       @@1035=7200
  516 01036 1034      TAD   C0034             /                                       @@1036=1034
  517 01037 3011  C1037,  3011                / DCA   AI1                             
  518 01040 3411  C1040,  3411                / DCA I AI1                             
  519 01041 1011  C1041,  1011                / TAD   AI1                             
  520 01042 1051      TAD   C0051             /                                       @@1042=1051
  521 01043 7040      CMA                     /                                       @@1043=7040
  522 01044 7440      SZA                     /                                       @@1044=7440
  523 01045 7402      HLT                     /                                       @@1045=7402
  524 01046 7200      CLA                     /                                       @@1046=7200
  525 01047 1033      TAD   C0033             /                                       @@1047=1033
  526 01050 3011  C1050,  3011                / DCA   AI1                             
  527 01051 1411  C1051,  1411                / TAD I AI1                             
  528 01052 7200      CLA                     /                                       @@1052=7200
  529 01053 1011  C1053,  1011                / TAD   AI1                             
  530 01054 1047      TAD   C0047             /                                       @@1054=1047
  531 01055 7040      CMA                     /                                       @@1055=7040
  532 01056 7440      SZA                     /                                       @@1056=7440
  533 01057 7402      HLT                     /                                       @@1057=7402
  534 01060 7200      CLA                     /                                       @@1060=7200
  535 01061 1032      TAD   C0032             /                                       @@1061=1032
  536 01062 3011  C1062,  3011                / DCA   AI1                             
  537 01063 0411  C1063,  0411                / AND I AI1                             
  538 01064 1011  C1064,  1011                / TAD   AI1                             
  539 01065 1046      TAD   C0046             /                                       @@1065=1046
  540 01066 7040      CMA                     /                                       @@1066=7040
  541 01067 7440      SZA                     /                                       @@1067=7440
  542 01070 7402      HLT                     /                                       @@1070=7402
  543 01071 7200      CLA                     /                                       @@1071=7200
  544 01072 1031      TAD   C0031             /                                       @@1072=1031
  545 01073 3011  C1073,  3011                / DCA   AI1                             
  546 01074 0411  C1074,  0411                / AND I AI1                             
  547 01075 1011  C1075,  1011                / TAD   AI1                             
  548 01076 1045      TAD   C0045             /                                       @@1076=1045
  549 01077 7040      CMA                     /                                       @@1077=7040
  550 01100 7440      SZA                     /                                       @@1100=7440
  551 01101 7402      HLT                     /                                       @@1101=7402
  552 01102 7200      CLA                     /                                       @@1102=7200
  553 01103 1027      TAD   C0027             /                                       @@1103=1027
  554 01104 3011  C1104,  3011                / DCA   AI1                             
  555 01105 0411  C1105,  0411                / AND I AI1                             
  556 01106 1011  C1106,  1011                / TAD   AI1                             
  557 01107 1044      TAD   C0044             /                                       @@1107=1044
  558 01110 7040      CMA                     /                                       @@1110=7040
  559 01111 7440      SZA                     /                                       @@1111=7440
  560 01112 7402      HLT                     /                                       @@1112=7402
  561 01113 7200      CLA                     /                                       @@1113=7200
  562 01114 1026      TAD   C0026             /                                       @@1114=1026
  563 01115 3011  C1115,  3011                / DCA   AI1                             
  564 01116 0411  C1116,  0411                / AND I AI1                             
  565 01117 1011  C1117,  1011                / TAD   AI1                             
  566 01120 1043      TAD   C0043             /                                       @@1120=1043
  567 01121 7040      CMA                     /                                       @@1121=7040
  568 01122 7440      SZA                     /                                       @@1122=7440
  569 01123 7402      HLT                     /                                       @@1123=7402
  570 01124 7200      CLA                     /                                       @@1124=7200

      AUTOMATIC DISASSEMBLY OF MAINDEC-8E-D0BB-PB.bin BY D8TAPE          Page 11


  571 01125 1025      TAD   C0025             /                                       @@1125=1025
  572 01126 3011  C1126,  3011                / DCA   AI1                             
  573 01127 0411  C1127,  0411                / AND I AI1                             
  574 01130 1011  C1130,  1011                / TAD   AI1                             
  575 01131 1042      TAD   D0042             /                                       @@1131=1042
  576 01132 7040      CMA                     /                                       @@1132=7040
  577 01133 7440      SZA                     /                                       @@1133=7440
  578 01134 7402      HLT                     /                                       @@1134=7402
  579 01135 7200      CLA                     /                                       @@1135=7200
  580 01136 1024      TAD   C0024             /                                       @@1136=1024
  581 01137 3011  C1137,  3011                / DCA   AI1                             
  582 01140 0411  C1140,  0411                / AND I AI1                             
  583 01141 1011  C1141,  1011                / TAD   AI1                             
  584 01142 1041      TAD   C0041             /                                       @@1142=1041
  585 01143 7040      CMA                     /                                       @@1143=7040
  586 01144 7440      SZA                     /                                       @@1144=7440
  587 01145 7402      HLT                     /                                       @@1145=7402
  588 01146 7200      CLA                     /                                       @@1146=7200
  589 01147 1023      TAD   C0023             /                                       @@1147=1023
  590 01150 3011  C1150,  3011                / DCA   AI1                             
  591 01151 0411  C1151,  0411                / AND I AI1                             
  592 01152 1011  C1152,  1011                / TAD   AI1                             
  593 01153 1040      TAD   C0040             /                                       @@1153=1040
  594 01154 7040      CMA                     /                                       @@1154=7040
  595 01155 7440      SZA                     /                                       @@1155=7440
  596 01156 7402      HLT                     /                                       @@1156=7402
  597 01157 7200      CLA                     /                                       @@1157=7200
  598 01160 1022      TAD   C0022             /                                       @@1160=1022
  599 01161 3011  C1161,  3011                / DCA   AI1                             
  600 01162 2411  C1162,  2411                / ISZ I AI1                             
  601 01163 7000      NOP                     /                                       @@1163=7000
  602 01164 1011  C1164,  1011                / TAD   AI1                             
  603 01165 1037      TAD   C0037             /                                       @@1165=1037
  604 01166 7040      CMA                     /                                       @@1166=7040
  605 01167 7440      SZA                     /                                       @@1167=7440
  606 01170 7402      HLT                     /                                       @@1170=7402
  607 01171 7000      NOP                     /                                       @@1171=7000
  608 01172 5376      JMP   L1176             /                                       @@1172=5376
  609             L1173,
  610 01173 7000      NOP  //  AND I D1010             /                                       @@1173=0610
  611 01174 7000      NOP  //  JMP I C1175             / long jump to L3626                    @@1174=5775
  612             C1175,
  613 01175 7000      NOP  //  3626                / DCA I C1026                           
  614             L1176,
  615 01176 7000      NOP                     /                                       @@1176=7000
  616 01177 7000      NOP                     /                                       @@1177=7000
  617             
  618       1200  *1200
  619 01200 7200      CLA                     /                                       @@1200=7200
  620 01201 1021      TAD   C0021             /                                       @@1201=1021
  621 01202 3011  C1202,  3011                / DCA   AI1                             
  622 01203 0411  C1203,  0411                / AND I AI1                             
  623 01204 1011  C1204,  1011                / TAD   AI1                             
  624 01205 1021      TAD   C0021             /                                       @@1205=1021
  625 01206 7040      CMA                     /                                       @@1206=7040
  626 01207 7440      SZA                     /                                       @@1207=7440
  627 01210 7402      HLT                     /                                       @@1210=7402

      AUTOMATIC DISASSEMBLY OF MAINDEC-8E-D0BB-PB.bin BY D8TAPE          Page 12


  628 01211 7200      CLA                     /                                       @@1211=7200
  629 01212 1020      TAD   C0020             /                                       @@1212=1020
  630 01213 3011  C1213,  3011                / DCA   AI1                             
  631 01214 0411  C1214,  0411                / AND I AI1                             
  632 01215 1011  C1215,  1011                / TAD   AI1                             
  633 01216 1020      TAD   C0020             /                                       @@1216=1020
  634 01217 7040      CMA                     /                                       @@1217=7040
  635 01220 7440      SZA                     /                                       @@1220=7440
  636 01221 7402      HLT                     /                                       @@1221=7402
  637 01222 7200      CLA                     /                                       @@1222=7200
  638 01223 1036      TAD   C0036             /                                       @@1223=1036
  639 01224 3012  C1224,  3012                / DCA   AI2                             
  640 01225 0412  C1225,  0412                / AND I AI2                             
  641 01226 1012  C1226,  1012                / TAD   AI2                             
  642 01227 1035      TAD   C0035             /                                       @@1227=1035
  643 01230 7040      CMA                     /                                       @@1230=7040
  644 01231 7440      SZA                     /                                       @@1231=7440
  645 01232 7402      HLT                     /                                       @@1232=7402
  646 01233 7200      CLA                     /                                       @@1233=7200
  647 01234 1035      TAD   C0035             /                                       @@1234=1035
  648 01235 3012  C1235,  3012                / DCA   AI2                             
  649 01236 0412  C1236,  0412                / AND I AI2                             
  650 01237 1012  C1237,  1012                / TAD   AI2                             
  651 01240 1036      TAD   C0036             /                                       @@1240=1036
  652 01241 7040      CMA                     /                                       @@1241=7040
  653 01242 7440      SZA                     /                                       @@1242=7440
  654 01243 7402      HLT                     /                                       @@1243=7402
  655 01244 7200      CLA                     /                                       @@1244=7200
  656 01245 1034      TAD   C0034             /                                       @@1245=1034
  657 01246 3012  C1246,  3012                / DCA   AI2                             
  658 01247 3412  C1247,  3412                / DCA I AI2                             
  659 01250 1012  C1250,  1012                / TAD   AI2                             
  660 01251 1051      TAD   C0051             /                                       @@1251=1051
  661 01252 7040      CMA                     /                                       @@1252=7040
  662 01253 7440      SZA                     /                                       @@1253=7440
  663 01254 7402      HLT                     /                                       @@1254=7402
  664 01255 7200      CLA                     /                                       @@1255=7200
  665 01256 1033      TAD   C0033             /                                       @@1256=1033
  666 01257 3012  C1257,  3012                / DCA   AI2                             
  667 01260 1412  C1260,  1412                / TAD I AI2                             
  668 01261 7200      CLA                     /                                       @@1261=7200
  669 01262 1012  C1262,  1012                / TAD   AI2                             
  670 01263 1047      TAD   C0047             /                                       @@1263=1047
  671 01264 7040      CMA                     /                                       @@1264=7040
  672 01265 7440      SZA                     /                                       @@1265=7440
  673 01266 7402      HLT                     /                                       @@1266=7402
  674 01267 7200      CLA                     /                                       @@1267=7200
  675 01270 1032      TAD   C0032             /                                       @@1270=1032
  676 01271 3012  C1271,  3012                / DCA   AI2                             
  677 01272 0412  C1272,  0412                / AND I AI2                             
  678 01273 1012  C1273,  1012                / TAD   AI2                             
  679 01274 1046      TAD   C0046             /                                       @@1274=1046
  680 01275 7040      CMA                     /                                       @@1275=7040
  681 01276 7440      SZA                     /                                       @@1276=7440
  682 01277 7402      HLT                     /                                       @@1277=7402
  683 01300 7200      CLA                     /                                       @@1300=7200
  684 01301 1031      TAD   C0031             /                                       @@1301=1031

      AUTOMATIC DISASSEMBLY OF MAINDEC-8E-D0BB-PB.bin BY D8TAPE          Page 13


  685 01302 3012  C1302,  3012                / DCA   AI2                             
  686 01303 0412  C1303,  0412                / AND I AI2                             
  687 01304 1012  C1304,  1012                / TAD   AI2                             
  688 01305 1045      TAD   C0045             /                                       @@1305=1045
  689 01306 7040      CMA                     /                                       @@1306=7040
  690 01307 7440      SZA                     /                                       @@1307=7440
  691 01310 7402      HLT                     /                                       @@1310=7402
  692 01311 7200      CLA                     /                                       @@1311=7200
  693 01312 1027      TAD   C0027             /                                       @@1312=1027
  694 01313 3012  C1313,  3012                / DCA   AI2                             
  695 01314 0412  C1314,  0412                / AND I AI2                             
  696 01315 1012  C1315,  1012                / TAD   AI2                             
  697 01316 1044      TAD   C0044             /                                       @@1316=1044
  698 01317 7040      CMA                     /                                       @@1317=7040
  699 01320 7440      SZA                     /                                       @@1320=7440
  700 01321 7402      HLT                     /                                       @@1321=7402
  701 01322 7200      CLA                     /                                       @@1322=7200
  702 01323 1026      TAD   C0026             /                                       @@1323=1026
  703 01324 3012  C1324,  3012                / DCA   AI2                             
  704 01325 0412  C1325,  0412                / AND I AI2                             
  705 01326 1012  C1326,  1012                / TAD   AI2                             
  706 01327 1043      TAD   C0043             /                                       @@1327=1043
  707 01330 7040      CMA                     /                                       @@1330=7040
  708 01331 7440      SZA                     /                                       @@1331=7440
  709 01332 7402      HLT                     /                                       @@1332=7402
  710 01333 7200      CLA                     /                                       @@1333=7200
  711 01334 1025      TAD   C0025             /                                       @@1334=1025
  712 01335 3012  C1335,  3012                / DCA   AI2                             
  713 01336 0412  C1336,  0412                / AND I AI2                             
  714 01337 1012  C1337,  1012                / TAD   AI2                             
  715 01340 1042      TAD   D0042             /                                       @@1340=1042
  716 01341 7040      CMA                     /                                       @@1341=7040
  717 01342 7440      SZA                     /                                       @@1342=7440
  718 01343 7402      HLT                     /                                       @@1343=7402
  719 01344 7200      CLA                     /                                       @@1344=7200
  720 01345 1024      TAD   C0024             /                                       @@1345=1024
  721 01346 3012  C1346,  3012                / DCA   AI2                             
  722 01347 0412  C1347,  0412                / AND I AI2                             
  723 01350 1012  C1350,  1012                / TAD   AI2                             
  724 01351 1041      TAD   C0041             /                                       @@1351=1041
  725 01352 7040      CMA                     /                                       @@1352=7040
  726 01353 7440      SZA                     /                                       @@1353=7440
  727 01354 7402      HLT                     /                                       @@1354=7402
  728 01355 7200      CLA                     /                                       @@1355=7200
  729 01356 1023      TAD   C0023             /                                       @@1356=1023
  730 01357 3012  C1357,  3012                / DCA   AI2                             
  731 01360 0412  C1360,  0412                / AND I AI2                             
  732 01361 1012  C1361,  1012                / TAD   AI2                             
  733 01362 1040      TAD   C0040             /                                       @@1362=1040
  734 01363 7040      CMA                     /                                       @@1363=7040
  735 01364 7440      SZA                     /                                       @@1364=7440
  736 01365 7402      HLT                     /                                       @@1365=7402
  737 01366 7200      CLA                     /                                       @@1366=7200
  738 01367 1022      TAD   C0022             /                                       @@1367=1022
  739 01370 3012  C1370,  3012                / DCA   AI2                             
  740 01371 2412  C1371,  2412                / ISZ I AI2                             
  741 01372 7000      NOP                     /                                       @@1372=7000

      AUTOMATIC DISASSEMBLY OF MAINDEC-8E-D0BB-PB.bin BY D8TAPE          Page 14


  742 01373 1012  C1373,  1012                / TAD   AI2                             
  743 01374 1037      TAD   C0037             /                                       @@1374=1037
  744 01375 7040      CMA                     /                                       @@1375=7040
  745 01376 7440      SZA                     /                                       @@1376=7440
  746 01377 7402      HLT                     /                                       @@1377=7402
  747             
  748       1400  *1400
  749 01400 7200      CLA                     /                                       @@1400=7200
  750 01401 1021      TAD   C0021             /                                       @@1401=1021
  751 01402 3012  C1402,  3012                / DCA   AI2                             
  752 01403 0412  C1403,  0412                / AND I AI2                             
  753 01404 1012  C1404,  1012                / TAD   AI2                             
  754 01405 1021      TAD   C0021             /                                       @@1405=1021
  755 01406 7040      CMA                     /                                       @@1406=7040
  756 01407 7440      SZA                     /                                       @@1407=7440
  757 01410 7402      HLT                     /                                       @@1410=7402
  758 01411 7200      CLA                     /                                       @@1411=7200
  759 01412 1020      TAD   C0020             /                                       @@1412=1020
  760 01413 3012  C1413,  3012                / DCA   AI2                             
  761 01414 0412  C1414,  0412                / AND I AI2                             
  762 01415 1012  C1415,  1012                / TAD   AI2                             
  763 01416 1020      TAD   C0020             /                                       @@1416=1020
  764 01417 7040      CMA                     /                                       @@1417=7040
  765 01420 7440      SZA                     /                                       @@1420=7440
  766 01421 7402      HLT                     /                                       @@1421=7402
  767 01422 7200      CLA                     /                                       @@1422=7200
  768 01423 1036      TAD   C0036             /                                       @@1423=1036
  769 01424 3013  C1424,  3013                / DCA   AI3                             
  770 01425 0413  C1425,  0413                / AND I AI3                             
  771 01426 1013  C1426,  1013                / TAD   AI3                             
  772 01427 1035      TAD   C0035             /                                       @@1427=1035
  773 01430 7040      CMA                     /                                       @@1430=7040
  774 01431 7440      SZA                     /                                       @@1431=7440
  775 01432 7402      HLT                     /                                       @@1432=7402
  776 01433 7200      CLA                     /                                       @@1433=7200
  777 01434 1035      TAD   C0035             /                                       @@1434=1035
  778 01435 3013  C1435,  3013                / DCA   AI3                             
  779 01436 0413  C1436,  0413                / AND I AI3                             
  780 01437 1013  C1437,  1013                / TAD   AI3                             
  781 01440 1036      TAD   C0036             /                                       @@1440=1036
  782 01441 7040      CMA                     /                                       @@1441=7040
  783 01442 7440      SZA                     /                                       @@1442=7440
  784 01443 7402      HLT                     /                                       @@1443=7402
  785 01444 7200      CLA                     /                                       @@1444=7200
  786 01445 1034      TAD   C0034             /                                       @@1445=1034
  787 01446 3013  C1446,  3013                / DCA   AI3                             
  788 01447 3413  C1447,  3413                / DCA I AI3                             
  789 01450 1013  C1450,  1013                / TAD   AI3                             
  790 01451 1051      TAD   C0051             /                                       @@1451=1051
  791 01452 7040      CMA                     /                                       @@1452=7040
  792 01453 7440      SZA                     /                                       @@1453=7440
  793 01454 7402      HLT                     /                                       @@1454=7402
  794 01455 7200      CLA                     /                                       @@1455=7200
  795 01456 1033      TAD   C0033             /                                       @@1456=1033
  796 01457 3013  C1457,  3013                / DCA   AI3                             
  797 01460 1413  C1460,  1413                / TAD I AI3                             
  798 01461 7200      CLA                     /                                       @@1461=7200

      AUTOMATIC DISASSEMBLY OF MAINDEC-8E-D0BB-PB.bin BY D8TAPE          Page 15


  799 01462 1013  C1462,  1013                / TAD   AI3                             
  800 01463 1047      TAD   C0047             /                                       @@1463=1047
  801 01464 7040      CMA                     /                                       @@1464=7040
  802 01465 7440      SZA                     /                                       @@1465=7440
  803 01466 7402      HLT                     /                                       @@1466=7402
  804 01467 7200      CLA                     /                                       @@1467=7200
  805 01470 1032      TAD   C0032             /                                       @@1470=1032
  806 01471 3013  C1471,  3013                / DCA   AI3                             
  807 01472 0413  C1472,  0413                / AND I AI3                             
  808 01473 1013  C1473,  1013                / TAD   AI3                             
  809 01474 1046      TAD   C0046             /                                       @@1474=1046
  810 01475 7040      CMA                     /                                       @@1475=7040
  811 01476 7440      SZA                     /                                       @@1476=7440
  812 01477 7402      HLT                     /                                       @@1477=7402
  813 01500 7200      CLA                     /                                       @@1500=7200
  814 01501 1031      TAD   C0031             /                                       @@1501=1031
  815 01502 3013  C1502,  3013                / DCA   AI3                             
  816 01503 0413  C1503,  0413                / AND I AI3                             
  817 01504 1013  C1504,  1013                / TAD   AI3                             
  818 01505 1045      TAD   C0045             /                                       @@1505=1045
  819 01506 7040      CMA                     /                                       @@1506=7040
  820 01507 7440      SZA                     /                                       @@1507=7440
  821 01510 7402      HLT                     /                                       @@1510=7402
  822 01511 7200      CLA                     /                                       @@1511=7200
  823 01512 1027      TAD   C0027             /                                       @@1512=1027
  824 01513 3013  C1513,  3013                / DCA   AI3                             
  825 01514 0413  C1514,  0413                / AND I AI3                             
  826 01515 1013  C1515,  1013                / TAD   AI3                             
  827 01516 1044      TAD   C0044             /                                       @@1516=1044
  828 01517 7040      CMA                     /                                       @@1517=7040
  829 01520 7440      SZA                     /                                       @@1520=7440
  830 01521 7402      HLT                     /                                       @@1521=7402
  831 01522 7200      CLA                     /                                       @@1522=7200
  832 01523 1026      TAD   C0026             /                                       @@1523=1026
  833 01524 3013  C1524,  3013                / DCA   AI3                             
  834 01525 0413  C1525,  0413                / AND I AI3                             
  835 01526 1013  C1526,  1013                / TAD   AI3                             
  836 01527 1043      TAD   C0043             /                                       @@1527=1043
  837 01530 7040      CMA                     /                                       @@1530=7040
  838 01531 7440      SZA                     /                                       @@1531=7440
  839 01532 7402      HLT                     /                                       @@1532=7402
  840 01533 7200      CLA                     /                                       @@1533=7200
  841 01534 1025      TAD   C0025             /                                       @@1534=1025
  842 01535 3013  C1535,  3013                / DCA   AI3                             
  843 01536 0413  C1536,  0413                / AND I AI3                             
  844 01537 1013  C1537,  1013                / TAD   AI3                             
  845 01540 1042      TAD   D0042             /                                       @@1540=1042
  846 01541 7040      CMA                     /                                       @@1541=7040
  847 01542 7440      SZA                     /                                       @@1542=7440
  848 01543 7402      HLT                     /                                       @@1543=7402
  849 01544 7200      CLA                     /                                       @@1544=7200
  850 01545 1024      TAD   C0024             /                                       @@1545=1024
  851 01546 3013  C1546,  3013                / DCA   AI3                             
  852 01547 0413  C1547,  0413                / AND I AI3                             
  853 01550 1013  C1550,  1013                / TAD   AI3                             
  854 01551 1041      TAD   C0041             /                                       @@1551=1041
  855 01552 7040      CMA                     /                                       @@1552=7040

      AUTOMATIC DISASSEMBLY OF MAINDEC-8E-D0BB-PB.bin BY D8TAPE          Page 16


  856 01553 7440      SZA                     /                                       @@1553=7440
  857 01554 7402      HLT                     /                                       @@1554=7402
  858 01555 7200      CLA                     /                                       @@1555=7200
  859 01556 1023      TAD   C0023             /                                       @@1556=1023
  860 01557 3013  C1557,  3013                / DCA   AI3                             
  861 01560 0413  C1560,  0413                / AND I AI3                             
  862 01561 1013  C1561,  1013                / TAD   AI3                             
  863 01562 1040      TAD   C0040             /                                       @@1562=1040
  864 01563 7040      CMA                     /                                       @@1563=7040
  865 01564 7440      SZA                     /                                       @@1564=7440
  866 01565 7402      HLT                     /                                       @@1565=7402
  867 01566 7200      CLA                     /                                       @@1566=7200
  868 01567 1022      TAD   C0022             /                                       @@1567=1022
  869 01570 3013  C1570,  3013                / DCA   AI3                             
  870 01571 2413  C1571,  2413                / ISZ I AI3                             
  871 01572 7000      NOP                     /                                       @@1572=7000
  872 01573 1013  C1573,  1013                / TAD   AI3                             
  873 01574 1037      TAD   C0037             /                                       @@1574=1037
  874 01575 7040      CMA                     /                                       @@1575=7040
  875 01576 7440      SZA                     /                                       @@1576=7440
  876 01577 7402      HLT                     /                                       @@1577=7402
  877             
  878       1600  *1600
  879 01600 7200      CLA                     /                                       @@1600=7200
  880 01601 1021      TAD   C0021             /                                       @@1601=1021
  881 01602 3013  C1602,  3013                / DCA   AI3                             
  882 01603 0413  C1603,  0413                / AND I AI3                             
  883 01604 1013  C1604,  1013                / TAD   AI3                             
  884 01605 1021      TAD   C0021             /                                       @@1605=1021
  885 01606 7040      CMA                     /                                       @@1606=7040
  886 01607 7440      SZA                     /                                       @@1607=7440
  887 01610 7402      HLT                     /                                       @@1610=7402
  888 01611 7200      CLA                     /                                       @@1611=7200
  889 01612 1020      TAD   C0020             /                                       @@1612=1020
  890 01613 3013  C1613,  3013                / DCA   AI3                             
  891 01614 0413  C1614,  0413                / AND I AI3                             
  892 01615 1013  C1615,  1013                / TAD   AI3                             
  893 01616 1020      TAD   C0020             /                                       @@1616=1020
  894 01617 7040      CMA                     /                                       @@1617=7040
  895 01620 7440      SZA                     /                                       @@1620=7440
  896 01621 7402      HLT                     /                                       @@1621=7402
  897 01622 7200      CLA                     /                                       @@1622=7200
  898 01623 1036      TAD   C0036             /                                       @@1623=1036
  899 01624 3014  C1624,  3014                / DCA   AI4                             
  900 01625 0414  C1625,  0414                / AND I AI4                             
  901 01626 1014  C1626,  1014                / TAD   AI4                             
  902 01627 1035      TAD   C0035             /                                       @@1627=1035
  903 01630 7040      CMA                     /                                       @@1630=7040
  904 01631 7440      SZA                     /                                       @@1631=7440
  905 01632 7402      HLT                     /                                       @@1632=7402
  906 01633 7200      CLA                     /                                       @@1633=7200
  907 01634 1035      TAD   C0035             /                                       @@1634=1035
  908 01635 3014  C1635,  3014                / DCA   AI4                             
  909 01636 0414  C1636,  0414                / AND I AI4                             
  910 01637 1014  C1637,  1014                / TAD   AI4                             
  911 01640 1036      TAD   C0036             /                                       @@1640=1036
  912 01641 7040      CMA                     /                                       @@1641=7040

      AUTOMATIC DISASSEMBLY OF MAINDEC-8E-D0BB-PB.bin BY D8TAPE          Page 17


  913 01642 7440      SZA                     /                                       @@1642=7440
  914 01643 7402      HLT                     /                                       @@1643=7402
  915 01644 7200      CLA                     /                                       @@1644=7200
  916 01645 1034      TAD   C0034             /                                       @@1645=1034
  917 01646 3014  C1646,  3014                / DCA   AI4                             
  918 01647 3414  C1647,  3414                / DCA I AI4                             
  919 01650 1014  C1650,  1014                / TAD   AI4                             
  920 01651 1051      TAD   C0051             /                                       @@1651=1051
  921 01652 7040      CMA                     /                                       @@1652=7040
  922 01653 7440      SZA                     /                                       @@1653=7440
  923 01654 7402      HLT                     /                                       @@1654=7402
  924 01655 7200      CLA                     /                                       @@1655=7200
  925 01656 1033      TAD   C0033             /                                       @@1656=1033
  926 01657 3014  C1657,  3014                / DCA   AI4                             
  927 01660 1414  C1660,  1414                / TAD I AI4                             
  928 01661 7200      CLA                     /                                       @@1661=7200
  929 01662 1014  C1662,  1014                / TAD   AI4                             
  930 01663 1047      TAD   C0047             /                                       @@1663=1047
  931 01664 7040      CMA                     /                                       @@1664=7040
  932 01665 7440      SZA                     /                                       @@1665=7440
  933 01666 7402      HLT                     /                                       @@1666=7402
  934 01667 7200      CLA                     /                                       @@1667=7200
  935 01670 1032      TAD   C0032             /                                       @@1670=1032
  936 01671 3014  C1671,  3014                / DCA   AI4                             
  937 01672 0414  C1672,  0414                / AND I AI4                             
  938 01673 1014  C1673,  1014                / TAD   AI4                             
  939 01674 1046      TAD   C0046             /                                       @@1674=1046
  940 01675 7040      CMA                     /                                       @@1675=7040
  941 01676 7440      SZA                     /                                       @@1676=7440
  942 01677 7402      HLT                     /                                       @@1677=7402
  943 01700 7200      CLA                     /                                       @@1700=7200
  944 01701 1031      TAD   C0031             /                                       @@1701=1031
  945 01702 3014  C1702,  3014                / DCA   AI4                             
  946 01703 0414  C1703,  0414                / AND I AI4                             
  947 01704 1014  C1704,  1014                / TAD   AI4                             
  948 01705 1045      TAD   C0045             /                                       @@1705=1045
  949 01706 7040      CMA                     /                                       @@1706=7040
  950 01707 7440      SZA                     /                                       @@1707=7440
  951 01710 7402      HLT                     /                                       @@1710=7402
  952 01711 7200      CLA                     /                                       @@1711=7200
  953 01712 1027      TAD   C0027             /                                       @@1712=1027
  954 01713 3014  C1713,  3014                / DCA   AI4                             
  955 01714 0414  C1714,  0414                / AND I AI4                             
  956 01715 1014  C1715,  1014                / TAD   AI4                             
  957 01716 1044      TAD   C0044             /                                       @@1716=1044
  958 01717 7040      CMA                     /                                       @@1717=7040
  959 01720 7440      SZA                     /                                       @@1720=7440
  960 01721 7402      HLT                     /                                       @@1721=7402
  961 01722 7200      CLA                     /                                       @@1722=7200
  962 01723 1026      TAD   C0026             /                                       @@1723=1026
  963 01724 3014  C1724,  3014                / DCA   AI4                             
  964 01725 0414  C1725,  0414                / AND I AI4                             
  965 01726 1014  C1726,  1014                / TAD   AI4                             
  966 01727 1043      TAD   C0043             /                                       @@1727=1043
  967 01730 7040      CMA                     /                                       @@1730=7040
  968 01731 7440      SZA                     /                                       @@1731=7440
  969 01732 7402      HLT                     /                                       @@1732=7402

      AUTOMATIC DISASSEMBLY OF MAINDEC-8E-D0BB-PB.bin BY D8TAPE          Page 18


  970 01733 7200      CLA                     /                                       @@1733=7200
  971 01734 1025      TAD   C0025             /                                       @@1734=1025
  972 01735 3014  C1735,  3014                / DCA   AI4                             
  973 01736 0414  C1736,  0414                / AND I AI4                             
  974 01737 1014  C1737,  1014                / TAD   AI4                             
  975 01740 1042      TAD   D0042             /                                       @@1740=1042
  976 01741 7040      CMA                     /                                       @@1741=7040
  977 01742 7440      SZA                     /                                       @@1742=7440
  978 01743 7402      HLT                     /                                       @@1743=7402
  979 01744 7200      CLA                     /                                       @@1744=7200
  980 01745 1024      TAD   C0024             /                                       @@1745=1024
  981 01746 3014  C1746,  3014                / DCA   AI4                             
  982 01747 0414  C1747,  0414                / AND I AI4                             
  983 01750 1014  C1750,  1014                / TAD   AI4                             
  984 01751 1041      TAD   C0041             /                                       @@1751=1041
  985 01752 7040      CMA                     /                                       @@1752=7040
  986 01753 7440      SZA                     /                                       @@1753=7440
  987 01754 7402      HLT                     /                                       @@1754=7402
  988 01755 7200      CLA                     /                                       @@1755=7200
  989 01756 1023      TAD   C0023             /                                       @@1756=1023
  990 01757 3014  C1757,  3014                / DCA   AI4                             
  991 01760 0414  C1760,  0414                / AND I AI4                             
  992 01761 1014  C1761,  1014                / TAD   AI4                             
  993 01762 1040      TAD   C0040             /                                       @@1762=1040
  994 01763 7040      CMA                     /                                       @@1763=7040
  995 01764 7440      SZA                     /                                       @@1764=7440
  996 01765 7402      HLT                     /                                       @@1765=7402
  997 01766 7200      CLA                     /                                       @@1766=7200
  998 01767 1022      TAD   C0022             /                                       @@1767=1022
  999 01770 3014  C1770,  3014                / DCA   AI4                             
 1000 01771 2414  C1771,  2414                / ISZ I AI4                             
 1001 01772 7000      NOP                     /                                       @@1772=7000
 1002 01773 1014  C1773,  1014                / TAD   AI4                             
 1003 01774 1037      TAD   C0037             /                                       @@1774=1037
 1004 01775 7040      CMA                     /                                       @@1775=7040
 1005 01776 7440      SZA                     /                                       @@1776=7440
 1006 01777 7402      HLT                     /                                       @@1777=7402
 1007             
 1008       2000  *2000
 1009 02000 7200      CLA                     /                                       @@2000=7200
 1010 02001 1021      TAD   C0021             /                                       @@2001=1021
 1011 02002 3014  C2002,  3014                / DCA   AI4                             
 1012 02003 0414  C2003,  0414                / AND I AI4                             
 1013 02004 1014  C2004,  1014                / TAD   AI4                             
 1014 02005 1021      TAD   C0021             /                                       @@2005=1021
 1015 02006 7040      CMA                     /                                       @@2006=7040
 1016 02007 7410      SKP                     /                                       @@2007=7410
 1017 02010 0000  C2010,  0000                / AND   L0000                           
 1018 02011 7440      SZA                     /                                       @@2011=7440
 1019 02012 7402      HLT                     /                                       @@2012=7402
 1020 02013 7200      CLA                     /                                       @@2013=7200
 1021 02014 1020      TAD   C0020             /                                       @@2014=1020
 1022 02015 3014  C2015,  3014                / DCA   AI4                             
 1023 02016 0414  C2016,  0414                / AND I AI4                             
 1024 02017 1014  C2017,  1014                / TAD   AI4                             
 1025 02020 1020      TAD   C0020             /                                       @@2020=1020
 1026 02021 7040      CMA                     /                                       @@2021=7040

      AUTOMATIC DISASSEMBLY OF MAINDEC-8E-D0BB-PB.bin BY D8TAPE          Page 19


 1027 02022 7440      SZA                     /                                       @@2022=7440
 1028 02023 7402      HLT                     /                                       @@2023=7402
 1029 02024 7200      CLA                     /                                       @@2024=7200
 1030 02025 1036      TAD   C0036             /                                       @@2025=1036
 1031 02026 3015  C2026,  3015                / DCA   AI5                             
 1032 02027 0415  C2027,  0415                / AND I AI5                             
 1033 02030 1015  C2030,  1015                / TAD   AI5                             
 1034 02031 1035      TAD   C0035             /                                       @@2031=1035
 1035 02032 7040      CMA                     /                                       @@2032=7040
 1036 02033 7440      SZA                     /                                       @@2033=7440
 1037 02034 7402      HLT                     /                                       @@2034=7402
 1038 02035 7200      CLA                     /                                       @@2035=7200
 1039 02036 1035      TAD   C0035             /                                       @@2036=1035
 1040 02037 3015  C2037,  3015                / DCA   AI5                             
 1041 02040 0415  C2040,  0415                / AND I AI5                             
 1042 02041 1015  C2041,  1015                / TAD   AI5                             
 1043 02042 1036      TAD   C0036             /                                       @@2042=1036
 1044 02043 7040      CMA                     /                                       @@2043=7040
 1045 02044 7440      SZA                     /                                       @@2044=7440
 1046 02045 7402      HLT                     /                                       @@2045=7402
 1047 02046 7200      CLA                     /                                       @@2046=7200
 1048 02047 1034      TAD   C0034             /                                       @@2047=1034
 1049 02050 3015  C2050,  3015                / DCA   AI5                             
 1050 02051 3415  C2051,  3415                / DCA I AI5                             
 1051 02052 1015  C2052,  1015                / TAD   AI5                             
 1052 02053 1051      TAD   C0051             /                                       @@2053=1051
 1053 02054 7040      CMA                     /                                       @@2054=7040
 1054 02055 7440      SZA                     /                                       @@2055=7440
 1055 02056 7402      HLT                     /                                       @@2056=7402
 1056 02057 7200      CLA                     /                                       @@2057=7200
 1057 02060 1033      TAD   C0033             /                                       @@2060=1033
 1058 02061 3015  C2061,  3015                / DCA   AI5                             
 1059 02062 1415  C2062,  1415                / TAD I AI5                             
 1060 02063 7200      CLA                     /                                       @@2063=7200
 1061 02064 1015  C2064,  1015                / TAD   AI5                             
 1062 02065 1047      TAD   C0047             /                                       @@2065=1047
 1063 02066 7040      CMA                     /                                       @@2066=7040
 1064 02067 7440      SZA                     /                                       @@2067=7440
 1065 02070 7402      HLT                     /                                       @@2070=7402
 1066 02071 7200      CLA                     /                                       @@2071=7200
 1067 02072 1032      TAD   C0032             /                                       @@2072=1032
 1068 02073 3015  C2073,  3015                / DCA   AI5                             
 1069 02074 0415  C2074,  0415                / AND I AI5                             
 1070 02075 1015  C2075,  1015                / TAD   AI5                             
 1071 02076 1046      TAD   C0046             /                                       @@2076=1046
 1072 02077 7040      CMA                     /                                       @@2077=7040
 1073 02100 7440      SZA                     /                                       @@2100=7440
 1074 02101 7402      HLT                     /                                       @@2101=7402
 1075 02102 7200      CLA                     /                                       @@2102=7200
 1076 02103 1031      TAD   C0031             /                                       @@2103=1031
 1077 02104 3015  C2104,  3015                / DCA   AI5                             
 1078 02105 0415  C2105,  0415                / AND I AI5                             
 1079 02106 1015  C2106,  1015                / TAD   AI5                             
 1080 02107 1045      TAD   C0045             /                                       @@2107=1045
 1081 02110 7040      CMA                     /                                       @@2110=7040
 1082 02111 7440      SZA                     /                                       @@2111=7440
 1083 02112 7402      HLT                     /                                       @@2112=7402

      AUTOMATIC DISASSEMBLY OF MAINDEC-8E-D0BB-PB.bin BY D8TAPE          Page 20


 1084 02113 7200      CLA                     /                                       @@2113=7200
 1085 02114 1027      TAD   C0027             /                                       @@2114=1027
 1086 02115 3015  C2115,  3015                / DCA   AI5                             
 1087 02116 0415  C2116,  0415                / AND I AI5                             
 1088 02117 1015  C2117,  1015                / TAD   AI5                             
 1089 02120 1044      TAD   C0044             /                                       @@2120=1044
 1090 02121 7040      CMA                     /                                       @@2121=7040
 1091 02122 7440      SZA                     /                                       @@2122=7440
 1092 02123 7402      HLT                     /                                       @@2123=7402
 1093 02124 7200      CLA                     /                                       @@2124=7200
 1094 02125 1026      TAD   C0026             /                                       @@2125=1026
 1095 02126 3015  C2126,  3015                / DCA   AI5                             
 1096 02127 0415  C2127,  0415                / AND I AI5                             
 1097 02130 1015  C2130,  1015                / TAD   AI5                             
 1098 02131 1043      TAD   C0043             /                                       @@2131=1043
 1099 02132 7040      CMA                     /                                       @@2132=7040
 1100 02133 7440      SZA                     /                                       @@2133=7440
 1101 02134 7402      HLT                     /                                       @@2134=7402
 1102 02135 7200      CLA                     /                                       @@2135=7200
 1103 02136 1025      TAD   C0025             /                                       @@2136=1025
 1104 02137 3015  C2137,  3015                / DCA   AI5                             
 1105 02140 0415  C2140,  0415                / AND I AI5                             
 1106 02141 1015  C2141,  1015                / TAD   AI5                             
 1107 02142 1042      TAD   D0042             /                                       @@2142=1042
 1108 02143 7040      CMA                     /                                       @@2143=7040
 1109 02144 7440      SZA                     /                                       @@2144=7440
 1110 02145 7402      HLT                     /                                       @@2145=7402
 1111 02146 7200      CLA                     /                                       @@2146=7200
 1112 02147 1024      TAD   C0024             /                                       @@2147=1024
 1113 02150 3015  C2150,  3015                / DCA   AI5                             
 1114 02151 0415  C2151,  0415                / AND I AI5                             
 1115 02152 1015  C2152,  1015                / TAD   AI5                             
 1116 02153 1041      TAD   C0041             /                                       @@2153=1041
 1117 02154 7040      CMA                     /                                       @@2154=7040
 1118 02155 7440      SZA                     /                                       @@2155=7440
 1119 02156 7402      HLT                     /                                       @@2156=7402
 1120 02157 7200      CLA                     /                                       @@2157=7200
 1121 02160 1023      TAD   C0023             /                                       @@2160=1023
 1122 02161 3015  C2161,  3015                / DCA   AI5                             
 1123 02162 0415  C2162,  0415                / AND I AI5                             
 1124 02163 1015  C2163,  1015                / TAD   AI5                             
 1125 02164 1040      TAD   C0040             /                                       @@2164=1040
 1126 02165 7040      CMA                     /                                       @@2165=7040
 1127 02166 7440      SZA                     /                                       @@2166=7440
 1128 02167 7402      HLT                     /                                       @@2167=7402
 1129 02170 7000      NOP                     /                                       @@2170=7000
 1130 02171 7000      NOP                     /                                       @@2171=7000
 1131 02172 5376      JMP   L2176             /                                       @@2172=5376
 1132             L2173,
 1133 02173 7000      NOP  //  AND I C2010             /                                       @@2173=0610
 1134 02174 7000      NOP  //  JMP I C2175             / long jump to L3615                    @@2174=5775
 1135             C2175,
 1136 02175 7000      NOP  //   3615                / DCA I C2015                           
 1137             L2176,
 1138 02176 7000      NOP                     /                                       @@2176=7000
 1139 02177 7000      NOP                     /                                       @@2177=7000
 1140             

      AUTOMATIC DISASSEMBLY OF MAINDEC-8E-D0BB-PB.bin BY D8TAPE          Page 21


 1141       2200  *2200
 1142 02200 7200      CLA                     /                                       @@2200=7200
 1143 02201 1022      TAD   C0022             /                                       @@2201=1022
 1144 02202 3015  C2202,  3015                / DCA   AI5                             
 1145 02203 2415  C2203,  2415                / ISZ I AI5                             
 1146 02204 7000      NOP                     /                                       @@2204=7000
 1147 02205 1015  C2205,  1015                / TAD   AI5                             
 1148 02206 1037      TAD   C0037             /                                       @@2206=1037
 1149 02207 7040      CMA                     /                                       @@2207=7040
 1150 02210 7440      SZA                     /                                       @@2210=7440
 1151 02211 7402      HLT                     /                                       @@2211=7402
 1152 02212 7200      CLA                     /                                       @@2212=7200
 1153 02213 1021      TAD   C0021             /                                       @@2213=1021
 1154 02214 3015  C2214,  3015                / DCA   AI5                             
 1155 02215 0415  C2215,  0415                / AND I AI5                             
 1156 02216 1015  C2216,  1015                / TAD   AI5                             
 1157 02217 1021      TAD   C0021             /                                       @@2217=1021
 1158 02220 7040      CMA                     /                                       @@2220=7040
 1159 02221 7440      SZA                     /                                       @@2221=7440
 1160 02222 7402      HLT                     /                                       @@2222=7402
 1161 02223 7200      CLA                     /                                       @@2223=7200
 1162 02224 1020      TAD   C0020             /                                       @@2224=1020
 1163 02225 3015  C2225,  3015                / DCA   AI5                             
 1164 02226 0415  C2226,  0415                / AND I AI5                             
 1165 02227 1015  C2227,  1015                / TAD   AI5                             
 1166 02230 1020      TAD   C0020             /                                       @@2230=1020
 1167 02231 7040      CMA                     /                                       @@2231=7040
 1168 02232 7440      SZA                     /                                       @@2232=7440
 1169 02233 7402      HLT                     /                                       @@2233=7402
 1170 02234 7200      CLA                     /                                       @@2234=7200
 1171 02235 1036      TAD   C0036             /                                       @@2235=1036
 1172 02236 3016  C2236,  3016                / DCA   AI6                             
 1173 02237 0416  C2237,  0416                / AND I AI6                             
 1174 02240 1016  C2240,  1016                / TAD   AI6                             
 1175 02241 1035      TAD   C0035             /                                       @@2241=1035
 1176 02242 7040      CMA                     /                                       @@2242=7040
 1177 02243 7440      SZA                     /                                       @@2243=7440
 1178 02244 7402      HLT                     /                                       @@2244=7402
 1179 02245 7200      CLA                     /                                       @@2245=7200
 1180 02246 1035      TAD   C0035             /                                       @@2246=1035
 1181 02247 3016  C2247,  3016                / DCA   AI6                             
 1182 02250 0416  C2250,  0416                / AND I AI6                             
 1183 02251 1016  C2251,  1016                / TAD   AI6                             
 1184 02252 1036      TAD   C0036             /                                       @@2252=1036
 1185 02253 7040      CMA                     /                                       @@2253=7040
 1186 02254 7440      SZA                     /                                       @@2254=7440
 1187 02255 7402      HLT                     /                                       @@2255=7402
 1188 02256 7200      CLA                     /                                       @@2256=7200
 1189 02257 1034      TAD   C0034             /                                       @@2257=1034
 1190 02260 3016  C2260,  3016                / DCA   AI6                             
 1191 02261 3416  C2261,  3416                / DCA I AI6                             
 1192 02262 1016  C2262,  1016                / TAD   AI6                             
 1193 02263 1051      TAD   C0051             /                                       @@2263=1051
 1194 02264 7040      CMA                     /                                       @@2264=7040
 1195 02265 7440      SZA                     /                                       @@2265=7440
 1196 02266 7402      HLT                     /                                       @@2266=7402
 1197 02267 7200      CLA                     /                                       @@2267=7200

      AUTOMATIC DISASSEMBLY OF MAINDEC-8E-D0BB-PB.bin BY D8TAPE          Page 22


 1198 02270 1033      TAD   C0033             /                                       @@2270=1033
 1199 02271 3016  C2271,  3016                / DCA   AI6                             
 1200 02272 1416  C2272,  1416                / TAD I AI6                             
 1201 02273 7200      CLA                     /                                       @@2273=7200
 1202 02274 1016  C2274,  1016                / TAD   AI6                             
 1203 02275 1047      TAD   C0047             /                                       @@2275=1047
 1204 02276 7040      CMA                     /                                       @@2276=7040
 1205 02277 7440      SZA                     /                                       @@2277=7440
 1206 02300 7402      HLT                     /                                       @@2300=7402
 1207 02301 7200      CLA                     /                                       @@2301=7200
 1208 02302 1032      TAD   C0032             /                                       @@2302=1032
 1209 02303 3016  C2303,  3016                / DCA   AI6                             
 1210 02304 0416  C2304,  0416                / AND I AI6                             
 1211 02305 1016  C2305,  1016                / TAD   AI6                             
 1212 02306 1046      TAD   C0046             /                                       @@2306=1046
 1213 02307 7040      CMA                     /                                       @@2307=7040
 1214 02310 7440      SZA                     /                                       @@2310=7440
 1215 02311 7402      HLT                     /                                       @@2311=7402
 1216 02312 7200      CLA                     /                                       @@2312=7200
 1217 02313 1031      TAD   C0031             /                                       @@2313=1031
 1218 02314 3016  C2314,  3016                / DCA   AI6                             
 1219 02315 0416  C2315,  0416                / AND I AI6                             
 1220 02316 1016  C2316,  1016                / TAD   AI6                             
 1221 02317 1045      TAD   C0045             /                                       @@2317=1045
 1222 02320 7040      CMA                     /                                       @@2320=7040
 1223 02321 7440      SZA                     /                                       @@2321=7440
 1224 02322 7402      HLT                     /                                       @@2322=7402
 1225 02323 7200      CLA                     /                                       @@2323=7200
 1226 02324 1027      TAD   C0027             /                                       @@2324=1027
 1227 02325 3016  C2325,  3016                / DCA   AI6                             
 1228 02326 0416  C2326,  0416                / AND I AI6                             
 1229 02327 1016  C2327,  1016                / TAD   AI6                             
 1230 02330 1044      TAD   C0044             /                                       @@2330=1044
 1231 02331 7040      CMA                     /                                       @@2331=7040
 1232 02332 7440      SZA                     /                                       @@2332=7440
 1233 02333 7402      HLT                     /                                       @@2333=7402
 1234 02334 7200      CLA                     /                                       @@2334=7200
 1235 02335 1026      TAD   C0026             /                                       @@2335=1026
 1236 02336 3016  C2336,  3016                / DCA   AI6                             
 1237 02337 0416  C2337,  0416                / AND I AI6                             
 1238 02340 1016  C2340,  1016                / TAD   AI6                             
 1239 02341 1043      TAD   C0043             /                                       @@2341=1043
 1240 02342 7040      CMA                     /                                       @@2342=7040
 1241 02343 7440      SZA                     /                                       @@2343=7440
 1242 02344 7402      HLT                     /                                       @@2344=7402
 1243 02345 7200      CLA                     /                                       @@2345=7200
 1244 02346 1025      TAD   C0025             /                                       @@2346=1025
 1245 02347 3016  C2347,  3016                / DCA   AI6                             
 1246 02350 0416  C2350,  0416                / AND I AI6                             
 1247 02351 1016  C2351,  1016                / TAD   AI6                             
 1248 02352 1042      TAD   D0042             /                                       @@2352=1042
 1249 02353 7040      CMA                     /                                       @@2353=7040
 1250 02354 7440      SZA                     /                                       @@2354=7440
 1251 02355 7402      HLT                     /                                       @@2355=7402
 1252 02356 7200      CLA                     /                                       @@2356=7200
 1253 02357 1024      TAD   C0024             /                                       @@2357=1024
 1254 02360 3016  C2360,  3016                / DCA   AI6                             

      AUTOMATIC DISASSEMBLY OF MAINDEC-8E-D0BB-PB.bin BY D8TAPE          Page 23


 1255 02361 0416  C2361,  0416                / AND I AI6                             
 1256 02362 1016  C2362,  1016                / TAD   AI6                             
 1257 02363 1041      TAD   C0041             /                                       @@2363=1041
 1258 02364 7040      CMA                     /                                       @@2364=7040
 1259 02365 7440      SZA                     /                                       @@2365=7440
 1260 02366 7402      HLT                     /                                       @@2366=7402
 1261 02367 7200      CLA                     /                                       @@2367=7200
 1262 02370 1023      TAD   C0023             /                                       @@2370=1023
 1263 02371 3016  C2371,  3016                / DCA   AI6                             
 1264 02372 0416  C2372,  0416                / AND I AI6                             
 1265 02373 1016  C2373,  1016                / TAD   AI6                             
 1266 02374 1040      TAD   C0040             /                                       @@2374=1040
 1267 02375 7040      CMA                     /                                       @@2375=7040
 1268 02376 7440      SZA                     /                                       @@2376=7440
 1269 02377 7402      HLT                     /                                       @@2377=7402
 1270             
 1271       2400  *2400
 1272 02400 7200      CLA                     /                                       @@2400=7200
 1273 02401 1022      TAD   C0022             /                                       @@2401=1022
 1274 02402 3016  C2402,  3016                / DCA   AI6                             
 1275 02403 2416  C2403,  2416                / ISZ I AI6                             
 1276 02404 7000      NOP                     /                                       @@2404=7000
 1277 02405 1016  C2405,  1016                / TAD   AI6                             
 1278 02406 1037      TAD   C0037             /                                       @@2406=1037
 1279 02407 7040      CMA                     /                                       @@2407=7040
 1280 02410 7440      SZA                     /                                       @@2410=7440
 1281 02411 7402      HLT                     /                                       @@2411=7402
 1282 02412 7200      CLA                     /                                       @@2412=7200
 1283 02413 1021      TAD   C0021             /                                       @@2413=1021
 1284 02414 3016  C2414,  3016                / DCA   AI6                             
 1285 02415 0416  C2415,  0416                / AND I AI6                             
 1286 02416 1016  C2416,  1016                / TAD   AI6                             
 1287 02417 1021      TAD   C0021             /                                       @@2417=1021
 1288 02420 7040      CMA                     /                                       @@2420=7040
 1289 02421 7440      SZA                     /                                       @@2421=7440
 1290 02422 7402      HLT                     /                                       @@2422=7402
 1291 02423 7200      CLA                     /                                       @@2423=7200
 1292 02424 1020      TAD   C0020             /                                       @@2424=1020
 1293 02425 3016  C2425,  3016                / DCA   AI6                             
 1294 02426 0416  C2426,  0416                / AND I AI6                             
 1295 02427 1016  C2427,  1016                / TAD   AI6                             
 1296 02430 1020      TAD   C0020             /                                       @@2430=1020
 1297 02431 7040      CMA                     /                                       @@2431=7040
 1298 02432 7440      SZA                     /                                       @@2432=7440
 1299 02433 7402      HLT                     /                                       @@2433=7402
 1300 02434 7200      CLA                     /                                       @@2434=7200
 1301 02435 1036      TAD   C0036             /                                       @@2435=1036
 1302 02436 3017  C2436,  3017                / DCA   AI7                             
 1303 02437 0417  C2437,  0417                / AND I AI7                             
 1304 02440 1017  C2440,  1017                / TAD   AI7                             
 1305 02441 1035      TAD   C0035             /                                       @@2441=1035
 1306 02442 7040      CMA                     /                                       @@2442=7040
 1307 02443 7440      SZA                     /                                       @@2443=7440
 1308 02444 7402      HLT                     /                                       @@2444=7402
 1309 02445 7200      CLA                     /                                       @@2445=7200
 1310 02446 1035      TAD   C0035             /                                       @@2446=1035
 1311 02447 3017  C2447,  3017                / DCA   AI7                             

      AUTOMATIC DISASSEMBLY OF MAINDEC-8E-D0BB-PB.bin BY D8TAPE          Page 24


 1312 02450 0417  C2450,  0417                / AND I AI7                             
 1313 02451 1017  C2451,  1017                / TAD   AI7                             
 1314 02452 1036      TAD   C0036             /                                       @@2452=1036
 1315 02453 7040      CMA                     /                                       @@2453=7040
 1316 02454 7440      SZA                     /                                       @@2454=7440
 1317 02455 7402      HLT                     /                                       @@2455=7402
 1318 02456 7200      CLA                     /                                       @@2456=7200
 1319 02457 1034      TAD   C0034             /                                       @@2457=1034
 1320 02460 3017  C2460,  3017                / DCA   AI7                             
 1321 02461 3417  C2461,  3417                / DCA I AI7                             
 1322 02462 1017  C2462,  1017                / TAD   AI7                             
 1323 02463 1051      TAD   C0051             /                                       @@2463=1051
 1324 02464 7040      CMA                     /                                       @@2464=7040
 1325 02465 7440      SZA                     /                                       @@2465=7440
 1326 02466 7402      HLT                     /                                       @@2466=7402
 1327 02467 7200      CLA                     /                                       @@2467=7200
 1328 02470 1033      TAD   C0033             /                                       @@2470=1033
 1329 02471 3017  C2471,  3017                / DCA   AI7                             
 1330 02472 1417  C2472,  1417                / TAD I AI7                             
 1331 02473 7200      CLA                     /                                       @@2473=7200
 1332 02474 1017  C2474,  1017                / TAD   AI7                             
 1333 02475 1047      TAD   C0047             /                                       @@2475=1047
 1334 02476 7040      CMA                     /                                       @@2476=7040
 1335 02477 7440      SZA                     /                                       @@2477=7440
 1336 02500 7402      HLT                     /                                       @@2500=7402
 1337 02501 7200      CLA                     /                                       @@2501=7200
 1338 02502 1032      TAD   C0032             /                                       @@2502=1032
 1339 02503 3017  C2503,  3017                / DCA   AI7                             
 1340 02504 0417  C2504,  0417                / AND I AI7                             
 1341 02505 1017  C2505,  1017                / TAD   AI7                             
 1342 02506 1046      TAD   C0046             /                                       @@2506=1046
 1343 02507 7040      CMA                     /                                       @@2507=7040
 1344 02510 7440      SZA                     /                                       @@2510=7440
 1345 02511 7402      HLT                     /                                       @@2511=7402
 1346 02512 7200      CLA                     /                                       @@2512=7200
 1347 02513 1031      TAD   C0031             /                                       @@2513=1031
 1348 02514 3017  C2514,  3017                / DCA   AI7                             
 1349 02515 0417  C2515,  0417                / AND I AI7                             
 1350 02516 1017  C2516,  1017                / TAD   AI7                             
 1351 02517 1045      TAD   C0045             /                                       @@2517=1045
 1352 02520 7040      CMA                     /                                       @@2520=7040
 1353 02521 7440      SZA                     /                                       @@2521=7440
 1354 02522 7402      HLT                     /                                       @@2522=7402
 1355 02523 7200      CLA                     /                                       @@2523=7200
 1356 02524 1027      TAD   C0027             /                                       @@2524=1027
 1357 02525 3017  C2525,  3017                / DCA   AI7                             
 1358 02526 0417  C2526,  0417                / AND I AI7                             
 1359 02527 1017  C2527,  1017                / TAD   AI7                             
 1360 02530 1044      TAD   C0044             /                                       @@2530=1044
 1361 02531 7040      CMA                     /                                       @@2531=7040
 1362 02532 7440      SZA                     /                                       @@2532=7440
 1363 02533 7402      HLT                     /                                       @@2533=7402
 1364 02534 7200      CLA                     /                                       @@2534=7200
 1365 02535 1026      TAD   C0026             /                                       @@2535=1026
 1366 02536 3017  C2536,  3017                / DCA   AI7                             
 1367 02537 0417  C2537,  0417                / AND I AI7                             
 1368 02540 1017  C2540,  1017                / TAD   AI7                             

      AUTOMATIC DISASSEMBLY OF MAINDEC-8E-D0BB-PB.bin BY D8TAPE          Page 25


 1369 02541 1043      TAD   C0043             /                                       @@2541=1043
 1370 02542 7040      CMA                     /                                       @@2542=7040
 1371 02543 7440      SZA                     /                                       @@2543=7440
 1372 02544 7402      HLT                     /                                       @@2544=7402
 1373 02545 7200      CLA                     /                                       @@2545=7200
 1374 02546 1025      TAD   C0025             /                                       @@2546=1025
 1375 02547 3017  C2547,  3017                / DCA   AI7                             
 1376 02550 0417  C2550,  0417                / AND I AI7                             
 1377 02551 1017  C2551,  1017                / TAD   AI7                             
 1378 02552 1042      TAD   D0042             /                                       @@2552=1042
 1379 02553 7040      CMA                     /                                       @@2553=7040
 1380 02554 7440      SZA                     /                                       @@2554=7440
 1381 02555 7402      HLT                     /                                       @@2555=7402
 1382 02556 7200      CLA                     /                                       @@2556=7200
 1383 02557 1024      TAD   C0024             /                                       @@2557=1024
 1384 02560 3017  C2560,  3017                / DCA   AI7                             
 1385 02561 0417  C2561,  0417                / AND I AI7                             
 1386 02562 1017  C2562,  1017                / TAD   AI7                             
 1387 02563 1041      TAD   C0041             /                                       @@2563=1041
 1388 02564 7040      CMA                     /                                       @@2564=7040
 1389 02565 7440      SZA                     /                                       @@2565=7440
 1390 02566 7402      HLT                     /                                       @@2566=7402
 1391 02567 7200      CLA                     /                                       @@2567=7200
 1392 02570 1023      TAD   C0023             /                                       @@2570=1023
 1393 02571 3017  C2571,  3017                / DCA   AI7                             
 1394 02572 0417  C2572,  0417                / AND I AI7                             
 1395 02573 1017  C2573,  1017                / TAD   AI7                             
 1396 02574 1040      TAD   C0040             /                                       @@2574=1040
 1397 02575 7040      CMA                     /                                       @@2575=7040
 1398 02576 7440      SZA                     /                                       @@2576=7440
 1399 02577 7402      HLT                     /                                       @@2577=7402
 1400             
 1401       2600  *2600
 1402 02600 7200      CLA                     /                                       @@2600=7200
 1403 02601 1022      TAD   C0022             /                                       @@2601=1022
 1404 02602 3017  C2602,  3017                / DCA   AI7                             
 1405 02603 2417  C2603,  2417                / ISZ I AI7                             
 1406 02604 7000      NOP                     /                                       @@2604=7000
 1407 02605 1017  C2605,  1017                / TAD   AI7                             
 1408 02606 1037      TAD   C0037             /                                       @@2606=1037
 1409 02607 7040      CMA                     /                                       @@2607=7040
 1410 02610 7440      SZA                     /                                       @@2610=7440
 1411 02611 7402      HLT                     /                                       @@2611=7402
 1412 02612 7200      CLA                     /                                       @@2612=7200
 1413 02613 1021      TAD   C0021             /                                       @@2613=1021
 1414 02614 3017  C2614,  3017                / DCA   AI7                             
 1415 02615 0417  C2615,  0417                / AND I AI7                             
 1416 02616 1017  C2616,  1017                / TAD   AI7                             
 1417 02617 1021      TAD   C0021             /                                       @@2617=1021
 1418 02620 7040      CMA                     /                                       @@2620=7040
 1419 02621 7440      SZA                     /                                       @@2621=7440
 1420 02622 7402      HLT                     /                                       @@2622=7402
 1421 02623 7200      CLA                     /                                       @@2623=7200
 1422 02624 1020      TAD   C0020             /                                       @@2624=1020
 1423 02625 3017  C2625,  3017                / DCA   AI7                             
 1424 02626 0417  C2626,  0417                / AND I AI7                             
 1425 02627 1017  C2627,  1017                / TAD   AI7                             

      AUTOMATIC DISASSEMBLY OF MAINDEC-8E-D0BB-PB.bin BY D8TAPE          Page 26


 1426 02630 1020      TAD   C0020             /                                       @@2630=1020
 1427 02631 7040      CMA                     /                                       @@2631=7040
 1428 02632 7440      SZA                     /                                       @@2632=7440
 1429 02633 7402      HLT                     /                                       @@2633=7402
 1430 02634 5236      JMP   L2636             /                                       @@2634=5236
 1431 02635 7402      HLT                     /                                       @@2635=7402
 1432             L2636,
 1433 02636 7410      SKP                     /                                       @@2636=7410
 1434 02637 2644  C2637,  2644                / ISZ I C2644                           
 1435 02640 1237      TAD   C2637             /                                       @@2640=1237
 1436 02641 3010  C2641,  3010                / DCA   AI0                             
 1437 02642 5410  C2642,  5410                / JMP I AI0                             
 1438 02643 7402      HLT                     /                                       @@2643=7402
 1439 02644 7402  C2644,  7402                / HLT                                   
 1440 02645 4247  C2645,  4247                / JMS   C2647                           
 1441 02646 7402  C2646,  7402                / HLT                                   
 1442 02647 7402  C2647,  7402                / HLT                                   
 1443 02650 1247      TAD   C2647             /                                       @@2650=1247
 1444 02651 7410      SKP                     /                                       @@2651=7410
 1445 02652 2646  C2652,  2646                / ISZ I C2646                           
 1446 02653 7041      CIA                     /                                       @@2653=7041
 1447 02654 1252      TAD   C2652             /                                       @@2654=1252
 1448 02655 7440      SZA                     /                                       @@2655=7440
 1449 02656 7402      HLT                     /                                       @@2656=7402
 1450 02657 7410      SKP                     /                                       @@2657=7410
 1451 02660 2664  C2660,  2664                / ISZ I C2664                           
 1452 02661 1260      TAD   C2660             /                                       @@2661=1260
 1453 02662 3010  C2662,  3010                / DCA   AI0                             
 1454 02663 4410  C2663,  4410                / JMS I AI0                             
 1455 02664 7402  C2664,  7402                / HLT                                   
 1456 02665 7402  C2665,  7402                / HLT                                   
 1457 02666 1265      TAD   C2665             /                                       @@2666=1265
 1458 02667 7410      SKP                     /                                       @@2667=7410
 1459 02670 2664  C2670,  2664                / ISZ I C2664                           
 1460 02671 7041      CIA                     /                                       @@2671=7041
 1461 02672 1270      TAD   C2670             /                                       @@2672=1270
 1462 02673 7440      SZA                     /                                       @@2673=7440
 1463 02674 7402      HLT                     /                                       @@2674=7402
 1464 02675 5676      JMP I C2676             / long jump to L4200                    @@2675=5676
 1465             C2676,
 1466 02676 4200  C2676,  4200                / JMS   C2600                           
 1467             L2677,
 1468 02677 4700      JMS I C2700             / long call to S4011                    @@2677=4700
 1469             C2700,
 1470 02700 4011  C2700,  4011                / JMS   AI1                             
 1471 02701 6040  C2701,  6040                / 6040                                  
 1472 02702 6041      TSF                     / Skip if teleprinter flag is a 1.      @@2702=6041
 1473 02703 7402      HLT                     /                                       @@2703=7402
 1474 02704 7200      CLA                     /                                       @@2704=7200
 1475 02705 1313      TAD   C2713             /                                       @@2705=1313
 1476 02706 3002      DCA   D0002             /                                       @@2706=3002
 1477 02707 6001      ION                     / Enable Interrupts                     @@2707=6001
 1478 02710 7000      NOP                     /                                       @@2710=7000
 1479 02711 7402  C2711,  7402                / HLT                                   
 1480 02712 2711  C2712,  2711                / ISZ I C2711                           
 1481 02713 2714  C2713,  2714                / ISZ I C2714                           
 1482 02714 7440      SZA                     /                                       @@2714=7440

      AUTOMATIC DISASSEMBLY OF MAINDEC-8E-D0BB-PB.bin BY D8TAPE          Page 27


 1483 02715 7402      HLT                     /                                       @@2715=7402
 1484 02716 1000      TAD   L0000             /                                       @@2716=1000
 1485 02717 7041      CIA                     /                                       @@2717=7041
 1486 02720 1312      TAD   C2712             /                                       @@2720=1312
 1487 02721 7640      SZA CLA                 /                                       @@2721=7640
 1488 02722 7402      HLT                     /                                       @@2722=7402
 1489 02723 6040  C2723,  6040                / 6040                                  
 1490 02724 6041      TSF                     / Skip if teleprinter flag is a 1.      @@2724=6041
 1491 02725 7402      HLT                     /                                       @@2725=7402
 1492 02726 7200      CLA                     /                                       @@2726=7200
 1493 02727 1335      TAD   C2735             /                                       @@2727=1335
 1494 02730 3002      DCA   D0002             /                                       @@2730=3002
 1495 02731 6001      ION                     / Enable Interrupts                     @@2731=6001
 1496 02732 1020      TAD   C0020             /                                       @@2732=1020
 1497 02733 7402  C2733,  7402                / HLT                                   
 1498 02734 2733  C2734,  2733                / ISZ I C2733                           
 1499 02735 2736  C2735,  2736                / ISZ I C2736                           
 1500 02736 7040      CMA                     /                                       @@2736=7040
 1501 02737 7440      SZA                     /                                       @@2737=7440
 1502 02740 7402      HLT                     /                                       @@2740=7402
 1503 02741 1000      TAD   L0000             /                                       @@2741=1000
 1504 02742 7041      CIA                     /                                       @@2742=7041
 1505 02743 1334      TAD   C2734             /                                       @@2743=1334
 1506 02744 7640      SZA CLA                 /                                       @@2744=7640
 1507 02745 7402      HLT                     /                                       @@2745=7402
 1508 02746 6040  C2746,  6040                / 6040                                  
 1509 02747 6041      TSF                     / Skip if teleprinter flag is a 1.      @@2747=6041
 1510 02750 7402      HLT                     /                                       @@2750=7402
 1511 02751 7200      CLA                     /                                       @@2751=7200
 1512 02752 1361      TAD   C2761             /                                       @@2752=1361
 1513 02753 3002      DCA   D0002             /                                       @@2753=3002
 1514 02754 1020      TAD   C0020             /                                       @@2754=1020
 1515 02755 6001      ION                     / Enable Interrupts                     @@2755=6001
 1516 02756 0020      AND   C0020             /                                       @@2756=0020
 1517 02757 7402  C2757,  7402                / HLT                                   
 1518 02760 2757  C2760,  2757                / ISZ I C2757                           
 1519 02761 2762  C2761,  2762                / ISZ I C2762                           
 1520 02762 7040      CMA                     /                                       @@2762=7040
 1521 02763 7440      SZA                     /                                       @@2763=7440
 1522 02764 7402      HLT                     /                                       @@2764=7402
 1523 02765 1000      TAD   L0000             /                                       @@2765=1000
 1524 02766 7041      CIA                     /                                       @@2766=7041
 1525 02767 1360      TAD   C2760             /                                       @@2767=1360
 1526 02770 7640      SZA CLA                 /                                       @@2770=7640
 1527 02771 7402      HLT                     /                                       @@2771=7402
 1528 02772 5773      JMP I C2773             / long jump to L3000                    @@2772=5773
 1529             C2773,
 1530 02773 3000  C2773,  3000                / DCA   L0000                           
 1531             
 1532       3000  *3000
 1533             L3000,
 1534 03000 6040  D3000,  6040                / 6040                                  
 1535 03001 6041      TSF                     / Skip if teleprinter flag is a 1.      @@3001=6041
 1536 03002 7402      HLT                     /                                       @@3002=7402
 1537 03003 7200      CLA                     /                                       @@3003=7200
 1538 03004 1213      TAD   C3013             /                                       @@3004=1213
 1539 03005 3002      DCA   D0002             /                                       @@3005=3002

      AUTOMATIC DISASSEMBLY OF MAINDEC-8E-D0BB-PB.bin BY D8TAPE          Page 28


 1540 03006 1020      TAD   C0020             /                                       @@3006=1020
 1541 03007 6001      ION                     / Enable Interrupts                     @@3007=6001
 1542 03010 3003      DCA   D0003             /                                       @@3010=3003
 1543 03011 7402      HLT                     /                                       @@3011=7402
 1544 03012 3011  C3012,  3011                / DCA   AI1                             
 1545 03013 3014  C3013,  3014                / DCA   AI4                             
 1546 03014 7440      SZA                     /                                       @@3014=7440
 1547 03015 7402      HLT                     /                                       @@3015=7402
 1548 03016 1003      TAD   D0003             /                                       @@3016=1003
 1549 03017 7040      CMA                     /                                       @@3017=7040
 1550 03020 7440      SZA                     /                                       @@3020=7440
 1551 03021 7402      HLT                     /                                       @@3021=7402
 1552 03022 3003      DCA   D0003             /                                       @@3022=3003
 1553 03023 1000      TAD   L0000             /                                       @@3023=1000
 1554 03024 7041      CIA                     /                                       @@3024=7041
 1555 03025 1212      TAD   C3012             /                                       @@3025=1212
 1556 03026 7640      SZA CLA                 /                                       @@3026=7640
 1557 03027 7402      HLT                     /                                       @@3027=7402
 1558 03030 6040  C3030,  6040                / 6040                                  
 1559 03031 6041      TSF                     / Skip if teleprinter flag is a 1.      @@3031=6041
 1560 03032 7402      HLT                     /                                       @@3032=7402
 1561 03033 7200      CLA                     /                                       @@3033=7200
 1562 03034 1244      TAD   C3044             /                                       @@3034=1244
 1563 03035 3002      DCA   D0002             /                                       @@3035=3002
 1564 03036 1035      TAD   C0035             /                                       @@3036=1035
 1565 03037 3003      DCA   D0003             /                                       @@3037=3003
 1566 03040 6001      ION                     / Enable Interrupts                     @@3040=6001
 1567 03041 2003      ISZ   D0003             /                                       @@3041=2003
 1568 03042 7402      HLT                     /                                       @@3042=7402
 1569 03043 3042  C3043,  3042                / DCA   D0042                           
 1570 03044 3045  C3044,  3045                / DCA   C0045                           
 1571 03045 7440      SZA                     /                                       @@3045=7440
 1572 03046 7402      HLT                     /                                       @@3046=7402
 1573 03047 1003      TAD   D0003             /                                       @@3047=1003
 1574 03050 7040      CMA                     /                                       @@3050=7040
 1575 03051 7440      SZA                     /                                       @@3051=7440
 1576 03052 7402      HLT                     /                                       @@3052=7402
 1577 03053 3003      DCA   D0003             /                                       @@3053=3003
 1578 03054 1000      TAD   L0000             /                                       @@3054=1000
 1579 03055 7041      CIA                     /                                       @@3055=7041
 1580 03056 1243      TAD   C3043             /                                       @@3056=1243
 1581 03057 7640      SZA CLA                 /                                       @@3057=7640
 1582 03060 7402      HLT                     /                                       @@3060=7402
 1583 03061 6040  C3061,  6040                / 6040                                  
 1584 03062 6041      TSF                     / Skip if teleprinter flag is a 1.      @@3062=6041
 1585 03063 7402      HLT                     /                                       @@3063=7402
 1586 03064 7200      CLA                     /                                       @@3064=7200
 1587 03065 1276      TAD   C3076             /                                       @@3065=1276
 1588 03066 3002      DCA   D0002             /                                       @@3066=3002
 1589 03067 1020      TAD   C0020             /                                       @@3067=1020
 1590 03070 3003      DCA   D0003             /                                       @@3070=3003
 1591 03071 6001      ION                     / Enable Interrupts                     @@3071=6001
 1592 03072 2003      ISZ   D0003             /                                       @@3072=2003
 1593 03073 7402      HLT                     /                                       @@3073=7402
 1594 03074 7402      HLT                     /                                       @@3074=7402
 1595 03075 3074  C3075,  3074                / DCA   L0074                           
 1596 03076 3077  C3076,  3077                / DCA   C0077                           

      AUTOMATIC DISASSEMBLY OF MAINDEC-8E-D0BB-PB.bin BY D8TAPE          Page 29


 1597 03077 7440      SZA                     /                                       @@3077=7440
 1598 03100 7402      HLT                     /                                       @@3100=7402
 1599 03101 1003      TAD   D0003             /                                       @@3101=1003
 1600 03102 7440      SZA                     /                                       @@3102=7440
 1601 03103 7402      HLT                     /                                       @@3103=7402
 1602 03104 3003      DCA   D0003             /                                       @@3104=3003
 1603 03105 1000      TAD   L0000             /                                       @@3105=1000
 1604 03106 7041      CIA                     /                                       @@3106=7041
 1605 03107 1275      TAD   C3075             /                                       @@3107=1275
 1606 03110 7640      SZA CLA                 /                                       @@3110=7640
 1607 03111 7402      HLT                     /                                       @@3111=7402
 1608 03112 6040  C3112,  6040                / 6040                                  
 1609 03113 6041      TSF                     / Skip if teleprinter flag is a 1.      @@3113=6041
 1610 03114 7402      HLT                     /                                       @@3114=7402
 1611 03115 7200      CLA                     /                                       @@3115=7200
 1612 03116 1324      TAD   C3124             /                                       @@3116=1324
 1613 03117 3002      DCA   D0002             /                                       @@3117=3002
 1614 03120 6001      ION                     / Enable Interrupts                     @@3120=6001
 1615             L3121,
 1616 03121 5321      JMP   L3121             /                                       @@3121=5321
 1617 03122 7402      HLT                     /                                       @@3122=7402
 1618 03123 3121  C3123,  3121                / DCA   D0121                           
 1619 03124 3125  C3124,  3125                / DCA   C0125                           
 1620 03125 7440      SZA                     /                                       @@3125=7440
 1621 03126 7402      HLT                     /                                       @@3126=7402
 1622 03127 1000      TAD   L0000             /                                       @@3127=1000
 1623 03130 7041      CIA                     /                                       @@3130=7041
 1624 03131 1323      TAD   C3123             /                                       @@3131=1323
 1625 03132 7640      SZA CLA                 /                                       @@3132=7640
 1626 03133 7402      HLT                     /                                       @@3133=7402
 1627 03134 6040  C3134,  6040                / 6040                                  
 1628 03135 6041      TSF                     / Skip if teleprinter flag is a 1.      @@3135=6041
 1629 03136 7402      HLT                     /                                       @@3136=7402
 1630 03137 7200      CLA                     /                                       @@3137=7200
 1631 03140 1346      TAD   C3146             /                                       @@3140=1346
 1632 03141 3002      DCA   D0002             /                                       @@3141=3002
 1633 03142 6001      ION                     / Enable Interrupts                     @@3142=6001
 1634 03143 4003      JMS   D0003             /                                       @@3143=4003
 1635 03144 7402      HLT                     /                                       @@3144=7402
 1636 03145 3144  C3145,  3144                / DCA   C0144                           
 1637 03146 3147  C3146,  3147                / DCA   C0147                           
 1638 03147 7440      SZA                     /                                       @@3147=7440
 1639 03150 7402      HLT                     /                                       @@3150=7402
 1640 03151 1003      TAD   D0003             /                                       @@3151=1003
 1641 03152 7041      CIA                     /                                       @@3152=7041
 1642 03153 1345      TAD   C3145             /                                       @@3153=1345
 1643 03154 7440      SZA                     /                                       @@3154=7440
 1644 03155 7402      HLT                     /                                       @@3155=7402
 1645 03156 1000      TAD   L0000             /                                       @@3156=1000
 1646 03157 7041      CIA                     /                                       @@3157=7041
 1647 03160 1065      TAD   C0065             /                                       @@3160=1065
 1648 03161 7640      SZA CLA                 /                                       @@3161=7640
 1649 03162 7402      HLT                     /                                       @@3162=7402
 1650 03163 5764      JMP I C3164             / long jump to L3200                    @@3163=5764
 1651             C3164,
 1652 03164 3200  C3164,  3200                / DCA   L3000                           
 1653             

      AUTOMATIC DISASSEMBLY OF MAINDEC-8E-D0BB-PB.bin BY D8TAPE          Page 30


 1654       3200  *3200
 1655             L3200,
 1656 03200 6040  C3200,  6040                / 6040                                  
 1657 03201 6041      TSF                     / Skip if teleprinter flag is a 1.      @@3201=6041
 1658 03202 7402      HLT                     /                                       @@3202=7402
 1659 03203 7200      CLA                     /                                       @@3203=7200
 1660 03204 1213      TAD   C3213             /                                       @@3204=1213
 1661 03205 3002      DCA   D0002             /                                       @@3205=3002
 1662 03206 1020      TAD   C0020             /                                       @@3206=1020
 1663 03207 6001      ION                     / Enable Interrupts                     @@3207=6001
 1664 03210 7200      CLA                     /                                       @@3210=7200
 1665 03211 7402  D3211,  7402                / HLT                                   
 1666 03212 3211  C3212,  3211                / DCA   D3211                           
 1667 03213 3214  C3213,  3214                / DCA   C3214                           
 1668 03214 7440      SZA                     /                                       @@3214=7440
 1669 03215 7402      HLT                     /                                       @@3215=7402
 1670 03216 1000      TAD   L0000             /                                       @@3216=1000
 1671 03217 7041      CIA                     /                                       @@3217=7041
 1672 03220 1212      TAD   C3212             /                                       @@3220=1212
 1673 03221 7640      SZA CLA                 /                                       @@3221=7640
 1674 03222 7402      HLT                     /                                       @@3222=7402
 1675 03223 6040  C3223,  6040                / 6040                                  
 1676 03224 6041      TSF                     / Skip if teleprinter flag is a 1.      @@3224=6041
 1677 03225 7402      HLT                     /                                       @@3225=7402
 1678 03226 7200      CLA                     /                                       @@3226=7200
 1679 03227 1236      TAD   C3236             /                                       @@3227=1236
 1680 03230 3002      DCA   D0002             /                                       @@3230=3002
 1681 03231 6001      ION                     / Enable Interrupts                     @@3231=6001
 1682 03232 6041      TSF                     / Skip if teleprinter flag is a 1.      @@3232=6041
 1683 03233 7402      HLT                     /                                       @@3233=7402
 1684 03234 7402  D3234,  7402                / HLT                                   
 1685 03235 3234  C3235,  3234                / DCA   D3234                           
 1686 03236 3237  C3236,  3237                / DCA   C3237                           
 1687 03237 7440      SZA                     /                                       @@3237=7440
 1688 03240 7402      HLT                     /                                       @@3240=7402
 1689 03241 1000      TAD   L0000             /                                       @@3241=1000
 1690 03242 7041      CIA                     /                                       @@3242=7041
 1691 03243 1235      TAD   C3235             /                                       @@3243=1235
 1692 03244 7640      SZA CLA                 /                                       @@3244=7640
 1693 03245 7402      HLT                     /                                       @@3245=7402
 1694 03246 6040  C3246,  6040                / 6040                                  
 1695 03247 6041      TSF                     / Skip if teleprinter flag is a 1.      @@3247=6041
 1696 03250 7402      HLT                     /                                       @@3250=7402
 1697 03251 7200      CLA                     /                                       @@3251=7200
 1698 03252 1311      TAD   C3311             /                                       @@3252=1311
 1699 03253 3002      DCA   D0002             /                                       @@3253=3002
 1700 03254 6001      ION                     / Enable Interrupts                     @@3254=6001
 1701 03255 6002      IOF                     / Disable Interrupts                    @@3255=6002
 1702 03256 6001      ION                     / Enable Interrupts                     @@3256=6001
 1703 03257 6002      IOF                     / Disable Interrupts                    @@3257=6002
 1704 03260 6001      ION                     / Enable Interrupts                     @@3260=6001
 1705 03261 6002      IOF                     / Disable Interrupts                    @@3261=6002
 1706 03262 6001      ION                     / Enable Interrupts                     @@3262=6001
 1707 03263 6002      IOF                     / Disable Interrupts                    @@3263=6002
 1708 03264 6001      ION                     / Enable Interrupts                     @@3264=6001
 1709 03265 6002      IOF                     / Disable Interrupts                    @@3265=6002
 1710 03266 6001      ION                     / Enable Interrupts                     @@3266=6001

      AUTOMATIC DISASSEMBLY OF MAINDEC-8E-D0BB-PB.bin BY D8TAPE          Page 31


 1711 03267 6002      IOF                     / Disable Interrupts                    @@3267=6002
 1712 03270 6001      ION                     / Enable Interrupts                     @@3270=6001
 1713 03271 6002      IOF                     / Disable Interrupts                    @@3271=6002
 1714 03272 6001      ION                     / Enable Interrupts                     @@3272=6001
 1715 03273 6002      IOF                     / Disable Interrupts                    @@3273=6002
 1716 03274 6001      ION                     / Enable Interrupts                     @@3274=6001
 1717 03275 6002      IOF                     / Disable Interrupts                    @@3275=6002
 1718 03276 6001      ION                     / Enable Interrupts                     @@3276=6001
 1719 03277 6002      IOF                     / Disable Interrupts                    @@3277=6002
 1720 03300 6001      ION                     / Enable Interrupts                     @@3300=6001
 1721 03301 6002      IOF                     / Disable Interrupts                    @@3301=6002
 1722 03302 6001      ION                     / Enable Interrupts                     @@3302=6001
 1723 03303 6002      IOF                     / Disable Interrupts                    @@3303=6002
 1724 03304 6001      ION                     / Enable Interrupts                     @@3304=6001
 1725 03305 6002      IOF                     / Disable Interrupts                    @@3305=6002
 1726 03306 6041      TSF                     / Skip if teleprinter flag is a 1.      @@3306=6041
 1727 03307 7402      HLT                     /                                       @@3307=7402
 1728 03310 7410      SKP                     /                                       @@3310=7410
 1729 03311 3313  C3311,  3313                / DCA   C3313                           
 1730 03312 7410      SKP                     /                                       @@3312=7410
 1731 03313 7402      HLT                     /                                       @@3313=7402
 1732 03314 6042      TCF                     / Clear teleprinter flag.               @@3314=6042
 1733 03315 7200      CLA                     /                                       @@3315=7200
 1734 03316 1326      TAD   C3326             /                                       @@3316=1326
 1735 03317 3002      DCA   D0002             /                                       @@3317=3002
 1736 03320 6001      ION                     / Enable Interrupts                     @@3320=6001
 1737 03321 7000      NOP                     /                                       @@3321=7000
 1738 03322 7000      NOP                     /                                       @@3322=7000
 1739 03323 7000      NOP                     /                                       @@3323=7000
 1740 03324 7000      NOP                     /                                       @@3324=7000
 1741 03325 7410      SKP                     /                                       @@3325=7410
 1742 03326 3330  C3326,  .+2                 /                            
 1743 03327 7410      SKP                     /                                       @@3327=7410
 1744 03330 7402      HLT                     /                                       @@3330=7402
 1745 03331 6002      IOF                     / Disable Interrupts                    @@3331=6002
 1746 03332 6040  C3332,  6040                / 6040                                  
 1747 03333 6041      TSF                     / Skip if teleprinter flag is a 1.      @@3333=6041
 1748 03334 7402      HLT                     /                                       @@3334=7402
 1749 03335 7200      CLA                     /                                       @@3335=7200
 1750 03336 1345      TAD   C3345             /                                       @@3336=1345
 1751 03337 3002      DCA   D0002             /                                       @@3337=3002
 1752 03340 6001      ION                     / Enable Interrupts                     @@3340=6001
 1753 03341 7410      SKP                     /                                       @@3341=7410
 1754 03342 7402      HLT                     /                                       @@3342=7402
 1755 03343 7402      HLT                     /             
 1756 03344 3343  C3344,  .-1                 /
 1757 03345 3346  C3345,  .+1                 /
 1758 03346 7440      SZA                     /                                       @@3346=7440
 1759 03347 7402      HLT                     /                                       @@3347=7402
 1760 03350 1000      TAD   L0000             /                                       @@3350=1000
 1761 03351 7041      CIA                     /                                       @@3351=7041
 1762 03352 1344      TAD   C3344             /                                       @@3352=1344
 1763 03353 7640      SZA CLA                 /                                       @@3353=7640
 1764 03354 7402      HLT                     /                                       @@3354=7402
 1765 03355 6040  C3355,  6040                / 6040                                  
 1766 03356 6041      TSF                     / Skip if teleprinter flag is a 1.      @@3356=6041
 1767 03357 7402      HLT                     /                                       @@3357=7402

      AUTOMATIC DISASSEMBLY OF MAINDEC-8E-D0BB-PB.bin BY D8TAPE          Page 32


 1768 03360 7200      CLA                     /                                       @@3360=7200
 1769 03361 1370      TAD   C3370             /                                       @@3361=1370
 1770 03362 3002      DCA   D0002             /                                       @@3362=3002
 1771 03363 6001      ION                     / Enable Interrupts                     @@3363=6001
 1772 03364 5765      JMP I C3365             / long jump to L3366                    @@3364=5765
 1773             C3365,
 1774 03365 3366  C3365,  3366                / DCA   L3366                           
 1775             L3366,
 1776 03366 7402  D3366,  7402                / HLT                                   
 1777 03367 3366  C3367,  3366                / DCA   L3366                           
 1778 03370 3371  C3370,  3371                / DCA   C3371                           
 1779 03371 7440      SZA                     /                                       @@3371=7440
 1780 03372 7402      HLT                     /                                       @@3372=7402
 1781 03373 1000      TAD   L0000             /                                       @@3373=1000
 1782 03374 7041      CIA                     /                                       @@3374=7041
 1783 03375 1367      TAD   C3367             /                                       @@3375=1367
 1784 03376 7640      SZA CLA                 /                                       @@3376=7640
 1785 03377 7402      HLT                     /                                       @@3377=7402
 1786 03400 6007  C3400,  6007                / 6007                                  
 1787 03401 1212      TAD   C3412             /                                       @@3401=1212
 1788 03402 3002      DCA   D0002             /                                       @@3402=3002
 1789 03403 6001      ION                     / Enable Interrupts                     @@3403=6001
 1790 03404 7000      NOP                     /                                       @@3404=7000
 1791 03405 6007  C3405,  6007                / 6007                                  
 1792 03406 6040  C3406,  6040                / 6040                                  
 1793 03407 6000  C3407,  6000                / 6000                                  
 1794 03410 5213      JMP   L3413             /                                       @@3410=5213
 1795 03411 7402      HLT                     /                                       @@3411=7402
 1796 03412 3411  C3412,  3411                / DCA I AI1                             
 1797             L3413,
 1798 03413 6007  C3413,  6007                / 6007                                  
 1799 03414 5615      JMP I C3415             / long jump to L3600                    @@3414=5615
 1800             C3415,
 1801 03415 3600  C3415,  3600                / DCA I C3400                           
 1802             
 1803       3600  *3600
 1804             L3600,
 1805 03600 7200  C3600,  7200                / CLA                                   
 1806 03601 5602      JMP I C3602             / long jump to L4000                    @@3601=5602
 1807             C3602,
 1808 03602 4000  C3602,  4000                / JMS   L0000                           
 1809 03603 4010  C3603,  4010                / JMS   AI0                             
 1810             
 1811       4000  *4000
 1812             L4000,
 1813 04000 0610      AND I C4010             /                                       @@4000=0610
 1814 04001 5602      JMP I C4002             / long jump to L3604                    @@4001=5602
 1815             C4002,
 1816 04002 3604  C4002,  3604                / DCA I C4004                           
 1817             
 1818       3604  *3604
 1819             L3604,
 1820 03604 1603      TAD I C3603             /                                       @@3604=1603
 1821 03605 7440      SZA                     /                                       @@3605=7440
 1822 03606 7402      HLT                     /                                       @@3606=7402
 1823 03607 7200      CLA                     /                                       @@3607=7200
 1824 03610 3603  C3610,  3603                / DCA I C3603                           

      AUTOMATIC DISASSEMBLY OF MAINDEC-8E-D0BB-PB.bin BY D8TAPE          Page 33


 1825 03611 7200      CLA                     /                                       @@3611=7200
 1826 03612 5613      JMP I C3613             / long jump to L2173                    @@3612=5613
 1827             C3613,
 1828 03613 2173  C3613,  2173                / ISZ   D0173                           
 1829 03614 2010  C3614,  2010                / ISZ   AI0                             
 1830             
 1831       2173  *2173
 1832             L2173,
 1833 02173 0610      AND I C2010             /                                       @@2173=0610
 1834 02174 5775      JMP I C2175             / long jump to L3615                    @@2174=5775
 1835             C2175,
 1836 02175 3615  C2175,  3615                / DCA I C2015                           
 1837             
 1838       3615  *3615
 1839             L3615,
 1840 03615 1614      TAD I C3614             /                                       @@3615=1614
 1841 03616 7440      SZA                     /                                       @@3616=7440
 1842 03617 7402      HLT                     /                                       @@3617=7402
 1843 03620 5621      JMP I C3621             / long jump to L3622                    @@3620=5621
 1844             C3621,
 1845 03621 3622  C3621,  3622                / DCA I L3622                           
 1846             L3622,
 1847 03622 7200  C3622,  7200                / CLA                                   
 1848 03623 5624      JMP I C3624             / long jump to L1173                    @@3623=5624
 1849             C3624,
 1850 03624 1173  C3624,  1173                / TAD   D0173                           
 1851 03625 1010  C3625,  1010                / TAD   AI0                             
 1852             
 1853       1173  *1173
 1854             L1173,
 1855 01173 0610      AND I D1010             /                                       @@1173=0610
 1856 01174 5775      JMP I C1175             / long jump to L3626                    @@1174=5775
 1857             C1175,
 1858 01175 3626  C1175,  3626                / DCA I C1026                           
 1859             
 1860       3626  *3626
 1861             L3626,
 1862 03626 1625      TAD I C3625             /                                       @@3626=1625
 1863 03627 7440      SZA                     /                                       @@3627=7440
 1864 03630 7402      HLT                     /                                       @@3630=7402
 1865 03631 7200      CLA                     /                                       @@3631=7200
 1866 03632 3625      DCA I C3625             /                                       @@3632=3625
 1867 03633 7200      CLA                     /                                       @@3633=7200
 1868 03634 5635      JMP I C3635             / long jump to L0574                    @@3634=5635
 1869             C3635,
 1870 03635 0574  C3635,  0574                / AND I C0174                           
 1871 03636 0410  C3636,  0410                / AND I AI0                             
 1872             
 1873       0574  *0574
 1874             L0574,
 1875 00574 0610      AND I D0410             /                                       @@0574=0610
 1876 00575 5776      JMP I C0576             / long jump to L3637                    @@0575=5776
 1877             C0576,
 1878 00576 3637  C0576,  3637                / DCA I C0437                           
 1879             
 1880       3637  *3637
 1881             L3637,

      AUTOMATIC DISASSEMBLY OF MAINDEC-8E-D0BB-PB.bin BY D8TAPE          Page 34


 1882 03637 1636      TAD I C3636             /                                       @@3637=1636
 1883 03640 7440      SZA                     /                                       @@3640=7440
 1884 03641 7402      HLT                     /                                       @@3641=7402
 1885 03642 7200      CLA                     /                                       @@3642=7200
 1886 03643 3636      DCA I C3636             /                                       @@3643=3636
 1887 03644 7200      CLA                     /                                       @@3644=7200
 1888 03645 5646      JMP I C3646             / long jump to L0372                    @@3645=5646
 1889             C3646,
 1890 03646 0372  C3646,  0372                / AND   C3772                           
 1891 03647 0210  C3647,  0210                / AND   C3610                           
 1892             
 1893       0371  *0371
 1894 00371 5375      JMP   L0375             /                                       @@0371=5375
 1895             L0372,
 1896 00372 0610      AND I D0210             /                                       @@0372=0610
 1897 00373 5774      JMP I C0374             / long jump to L3650                    @@0373=5774
 1898             C0374,
 1899 00374 3650  C0374,  3650                / DCA I C0250                           
 1900             
 1901       3650  *3650
 1902             L3650,
 1903 03650 1647      TAD I C3647             /                                       @@3650=1647
 1904 03651 7440      SZA                     /                                       @@3651=7440
 1905 03652 7402      HLT                     /                                       @@3652=7402
 1906 03653 7200      CLA                     /                                       @@3653=7200
 1907 03654 3647      DCA I C3647             /                                       @@3654=3647
 1908 03655 7200      CLA                     /                                       @@3655=7200
 1909 03656 5657      JMP I C3657             / long jump to L0130                    @@3656=5657
 1910             C3657,
 1911 03657 0130  C3657,  0130                / AND   L0130                           
 1912 03660 0110  C3660,  0110                / AND   D0110                           
 1913             
 1914       0130  *0130
 1915             L0130,
 1916 00130 0510  C0130,  0510                / AND I D0110                           
 1917 00131 5532      JMP I C0132             / long jump to L3661                    @@0131=5532
 1918             C0132,
 1919 00132 3661  C0132,  3661                / DCA I C0061                           
 1920             
 1921       3661  *3661
 1922             L3661,
 1923 03661 1660      TAD I C3660             /                                       @@3661=1660
 1924 03662 7440      SZA                     /                                       @@3662=7440
 1925 03663 7402      HLT                     /                                       @@3663=7402
 1926 03664 7200      CLA                     /                                       @@3664=7200
 1927 03665 3110      DCA   D0110             /                                       @@3665=3110
 1928 03666 7200      CLA                     /                                       @@3666=7200
 1929 03667 5670      JMP I C3670             / long jump to L0124                    @@3667=5670
 1930             C3670,
 1931 03670 0124  C3670,  0124                / AND   L0124                           
 1932 03671 0050  C3671,  0050                / AND   D0050                           
 1933             
 1934       0124  *0124
 1935             L0124,
 1936 00124 0450  C0124,  0450                / AND I D0050                           
 1937 00125 5526  C0125,  5526                / JMP I C0126                           
 1938 00126 3672          3672                /                                       @@0126=3672

      AUTOMATIC DISASSEMBLY OF MAINDEC-8E-D0BB-PB.bin BY D8TAPE          Page 35


 1939             
 1940       3672  *3672
 1941 03672 1671      TAD I C3671             /                                       @@3672=1671
 1942 03673 7440      SZA                     /                                       @@3673=7440
 1943 03674 7402      HLT                     /                                       @@3674=7402
 1944 03675 7200      CLA                     /                                       @@3675=7200
 1945 03676 3050      DCA   D0050             /                                       @@3676=3050
 1946 03677 7200      CLA                     /                                       @@3677=7200
 1947 03700 5701      JMP I C3701             / long jump to L0120                    @@3700=5701
 1948             C3701,
 1949 03701 0120  C3701,  0120                / AND   L0120                           
 1950 03702 0030  C3702,  0030                / AND   D0030                           
 1951             
 1952       0120  *0120
 1953             L0120,
 1954 00120 0430  C0120,  0430                / AND I D0030                           
 1955 00121 5522  D0121,  5522                / JMP I C0122                           
 1956 00122 3703  C0122,  3703                / DCA I C0103                           
 1957             
 1958       3703  *3703
 1959 03703 1702      TAD I C3702             /                                       @@3703=1702
 1960 03704 7440      SZA                     /                                       @@3704=7440
 1961 03705 7402      HLT                     /                                       @@3705=7402
 1962 03706 7200      CLA                     /                                       @@3706=7200
 1963 03707 3030      DCA   D0030             /                                       @@3707=3030
 1964 03710 7200      CLA                     /                                       @@3710=7200
 1965 03711 3000      DCA   L0000             /                                       @@3711=3000
 1966 03712 5713      JMP I C3713             / long jump to L0074                    @@3712=5713
 1967             C3713,
 1968 03713 0074  C3713,  0074                / AND   L0074                           
 1969             
 1970       0074  *0074
 1971             L0074,
 1972 00074 0400  D0074,  0400                / AND I L0000                           
 1973 00075 5476      JMP I C0076             / long jump to L3714                    @@0075=5476
 1974             C0076,
 1975 00076 3714  C0076,  3714                / DCA I C0114                           
 1976             
 1977       3714  *3714
 1978             L3714,
 1979 03714 1436      TAD I C0036             /                                       @@3714=1436
 1980 03715 7440      SZA                     /                                       @@3715=7440
 1981 03716 7402      HLT                     /                                       @@3716=7402
 1982 03717 7200      CLA                     /                                       @@3717=7200
 1983 03720 3000      DCA   L0000             /                                       @@3720=3000
 1984 03721 7200      CLA                     /                                       @@3721=7200
 1985 03722 5723      JMP I C3723             / long jump to L0070                    @@3722=5723
 1986             C3723,
 1987 03723 0070  C3723,  0070                / AND   L0070                           
 1988             
 1989       0070  *0070
 1990             L0070,
 1991 00070 0407  C0070,  0407                / AND I D0007                           
 1992 00071 5472      JMP I C0072             / long jump to L3724                    @@0071=5472
 1993             C0072,
 1994 00072 3724  C0072,  3724                / DCA I L0124                           
 1995             

      AUTOMATIC DISASSEMBLY OF MAINDEC-8E-D0BB-PB.bin BY D8TAPE          Page 36


 1996       3724  *3724
 1997             L3724,
 1998 03724 1446  D3724,  1446                / TAD I C0046                           
 1999 03725 7440      SZA                     /                                       @@3725=7440
 2000 03726 7402      HLT                     /                                       @@3726=7402
 2001 03727 7200      CLA                     /                                       @@3727=7200
 2002 03730 3007      DCA   D0007             /                                       @@3730=3007
 2003 03731 1347      TAD   D3747             /                                       @@3731=1347
 2004 03732 7001      IAC                     /                                       @@3732=7001
 2005 03733 3347      DCA   D3747             /                                       @@3733=3347
 2006 03734 1347      TAD   D3747             /                                       @@3734=1347
 2007 03735 1350      TAD   C3750             /                                       @@3735=1350
 2008 03736 7640      SZA CLA                 /                                       @@3736=7640
 2009 03737 5746      JMP I C3746             / long jump to L0200                    @@3737=5746
 2010 03740 3347      DCA   D3747             /                                       @@3740=3347
 2011 03741 1351      TAD   C3751             /                                       @@3741=1351
 2012 03742 6046      TLS                     / Load the TTO from the content of AC4  @@3742=6046
 2013             L3743,
 2014 03743 6041      TSF                     / Skip if teleprinter flag is a 1.      @@3743=6041
 2015 03744 5343      JMP   L3743             /                                       @@3744=5343
 2016 03745 5746      JMP I C3746             / long jump to L0200                    @@3745=5746
 2017             C3746,
 2018 03746 0200  C3746,  0200                / AND   L3600                           
 2019 03747 0000  D3747,  0000                / AND   L0000                           
 2020 03750 4762  C3750,  4762                / JMS I C3762                           
 2021 03751 0256  C3751,  0256                / AND   C3607        changed from 0207/BELL to 0256/period
 2022             
 2023       4010  *4010
 2024 04010 0000  C4010,  0000                / AND   L0000                           
 2025             
 2026             ////////////////////////////////////////////////////////////////////////////////
 2027             /
 2028             /   SUBROUTINE:  S4011
 2029             /
 2030             /   Called from:
 2031             /   2677 4201 
 2032             /   Total 0002 (2) calls
 2033             ////////////////////////////////////////////////////////////////////////////////
 2034             S4011,
 2035 04011 0000      0                       / return area
 2036 04012 1220      TAD   C4020             /                                       @@4012=1220
 2037 04013 3001      DCA   L0001             /                                       @@4013=3001
 2038 04014 3002      DCA   D0002             /                                       @@4014=3002
 2039 04015 3003      DCA   D0003             /                                       @@4015=3003
 2040 04016 2211      ISZ   S4011             /                                       @@4016=2211
 2041 04017 5611      JMP I S4011             / return                                @@4017=5611
 2042 04020 5402  C4020,  5402                / JMP I D0002                           
 2043             
 2044       4200  *4200
 2045             L4200,
 2046 04200 7300      CLA CLL                 / AC = 0000                             @@4200=7300
 2047 04201 4602      JMS I C4202             / long call to S4011                    @@4201=4602
 2048             C4202,
 2049 04202 4011  C4202,  4011                / JMS   AI1                             
 2050 04203 7360      CLA CLL CMA CML         /                                       @@4203=7360
 2051 04204 6007  C4204,  6007                / 6007                                  
 2052 04205 7410      SKP                     /                                       @@4205=7410

      AUTOMATIC DISASSEMBLY OF MAINDEC-8E-D0BB-PB.bin BY D8TAPE          Page 37


 2053 04206 7402      HLT                     /                                       @@4206=7402
 2054 04207 7420      SNL                     /                                       @@4207=7420
 2055 04210 7440      SZA                     /                                       @@4210=7440
 2056 04211 7402      HLT                     /                                       @@4211=7402
 2057 04212 6040  C4212,  6040                / 6040                                  
 2058 04213 7410      SKP                     /                                       @@4213=7410
 2059 04214 7402      HLT                     /                                       @@4214=7402
 2060 04215 6041      TSF                     / Skip if teleprinter flag is a 1.      @@4215=6041
 2061 04216 7402      HLT                     /                                       @@4216=7402
 2062 04217 6007  C4217,  6007                / 6007                                  
 2063 04220 6041      TSF                     / Skip if teleprinter flag is a 1.      @@4220=6041
 2064 04221 7410      SKP                     /                                       @@4221=7410
 2065 04222 7402      HLT                     /                                       @@4222=7402
 2066 04223 6003  C4223,  6003                / 6003                                  
 2067 04224 7410      SKP                     /                                       @@4224=7410
 2068 04225 7402      HLT                     /                                       @@4225=7402
 2069 04226 6007  C4226,  6007                / 6007                                  
 2070 04227 6040  C4227,  6040                / 6040                                  
 2071 04230 6003  C4230,  6003                / 6003                                  
 2072 04231 7402      HLT                     /                                       @@4231=7402
 2073 04232 6007  C4232,  6007                / 6007                                  
 2074 04233 6035  C4233,  6035                / 6035                                  
 2075 04234 7410      SKP                     /                                       @@4234=7410
 2076 04235 7402      HLT                     /                                       @@4235=7402
 2077 04236 6040  C4236,  6040                / 6040                                  
 2078 04237 6041      TSF                     / Skip if teleprinter flag is a 1.      @@4237=6041
 2079 04240 7402      HLT                     /                                       @@4240=7402
 2080 04241 6003  C4241,  6003                / 6003                                  
 2081 04242 7410      SKP                     /                                       @@4242=7410
 2082 04243 7402      HLT                     /                                       @@4243=7402
 2083 04244 7201      CLA IAC                 /                                       @@4244=7201
 2084 04245 6035  C4245,  6035                / 6035                                  
 2085 04246 6040  C4246,  6040                / 6040                                  
 2086 04247 6041      TSF                     / Skip if teleprinter flag is a 1.      @@4247=6041
 2087 04250 7402      HLT                     /                                       @@4250=7402
 2088 04251 6003  C4251,  6003                / 6003                                  
 2089 04252 7402      HLT                     /                                       @@4252=7402
 2090 04253 6007  C4253,  6007                / 6007                                  
 2091 04254 1267      TAD   C4267             /                                       @@4254=1267
 2092 04255 3002      DCA   D0002             /                                       @@4255=3002
 2093 04256 6001      ION                     / Enable Interrupts                     @@4256=6001
 2094 04257 7410      SKP                     /                                       @@4257=7410
 2095 04260 7402      HLT                     /                                       @@4260=7402
 2096 04261 6000  C4261,  6000                / 6000                                  
 2097 04262 7402      HLT                     /                                       @@4262=7402
 2098 04263 6000  C4263,  6000                / 6000                                  
 2099 04264 7410      SKP                     /                                       @@4264=7410
 2100 04265 7402      HLT                     /                                       @@4265=7402
 2101 04266 5271      JMP   L4271             /                                       @@4266=5271
 2102 04267 4270  C4267,  4270                / JMS   C4270                           
 2103 04270 7402      HLT                     /                                       @@4270=7402
 2104             L4271,
 2105 04271 6007  C4271,  6007                / 6007                                  
 2106 04272 1304      TAD   C4304             /                                       @@4272=1304
 2107 04273 3002      DCA   D0002             /                                       @@4273=3002
 2108 04274 6001      ION                     / Enable Interrupts                     @@4274=6001
 2109 04275 6002      IOF                     / Disable Interrupts                    @@4275=6002

      AUTOMATIC DISASSEMBLY OF MAINDEC-8E-D0BB-PB.bin BY D8TAPE          Page 38


 2110 04276 7410      SKP                     /                                       @@4276=7410
 2111 04277 7402      HLT                     /                                       @@4277=7402
 2112 04300 6000  C4300,  6000                / 6000                                  
 2113 04301 7410      SKP                     /                                       @@4301=7410
 2114 04302 7402      HLT                     /                                       @@4302=7402
 2115 04303 5306      JMP   L4306             /                                       @@4303=5306
 2116 04304 4305  C4304,  4305                / JMS   C4305                           
 2117 04305 7402      HLT                     /                                       @@4305=7402
 2118             L4306,
 2119 04306 6007  C4306,  6007                / 6007                                  
 2120 04307 7040      CMA                     /                                       @@4307=7040
 2121 04310 6004  C4310,  6004                / 6004                                  
 2122 04311 7410      SKP                     /                                       @@4311=7410
 2123 04312 7402      HLT                     /                                       @@4312=7402
 2124 04313 0064      AND   C0064             /                                       @@4313=0064
 2125 04314 7440      SZA                     /                                       @@4314=7440
 2126 04315 7402      HLT                     /                                       @@4315=7402
 2127 04316 7360      CLA CLL CMA CML         /                                       @@4316=7360
 2128 04317 6004  C4317,  6004                / 6004                                  
 2129 04320 7420      SNL                     /                                       @@4320=7420
 2130 04321 7402      HLT                     /                                       @@4321=7402
 2131 04322 0064      AND   C0064             /                                       @@4322=0064
 2132 04323 7104      CLL RAL                 /                                       @@4323=7104
 2133 04324 7430      SZL                     /                                       @@4324=7430
 2134 04325 7440      SZA                     /                                       @@4325=7440
 2135 04326 7402      HLT                     /                                       @@4326=7402
 2136 04327 6007  C4327,  6007                / 6007                                  
 2137 04330 6040  C4330,  6040                / 6040                                  
 2138 04331 6004  C4331,  6004                / 6004                                  
 2139 04332 0064      AND   C0064             /                                       @@4332=0064
 2140 04333 7006      RTL                     /                                       @@4333=7006
 2141 04334 7004      RAL                     /                                       @@4334=7004
 2142 04335 7430      SZL                     /                                       @@4335=7430
 2143 04336 7440      SZA                     /                                       @@4336=7440
 2144 04337 7402      HLT                     /                                       @@4337=7402
 2145 04340 6007  C4340,  6007                / 6007                                  
 2146 04341 1356      TAD   C4356             /                                       @@4341=1356
 2147 04342 3002      DCA   D0002             /                                       @@4342=3002
 2148 04343 6001      ION                     / Enable Interrupts                     @@4343=6001
 2149 04344 6004  C4344,  6004                / 6004                                  
 2150 04345 0064      AND   C0064             /                                       @@4345=0064
 2151 04346 6000  C4346,  6000                / 6000                                  
 2152 04347 7402      HLT                     /                                       @@4347=7402
 2153 04350 7102      CLL BSW                 /                                       @@4350=7102
 2154 04351 7012      RTR                     /                                       @@4351=7012
 2155 04352 7430      SZL                     /                                       @@4352=7430
 2156 04353 7440      SZA                     /                                       @@4353=7440
 2157 04354 7402      HLT                     /                                       @@4354=7402
 2158 04355 5360      JMP   L4360             /                                       @@4355=5360
 2159 04356 4357  C4356,  4357                / JMS   C4357                           
 2160 04357 7402      HLT                     /                                       @@4357=7402
 2161             L4360,
 2162 04360 7320      CLA CLL CML             /                                       @@4360=7320
 2163 04361 1375      TAD   C4375             /                                       @@4361=1375
 2164 04362 3002      DCA   D0002             /                                       @@4362=3002
 2165 04363 6005  C4363,  6005                / 6005                                  
 2166 04364 7410      SKP                     /                                       @@4364=7410

      AUTOMATIC DISASSEMBLY OF MAINDEC-8E-D0BB-PB.bin BY D8TAPE          Page 39


 2167 04365 7402      HLT                     /                                       @@4365=7402
 2168 04366 7420      SNL                     /                                       @@4366=7420
 2169 04367 7440      SZA                     /                                       @@4367=7440
 2170 04370 7402      HLT                     /                                       @@4370=7402
 2171 04371 6000  C4371,  6000                / 6000                                  
 2172 04372 7402      HLT                     /                                       @@4372=7402
 2173 04373 5774      JMP I C4374             / long jump to L4400                    @@4373=5774
 2174             C4374,
 2175 04374 4400  C4374,  4400                / JMS I L0000                           
 2176 04375 4376  C4375,  4376                / JMS   C4376                           
 2177 04376 7402      HLT                     /                                       @@4376=7402
 2178             
 2179       4400  *4400
 2180             L4400,
 2181 04400 6007  C4400,  6007                / 6007                                  
 2182 04401 1215      TAD   C4415             /                                       @@4401=1215
 2183 04402 3002      DCA   D0002             /                                       @@4402=3002
 2184 04403 7330      CLA CLL CML RAR         / AC = 4000 (-4000 = -2048 dec)         @@4403=7330
 2185 04404 6005  C4404,  6005                / 6005                                  
 2186 04405 7420      SNL                     /                                       @@4405=7420
 2187 04406 7402      HLT                     /                                       @@4406=7402
 2188 04407 6000  C4407,  6000                / 6000                                  
 2189 04410 7402      HLT                     /                                       @@4410=7402
 2190 04411 6007  C4411,  6007                / 6007                                  
 2191 04412 7300      CLA CLL                 / AC = 0000                             @@4412=7300
 2192 04413 5614      JMP I C4414             / long jump to L2677                    @@4413=5614
 2193             C4414,
 2194 04414 2677  C4414,  2677                / ISZ I C4477                           
 2195 04415 4416  C4415,  4416                / JMS I AI6                             
 2196 04416 7402      HLT                     /                                       @@4416=7402
 2197             
 2198       7751  *7751                       / align to RIMLDR location
 2199 07751 0200      0200                    / addr of program start
 2200 07752 6032      KCC                     / first instr in std RIMLDR
 2201 07753 1352      TAD .-1                 / get KCC instr
 2202 07754 3356      DCA .+2                 / restore into RIMLDR
 2203 07755 5751      JMP I .-4               / start program
 2204 07756 5353      JMP .-3                 / overlay first word of RIMLDR
 2205             

      No detected errors

      AUTOMATIC DISASSEMBLY OF MAINDEC-8E-D0BB-PB.bin BY D8TAPE          Page 40
                                                                    Symbol Table

    1  C0020  00020   C0622  00622   C1105  01105   C1370  01370   C1646  01646 
    2  C0021  00021   C0623  00623   C1106  01106   C1371  01371   C1647  01647 
    3  C0022  00022   C0632  00632   C1115  01115   C1373  01373   C1650  01650 
    4  C0023  00023   C0633  00633   C1116  01116   C1402  01402   C1657  01657 
    5  C0024  00024   C0634  00634   C1117  01117   C1403  01403   C1660  01660 
    6  C0025  00025   C0643  00643   C1126  01126   C1404  01404   C1662  01662 
    7  C0026  00026   C0644  00644   C1127  01127   C1413  01413   C1671  01671 
    8  C0027  00027   C0646  00646   C1130  01130   C1414  01414   C1672  01672 
    9  C0031  00031   C0655  00655   C1137  01137   C1415  01415   C1673  01673 
   10  C0032  00032   C0656  00656   C1140  01140   C1424  01424   C1702  01702 
   11  C0033  00033   C0657  00657   C1141  01141   C1425  01425   C1703  01703 
   12  C0034  00034   C0666  00666   C1150  01150   C1426  01426   C1704  01704 
   13  C0035  00035   C0667  00667   C1151  01151   C1435  01435   C1713  01713 
   14  C0036  00036   C0670  00670   C1152  01152   C1436  01436   C1714  01714 
   15  C0037  00037   C0677  00677   C1161  01161   C1437  01437   C1715  01715 
   16  C0040  00040   C0700  00700   C1162  01162   C1446  01446   C1724  01724 
   17  C0041  00041   C0701  00701   C1164  01164   C1447  01447   C1725  01725 
   18  C0043  00043   C0710  00710   C1175  01175   C1450  01450   C1726  01726 
   19  C0044  00044   C0711  00711   C1202  01202   C1457  01457   C1735  01735 
   20  C0045  00045   C0712  00712   C1203  01203   C1460  01460   C1736  01736 
   21  C0046  00046   C0721  00721   C1204  01204   C1462  01462   C1737  01737 
   22  C0047  00047   C0722  00722   C1213  01213   C1471  01471   C1746  01746 
   23  C0051  00051   C0723  00723   C1214  01214   C1472  01472   C1747  01747 
   24  C0052  00052   C0732  00732   C1215  01215   C1473  01473   C1750  01750 
   25  C0053  00053   C0733  00733   C1224  01224   C1502  01502   C1757  01757 
   26  C0054  00054   C0734  00734   C1225  01225   C1503  01503   C1760  01760 
   27  C0055  00055   C0743  00743   C1226  01226   C1504  01504   C1761  01761 
   28  C0056  00056   C0744  00744   C1235  01235   C1513  01513   C1770  01770 
   29  C0057  00057   C0745  00745   C1236  01236   C1514  01514   C1771  01771 
   30  C0060  00060   C0754  00754   C1237  01237   C1515  01515   C1773  01773 
   31  C0061  00061   C0755  00755   C1246  01246   C1524  01524   C2002  02002 
   32  C0062  00062   C0757  00757   C1247  01247   C1525  01525   C2003  02003 
   33  C0063  00063   C0766  00766   C1250  01250   C1526  01526   C2004  02004 
   34  C0064  00064   C0767  00767   C1257  01257   C1535  01535   C2010  02010 
   35  C0065  00065   C0770  00770   C1260  01260   C1536  01536   C2015  02015 
   36  C0070  00070   C1002  01002   C1262  01262   C1537  01537   C2016  02016 
   37  C0072  00072   C1003  01003   C1271  01271   C1546  01546   C2017  02017 
   38  C0076  00076   C1004  01004   C1272  01272   C1547  01547   C2026  02026 
   39  C0120  00120   C1015  01015   C1273  01273   C1550  01550   C2027  02027 
   40  C0122  00122   C1016  01016   C1302  01302   C1557  01557   C2030  02030 
   41  C0124  00124   C1017  01017   C1303  01303   C1560  01560   C2037  02037 
   42  C0125  00125   C1026  01026   C1304  01304   C1561  01561   C2040  02040 
   43  C0130  00130   C1027  01027   C1313  01313   C1570  01570   C2041  02041 
   44  C0132  00132   C1030  01030   C1314  01314   C1571  01571   C2050  02050 
   45  C0172  00172   C1037  01037   C1315  01315   C1573  01573   C2051  02051 
   46  C0174  00174   C1040  01040   C1324  01324   C1602  01602   C2052  02052 
   47  C0175  00175   C1041  01041   C1325  01325   C1603  01603   C2061  02061 
   48  C0176  00176   C1050  01050   C1326  01326   C1604  01604   C2062  02062 
   49  C0177  00177   C1051  01051   C1335  01335   C1613  01613   C2064  02064 
   50  C0250  00250   C1053  01053   C1336  01336   C1614  01614   C2073  02073 
   51  C0374  00374   C1062  01062   C1337  01337   C1615  01615   C2074  02074 
   52  C0437  00437   C1063  01063   C1346  01346   C1624  01624   C2075  02075 
   53  C0576  00576   C1064  01064   C1347  01347   C1625  01625   C2104  02104 
   54  C0610  00610   C1073  01073   C1350  01350   C1626  01626   C2105  02105 
   55  C0611  00611   C1074  01074   C1357  01357   C1635  01635   C2106  02106 
   56  C0612  00612   C1075  01075   C1360  01360   C1636  01636   C2115  02115 
   57  C0621  00621   C1104  01104   C1361  01361   C1637  01637   C2116  02116 

      AUTOMATIC DISASSEMBLY OF MAINDEC-8E-D0BB-PB.bin BY D8TAPE          Page 41
                                                                    Symbol Table

   58  C2117  02117   C2403  02403   C2652  02652   C3412  03412   C4330  04330 
   59  C2126  02126   C2405  02405   C2660  02660   C3413  03413   C4331  04331 
   60  C2127  02127   C2414  02414   C2662  02662   C3415  03415   C4340  04340 
   61  C2130  02130   C2415  02415   C2663  02663   C3600  03600   C4344  04344 
   62  C2137  02137   C2416  02416   C2664  02664   C3602  03602   C4346  04346 
   63  C2140  02140   C2425  02425   C2665  02665   C3603  03603   C4356  04356 
   64  C2141  02141   C2426  02426   C2670  02670   C3610  03610   C4363  04363 
   65  C2150  02150   C2427  02427   C2676  02676   C3613  03613   C4371  04371 
   66  C2151  02151   C2436  02436   C2700  02700   C3614  03614   C4374  04374 
   67  C2152  02152   C2437  02437   C2701  02701   C3621  03621   C4375  04375 
   68  C2161  02161   C2440  02440   C2711  02711   C3622  03622   C4400  04400 
   69  C2162  02162   C2447  02447   C2712  02712   C3624  03624   C4404  04404 
   70  C2163  02163   C2450  02450   C2713  02713   C3625  03625   C4407  04407 
   71  C2175  02175   C2451  02451   C2723  02723   C3635  03635   C4411  04411 
   72  C2202  02202   C2460  02460   C2733  02733   C3636  03636   C4414  04414 
   73  C2203  02203   C2461  02461   C2734  02734   C3646  03646   C4415  04415 
   74  C2205  02205   C2462  02462   C2735  02735   C3647  03647   D0000  00000 
   75  C2214  02214   C2471  02471   C2746  02746   C3657  03657   D0001  00001 
   76  C2215  02215   C2472  02472   C2757  02757   C3660  03660   D0002  00002 
   77  C2216  02216   C2474  02474   C2760  02760   C3670  03670   D0003  00003 
   78  C2225  02225   C2503  02503   C2761  02761   C3671  03671   D0007  00007 
   79  C2226  02226   C2504  02504   C2773  02773   C3701  03701   D0030  00030 
   80  C2227  02227   C2505  02505   C3012  03012   C3702  03702   D0042  00042 
   81  C2236  02236   C2514  02514   C3013  03013   C3713  03713   D0050  00050 
   82  C2237  02237   C2515  02515   C3030  03030   C3723  03723   D0074  00074 
   83  C2240  02240   C2516  02516   C3043  03043   C3746  03746   D0110  00110 
   84  C2247  02247   C2525  02525   C3044  03044   C3750  03750   D0121  00121 
   85  C2250  02250   C2526  02526   C3061  03061   C3751  03751   D0173  00173 
   86  C2251  02251   C2527  02527   C3075  03075   C4002  04002   D0202  00202 
   87  C2260  02260   C2536  02536   C3076  03076   C4010  04010   D0210  00210 
   88  C2261  02261   C2537  02537   C3112  03112   C4020  04020   D0377  00377 
   89  C2262  02262   C2540  02540   C3123  03123   C4202  04202   D0410  00410 
   90  C2271  02271   C2547  02547   C3124  03124   C4204  04204   D1010  01010 
   91  C2272  02272   C2550  02550   C3134  03134   C4212  04212   D3000  03000 
   92  C2274  02274   C2551  02551   C3145  03145   C4217  04217   D3211  03211 
   93  C2303  02303   C2560  02560   C3146  03146   C4223  04223   D3234  03234 
   94  C2304  02304   C2561  02561   C3164  03164   C4226  04226   D3366  03366 
   95  C2305  02305   C2562  02562   C3200  03200   C4227  04227   D3724  03724 
   96  C2314  02314   C2571  02571   C3212  03212   C4230  04230   D3747  03747 
   97  C2315  02315   C2572  02572   C3213  03213   C4232  04232   L0000  00000 
   98  C2316  02316   C2573  02573   C3223  03223   C4233  04233   L0001  00001 
   99  C2325  02325   C2602  02602   C3235  03235   C4236  04236   L0052  00052 
  100  C2326  02326   C2603  02603   C3236  03236   C4241  04241   L0070  00070 
  101  C2327  02327   C2605  02605   C3246  03246   C4245  04245   L0074  00074 
  102  C2336  02336   C2614  02614   C3311  03311   C4246  04246   L0120  00120 
  103  C2337  02337   C2615  02615   C3326  03326   C4251  04251   L0124  00124 
  104  C2340  02340   C2616  02616   C3332  03332   C4253  04253   L0130  00130 
  105  C2347  02347   C2625  02625   C3344  03344   C4261  04261   L0200  00200 
  106  C2350  02350   C2626  02626   C3345  03345   C4263  04263   L0372  00372 
  107  C2351  02351   C2627  02627   C3355  03355   C4267  04267   L0375  00375 
  108  C2360  02360   C2637  02637   C3365  03365   C4271  04271   L0574  00574 
  109  C2361  02361   C2641  02641   C3367  03367   C4300  04300   L0577  00577 
  110  C2362  02362   C2642  02642   C3370  03370   C4304  04304   L1173  01173 
  111  C2371  02371   C2644  02644   C3400  03400   C4306  04306   L1176  01176 
  112  C2372  02372   C2645  02645   C3405  03405   C4310  04310   L2173  02173 
  113  C2373  02373   C2646  02646   C3406  03406   C4317  04317   L2176  02176 
  114  C2402  02402   C2647  02647   C3407  03407   C4327  04327   L2636  02636 

      AUTOMATIC DISASSEMBLY OF MAINDEC-8E-D0BB-PB.bin BY D8TAPE          Page 42
                                                                    Symbol Table

  115  L2677  02677 
  116  L3000  03000 
  117  L3121  03121 
  118  L3200  03200 
  119  L3366  03366 
  120  L3413  03413 
  121  L3600  03600 
  122  L3604  03604 
  123  L3615  03615 
  124  L3622  03622 
  125  L3626  03626 
  126  L3637  03637 
  127  L3650  03650 
  128  L3661  03661 
  129  L3714  03714 
  130  L3724  03724 
  131  L3743  03743 
  132  L4000  04000 
  133  L4200  04200 
  134  L4271  04271 
  135  L4306  04306 
  136  L4360  04360 
  137  L4400  04400 
  138  S4011  04011 

      AUTOMATIC DISASSEMBLY OF MAINDEC-8E-D0BB-PB.bin BY D8TAPE          Page 43
                                                                 Cross Reference

    1 A     39  C0020       117    234    241    255    280    305    330    487
    2                       491    629    633    759    763    889    893   1021
    3                      1025   1162   1166   1292   1296   1422   1426   1496
    4                      1514   1516   1540   1589   1662
    5 A     40  C0021       473    477    620    624    750    754    880    884
    6                      1010   1014   1153   1157   1283   1287   1413   1417
    7 A     41  C0022       463    598    738    868    998   1143   1273   1403
    8 A     42  C0023       454    589    729    859    989   1121   1262   1392
    9 A     43  C0024       445    580    720    850    980   1112   1253   1383
   10 A     44  C0025       436    571    711    841    971   1103   1244   1374
   11 A     45  C0026       427    562    702    832    962   1094   1235   1365
   12 A     46  C0027       418    553    693    823    953   1085   1226   1356
   13 A     48  C0031       409    544    684    814    944   1076   1217   1347
   14 A     49  C0032       400    535    675    805    935   1067   1208   1338
   15 A     50  C0033       390    525    665    795    925   1057   1198   1328
   16 A     51  C0034       381    516    656    786    916   1048   1189   1319
   17 A     52  C0035       367    372    502    507    642    647    772    777
   18                       902    907   1034   1039   1175   1180   1305   1310
   19                      1564
   20 A     53  C0036       126    243    264    289    314    339    363    376
   21                       498    511    638    651    768    781    898    911
   22                      1030   1043   1171   1184   1301   1314   1979
   23 A     54  C0037       468    603    743    873   1003   1148   1278   1408
   24 A     55  C0040       458    593    733    863    993   1125   1266   1396
   25 A     56  C0041       449    584    724    854    984   1116   1257   1387
   26 A     58  C0043       431    566    706    836    966   1098   1239   1369
   27 A     59  C0044       422    557    697    827    957   1089   1230   1360
   28 A     60  C0045       413    548    688    818    948   1080   1221   1351
   29 A     61  C0046       404    539    679    809    939   1071   1212   1342
   30 A     62  C0047       395    530    670    800    930   1062   1203   1333
   31 A     64  C0051       385    520    660    790    920   1052   1193   1323
   32 A     66  C0052   
   33 A     67  C0053       107    111
   34 A     68  C0054       134    138
   35 A     69  C0055       144    148
   36 A     70  C0056       154    158
   37 A     71  C0057       164    168
   38 A     72  C0060       174    178
   39 A     73  C0061       184    188
   40 A     74  C0062       194    198
   41 A     75  C0063       204    208
   42 A     76  C0064      2124   2131   2139   2150
   43 A     77  C0065      1647
   44 A   1991  C0070   
   45 A   1994  C0072      1992
   46 A   1975  C0076      1973
   47 A   1954  C0120   
   48 A   1956  C0122   
   49 A   1936  C0124   
   50 A   1937  C0125   
   51 A   1916  C0130   
   52 A   1919  C0132      1917
   53 A     83  C0172       249    262    269    276    283
   54 A     85  C0174       299    306    312    319    326    333
   55 A     86  C0175       324    331    337    344    359
   56 A     87  C0176       251    258    357
   57 A     88  C0177       228    237

      AUTOMATIC DISASSEMBLY OF MAINDEC-8E-D0BB-PB.bin BY D8TAPE          Page 44
                                                                 Cross Reference

   58 A    132  C0250   
   59 A   1899  C0374      1897
   60 A    256  C0437   
   61 A   1878  C0576      1876
   62 A    364  C0610   
   63 A    365  C0611   
   64 A    366  C0612   
   65 A    373  C0621   
   66 A    374  C0622   
   67 A    375  C0623   
   68 A    382  C0632   
   69 A    383  C0633   
   70 A    384  C0634   
   71 A    391  C0643   
   72 A    392  C0644   
   73 A    394  C0646   
   74 A    401  C0655   
   75 A    402  C0656   
   76 A    403  C0657   
   77 A    410  C0666   
   78 A    411  C0667   
   79 A    412  C0670   
   80 A    419  C0677   
   81 A    420  C0700   
   82 A    421  C0701   
   83 A    428  C0710   
   84 A    429  C0711   
   85 A    430  C0712   
   86 A    437  C0721   
   87 A    438  C0722   
   88 A    439  C0723   
   89 A    446  C0732   
   90 A    447  C0733   
   91 A    448  C0734   
   92 A    455  C0743   
   93 A    456  C0744   
   94 A    457  C0745   
   95 A    464  C0754   
   96 A    465  C0755   
   97 A    467  C0757   
   98 A    474  C0766   
   99 A    475  C0767   
  100 A    476  C0770   
  101 A    488  C1002   
  102 A    489  C1003   
  103 A    490  C1004   
  104 A    499  C1015   
  105 A    500  C1016   
  106 A    501  C1017   
  107 A    508  C1026   
  108 A    509  C1027   
  109 A    510  C1030   
  110 A    517  C1037   
  111 A    518  C1040   
  112 A    519  C1041   
  113 A    526  C1050   
  114 A    527  C1051   

      AUTOMATIC DISASSEMBLY OF MAINDEC-8E-D0BB-PB.bin BY D8TAPE          Page 45
                                                                 Cross Reference

  115 A    529  C1053   
  116 A    536  C1062   
  117 A    537  C1063   
  118 A    538  C1064   
  119 A    545  C1073   
  120 A    546  C1074   
  121 A    547  C1075   
  122 A    554  C1104   
  123 A    555  C1105   
  124 A    556  C1106   
  125 A    563  C1115   
  126 A    564  C1116   
  127 A    565  C1117   
  128 A    572  C1126   
  129 A    573  C1127   
  130 A    574  C1130   
  131 A    581  C1137   
  132 A    582  C1140   
  133 A    583  C1141   
  134 A    590  C1150   
  135 A    591  C1151   
  136 A    592  C1152   
  137 A    599  C1161   
  138 A    600  C1162   
  139 A    602  C1164   
  140 A   1858  C1175      1856
  141 A    621  C1202   
  142 A    622  C1203   
  143 A    623  C1204   
  144 A    630  C1213   
  145 A    631  C1214   
  146 A    632  C1215   
  147 A    639  C1224   
  148 A    640  C1225   
  149 A    641  C1226   
  150 A    648  C1235   
  151 A    649  C1236   
  152 A    650  C1237   
  153 A    657  C1246   
  154 A    658  C1247   
  155 A    659  C1250   
  156 A    666  C1257   
  157 A    667  C1260   
  158 A    669  C1262   
  159 A    676  C1271   
  160 A    677  C1272   
  161 A    678  C1273   
  162 A    685  C1302   
  163 A    686  C1303   
  164 A    687  C1304   
  165 A    694  C1313   
  166 A    695  C1314   
  167 A    696  C1315   
  168 A    703  C1324   
  169 A    704  C1325   
  170 A    705  C1326   
  171 A    712  C1335   

      AUTOMATIC DISASSEMBLY OF MAINDEC-8E-D0BB-PB.bin BY D8TAPE          Page 46
                                                                 Cross Reference

  172 A    713  C1336   
  173 A    714  C1337   
  174 A    721  C1346   
  175 A    722  C1347   
  176 A    723  C1350   
  177 A    730  C1357   
  178 A    731  C1360   
  179 A    732  C1361   
  180 A    739  C1370   
  181 A    740  C1371   
  182 A    742  C1373   
  183 A    751  C1402   
  184 A    752  C1403   
  185 A    753  C1404   
  186 A    760  C1413   
  187 A    761  C1414   
  188 A    762  C1415   
  189 A    769  C1424   
  190 A    770  C1425   
  191 A    771  C1426   
  192 A    778  C1435   
  193 A    779  C1436   
  194 A    780  C1437   
  195 A    787  C1446   
  196 A    788  C1447   
  197 A    789  C1450   
  198 A    796  C1457   
  199 A    797  C1460   
  200 A    799  C1462   
  201 A    806  C1471   
  202 A    807  C1472   
  203 A    808  C1473   
  204 A    815  C1502   
  205 A    816  C1503   
  206 A    817  C1504   
  207 A    824  C1513   
  208 A    825  C1514   
  209 A    826  C1515   
  210 A    833  C1524   
  211 A    834  C1525   
  212 A    835  C1526   
  213 A    842  C1535   
  214 A    843  C1536   
  215 A    844  C1537   
  216 A    851  C1546   
  217 A    852  C1547   
  218 A    853  C1550   
  219 A    860  C1557   
  220 A    861  C1560   
  221 A    862  C1561   
  222 A    869  C1570   
  223 A    870  C1571   
  224 A    872  C1573   
  225 A    881  C1602   
  226 A    882  C1603   
  227 A    883  C1604   
  228 A    890  C1613   

      AUTOMATIC DISASSEMBLY OF MAINDEC-8E-D0BB-PB.bin BY D8TAPE          Page 47
                                                                 Cross Reference

  229 A    891  C1614   
  230 A    892  C1615   
  231 A    899  C1624   
  232 A    900  C1625   
  233 A    901  C1626   
  234 A    908  C1635   
  235 A    909  C1636   
  236 A    910  C1637   
  237 A    917  C1646   
  238 A    918  C1647   
  239 A    919  C1650   
  240 A    926  C1657   
  241 A    927  C1660   
  242 A    929  C1662   
  243 A    936  C1671   
  244 A    937  C1672   
  245 A    938  C1673   
  246 A    945  C1702   
  247 A    946  C1703   
  248 A    947  C1704   
  249 A    954  C1713   
  250 A    955  C1714   
  251 A    956  C1715   
  252 A    963  C1724   
  253 A    964  C1725   
  254 A    965  C1726   
  255 A    972  C1735   
  256 A    973  C1736   
  257 A    974  C1737   
  258 A    981  C1746   
  259 A    982  C1747   
  260 A    983  C1750   
  261 A    990  C1757   
  262 A    991  C1760   
  263 A    992  C1761   
  264 A    999  C1770   
  265 A   1000  C1771   
  266 A   1002  C1773   
  267 A   1011  C2002   
  268 A   1012  C2003   
  269 A   1013  C2004   
  270 A   1017  C2010      1833
  271 A   1022  C2015   
  272 A   1023  C2016   
  273 A   1024  C2017   
  274 A   1031  C2026   
  275 A   1032  C2027   
  276 A   1033  C2030   
  277 A   1040  C2037   
  278 A   1041  C2040   
  279 A   1042  C2041   
  280 A   1049  C2050   
  281 A   1050  C2051   
  282 A   1051  C2052   
  283 A   1058  C2061   
  284 A   1059  C2062   
  285 A   1061  C2064   

      AUTOMATIC DISASSEMBLY OF MAINDEC-8E-D0BB-PB.bin BY D8TAPE          Page 48
                                                                 Cross Reference

  286 A   1068  C2073   
  287 A   1069  C2074   
  288 A   1070  C2075   
  289 A   1077  C2104   
  290 A   1078  C2105   
  291 A   1079  C2106   
  292 A   1086  C2115   
  293 A   1087  C2116   
  294 A   1088  C2117   
  295 A   1095  C2126   
  296 A   1096  C2127   
  297 A   1097  C2130   
  298 A   1104  C2137   
  299 A   1105  C2140   
  300 A   1106  C2141   
  301 A   1113  C2150   
  302 A   1114  C2151   
  303 A   1115  C2152   
  304 A   1122  C2161   
  305 A   1123  C2162   
  306 A   1124  C2163   
  307 A   1836  C2175      1834
  308 A   1144  C2202   
  309 A   1145  C2203   
  310 A   1147  C2205   
  311 A   1154  C2214   
  312 A   1155  C2215   
  313 A   1156  C2216   
  314 A   1163  C2225   
  315 A   1164  C2226   
  316 A   1165  C2227   
  317 A   1172  C2236   
  318 A   1173  C2237   
  319 A   1174  C2240   
  320 A   1181  C2247   
  321 A   1182  C2250   
  322 A   1183  C2251   
  323 A   1190  C2260   
  324 A   1191  C2261   
  325 A   1192  C2262   
  326 A   1199  C2271   
  327 A   1200  C2272   
  328 A   1202  C2274   
  329 A   1209  C2303   
  330 A   1210  C2304   
  331 A   1211  C2305   
  332 A   1218  C2314   
  333 A   1219  C2315   
  334 A   1220  C2316   
  335 A   1227  C2325   
  336 A   1228  C2326   
  337 A   1229  C2327   
  338 A   1236  C2336   
  339 A   1237  C2337   
  340 A   1238  C2340   
  341 A   1245  C2347   
  342 A   1246  C2350   

      AUTOMATIC DISASSEMBLY OF MAINDEC-8E-D0BB-PB.bin BY D8TAPE          Page 49
                                                                 Cross Reference

  343 A   1247  C2351   
  344 A   1254  C2360   
  345 A   1255  C2361   
  346 A   1256  C2362   
  347 A   1263  C2371   
  348 A   1264  C2372   
  349 A   1265  C2373   
  350 A   1274  C2402   
  351 A   1275  C2403   
  352 A   1277  C2405   
  353 A   1284  C2414   
  354 A   1285  C2415   
  355 A   1286  C2416   
  356 A   1293  C2425   
  357 A   1294  C2426   
  358 A   1295  C2427   
  359 A   1302  C2436   
  360 A   1303  C2437   
  361 A   1304  C2440   
  362 A   1311  C2447   
  363 A   1312  C2450   
  364 A   1313  C2451   
  365 A   1320  C2460   
  366 A   1321  C2461   
  367 A   1322  C2462   
  368 A   1329  C2471   
  369 A   1330  C2472   
  370 A   1332  C2474   
  371 A   1339  C2503   
  372 A   1340  C2504   
  373 A   1341  C2505   
  374 A   1348  C2514   
  375 A   1349  C2515   
  376 A   1350  C2516   
  377 A   1357  C2525   
  378 A   1358  C2526   
  379 A   1359  C2527   
  380 A   1366  C2536   
  381 A   1367  C2537   
  382 A   1368  C2540   
  383 A   1375  C2547   
  384 A   1376  C2550   
  385 A   1377  C2551   
  386 A   1384  C2560   
  387 A   1385  C2561   
  388 A   1386  C2562   
  389 A   1393  C2571   
  390 A   1394  C2572   
  391 A   1395  C2573   
  392 A   1404  C2602   
  393 A   1405  C2603   
  394 A   1407  C2605   
  395 A   1414  C2614   
  396 A   1415  C2615   
  397 A   1416  C2616   
  398 A   1423  C2625   
  399 A   1424  C2626   

      AUTOMATIC DISASSEMBLY OF MAINDEC-8E-D0BB-PB.bin BY D8TAPE          Page 50
                                                                 Cross Reference

  400 A   1425  C2627   
  401 A   1434  C2637      1435
  402 A   1436  C2641   
  403 A   1437  C2642   
  404 A   1439  C2644   
  405 A   1440  C2645   
  406 A   1441  C2646   
  407 A   1442  C2647      1443
  408 A   1445  C2652      1447
  409 A   1451  C2660      1452
  410 A   1453  C2662   
  411 A   1454  C2663   
  412 A   1455  C2664   
  413 A   1456  C2665      1457
  414 A   1459  C2670      1461
  415 A   1466  C2676      1464
  416 A   1470  C2700      1468
  417 A   1471  C2701   
  418 A   1479  C2711   
  419 A   1480  C2712      1486
  420 A   1481  C2713      1475
  421 A   1489  C2723   
  422 A   1497  C2733   
  423 A   1498  C2734      1505
  424 A   1499  C2735      1493
  425 A   1508  C2746   
  426 A   1517  C2757   
  427 A   1518  C2760      1525
  428 A   1519  C2761      1512
  429 A   1530  C2773      1528
  430 A   1544  C3012      1555
  431 A   1545  C3013      1538
  432 A   1558  C3030   
  433 A   1569  C3043      1580
  434 A   1570  C3044      1562
  435 A   1583  C3061   
  436 A   1595  C3075      1605
  437 A   1596  C3076      1587
  438 A   1608  C3112   
  439 A   1618  C3123      1624
  440 A   1619  C3124      1612
  441 A   1627  C3134   
  442 A   1636  C3145      1642
  443 A   1637  C3146      1631
  444 A   1652  C3164      1650
  445 A   1656  C3200   
  446 A   1666  C3212      1672
  447 A   1667  C3213      1660
  448 A   1675  C3223   
  449 A   1685  C3235      1691
  450 A   1686  C3236      1679
  451 A   1694  C3246   
  452 A   1729  C3311      1698
  453 A   1742  C3326      1734
  454 A   1746  C3332   
  455 A   1756  C3344      1762
  456 A   1757  C3345      1750

      AUTOMATIC DISASSEMBLY OF MAINDEC-8E-D0BB-PB.bin BY D8TAPE          Page 51
                                                                 Cross Reference

  457 A   1765  C3355   
  458 A   1774  C3365      1772
  459 A   1777  C3367      1783
  460 A   1778  C3370      1769
  461 A   1786  C3400   
  462 A   1791  C3405   
  463 A   1792  C3406   
  464 A   1793  C3407   
  465 A   1796  C3412      1787
  466 A   1798  C3413   
  467 A   1801  C3415      1799
  468 A   1805  C3600   
  469 A   1808  C3602      1806
  470 A   1809  C3603      1820
  471 A   1824  C3610   
  472 A   1828  C3613      1826
  473 A   1829  C3614      1840
  474 A   1845  C3621      1843
  475 A   1847  C3622   
  476 A   1850  C3624      1848
  477 A   1851  C3625      1862   1866
  478 A   1870  C3635      1868
  479 A   1871  C3636      1882   1886
  480 A   1890  C3646      1888
  481 A   1891  C3647      1903   1907
  482 A   1911  C3657      1909
  483 A   1912  C3660      1923
  484 A   1931  C3670      1929
  485 A   1932  C3671      1941
  486 A   1949  C3701      1947
  487 A   1950  C3702      1959
  488 A   1968  C3713      1966
  489 A   1987  C3723      1985
  490 A   2018  C3746      2009   2016
  491 A   2020  C3750      2007
  492 A   2021  C3751      2011
  493 A   1816  C4002      1814
  494 A   2024  C4010      1813
  495 A   2042  C4020      2036
  496 A   2049  C4202      2047
  497 A   2051  C4204   
  498 A   2057  C4212   
  499 A   2062  C4217   
  500 A   2066  C4223   
  501 A   2069  C4226   
  502 A   2070  C4227   
  503 A   2071  C4230   
  504 A   2073  C4232   
  505 A   2074  C4233   
  506 A   2077  C4236   
  507 A   2080  C4241   
  508 A   2084  C4245   
  509 A   2085  C4246   
  510 A   2088  C4251   
  511 A   2090  C4253   
  512 A   2096  C4261   
  513 A   2098  C4263   

      AUTOMATIC DISASSEMBLY OF MAINDEC-8E-D0BB-PB.bin BY D8TAPE          Page 52
                                                                 Cross Reference

  514 A   2102  C4267      2091
  515 A   2105  C4271   
  516 A   2112  C4300   
  517 A   2116  C4304      2106
  518 A   2119  C4306   
  519 A   2121  C4310   
  520 A   2128  C4317   
  521 A   2136  C4327   
  522 A   2137  C4330   
  523 A   2138  C4331   
  524 A   2145  C4340   
  525 A   2149  C4344   
  526 A   2151  C4346   
  527 A   2159  C4356      2146
  528 A   2165  C4363   
  529 A   2171  C4371   
  530 A   2175  C4374      2173
  531 A   2176  C4375      2163
  532 A   2181  C4400   
  533 A   2185  C4404   
  534 A   2188  C4407   
  535 A   2190  C4411   
  536 A   2194  C4414      2192
  537 A   2195  C4415      2182
  538 A     29  D0000   
  539 A     31  D0001   
  540 A     32  D0002      1476   1494   1513   1539   1563   1588   1613   1632
  541                      1661   1680   1699   1735   1751   1770   1788   2038
  542                      2092   2107   2147   2164   2183
  543 A     33  D0003      1542   1548   1552   1565   1567   1573   1577   1590
  544                      1592   1599   1602   1634   1640   2039
  545 A     36  D0007      2002
  546 A     47  D0030      1963
  547 A     57  D0042       226    235    440    575    715    845    975   1107
  548                      1248   1378
  549 A     63  D0050      1945
  550 A   1972  D0074   
  551 A     80  D0110      1927
  552 A   1955  D0121   
  553 A     84  D0173       274    281    287    294    301    308
  554 A     94  D0202       108    113    118    121    127    130    135    140
  555                       145    150
  556 A    100  D0210      1896
  557 A    222  D0377        96    103    155    160    165    170
  558 A    233  D0410      1875
  559 A    494  D1010      1855
  560 A   1534  D3000   
  561 A   1665  D3211   
  562 A   1684  D3234   
  563 A   1776  D3366   
  564 A   1998  D3724   
  565 A   2019  D3747      2003   2005   2006   2010
  566 A     28  L0000       175    180    185    190    195    200    205    210
  567                       242    245    263    267    288    292    313    317
  568                       338    342   1484   1503   1523   1553   1578   1603
  569                      1622   1645   1670   1689   1760   1781   1965   1983
  570 A     30  L0001      2037

      AUTOMATIC DISASSEMBLY OF MAINDEC-8E-D0BB-PB.bin BY D8TAPE          Page 53
                                                                 Cross Reference

  571 A     65  L0052        95    101
  572 A   1990  L0070   
  573 A   1971  L0074   
  574 A   1953  L0120   
  575 A   1935  L0124   
  576 A   1915  L0130   
  577 A     91  L0200   
  578 A   1895  L0372   
  579 A    219  L0375      1894
  580 A   1874  L0574   
  581 A    352  L0577       348
  582 A   1854  L1173   
  583 A    614  L1176       608
  584 A   1832  L2173   
  585 A   1137  L2176      1131
  586 A   1432  L2636      1430
  587 A   1467  L2677   
  588 A   1533  L3000   
  589 A   1615  L3121      1616
  590 A   1655  L3200   
  591 A   1775  L3366   
  592 A   1797  L3413      1794
  593 A   1804  L3600   
  594 A   1819  L3604   
  595 A   1839  L3615   
  596 A   1846  L3622   
  597 A   1861  L3626   
  598 A   1881  L3637   
  599 A   1902  L3650   
  600 A   1922  L3661   
  601 A   1978  L3714   
  602 A   1997  L3724   
  603 A   2013  L3743      2015
  604 A   1812  L4000   
  605 A   2045  L4200   
  606 A   2104  L4271      2101
  607 A   2118  L4306      2115
  608 A   2161  L4360      2158
  609 A   2180  L4400   
  610 A   2034  S4011      2040   2041

      AUTOMATIC DISASSEMBLY OF MAINDEC-8E-D0BB-PB.bin BY D8TAPE          Page 54
                                                                      Memory Map

    1 00000/ XXXX...X ........ XXXXXXXX XXXXXXXX XXXXXXXX XXXXXXXX XXXXXX.. XXX.XXX.
    2 00100/ ........ X....... XXX.XXX. XXX..... ........ ........ ........ ..XXXXXX
    3
    4 00200/ XXXXXXXX XXXXXXXX XXXXXXXX XXXXXXXX XXXXXXXX XXXXXXXX XXXXXXXX XXXXXXXX
    5 00300/ XXXXXXXX XXXXXXXX XXXXXXXX XXXXXXXX XXXXXXXX XXXXXXXX XXXXXXXX XXXXXXXX
    6
    7 00400/ XXXXXXXX XXXXXXXX XXXXXXXX XXXXXXXX XXXXXXXX XXXXXXXX XXXXXXXX XXXXXXXX
    8 00500/ XXXXXXXX XXXXXXXX XXXXXXXX XXXXXXXX XXXXXXXX XXXXXXXX XXXXXXXX XXXXXXXX
    9
   10 00600/ XXXXXXXX XXXXXXXX XXXXXXXX XXXXXXXX XXXXXXXX XXXXXXXX XXXXXXXX XXXXXXXX
   11 00700/ XXXXXXXX XXXXXXXX XXXXXXXX XXXXXXXX XXXXXXXX XXXXXXXX XXXXXXXX XXXXXXXX
   12
   13 01000/ XXXXXXXX XXXXXXXX XXXXXXXX XXXXXXXX XXXXXXXX XXXXXXXX XXXXXXXX XXXXXXXX
   14 01100/ XXXXXXXX XXXXXXXX XXXXXXXX XXXXXXXX XXXXXXXX XXXXXXXX XXXXXXXX XXXXXXXX
   15
   16 01200/ XXXXXXXX XXXXXXXX XXXXXXXX XXXXXXXX XXXXXXXX XXXXXXXX XXXXXXXX XXXXXXXX
   17 01300/ XXXXXXXX XXXXXXXX XXXXXXXX XXXXXXXX XXXXXXXX XXXXXXXX XXXXXXXX XXXXXXXX
   18
   19 01400/ XXXXXXXX XXXXXXXX XXXXXXXX XXXXXXXX XXXXXXXX XXXXXXXX XXXXXXXX XXXXXXXX
   20 01500/ XXXXXXXX XXXXXXXX XXXXXXXX XXXXXXXX XXXXXXXX XXXXXXXX XXXXXXXX XXXXXXXX
   21
   22 01600/ XXXXXXXX XXXXXXXX XXXXXXXX XXXXXXXX XXXXXXXX XXXXXXXX XXXXXXXX XXXXXXXX
   23 01700/ XXXXXXXX XXXXXXXX XXXXXXXX XXXXXXXX XXXXXXXX XXXXXXXX XXXXXXXX XXXXXXXX
   24
   25 02000/ XXXXXXXX XXXXXXXX XXXXXXXX XXXXXXXX XXXXXXXX XXXXXXXX XXXXXXXX XXXXXXXX
   26 02100/ XXXXXXXX XXXXXXXX XXXXXXXX XXXXXXXX XXXXXXXX XXXXXXXX XXXXXXXX XXXXXXXX
   27
   28 02200/ XXXXXXXX XXXXXXXX XXXXXXXX XXXXXXXX XXXXXXXX XXXXXXXX XXXXXXXX XXXXXXXX
   29 02300/ XXXXXXXX XXXXXXXX XXXXXXXX XXXXXXXX XXXXXXXX XXXXXXXX XXXXXXXX XXXXXXXX
   30
   31 02400/ XXXXXXXX XXXXXXXX XXXXXXXX XXXXXXXX XXXXXXXX XXXXXXXX XXXXXXXX XXXXXXXX
   32 02500/ XXXXXXXX XXXXXXXX XXXXXXXX XXXXXXXX XXXXXXXX XXXXXXXX XXXXXXXX XXXXXXXX
   33
   34 02600/ XXXXXXXX XXXXXXXX XXXXXXXX XXXXXXXX XXXXXXXX XXXXXXXX XXXXXXXX XXXXXXXX
   35 02700/ XXXXXXXX XXXXXXXX XXXXXXXX XXXXXXXX XXXXXXXX XXXXXXXX XXXXXXXX XXXX....
   36
   37 03000/ XXXXXXXX XXXXXXXX XXXXXXXX XXXXXXXX XXXXXXXX XXXXXXXX XXXXXXXX XXXXXXXX
   38 03100/ XXXXXXXX XXXXXXXX XXXXXXXX XXXXXXXX XXXXXXXX XXXXXXXX XXXXX... ........
   39
   40 03200/ XXXXXXXX XXXXXXXX XXXXXXXX XXXXXXXX XXXXXXXX XXXXXXXX XXXXXXXX XXXXXXXX
   41 03300/ XXXXXXXX XXXXXXXX XXXXXXXX XXXXXXXX XXXXXXXX XXXXXXXX XXXXXXXX XXXXXXXX
   42
   43 03400/ XXXXXXXX XXXXXX.. ........ ........ ........ ........ ........ ........
   44 03500/ ........ ........ ........ ........ ........ ........ ........ ........
   45
   46 03600/ XXXXXXXX XXXXXXXX XXXXXXXX XXXXXXXX XXXXXXXX XXXXXXXX XXXXXXXX XXXXXXXX
   47 03700/ XXXXXXXX XXXXXXXX XXXXXXXX XXXXXXXX XXXXXXXX XX...... ........ ........
   48

      AUTOMATIC DISASSEMBLY OF MAINDEC-8E-D0BB-PB.bin BY D8TAPE          Page 55
                                                                      Memory Map

   49 04000/ XXX..... XXXXXXXX X....... ........ ........ ........ ........ ........
   50 04100/ ........ ........ ........ ........ ........ ........ ........ ........
   51
   52 04200/ XXXXXXXX XXXXXXXX XXXXXXXX XXXXXXXX XXXXXXXX XXXXXXXX XXXXXXXX XXXXXXXX
   53 04300/ XXXXXXXX XXXXXXXX XXXXXXXX XXXXXXXX XXXXXXXX XXXXXXXX XXXXXXXX XXXXXXX.
   54
   55 04400/ XXXXXXXX XXXXXXX. ........ ........ ........ ........ ........ ........
   56 04500/ ........ ........ ........ ........ ........ ........ ........ ........
   57
   58 04600/ ........ ........ ........ ........ ........ ........ ........ ........
   59 04700/ ........ ........ ........ ........ ........ ........ ........ ........
   60
   61 05000/ ........ ........ ........ ........ ........ ........ ........ ........
   62 05100/ ........ ........ ........ ........ ........ ........ ........ ........
   63
   64 05200/ ........ ........ ........ ........ ........ ........ ........ ........
   65 05300/ ........ ........ ........ ........ ........ ........ ........ ........
   66
   67 05400/ ........ ........ ........ ........ ........ ........ ........ ........
   68 05500/ ........ ........ ........ ........ ........ ........ ........ ........
   69
   70 05600/ ........ ........ ........ ........ ........ ........ ........ ........
   71 05700/ ........ ........ ........ ........ ........ ........ ........ ........
   72
   73 06000/ ........ ........ ........ ........ ........ ........ ........ ........
   74 06100/ ........ ........ ........ ........ ........ ........ ........ ........
   75
   76 06200/ ........ ........ ........ ........ ........ ........ ........ ........
   77 06300/ ........ ........ ........ ........ ........ ........ ........ ........
   78
   79 06400/ ........ ........ ........ ........ ........ ........ ........ ........
   80 06500/ ........ ........ ........ ........ ........ ........ ........ ........
   81
   82 06600/ ........ ........ ........ ........ ........ ........ ........ ........
   83 06700/ ........ ........ ........ ........ ........ ........ ........ ........
   84
   85 07000/ ........ ........ ........ ........ ........ ........ ........ ........
   86 07100/ ........ ........ ........ ........ ........ ........ ........ ........
   87
   88 07200/ ........ ........ ........ ........ ........ ........ ........ ........
   89 07300/ ........ ........ ........ ........ ........ ........ ........ ........
   90
   91 07400/ ........ ........ ........ ........ ........ ........ ........ ........
   92 07500/ ........ ........ ........ ........ ........ ........ ........ ........
   93
   94 07600/ ........ ........ ........ ........ ........ ........ ........ ........
   95 07700/ ........ ........ ........ ........ ........ .XXXXXX. ........ ........
   96
