
      AUTOMATIC DISASSEMBLY OF MAINDEC-8E-D0HC-PB.bin BY D8TAPE           Page 1


    1             TITLE "AUTOMATIC DISASSEMBLY OF MAINDEC-8E-D0HC-PB.bin BY D8TAPE"
    2             ////////////////////////////////////////////////////////////////////////////////
    3             /
    4             /   Automatic Disassembly of MAINDEC-8E-D0HC-PB.bin
    5             /   Generated 2015 10 26 22:25:48
    6             /   Generated by d8tape version 0.347
    7             /   Visit http://www.pdp12.org/pdp8/software/index.html for updates
    8             /
    9             /   Symbol format:
   10             /       AIx   -- Auto-index variables (address range 001x)
   11             /       Caaaa -- Constants (non-unique)
   12             /       Daaaa -- Data (read/write variables)
   13             /       Kvvvv -- Program-wide unique constants
   14             /       Laaaa -- Labels for control flow targets
   15             /       Saaaa -- Subroutines
   16             /
   17             /   Where:
   18             /       aaaa is the definition address
   19             /       vvvv is the value of the constant
   20             /       x    is the last digit of the address 001x for auto-index variables
   21             /
   22             /   0412 locations used, 0312 code and 0100 data
   23             ////////////////////////////////////////////////////////////////////////////////
   24             
   25       0200  *0200
   26             
   27       0000  *0000
   28 00000 0000  D0000,  0000                / AND   D0000                           
   29             L0001,
   30 00001 5001  D0001,  5001                / JMP   L0001                           
   31 00002 0002  D0002,  0002                / AND   D0002                           
   32 00003 0003  D0003,  0003                / AND   D0003                           
   33 00004 0000  D0004,  0000                / AND   D0000                           
   34 00005 0000  D0005,  0000                / AND   D0000                           
   35 00006 7640      SZA CLA                 /                                       @@0006=7640
   36 00007 5534  C0007,  5534                / JMP I C0134                           
   37             L0010,
   38 00010 1115      TAD   C0115             /                                       @@0010=1115
   39 00011 3517      DCA I D0117             /                                       @@0011=3517
   40 00012 1115  AI2,    1115                / AUTO-INDEX REGISTER TAD   C0115                           
   41 00013 3520      DCA I D0120             /                                       @@0013=3520
   42 00014 3000      DCA   D0000             /                                       @@0014=3000
   43 00015 7001  AI5,    7001                / AUTO-INDEX REGISTER IAC                                   
   44 00016 1140      TAD   D0140             /                                       @@0016=1140
   45 00017 3140      DCA   D0140             /                                       @@0017=3140
   46 00020 1140  C0020,  1140                / TAD   D0140                           
   47 00021 7640      SZA CLA                 /                                       @@0021=7640
   48 00022 5027      JMP   L0027             /                                       @@0022=5027
   49 00023 5424      JMP I C0024             / long jump to L0316                    @@0023=5424
   50             C0024,
   51 00024 0316  C0024,  0316                / AND   D0116                           
   52             L0025,
   53 00025 1142      TAD   C0142             /                                       @@0025=1142
   54 00026 3141      DCA   D0141             /                                       @@0026=3141
   55             L0027,
   56 00027 7604      LAS                     /                                       @@0027=7604
   57 00030 7004      RAL                     /                                       @@0030=7004

      AUTOMATIC DISASSEMBLY OF MAINDEC-8E-D0HC-PB.bin BY D8TAPE           Page 2


   58 00031 7006      RTL                     /                                       @@0031=7006
   59 00032 7630      SZL CLA                 /                                       @@0032=7630
   60 00033 5057      JMP   L0057             /                                       @@0033=5057
   61             L0034,
   62 00034 1121      TAD   D0121             /                                       @@0034=1121
   63 00035 7104      CLL RAL                 /                                       @@0035=7104
   64 00036 7430      SZL                     /                                       @@0036=7430
   65 00037 1122      TAD   C0122             /                                       @@0037=1122
   66 00040 3121  C0040,  3121                / DCA   D0121                           
   67 00041 7100      CLL                     /                                       @@0041=7100
   68 00042 1121      TAD   D0121             /                                       @@0042=1121
   69 00043 1124      TAD   C0124             /                                       @@0043=1124
   70 00044 7630      SZL CLA                 /                                       @@0044=7630
   71 00045 5034      JMP   L0034             /                                       @@0045=5034
   72 00046 1121      TAD   D0121             /                                       @@0046=1121
   73 00047 1123      TAD   C0123             /                                       @@0047=1123
   74 00050 7620      SNL CLA                 /                                       @@0050=7620
   75 00051 5034      JMP   L0034             /                                       @@0051=5034
   76 00052 1121      TAD   D0121             /                                       @@0052=1121
   77 00053 3117      DCA   D0117             /                                       @@0053=3117
   78 00054 7040      CMA                     /                                       @@0054=7040
   79 00055 1117      TAD   D0117             /                                       @@0055=1117
   80 00056 3120      DCA   D0120             /                                       @@0056=3120
   81             L0057,
   82 00057 7604      LAS                     /                                       @@0057=7604
   83 00060 7006  C0060,  7006                / RTL                                   
   84 00061 7006      RTL                     /                                       @@0061=7006
   85 00062 7630      SZL CLA                 /                                       @@0062=7630
   86 00063 5104      JMP   L0104             /                                       @@0063=5104
   87             L0064,
   88 00064 1121      TAD   D0121             /                                       @@0064=1121
   89 00065 7104      CLL RAL                 /                                       @@0065=7104
   90 00066 7430      SZL                     /                                       @@0066=7430
   91 00067 1122      TAD   C0122             /                                       @@0067=1122
   92 00070 3121      DCA   D0121             /                                       @@0070=3121
   93 00071 7100      CLL                     /                                       @@0071=7100
   94 00072 1121      TAD   D0121             /                                       @@0072=1121
   95 00073 1124      TAD   C0124             /                                       @@0073=1124
   96 00074 7630      SZL CLA                 /                                       @@0074=7630
   97 00075 5064  C0075,  5064                / JMP   L0064                           
   98 00076 1121      TAD   D0121             /                                       @@0076=1121
   99 00077 1123      TAD   C0123             /                                       @@0077=1123
  100 00100 7620      SNL CLA                 /                                       @@0100=7620
  101 00101 5064      JMP   L0064             /                                       @@0101=5064
  102 00102 1121      TAD   D0121             /                                       @@0102=1121
  103 00103 3116      DCA   D0116             /                                       @@0103=3116
  104             L0104,
  105 00104 1125      TAD   C0125             /                                       @@0104=1125
  106 00105 3517      DCA I D0117             /                                       @@0105=3517
  107 00106 1126  C0106,  1126                / TAD   C0126                           
  108 00107 3520      DCA I D0120             /                                       @@0107=3520
  109 00110 6041      TSF                     / Skip if teleprinter flag is a 1.      @@0110=6041
  110 00111 6046      TLS                     / Load the TTO from the content of AC4  @@0111=6046
  111             L0112,
  112 00112 6041      TSF                     / Skip if teleprinter flag is a 1.      @@0112=6041
  113 00113 5112      JMP   L0112             /                                       @@0113=5112
  114 00114 5520      JMP I D0120             / long jump to L0000                    @@0114=5520

      AUTOMATIC DISASSEMBLY OF MAINDEC-8E-D0HC-PB.bin BY D8TAPE           Page 3


  115 00115 7402  C0115,  7402                / HLT                                   
  116 00116 0000  D0116,  0000                / AND   D0000                           
  117 00117 0000  D0117,  0000                / AND   D0000                           
  118 00120 0000  D0120,  0000                / AND   D0000                           
  119 00121 2525  D0121,  2525                / ISZ I C0125                           
  120 00122 0003  C0122,  0003                / AND   D0003                           
  121 00123 7400  C0123,  7400                / 7400                                  
  122 00124 0200  C0124,  0200                / AND   D0000                           
  123 00125 5516  C0125,  5516                / JMP I D0116                           
  124 00126 6001  C0126,  6001                / ION                                   
  125 00127 0260  C0127,  0260                / AND   C0060                           
  126 00130 0007  C0130,  0007                / AND   C0007                           
  127 00131 0000  D0131,  0000                / AND   D0000                           
  128 00132 0000  D0132,  0000                / AND   D0000                           
  129 00133 0000  D0133,  0000                / AND   D0000                           
  130 00134 0220          0220                /                                       @@0134=0220
  131 00135 0000  D0135,  0000                / AND   D0000                           
  132 00136 7571  C0136,  7571                / MQA SCA MQL NMI                       
  133 00137 0143  C0137,  0143                / AND   C0143                           
  134 00140 0000  D0140,  0000                / AND   D0000                           
  135 00141 0000  D0141,  0000                / AND   D0000                           
  136 00142 7761  C0142,  7761                / CLA MQA SCA MQL                       
  137 00143 0215  C0143,  0215                / AND   AI5                             
  138 00144 0212          0212                /                                       @@0144=0212
  139 00145 0212          0212                /                                       @@0145=0212
  140 00146 0306          0306                /                                       @@0146=0306
  141 00147 0240          0240                /                                       @@0147=0240
  142 00150 0000  D0150,  0000                / AND   D0000                           
  143 00151 0000  D0151,  0000                / AND   D0000                           
  144 00152 0000  D0152,  0000                / AND   D0000                           
  145 00153 0000  D0153,  0000                / AND   D0000                           
  146 00154 0240          0240                /                                       @@0154=0240
  147 00155 0324          0324                /                                       @@0155=0324
  148 00156 0240          0240                /                                       @@0156=0240
  149 00157 0000  D0157,  0000                / AND   D0000                           
  150 00160 0000  D0160,  0000                / AND   D0000                           
  151 00161 0000  D0161,  0000                / AND   D0000                           
  152 00162 0000  D0162,  0000                / AND   D0000                           
  153 00163 0215          0215                /                                       @@0163=0215
  154 00164 0212          0212                /                                       @@0164=0212
  155 00165 0377  C0165,  0377                / AND   C0177                           
  156 00166 0332          0332                /                                       @@0166=0332
  157 00167 0240          0240                /                                       @@0167=0240
  158 00170 0275          0275                /                                       @@0170=0275
  159 00171 0240          0240                /                                       @@0171=0240
  160 00172 0000  D0172,  0000                / AND   D0000                           
  161 00173 0000  D0173,  0000                / AND   D0000                           
  162 00174 0000  D0174,  0000                / AND   D0000                           
  163 00175 0000  D0175,  0000                / AND   D0000                           
  164 00176 0207          0207                /                                       @@0176=0207
  165             
  166       0200  *0200
  167             L0200,
  168 00200 5770  D0200,  5770                / JMP I C0370                           
  169 00201 7041      CIA                     /                                       @@0201=7041
  170 00202 3116      DCA   D0116             /                                       @@0202=3116
  171             L0203,

      AUTOMATIC DISASSEMBLY OF MAINDEC-8E-D0HC-PB.bin BY D8TAPE           Page 4


  172 00203 1115      TAD   C0115             /                                       @@0203=1115
  173 00204 3516      DCA I D0116             /                                       @@0204=3516
  174 00205 1116      TAD   D0116             /                                       @@0205=1116
  175 00206 7001      IAC                     /                                       @@0206=7001
  176 00207 3116      DCA   D0116             /                                       @@0207=3116
  177 00210 1116      TAD   D0116             /                                       @@0210=1116
  178 00211 1124      TAD   C0124             /                                       @@0211=1124
  179 00212 7640  C0212,  7640                / SZA CLA                               
  180 00213 5203      JMP   L0203             /                                       @@0213=5203
  181 00214 1367      TAD   C0367             /                                       @@0214=1367
  182 00215 3141  C0215,  3141                / DCA   D0141                           
  183 00216 3140      DCA   D0140             /                                       @@0216=3140
  184 00217 5027      JMP   L0027             /                                       @@0217=5027
  185 00220 1117      TAD   D0117             /                                       @@0220=1117
  186 00221 4341      JMS   S0341             /                                       @@0221=4341
  187 00222 3150      DCA   D0150             /                                       @@0222=3150
  188 00223 1131      TAD   D0131             /                                       @@0223=1131
  189 00224 0130      AND   C0130             /                                       @@0224=0130
  190 00225 1127      TAD   C0127             /                                       @@0225=1127
  191 00226 3151      DCA   D0151             /                                       @@0226=3151
  192 00227 1132      TAD   D0132             /                                       @@0227=1132
  193 00230 0130      AND   C0130             /                                       @@0230=0130
  194 00231 1127      TAD   C0127             /                                       @@0231=1127
  195 00232 3152      DCA   D0152             /                                       @@0232=3152
  196 00233 1133      TAD   D0133             /                                       @@0233=1133
  197 00234 0130      AND   C0130             /                                       @@0234=0130
  198 00235 1127      TAD   C0127             /                                       @@0235=1127
  199 00236 3153      DCA   D0153             /                                       @@0236=3153
  200 00237 1116      TAD   D0116             /                                       @@0237=1116
  201 00240 4341      JMS   S0341             /                                       @@0240=4341
  202 00241 3157      DCA   D0157             /                                       @@0241=3157
  203 00242 1131      TAD   D0131             /                                       @@0242=1131
  204 00243 0130      AND   C0130             /                                       @@0243=0130
  205 00244 1127      TAD   C0127             /                                       @@0244=1127
  206 00245 3160      DCA   D0160             /                                       @@0245=3160
  207 00246 1132      TAD   D0132             /                                       @@0246=1132
  208 00247 0130      AND   C0130             /                                       @@0247=0130
  209 00250 1127      TAD   C0127             /                                       @@0250=1127
  210 00251 3161      DCA   D0161             /                                       @@0251=3161
  211 00252 1133      TAD   D0133             /                                       @@0252=1133
  212 00253 0130      AND   C0130             /                                       @@0253=0130
  213 00254 1127      TAD   C0127             /                                       @@0254=1127
  214 00255 3162      DCA   D0162             /                                       @@0255=3162
  215 00256 1000      TAD   D0000             /                                       @@0256=1000
  216 00257 4341      JMS   S0341             /                                       @@0257=4341
  217 00260 3172      DCA   D0172             /                                       @@0260=3172
  218 00261 1131      TAD   D0131             /                                       @@0261=1131
  219 00262 0130      AND   C0130             /                                       @@0262=0130
  220 00263 1127      TAD   C0127             /                                       @@0263=1127
  221 00264 3173      DCA   D0173             /                                       @@0264=3173
  222 00265 1132      TAD   D0132             /                                       @@0265=1132
  223 00266 0130      AND   C0130             /                                       @@0266=0130
  224 00267 1127      TAD   C0127             /                                       @@0267=1127
  225 00270 3174      DCA   D0174             /                                       @@0270=3174
  226 00271 1133      TAD   D0133             /                                       @@0271=1133
  227 00272 0130      AND   C0130             /                                       @@0272=0130
  228 00273 1127      TAD   C0127             /                                       @@0273=1127

      AUTOMATIC DISASSEMBLY OF MAINDEC-8E-D0HC-PB.bin BY D8TAPE           Page 5


  229 00274 3175      DCA   D0175             /                                       @@0274=3175
  230 00275 1137      TAD   C0137             /                                       @@0275=1137
  231 00276 3135      DCA   D0135             /                                       @@0276=3135
  232             L0277,
  233 00277 1535      TAD I D0135             /                                       @@0277=1535
  234 00300 6046      TLS                     / Load the TTO from the content of AC4  @@0300=6046
  235             L0301,
  236 00301 6041      TSF                     / Skip if teleprinter flag is a 1.      @@0301=6041
  237 00302 5301      JMP   L0301             /                                       @@0302=5301
  238 00303 7201  C0303,  7201                / CLA IAC                               
  239 00304 1135      TAD   D0135             /                                       @@0304=1135
  240 00305 3135      DCA   D0135             /                                       @@0305=3135
  241 00306 1535      TAD I D0135             /                                       @@0306=1535
  242 00307 1136      TAD   C0136             /                                       @@0307=1136
  243 00310 7640  C0310,  7640                / SZA CLA                               
  244 00311 5277      JMP   L0277             /                                       @@0311=5277
  245 00312 7604      LAS                     /                                       @@0312=7604
  246 00313 7700      SMA CLA                 /                                       @@0313=7700
  247 00314 7402      HLT                     /                                       @@0314=7402
  248 00315 5010      JMP   L0010             /                                       @@0315=5010
  249             L0316,
  250 00316 1141      TAD   D0141             /                                       @@0316=1141
  251 00317 7001      IAC                     /                                       @@0317=7001
  252 00320 3141      DCA   D0141             /                                       @@0320=3141
  253 00321 1141      TAD   D0141             /                                       @@0321=1141
  254 00322 7640      SZA CLA                 /                                       @@0322=7640
  255 00323 5027      JMP   L0027             /                                       @@0323=5027
  256 00324 1361      TAD   C0361             /                                       @@0324=1361
  257 00325 3135      DCA   D0135             /                                       @@0325=3135
  258             L0326,
  259 00326 1135      TAD   D0135             /                                       @@0326=1135
  260 00327 7001      IAC                     /                                       @@0327=7001
  261 00330 3135      DCA   D0135             /                                       @@0330=3135
  262 00331 1535      TAD I D0135             /                                       @@0331=1535
  263 00332 6046      TLS                     / Load the TTO from the content of AC4  @@0332=6046
  264             L0333,
  265 00333 6041      TSF                     / Skip if teleprinter flag is a 1.      @@0333=6041
  266 00334 5333      JMP   L0333             /                                       @@0334=5333
  267 00335 1366      TAD   C0366             /                                       @@0335=1366
  268 00336 7640      SZA CLA                 /                                       @@0336=7640
  269 00337 5326      JMP   L0326             /                                       @@0337=5326
  270 00340 5025      JMP   L0025             /                                       @@0340=5025
  271             
  272             ////////////////////////////////////////////////////////////////////////////////
  273             /
  274             /   SUBROUTINE:  S0341
  275             /
  276             /   Called from:
  277             /   0221 0240 0257 
  278             /   Total 0003 (3) calls
  279             ////////////////////////////////////////////////////////////////////////////////
  280             S0341,
  281 00341 0000      0                       / return area
  282 00342 3133      DCA   D0133             /                                       @@0342=3133
  283 00343 1133      TAD   D0133             /                                       @@0343=1133
  284 00344 7012      RTR                     /                                       @@0344=7012
  285 00345 7010      RAR                     /                                       @@0345=7010

      AUTOMATIC DISASSEMBLY OF MAINDEC-8E-D0HC-PB.bin BY D8TAPE           Page 6


  286 00346 3132      DCA   D0132             /                                       @@0346=3132
  287 00347 1132      TAD   D0132             /                                       @@0347=1132
  288 00350 7012      RTR                     /                                       @@0350=7012
  289 00351 7010      RAR                     /                                       @@0351=7010
  290 00352 3131      DCA   D0131             /                                       @@0352=3131
  291 00353 1131      TAD   D0131             /                                       @@0353=1131
  292 00354 7012      RTR                     /                                       @@0354=7012
  293 00355 7010      RAR                     /                                       @@0355=7010
  294 00356 0130      AND   C0130             /                                       @@0356=0130
  295 00357 1127      TAD   C0127             /                                       @@0357=1127
  296 00360 5741      JMP I S0341             / return                                @@0360=5741
  297 00361 0361  C0361,  0361                / AND   C0361                           
  298 00362 0215      AND   C0215             /                                       @@0362=0215
  299 00363 0212      AND   C0212             /                                       @@0363=0212
  300 00364 0310      AND   C0310             /                                       @@0364=0310
  301 00365 0303      AND   C0303             /                                       @@0365=0303
  302 00366 7475  C0366,  7475                / SCA MQL ASR +                         
  303 00367 7763  C0367,  7763                / CLA MQA SCA MQL SCL +                 
  304             C0370,
  305 00370 0400  C0370,  0400                / AND I D0000                           
  306             
  307       0400  *0400
  308             L0400,
  309 00400 3000      DCA   D0000             /                                       @@0400=3000
  310 00401 1215      TAD   C0415             /                                       @@0401=1215
  311 00402 3001      DCA   L0001             /                                       @@0402=3001
  312 00403 1216      TAD   C0416             /                                       @@0403=1216
  313 00404 3002      DCA   D0002             /                                       @@0404=3002
  314 00405 1217      TAD   C0417             /                                       @@0405=1217
  315 00406 3003      DCA   D0003             /                                       @@0406=3003
  316 00407 1220      TAD   C0420             /                                       @@0407=1220
  317 00410 3621      DCA I C0421             /                                       @@0410=3621
  318 00411 7300      CLA CLL                 / AC = 0000                             @@0411=7300
  319 00412 3004      DCA   D0004             /                                       @@0412=3004
  320 00413 3005      DCA   D0005             /                                       @@0413=3005
  321 00414 5621      JMP I C0421             / long jump to L0200                    @@0414=5621
  322 00415 1116  C0415,  1116                / TAD   D0116                           
  323 00416 7041  C0416,  7041                / CIA                                   
  324 00417 1000  C0417,  1000                / TAD   D0000                           
  325 00420 1123  C0420,  1123                / TAD   C0123                           
  326             C0421,
  327 00421 0200  C0421,  0200                / AND   L0400                           
  328             
  329       7751  *7751                       / align to RIMLDR location
  330 07751 0200      0200                    / addr of program start
  331 07752 6032      KCC                     / first instr in std RIMLDR
  332 07753 1352      TAD .-1                 / get KCC instr
  333 07754 3356      DCA .+2                 / restore into RIMLDR
  334 07755 5751      JMP I .-4               / start program
  335 07756 5353      JMP .-3                 / overlay first word of RIMLDR
  336             

      No detected errors

      AUTOMATIC DISASSEMBLY OF MAINDEC-8E-D0HC-PB.bin BY D8TAPE           Page 7
                                                                    Symbol Table

    1  AI2    00012   D0161  00161 
    2  AI5    00015   D0162  00162 
    3  C0007  00007   D0172  00172 
    4  C0020  00020   D0173  00173 
    5  C0024  00024   D0174  00174 
    6  C0040  00040   D0175  00175 
    7  C0060  00060   D0200  00200 
    8  C0075  00075   L0001  00001 
    9  C0106  00106   L0010  00010 
   10  C0115  00115   L0025  00025 
   11  C0122  00122   L0027  00027 
   12  C0123  00123   L0034  00034 
   13  C0124  00124   L0057  00057 
   14  C0125  00125   L0064  00064 
   15  C0126  00126   L0104  00104 
   16  C0127  00127   L0112  00112 
   17  C0130  00130   L0200  00200 
   18  C0136  00136   L0203  00203 
   19  C0137  00137   L0277  00277 
   20  C0142  00142   L0301  00301 
   21  C0143  00143   L0316  00316 
   22  C0165  00165   L0326  00326 
   23  C0212  00212   L0333  00333 
   24  C0215  00215   L0400  00400 
   25  C0303  00303   S0341  00341 
   26  C0310  00310 
   27  C0361  00361 
   28  C0366  00366 
   29  C0367  00367 
   30  C0370  00370 
   31  C0415  00415 
   32  C0416  00416 
   33  C0417  00417 
   34  C0420  00420 
   35  C0421  00421 
   36  D0000  00000 
   37  D0001  00001 
   38  D0002  00002 
   39  D0003  00003 
   40  D0004  00004 
   41  D0005  00005 
   42  D0116  00116 
   43  D0117  00117 
   44  D0120  00120 
   45  D0121  00121 
   46  D0131  00131 
   47  D0132  00132 
   48  D0133  00133 
   49  D0135  00135 
   50  D0140  00140 
   51  D0141  00141 
   52  D0150  00150 
   53  D0151  00151 
   54  D0152  00152 
   55  D0153  00153 
   56  D0157  00157 
   57  D0160  00160 

      AUTOMATIC DISASSEMBLY OF MAINDEC-8E-D0HC-PB.bin BY D8TAPE           Page 8
                                                                 Cross Reference

    1 A     40  AI2     
    2 A     43  AI5     
    3 A     36  C0007   
    4 A     46  C0020   
    5 A     51  C0024        49
    6 A     66  C0040   
    7 A     83  C0060   
    8 A     97  C0075   
    9 A    107  C0106   
   10 A    115  C0115        38    172
   11 A    120  C0122        65     91
   12 A    121  C0123        73     99
   13 A    122  C0124        69     95    178
   14 A    123  C0125       105
   15 A    124  C0126   
   16 A    125  C0127       190    194    198    205    209    213    220    224
   17                       228    295
   18 A    126  C0130       189    193    197    204    208    212    219    223
   19                       227    294
   20 A    132  C0136       242
   21 A    133  C0137       230
   22 A    136  C0142        53
   23 A    137  C0143   
   24 A    155  C0165   
   25 A    179  C0212       299
   26 A    182  C0215       298
   27 A    238  C0303       301
   28 A    243  C0310       300
   29 A    297  C0361       256
   30 A    302  C0366       267
   31 A    303  C0367       181
   32 A    305  C0370   
   33 A    322  C0415       310
   34 A    323  C0416       312
   35 A    324  C0417       314
   36 A    325  C0420       316
   37 A    327  C0421       317    321
   38 A     28  D0000        42    215    309
   39 A     30  D0001   
   40 A     31  D0002       313
   41 A     32  D0003       315
   42 A     33  D0004       319
   43 A     34  D0005       320
   44 A    116  D0116       103    170    173    174    176    177    200
   45 A    117  D0117        39     77     79    106    185
   46 A    118  D0120        41     80    108    114
   47 A    119  D0121        62     68     72     76     88     92     94     98
   48                       102
   49 A    127  D0131       188    203    218    290    291
   50 A    128  D0132       192    207    222    286    287
   51 A    129  D0133       196    211    226    282    283
   52 A    131  D0135       231    233    239    240    241    257    259    261
   53                       262
   54 A    134  D0140        44     45    183
   55 A    135  D0141        54    250    252    253
   56 A    142  D0150       187
   57 A    143  D0151       191

      AUTOMATIC DISASSEMBLY OF MAINDEC-8E-D0HC-PB.bin BY D8TAPE           Page 9
                                                                 Cross Reference

   58 A    144  D0152       195
   59 A    145  D0153       199
   60 A    149  D0157       202
   61 A    150  D0160       206
   62 A    151  D0161       210
   63 A    152  D0162       214
   64 A    160  D0172       217
   65 A    161  D0173       221
   66 A    162  D0174       225
   67 A    163  D0175       229
   68 A    168  D0200   
   69 A     29  L0001       311
   70 A     37  L0010       248
   71 A     52  L0025       270
   72 A     55  L0027        48    184    255
   73 A     61  L0034        71     75
   74 A     81  L0057        60
   75 A     87  L0064       101
   76 A    104  L0104        86
   77 A    111  L0112       113
   78 A    167  L0200   
   79 A    171  L0203       180
   80 A    232  L0277       244
   81 A    235  L0301       237
   82 A    249  L0316   
   83 A    258  L0326       269
   84 A    264  L0333       266
   85 A    308  L0400   
   86 A    280  S0341       186    201    216    296

      AUTOMATIC DISASSEMBLY OF MAINDEC-8E-D0HC-PB.bin BY D8TAPE          Page 10
                                                                      Memory Map

    1 00000/ XXXXXXXX XXXXXXXX XXXXXXXX XXXXXXXX XXXXXXXX XXXXXXXX XXXXXXXX XXXXXXXX
    2 00100/ XXXXXXXX XXXXXXXX XXXXXXXX XXXXXXXX XXXXXXXX XXXXXXXX XXXXXXXX XXXXXXX.
    3
    4 00200/ XXXXXXXX XXXXXXXX XXXXXXXX XXXXXXXX XXXXXXXX XXXXXXXX XXXXXXXX XXXXXXXX
    5 00300/ XXXXXXXX XXXXXXXX XXXXXXXX XXXXXXXX XXXXXXXX XXXXXXXX XXXXXXXX X.......
    6
    7 00400/ XXXXXXXX XXXXXXXX XX...... ........ ........ ........ ........ ........
    8 00500/ ........ ........ ........ ........ ........ ........ ........ ........
    9
   10 00600/ ........ ........ ........ ........ ........ ........ ........ ........
   11 00700/ ........ ........ ........ ........ ........ ........ ........ ........
   12
   13 01000/ ........ ........ ........ ........ ........ ........ ........ ........
   14 01100/ ........ ........ ........ ........ ........ ........ ........ ........
   15
   16 01200/ ........ ........ ........ ........ ........ ........ ........ ........
   17 01300/ ........ ........ ........ ........ ........ ........ ........ ........
   18
   19 01400/ ........ ........ ........ ........ ........ ........ ........ ........
   20 01500/ ........ ........ ........ ........ ........ ........ ........ ........
   21
   22 01600/ ........ ........ ........ ........ ........ ........ ........ ........
   23 01700/ ........ ........ ........ ........ ........ ........ ........ ........
   24
   25 02000/ ........ ........ ........ ........ ........ ........ ........ ........
   26 02100/ ........ ........ ........ ........ ........ ........ ........ ........
   27
   28 02200/ ........ ........ ........ ........ ........ ........ ........ ........
   29 02300/ ........ ........ ........ ........ ........ ........ ........ ........
   30
   31 02400/ ........ ........ ........ ........ ........ ........ ........ ........
   32 02500/ ........ ........ ........ ........ ........ ........ ........ ........
   33
   34 02600/ ........ ........ ........ ........ ........ ........ ........ ........
   35 02700/ ........ ........ ........ ........ ........ ........ ........ ........
   36
   37 03000/ ........ ........ ........ ........ ........ ........ ........ ........
   38 03100/ ........ ........ ........ ........ ........ ........ ........ ........
   39
   40 03200/ ........ ........ ........ ........ ........ ........ ........ ........
   41 03300/ ........ ........ ........ ........ ........ ........ ........ ........
   42
   43 03400/ ........ ........ ........ ........ ........ ........ ........ ........
   44 03500/ ........ ........ ........ ........ ........ ........ ........ ........
   45
   46 03600/ ........ ........ ........ ........ ........ ........ ........ ........
   47 03700/ ........ ........ ........ ........ ........ ........ ........ ........
   48

      AUTOMATIC DISASSEMBLY OF MAINDEC-8E-D0HC-PB.bin BY D8TAPE          Page 11
                                                                      Memory Map

   49 04000/ ........ ........ ........ ........ ........ ........ ........ ........
   50 04100/ ........ ........ ........ ........ ........ ........ ........ ........
   51
   52 04200/ ........ ........ ........ ........ ........ ........ ........ ........
   53 04300/ ........ ........ ........ ........ ........ ........ ........ ........
   54
   55 04400/ ........ ........ ........ ........ ........ ........ ........ ........
   56 04500/ ........ ........ ........ ........ ........ ........ ........ ........
   57
   58 04600/ ........ ........ ........ ........ ........ ........ ........ ........
   59 04700/ ........ ........ ........ ........ ........ ........ ........ ........
   60
   61 05000/ ........ ........ ........ ........ ........ ........ ........ ........
   62 05100/ ........ ........ ........ ........ ........ ........ ........ ........
   63
   64 05200/ ........ ........ ........ ........ ........ ........ ........ ........
   65 05300/ ........ ........ ........ ........ ........ ........ ........ ........
   66
   67 05400/ ........ ........ ........ ........ ........ ........ ........ ........
   68 05500/ ........ ........ ........ ........ ........ ........ ........ ........
   69
   70 05600/ ........ ........ ........ ........ ........ ........ ........ ........
   71 05700/ ........ ........ ........ ........ ........ ........ ........ ........
   72
   73 06000/ ........ ........ ........ ........ ........ ........ ........ ........
   74 06100/ ........ ........ ........ ........ ........ ........ ........ ........
   75
   76 06200/ ........ ........ ........ ........ ........ ........ ........ ........
   77 06300/ ........ ........ ........ ........ ........ ........ ........ ........
   78
   79 06400/ ........ ........ ........ ........ ........ ........ ........ ........
   80 06500/ ........ ........ ........ ........ ........ ........ ........ ........
   81
   82 06600/ ........ ........ ........ ........ ........ ........ ........ ........
   83 06700/ ........ ........ ........ ........ ........ ........ ........ ........
   84
   85 07000/ ........ ........ ........ ........ ........ ........ ........ ........
   86 07100/ ........ ........ ........ ........ ........ ........ ........ ........
   87
   88 07200/ ........ ........ ........ ........ ........ ........ ........ ........
   89 07300/ ........ ........ ........ ........ ........ ........ ........ ........
   90
   91 07400/ ........ ........ ........ ........ ........ ........ ........ ........
   92 07500/ ........ ........ ........ ........ ........ ........ ........ ........
   93
   94 07600/ ........ ........ ........ ........ ........ ........ ........ ........
   95 07700/ ........ ........ ........ ........ ........ .XXXXXX. ........ ........
   96
