
      AUTOMATIC DISASSEMBLY OF MAINDEC-8E-D0AB-PB.bin BY D8TAPE           Page 1


    1             TITLE "AUTOMATIC DISASSEMBLY OF MAINDEC-8E-D0AB-PB.bin BY D8TAPE"
    2             ////////////////////////////////////////////////////////////////////////////////
    3             /
    4             /   Automatic Disassembly of MAINDEC-8E-D0AB-PB.bin
    5             /   Generated 2015 10 26 22:15:08
    6             /   Generated by d8tape version 0.347
    7             /   Visit http://www.pdp12.org/pdp8/software/index.html for updates
    8             /
    9             /   Symbol format:
   10             /       AIx   -- Auto-index variables (address range 001x)
   11             /       Caaaa -- Constants (non-unique)
   12             /       Daaaa -- Data (read/write variables)
   13             /       Kvvvv -- Program-wide unique constants
   14             /       Laaaa -- Labels for control flow targets
   15             /       Saaaa -- Subroutines
   16             /
   17             /   Where:
   18             /       aaaa is the definition address
   19             /       vvvv is the value of the constant
   20             /       x    is the last digit of the address 001x for auto-index variables
   21             /
   22             /   5265 locations used, 5151 code and 0114 data
   23             ////////////////////////////////////////////////////////////////////////////////
   24             
   25       0200  *0200
   26             
   27       0000  *0000
   28 00000 0000  D0000,  0000                / AND   D0000                           
   29             L0001,
   30 00001 5001  C0001,  5001                / JMP   L0001                           
   31 00002 0002  C0002,  0002                / AND   C0002                           
   32 00003 0003  C0003,  0003                / AND   C0003                           
   33 00004 0000  C0004,  0000                / AND   D0000                           
   34 00005 0000      AND   D0000             /                                       @@0005=0000
   35 00006 7402  C0006,  7402                / HLT                                   
   36 00007 7000  C0007,  7000                / NOP                                   
   37 00010 0000  AI0,    0000                / AUTO-INDEX REGISTER AND   D0000                           
   38             
   39       0020  *0020
   40 00020 0000  C0020,  0000                / AND   D0000                           
   41 00021 0001  C0021,  0001                / AND   L0001                           
   42 00022 0002  C0022,  0002                / AND   C0002                           
   43 00023 0003  C0023,  0003                / AND   C0003                           
   44 00024 0004  C0024,  0004                / AND   C0004                           
   45             L0025,
   46 00025 0006  C0025,  0006                / AND   C0006                           
   47 00026 0010  C0026,  0010                / AND   AI0                             
   48 00027 0014  C0027,  0014                / AND   AI4                             
   49 00030 0020  C0030,  0020                / AND   C0020                           
   50 00031 0030  C0031,  0030                / AND   C0030                           
   51 00032 0040  C0032,  0040                / AND   C0040                           
   52 00033 0060  C0033,  0060                / AND   C0060                           
   53 00034 0100  C0034,  0100                / AND   C0100                           
   54 00035 0140  C0035,  0140                / AND   C0140                           
   55 00036 0200  C0036,  0200                / AND   D0000                           
   56 00037 0300  C0037,  0300                / AND   C0100                           
   57 00040 0400  C0040,  0400                / AND I D0000                           

      AUTOMATIC DISASSEMBLY OF MAINDEC-8E-D0AB-PB.bin BY D8TAPE           Page 2


   58 00041 0600  C0041,  0600                / AND I D0000                           
   59 00042 1000  C0042,  1000                / TAD   D0000                           
   60 00043 1234  C0043,  1234                / TAD   C0034                           
   61 00044 1400  C0044,  1400                / TAD I D0000                           
   62 00045 2000  C0045,  2000                / ISZ   D0000                           
   63 00046 3000  C0046,  3000                / DCA   D0000                           
   64 00047 3312  C0047,  3312                / DCA   D0112                           
   65 00050 4000  C0050,  4000                / JMS   D0000                           
   66 00051 7717  C0051,  7717                / CLA MQA LSR +                         
   67             L0052,
   68 00052 7776  C0052,  7776                / SPA SNA SZL CLA OSR HLT               
   69 00053 7775  C0053,  7775                / CLA MQA SCA MQL ASR +                 
   70 00054 7773  C0054,  7773                / CLA MQA SCA MQL SHL +                 
   71 00055 7767  C0055,  7767                / CLA MQA SCA MQL DVI +                 
   72 00056 7757  C0056,  7757                / CLA MQA SCA LSR +                     
   73 00057 7737  C0057,  7737                / CLA MQA MQL LSR +                     
   74 00060 7177  C0060,  7177                / CLL CMA CML IAC RTR RTL               
   75 00061 7677  C0061,  7677                / CLA SCA MQL LSR +                     
   76 00062 7577  C0062,  7577                / MQA SCA MQL LSR +                     
   77 00063 7377  C0063,  7377                / CLA CLL CMA CML IAC RTR RTL           
   78 00064 6777  C0064,  6777                / 6777                                  
   79 00065 5777  C0065,  5777                / JMP I C0177                           
   80 00066 3777  C0066,  3777                / DCA I C0177                           
   81 00067 7777  C0067,  7777                / CLA MQA SCA MQL LSR +                 
   82 00070 5252  C0070,  5252                / JMP   L0052                           
   83 00071 2525  C0071,  2525                / ISZ I C0125                           
   84 00072 6000  C0072,  6000                / 6000                                  
   85 00073 7000  C0073,  7000                / NOP                                   
   86 00074 7400  C0074,  7400                / 7400                                  
   87 00075 7600  C0075,  7600                / 7600                                  
   88 00076 7740  C0076,  7740                / SMA SZA CLA                           
   89 00077 7760  C0077,  7760                / SMA SZA SNL CLA                       
   90 00100 7770  C0100,  7770                / SPA SNA SZL CLA                       
   91 00101 7774  C0101,  7774                / SPA SNA SZL CLA OSR                   
   92 00102 0007  C0102,  0007                / AND   C0007                           
   93 00103 0067      AND   C0067             /                                       @@0103=0067
   94 00104 0017  C0104,  0017                / AND   AI7                             
   95 00105 0037  C0105,  0037                / AND   C0037                           
   96 00106 0077  C0106,  0077                / AND   C0077                           
   97 00107 0177      AND   C0177             /                                       @@0107=0177
   98 00110 0377  C0110,  0377                / AND   C0177                           
   99 00111 0777  C0111,  0777                / AND I C0177                           
  100 00112 1777  D0112,  1777                / TAD I C0177                           
  101 00113 7700  C0113,  7700                / SMA CLA                               
  102 00114 5225  C0114,  5225                / JMP   L0025                           
  103 00115 2552  C0115,  2552                / ISZ I C0152                           
  104 00116 0770  C0116,  0770                / AND I C0170                           
  105 00117 7007  C0117,  7007                / IAC RTL                               
  106 00120 0256  C0120,  0256                / AND   C0007      changed from 0207/BELL to 0256/period
  107 00121 5140  D0121,  5140                / JMP   C0140                           
  108 00122 5140  C0122,  5140                / JMP   C0140                           
  109             
  110       0144  *0144
  111             L0144,
  112 00144 1067      TAD   C0067             /                                       @@0144=1067
  113 00145 7200      CLA                     /                                       @@0145=7200
  114 00146 7402      HLT                     /                                       @@0146=7402

      AUTOMATIC DISASSEMBLY OF MAINDEC-8E-D0AB-PB.bin BY D8TAPE           Page 3


  115             L0147,
  116 00147 7410      SKP                     /                                       @@0147=7410
  117 00150 7402      HLT                     /                                       @@0150=7402
  118 00151 7200      CLA                     /                                       @@0151=7200
  119 00152 7440  C0152,  7440                / SZA                                   
  120 00153 7402      HLT                     /                                       @@0153=7402
  121 00154 7450      SNA                     /                                       @@0154=7450
  122 00155 7410      SKP                     /                                       @@0155=7410
  123 00156 7402      HLT                     /                                       @@0156=7402
  124 00157 7200      CLA                     /                                       @@0157=7200
  125 00160 1050      TAD   C0050             /                                       @@0160=1050
  126 00161 7440      SZA                     /                                       @@0161=7440
  127 00162 7410      SKP                     /                                       @@0162=7410
  128 00163 7402      HLT                     /                                       @@0163=7402
  129 00164 7450      SNA                     /                                       @@0164=7450
  130 00165 7402      HLT                     /                                       @@0165=7402
  131 00166 7200      CLA                     /                                       @@0166=7200
  132 00167 1045      TAD   C0045             /                                       @@0167=1045
  133 00170 7440  C0170,  7440                / SZA                                   
  134 00171 7410      SKP                     /                                       @@0171=7410
  135 00172 7402      HLT                     /                                       @@0172=7402
  136 00173 7450      SNA                     /                                       @@0173=7450
  137 00174 7402      HLT                     /                                       @@0174=7402
  138 00175 7000      NOP                     /                                       @@0175=7000
  139 00176 7000      NOP                     /                                       @@0176=7000
  140 00177 7410  C0177,  7410                / SKP                                   
  141             
  142       0200  *0200
  143 00200 5144      JMP   L0144             /                                       @@0200=5144
  144 00201 7200      CLA                     /                                       @@0201=7200
  145 00202 1042      TAD   C0042             /                                       @@0202=1042
  146 00203 7440      SZA                     /                                       @@0203=7440
  147 00204 7410      SKP                     /                                       @@0204=7410
  148 00205 7402      HLT                     /                                       @@0205=7402
  149 00206 7450      SNA                     /                                       @@0206=7450
  150 00207 7402      HLT                     /                                       @@0207=7402
  151 00210 7200      CLA                     /                                       @@0210=7200
  152 00211 1040      TAD   C0040             /                                       @@0211=1040
  153 00212 7440      SZA                     /                                       @@0212=7440
  154 00213 7410      SKP                     /                                       @@0213=7410
  155 00214 7402      HLT                     /                                       @@0214=7402
  156 00215 7450      SNA                     /                                       @@0215=7450
  157 00216 7402      HLT                     /                                       @@0216=7402
  158 00217 7200      CLA                     /                                       @@0217=7200
  159 00220 1036      TAD   C0036             /                                       @@0220=1036
  160 00221 7440      SZA                     /                                       @@0221=7440
  161 00222 7410      SKP                     /                                       @@0222=7410
  162 00223 7402      HLT                     /                                       @@0223=7402
  163 00224 7450      SNA                     /                                       @@0224=7450
  164 00225 7402      HLT                     /                                       @@0225=7402
  165 00226 7200      CLA                     /                                       @@0226=7200
  166 00227 1034      TAD   C0034             /                                       @@0227=1034
  167 00230 7440      SZA                     /                                       @@0230=7440
  168 00231 7410      SKP                     /                                       @@0231=7410
  169 00232 7402      HLT                     /                                       @@0232=7402
  170 00233 7450      SNA                     /                                       @@0233=7450
  171 00234 7402      HLT                     /                                       @@0234=7402

      AUTOMATIC DISASSEMBLY OF MAINDEC-8E-D0AB-PB.bin BY D8TAPE           Page 4


  172 00235 7200      CLA                     /                                       @@0235=7200
  173 00236 1032      TAD   C0032             /                                       @@0236=1032
  174 00237 7440      SZA                     /                                       @@0237=7440
  175 00240 7410      SKP                     /                                       @@0240=7410
  176 00241 7402      HLT                     /                                       @@0241=7402
  177 00242 7450      SNA                     /                                       @@0242=7450
  178 00243 7402      HLT                     /                                       @@0243=7402
  179 00244 7200      CLA                     /                                       @@0244=7200
  180 00245 1030      TAD   C0030             /                                       @@0245=1030
  181 00246 7440      SZA                     /                                       @@0246=7440
  182 00247 7410      SKP                     /                                       @@0247=7410
  183 00250 7402      HLT                     /                                       @@0250=7402
  184 00251 7450      SNA                     /                                       @@0251=7450
  185 00252 7402      HLT                     /                                       @@0252=7402
  186 00253 7200      CLA                     /                                       @@0253=7200
  187 00254 1026      TAD   C0026             /                                       @@0254=1026
  188 00255 7440      SZA                     /                                       @@0255=7440
  189 00256 7410      SKP                     /                                       @@0256=7410
  190 00257 7402      HLT                     /                                       @@0257=7402
  191 00260 7450      SNA                     /                                       @@0260=7450
  192 00261 7402      HLT                     /                                       @@0261=7402
  193 00262 7200      CLA                     /                                       @@0262=7200
  194 00263 1024      TAD   C0024             /                                       @@0263=1024
  195 00264 7440      SZA                     /                                       @@0264=7440
  196 00265 7410      SKP                     /                                       @@0265=7410
  197 00266 7402      HLT                     /                                       @@0266=7402
  198 00267 7450      SNA                     /                                       @@0267=7450
  199 00270 7402      HLT                     /                                       @@0270=7402
  200 00271 7200      CLA                     /                                       @@0271=7200
  201 00272 1022      TAD   C0022             /                                       @@0272=1022
  202 00273 7440      SZA                     /                                       @@0273=7440
  203 00274 7410      SKP                     /                                       @@0274=7410
  204 00275 7402      HLT                     /                                       @@0275=7402
  205 00276 7450      SNA                     /                                       @@0276=7450
  206 00277 7402      HLT                     /                                       @@0277=7402
  207 00300 7200      CLA                     /                                       @@0300=7200
  208 00301 1021      TAD   C0021             /                                       @@0301=1021
  209 00302 7440      SZA                     /                                       @@0302=7440
  210 00303 7410      SKP                     /                                       @@0303=7410
  211 00304 7402      HLT                     /                                       @@0304=7402
  212 00305 7450      SNA                     /                                       @@0305=7450
  213 00306 7402      HLT                     /                                       @@0306=7402
  214 00307 7200      CLA                     /                                       @@0307=7200
  215 00310 1066      TAD   C0066             /                                       @@0310=1066
  216 00311 7510      SPA                     /                                       @@0311=7510
  217 00312 7402      HLT                     /                                       @@0312=7402
  218 00313 7200      CLA                     /                                       @@0313=7200
  219 00314 1050      TAD   C0050             /                                       @@0314=1050
  220 00315 7510      SPA                     /                                       @@0315=7510
  221 00316 7410      SKP                     /                                       @@0316=7410
  222 00317 7402      HLT                     /                                       @@0317=7402
  223 00320 7200      CLA                     /                                       @@0320=7200
  224 00321 1066      TAD   C0066             /                                       @@0321=1066
  225 00322 7500      SMA                     /                                       @@0322=7500
  226 00323 7410      SKP                     /                                       @@0323=7410
  227 00324 7402      HLT                     /                                       @@0324=7402
  228 00325 7200      CLA                     /                                       @@0325=7200

      AUTOMATIC DISASSEMBLY OF MAINDEC-8E-D0AB-PB.bin BY D8TAPE           Page 5


  229 00326 1050      TAD   C0050             /                                       @@0326=1050
  230 00327 7500      SMA                     /                                       @@0327=7500
  231 00330 7402      HLT                     /                                       @@0330=7402
  232 00331 7200      CLA                     /                                       @@0331=7200
  233 00332 1067      TAD   C0067             /                                       @@0332=1067
  234 00333 7040      CMA                     /                                       @@0333=7040
  235 00334 7440      SZA                     /                                       @@0334=7440
  236 00335 7402      HLT                     /                                       @@0335=7402
  237 00336 7200      CLA                     /                                       @@0336=7200
  238 00337 1071      TAD   C0071             /                                       @@0337=1071
  239 00340 7040      CMA                     /                                       @@0340=7040
  240 00341 7450      SNA                     /                                       @@0341=7450
  241 00342 7402      HLT                     /                                       @@0342=7402
  242 00343 1071      TAD   C0071             /                                       @@0343=1071
  243 00344 7040      CMA                     /                                       @@0344=7040
  244 00345 7440      SZA                     /                                       @@0345=7440
  245 00346 7402      HLT                     /                                       @@0346=7402
  246 00347 7200      CLA                     /                                       @@0347=7200
  247 00350 1070      TAD   C0070             /                                       @@0350=1070
  248 00351 7040      CMA                     /                                       @@0351=7040
  249 00352 7450      SNA                     /                                       @@0352=7450
  250 00353 7402      HLT                     /                                       @@0353=7402
  251 00354 1070      TAD   C0070             /                                       @@0354=1070
  252 00355 7040      CMA                     /                                       @@0355=7040
  253 00356 7440      SZA                     /                                       @@0356=7440
  254 00357 7402      HLT                     /                                       @@0357=7402
  255 00360 7200      CLA                     /                                       @@0360=7200
  256 00361 1067      TAD   C0067             /                                       @@0361=1067
  257 00362 7040      CMA                     /                                       @@0362=7040
  258 00363 7440      SZA                     /                                       @@0363=7440
  259 00364 7402      HLT                     /                                       @@0364=7402
  260 00365 7200      CLA                     /                                       @@0365=7200
  261 00366 7001      IAC                     /                                       @@0366=7001
  262 00367 7440      SZA                     /                                       @@0367=7440
  263 00370 7410      SKP                     /                                       @@0370=7410
  264 00371 7402      HLT                     /                                       @@0371=7402
  265 00372 7200      CLA                     /                                       @@0372=7200
  266 00373 1067      TAD   C0067             /                                       @@0373=1067
  267 00374 7001      IAC                     /                                       @@0374=7001
  268 00375 7440      SZA                     /                                       @@0375=7440
  269 00376 7402      HLT                     /                                       @@0376=7402
  270 00377 7200      CLA                     /                                       @@0377=7200
  271 00400 1101      TAD   C0101             /                                       @@0400=1101
  272 00401 7001      IAC                     /                                       @@0401=7001
  273 00402 7001      IAC                     /                                       @@0402=7001
  274 00403 7001      IAC                     /                                       @@0403=7001
  275 00404 7001      IAC                     /                                       @@0404=7001
  276 00405 7440      SZA                     /                                       @@0405=7440
  277 00406 7402      HLT                     /                                       @@0406=7402
  278 00407 7200      CLA                     /                                       @@0407=7200
  279 00410 7100      CLL                     /                                       @@0410=7100
  280 00411 7004      RAL                     /                                       @@0411=7004
  281 00412 7430      SZL                     /                                       @@0412=7430
  282 00413 7402      HLT                     /                                       @@0413=7402
  283 00414 7200      CLA                     /                                       @@0414=7200
  284 00415 7100      CLL                     /                                       @@0415=7100
  285 00416 7020      CML                     /                                       @@0416=7020

      AUTOMATIC DISASSEMBLY OF MAINDEC-8E-D0AB-PB.bin BY D8TAPE           Page 6


  286 00417 1050      TAD   C0050             /                                       @@0417=1050
  287 00420 7004      RAL                     /                                       @@0420=7004
  288 00421 7430      SZL                     /                                       @@0421=7430
  289 00422 7410      SKP                     /                                       @@0422=7410
  290 00423 7402      HLT                     /                                       @@0423=7402
  291 00424 7200      CLA                     /                                       @@0424=7200
  292 00425 7100      CLL                     /                                       @@0425=7100
  293 00426 7004      RAL                     /                                       @@0426=7004
  294 00427 7420      SNL                     /                                       @@0427=7420
  295 00430 7410      SKP                     /                                       @@0430=7410
  296 00431 7402      HLT                     /                                       @@0431=7402
  297 00432 7200      CLA                     /                                       @@0432=7200
  298 00433 7100      CLL                     /                                       @@0433=7100
  299 00434 7020      CML                     /                                       @@0434=7020
  300 00435 1050      TAD   C0050             /                                       @@0435=1050
  301 00436 7004      RAL                     /                                       @@0436=7004
  302 00437 7420      SNL                     /                                       @@0437=7420
  303 00440 7402      HLT                     /                                       @@0440=7402
  304 00441 7200      CLA                     /                                       @@0441=7200
  305 00442 1050      TAD   C0050             /                                       @@0442=1050
  306 00443 7004      RAL                     /                                       @@0443=7004
  307 00444 7420      SNL                     /                                       @@0444=7420
  308 00445 5252      JMP   L0452             /                                       @@0445=5252
  309             L0446,
  310 00446 7100      CLL                     /                                       @@0446=7100
  311 00447 7430      SZL                     /                                       @@0447=7430
  312 00450 7402      HLT                     /                                       @@0450=7402
  313 00451 5256      JMP   L0456             /                                       @@0451=5256
  314             L0452,
  315 00452 7020      CML                     /                                       @@0452=7020
  316 00453 7420      SNL                     /                                       @@0453=7420
  317 00454 7402      HLT                     /                                       @@0454=7402
  318 00455 5246      JMP   L0446             /                                       @@0455=5246
  319             L0456,
  320 00456 7100      CLL                     /                                       @@0456=7100
  321 00457 7430      SZL                     /                                       @@0457=7430
  322 00460 7402      HLT                     /                                       @@0460=7402
  323 00461 7020      CML                     /                                       @@0461=7020
  324 00462 7420      SNL                     /                                       @@0462=7420
  325 00463 7402      HLT                     /                                       @@0463=7402
  326 00464 7020      CML                     /                                       @@0464=7020
  327 00465 7430      SZL                     /                                       @@0465=7430
  328 00466 7402      HLT                     /                                       @@0466=7402
  329 00467 7200      CLA                     /                                       @@0467=7200
  330 00470 1067      TAD   C0067             /                                       @@0470=1067
  331 00471 7600      7600                    /                                       @@0471=7600
  332 00472 7440      SZA                     /                                       @@0472=7440
  333 00473 7402      HLT                     /                                       @@0473=7402
  334 00474 7200      CLA                     /                                       @@0474=7200
  335 00475 7404      OSR                     /                                       @@0475=7404
  336 00476 7040      CMA                     /                                       @@0476=7040
  337 00477 7440      SZA                     /                                       @@0477=7440
  338 00500 7402      HLT                     /                                       @@0500=7402
  339 00501 7200      CLA                     /                                       @@0501=7200
  340 00502 7100      CLL                     /                                       @@0502=7100
  341 00503 7000      NOP                     /                                       @@0503=7000
  342 00504 7450      SNA                     /                                       @@0504=7450

      AUTOMATIC DISASSEMBLY OF MAINDEC-8E-D0AB-PB.bin BY D8TAPE           Page 7


  343 00505 7430      SZL                     /                                       @@0505=7430
  344 00506 7402      HLT                     /                                       @@0506=7402
  345 00507 7200      CLA                     /                                       @@0507=7200
  346 00510 7100      CLL                     /                                       @@0510=7100
  347 00511 7400      7400                    /                                       @@0511=7400
  348 00512 7450      SNA                     /                                       @@0512=7450
  349 00513 7430      SZL                     /                                       @@0513=7430
  350 00514 7402      HLT                     /                                       @@0514=7402
  351 00515 7200      CLA                     /                                       @@0515=7200
  352 00516 1066      TAD   C0066             /                                       @@0516=1066
  353 00517 1050      TAD   C0050             /                                       @@0517=1050
  354 00520 7040      CMA                     /                                       @@0520=7040
  355 00521 7440      SZA                     /                                       @@0521=7440
  356 00522 7402      HLT                     /                                       @@0522=7402
  357 00523 7200      CLA                     /                                       @@0523=7200
  358 00524 1065      TAD   C0065             /                                       @@0524=1065
  359 00525 1045      TAD   C0045             /                                       @@0525=1045
  360 00526 7040      CMA                     /                                       @@0526=7040
  361 00527 7440      SZA                     /                                       @@0527=7440
  362 00530 7402      HLT                     /                                       @@0530=7402
  363 00531 7200      CLA                     /                                       @@0531=7200
  364 00532 1064      TAD   C0064             /                                       @@0532=1064
  365 00533 1042      TAD   C0042             /                                       @@0533=1042
  366 00534 7040      CMA                     /                                       @@0534=7040
  367 00535 7440      SZA                     /                                       @@0535=7440
  368 00536 7402      HLT                     /                                       @@0536=7402
  369 00537 7200      CLA                     /                                       @@0537=7200
  370 00540 1063      TAD   C0063             /                                       @@0540=1063
  371 00541 1040      TAD   C0040             /                                       @@0541=1040
  372 00542 7040      CMA                     /                                       @@0542=7040
  373 00543 7440      SZA                     /                                       @@0543=7440
  374 00544 7402      HLT                     /                                       @@0544=7402
  375 00545 7200      CLA                     /                                       @@0545=7200
  376 00546 1062      TAD   C0062             /                                       @@0546=1062
  377 00547 1036      TAD   C0036             /                                       @@0547=1036
  378 00550 7040      CMA                     /                                       @@0550=7040
  379 00551 7440      SZA                     /                                       @@0551=7440
  380 00552 7402      HLT                     /                                       @@0552=7402
  381 00553 7200      CLA                     /                                       @@0553=7200
  382 00554 1061      TAD   C0061             /                                       @@0554=1061
  383 00555 1034      TAD   C0034             /                                       @@0555=1034
  384 00556 7040      CMA                     /                                       @@0556=7040
  385 00557 7440      SZA                     /                                       @@0557=7440
  386 00560 7402      HLT                     /                                       @@0560=7402
  387 00561 7200      CLA                     /                                       @@0561=7200
  388 00562 1057      TAD   C0057             /                                       @@0562=1057
  389 00563 1032      TAD   C0032             /                                       @@0563=1032
  390 00564 7040      CMA                     /                                       @@0564=7040
  391 00565 7440      SZA                     /                                       @@0565=7440
  392 00566 7402      HLT                     /                                       @@0566=7402
  393 00567 7200      CLA                     /                                       @@0567=7200
  394 00570 1056      TAD   C0056             /                                       @@0570=1056
  395 00571 1030      TAD   C0030             /                                       @@0571=1030
  396 00572 7040      CMA                     /                                       @@0572=7040
  397 00573 7440      SZA                     /                                       @@0573=7440
  398 00574 7402      HLT                     /                                       @@0574=7402
  399 00575 7200      CLA                     /                                       @@0575=7200

      AUTOMATIC DISASSEMBLY OF MAINDEC-8E-D0AB-PB.bin BY D8TAPE           Page 8


  400 00576 1055      TAD   C0055             /                                       @@0576=1055
  401 00577 1026      TAD   C0026             /                                       @@0577=1026
  402 00600 7040      CMA                     /                                       @@0600=7040
  403 00601 7440      SZA                     /                                       @@0601=7440
  404 00602 7402      HLT                     /                                       @@0602=7402
  405 00603 7200      CLA                     /                                       @@0603=7200
  406 00604 1054      TAD   C0054             /                                       @@0604=1054
  407 00605 1024      TAD   C0024             /                                       @@0605=1024
  408 00606 7040      CMA                     /                                       @@0606=7040
  409 00607 7440      SZA                     /                                       @@0607=7440
  410 00610 7402      HLT                     /                                       @@0610=7402
  411 00611 7200      CLA                     /                                       @@0611=7200
  412 00612 1053      TAD   C0053             /                                       @@0612=1053
  413 00613 1022      TAD   C0022             /                                       @@0613=1022
  414 00614 7040      CMA                     /                                       @@0614=7040
  415 00615 7440      SZA                     /                                       @@0615=7440
  416 00616 7402      HLT                     /                                       @@0616=7402
  417 00617 7200      CLA                     /                                       @@0617=7200
  418 00620 1052      TAD   L0052             /                                       @@0620=1052
  419 00621 1021      TAD   C0021             /                                       @@0621=1021
  420 00622 7040      CMA                     /                                       @@0622=7040
  421 00623 7440      SZA                     /                                       @@0623=7440
  422 00624 7402      HLT                     /                                       @@0624=7402
  423 00625 7200      CLA                     /                                       @@0625=7200
  424 00626 7100      CLL                     /                                       @@0626=7100
  425 00627 1050      TAD   C0050             /                                       @@0627=1050
  426 00630 1050      TAD   C0050             /                                       @@0630=1050
  427 00631 7430      SZL                     /                                       @@0631=7430
  428 00632 7440      SZA                     /                                       @@0632=7440
  429 00633 7402      HLT                     /                                       @@0633=7402
  430 00634 7200      CLA                     /                                       @@0634=7200
  431 00635 7100      CLL                     /                                       @@0635=7100
  432 00636 1072      TAD   C0072             /                                       @@0636=1072
  433 00637 1045      TAD   C0045             /                                       @@0637=1045
  434 00640 7430      SZL                     /                                       @@0640=7430
  435 00641 7440      SZA                     /                                       @@0641=7440
  436 00642 7402      HLT                     /                                       @@0642=7402
  437 00643 7200      CLA                     /                                       @@0643=7200
  438 00644 7100      CLL                     /                                       @@0644=7100
  439 00645 1073      TAD   C0073             /                                       @@0645=1073
  440 00646 1042      TAD   C0042             /                                       @@0646=1042
  441 00647 7430      SZL                     /                                       @@0647=7430
  442 00650 7440      SZA                     /                                       @@0650=7440
  443 00651 7402      HLT                     /                                       @@0651=7402
  444 00652 7200      CLA                     /                                       @@0652=7200
  445 00653 7100      CLL                     /                                       @@0653=7100
  446 00654 1074      TAD   C0074             /                                       @@0654=1074
  447 00655 1040      TAD   C0040             /                                       @@0655=1040
  448 00656 7430      SZL                     /                                       @@0656=7430
  449 00657 7440      SZA                     /                                       @@0657=7440
  450 00660 7402      HLT                     /                                       @@0660=7402
  451 00661 7200      CLA                     /                                       @@0661=7200
  452 00662 7100      CLL                     /                                       @@0662=7100
  453 00663 1075      TAD   C0075             /                                       @@0663=1075
  454 00664 1036      TAD   C0036             /                                       @@0664=1036
  455 00665 7430      SZL                     /                                       @@0665=7430
  456 00666 7440      SZA                     /                                       @@0666=7440

      AUTOMATIC DISASSEMBLY OF MAINDEC-8E-D0AB-PB.bin BY D8TAPE           Page 9


  457 00667 7402      HLT                     /                                       @@0667=7402
  458 00670 7200      CLA                     /                                       @@0670=7200
  459 00671 7100      CLL                     /                                       @@0671=7100
  460 00672 1113      TAD   C0113             /                                       @@0672=1113
  461 00673 1034      TAD   C0034             /                                       @@0673=1034
  462 00674 7430      SZL                     /                                       @@0674=7430
  463 00675 7440      SZA                     /                                       @@0675=7440
  464 00676 7402      HLT                     /                                       @@0676=7402
  465 00677 7200      CLA                     /                                       @@0677=7200
  466 00700 7100      CLL                     /                                       @@0700=7100
  467 00701 1076      TAD   C0076             /                                       @@0701=1076
  468 00702 1032      TAD   C0032             /                                       @@0702=1032
  469 00703 7430      SZL                     /                                       @@0703=7430
  470 00704 7440      SZA                     /                                       @@0704=7440
  471 00705 7402      HLT                     /                                       @@0705=7402
  472 00706 7200      CLA                     /                                       @@0706=7200
  473 00707 7100      CLL                     /                                       @@0707=7100
  474 00710 1077      TAD   C0077             /                                       @@0710=1077
  475 00711 1030      TAD   C0030             /                                       @@0711=1030
  476 00712 7430      SZL                     /                                       @@0712=7430
  477 00713 7440      SZA                     /                                       @@0713=7440
  478 00714 7402      HLT                     /                                       @@0714=7402
  479 00715 7200      CLA                     /                                       @@0715=7200
  480 00716 7100      CLL                     /                                       @@0716=7100
  481 00717 1100      TAD   C0100             /                                       @@0717=1100
  482 00720 1026      TAD   C0026             /                                       @@0720=1026
  483 00721 7430      SZL                     /                                       @@0721=7430
  484 00722 7440      SZA                     /                                       @@0722=7440
  485 00723 7402      HLT                     /                                       @@0723=7402
  486 00724 7200      CLA                     /                                       @@0724=7200
  487 00725 7100      CLL                     /                                       @@0725=7100
  488 00726 1101      TAD   C0101             /                                       @@0726=1101
  489 00727 1024      TAD   C0024             /                                       @@0727=1024
  490 00730 7430      SZL                     /                                       @@0730=7430
  491 00731 7440      SZA                     /                                       @@0731=7440
  492 00732 7402      HLT                     /                                       @@0732=7402
  493 00733 7200      CLA                     /                                       @@0733=7200
  494 00734 7100      CLL                     /                                       @@0734=7100
  495 00735 1052      TAD   L0052             /                                       @@0735=1052
  496 00736 1022      TAD   C0022             /                                       @@0736=1022
  497 00737 7430      SZL                     /                                       @@0737=7430
  498 00740 7440      SZA                     /                                       @@0740=7440
  499 00741 7402      HLT                     /                                       @@0741=7402
  500 00742 7200      CLA                     /                                       @@0742=7200
  501 00743 7100      CLL                     /                                       @@0743=7100
  502 00744 1067      TAD   C0067             /                                       @@0744=1067
  503 00745 1021      TAD   C0021             /                                       @@0745=1021
  504 00746 7430      SZL                     /                                       @@0746=7430
  505 00747 7440      SZA                     /                                       @@0747=7440
  506 00750 7402      HLT                     /                                       @@0750=7402
  507 00751 7200      CLA                     /                                       @@0751=7200
  508 00752 7100      CLL                     /                                       @@0752=7100
  509 00753 7020      CML                     /                                       @@0753=7020
  510 00754 1050      TAD   C0050             /                                       @@0754=1050
  511 00755 1050      TAD   C0050             /                                       @@0755=1050
  512 00756 7420      SNL                     /                                       @@0756=7420
  513 00757 7440      SZA                     /                                       @@0757=7440

      AUTOMATIC DISASSEMBLY OF MAINDEC-8E-D0AB-PB.bin BY D8TAPE          Page 10


  514 00760 7402      HLT                     /                                       @@0760=7402
  515 00761 7200      CLA                     /                                       @@0761=7200
  516 00762 7100      CLL                     /                                       @@0762=7100
  517 00763 1066      TAD   C0066             /                                       @@0763=1066
  518 00764 1045      TAD   C0045             /                                       @@0764=1045
  519 00765 1045      TAD   C0045             /                                       @@0765=1045
  520 00766 7040      CMA                     /                                       @@0766=7040
  521 00767 7420      SNL                     /                                       @@0767=7420
  522 00770 7440      SZA                     /                                       @@0770=7440
  523 00771 7402      HLT                     /                                       @@0771=7402
  524 00772 7200      CLA                     /                                       @@0772=7200
  525 00773 7100      CLL                     /                                       @@0773=7100
  526 00774 1065      TAD   C0065             /                                       @@0774=1065
  527 00775 1042      TAD   C0042             /                                       @@0775=1042
  528 00776 1042      TAD   C0042             /                                       @@0776=1042
  529 00777 7040      CMA                     /                                       @@0777=7040
  530 01000 7420      SNL                     /                                       @@1000=7420
  531 01001 7440      SZA                     /                                       @@1001=7440
  532 01002 7402      HLT                     /                                       @@1002=7402
  533 01003 7200      CLA                     /                                       @@1003=7200
  534 01004 7100      CLL                     /                                       @@1004=7100
  535 01005 1064      TAD   C0064             /                                       @@1005=1064
  536 01006 1040      TAD   C0040             /                                       @@1006=1040
  537 01007 1040      TAD   C0040             /                                       @@1007=1040
  538 01010 7040      CMA                     /                                       @@1010=7040
  539 01011 7420      SNL                     /                                       @@1011=7420
  540 01012 7440      SZA                     /                                       @@1012=7440
  541 01013 7402      HLT                     /                                       @@1013=7402
  542 01014 7200      CLA                     /                                       @@1014=7200
  543 01015 7100      CLL                     /                                       @@1015=7100
  544 01016 1063      TAD   C0063             /                                       @@1016=1063
  545 01017 1036      TAD   C0036             /                                       @@1017=1036
  546 01020 1036      TAD   C0036             /                                       @@1020=1036
  547 01021 7040      CMA                     /                                       @@1021=7040
  548 01022 7420      SNL                     /                                       @@1022=7420
  549 01023 7440      SZA                     /                                       @@1023=7440
  550 01024 7402      HLT                     /                                       @@1024=7402
  551 01025 7200      CLA                     /                                       @@1025=7200
  552 01026 7100      CLL                     /                                       @@1026=7100
  553 01027 1062      TAD   C0062             /                                       @@1027=1062
  554 01030 1034      TAD   C0034             /                                       @@1030=1034
  555 01031 1034      TAD   C0034             /                                       @@1031=1034
  556 01032 7040      CMA                     /                                       @@1032=7040
  557 01033 7420      SNL                     /                                       @@1033=7420
  558 01034 7440      SZA                     /                                       @@1034=7440
  559 01035 7402      HLT                     /                                       @@1035=7402
  560 01036 7200      CLA                     /                                       @@1036=7200
  561 01037 7100      CLL                     /                                       @@1037=7100
  562 01040 1061      TAD   C0061             /                                       @@1040=1061
  563 01041 1032      TAD   C0032             /                                       @@1041=1032
  564 01042 1032      TAD   C0032             /                                       @@1042=1032
  565 01043 7040      CMA                     /                                       @@1043=7040
  566 01044 7420      SNL                     /                                       @@1044=7420
  567 01045 7440      SZA                     /                                       @@1045=7440
  568 01046 7402      HLT                     /                                       @@1046=7402
  569 01047 7200      CLA                     /                                       @@1047=7200
  570 01050 7100      CLL                     /                                       @@1050=7100

      AUTOMATIC DISASSEMBLY OF MAINDEC-8E-D0AB-PB.bin BY D8TAPE          Page 11


  571 01051 1057      TAD   C0057             /                                       @@1051=1057
  572 01052 1030      TAD   C0030             /                                       @@1052=1030
  573 01053 1030      TAD   C0030             /                                       @@1053=1030
  574 01054 7040      CMA                     /                                       @@1054=7040
  575 01055 7420      SNL                     /                                       @@1055=7420
  576 01056 7440      SZA                     /                                       @@1056=7440
  577 01057 7402      HLT                     /                                       @@1057=7402
  578 01060 7200      CLA                     /                                       @@1060=7200
  579 01061 7100      CLL                     /                                       @@1061=7100
  580 01062 1056      TAD   C0056             /                                       @@1062=1056
  581 01063 1026      TAD   C0026             /                                       @@1063=1026
  582 01064 1026      TAD   C0026             /                                       @@1064=1026
  583 01065 7040      CMA                     /                                       @@1065=7040
  584 01066 7420      SNL                     /                                       @@1066=7420
  585 01067 7440      SZA                     /                                       @@1067=7440
  586 01070 7402      HLT                     /                                       @@1070=7402
  587 01071 7200      CLA                     /                                       @@1071=7200
  588 01072 7100      CLL                     /                                       @@1072=7100
  589 01073 1055      TAD   C0055             /                                       @@1073=1055
  590 01074 1024      TAD   C0024             /                                       @@1074=1024
  591 01075 1024      TAD   C0024             /                                       @@1075=1024
  592 01076 7040      CMA                     /                                       @@1076=7040
  593 01077 7420      SNL                     /                                       @@1077=7420
  594 01100 7440      SZA                     /                                       @@1100=7440
  595 01101 7402      HLT                     /                                       @@1101=7402
  596 01102 7200      CLA                     /                                       @@1102=7200
  597 01103 7100      CLL                     /                                       @@1103=7100
  598 01104 1054      TAD   C0054             /                                       @@1104=1054
  599 01105 1022      TAD   C0022             /                                       @@1105=1022
  600 01106 1022      TAD   C0022             /                                       @@1106=1022
  601 01107 7040      CMA                     /                                       @@1107=7040
  602 01110 7420      SNL                     /                                       @@1110=7420
  603 01111 7440      SZA                     /                                       @@1111=7440
  604 01112 7402      HLT                     /                                       @@1112=7402
  605 01113 7200      CLA                     /                                       @@1113=7200
  606 01114 7100      CLL                     /                                       @@1114=7100
  607 01115 1053      TAD   C0053             /                                       @@1115=1053
  608 01116 1021      TAD   C0021             /                                       @@1116=1021
  609 01117 1021      TAD   C0021             /                                       @@1117=1021
  610 01120 7040      CMA                     /                                       @@1120=7040
  611 01121 7420      SNL                     /                                       @@1121=7420
  612 01122 7430      SZL                     /                                       @@1122=7430
  613 01123 7402      HLT                     /                                       @@1123=7402
  614 01124 7200      CLA                     /                                       @@1124=7200
  615 01125 7100      CLL                     /                                       @@1125=7100
  616 01126 1021      TAD   C0021             /                                       @@1126=1021
  617 01127 1023      TAD   C0023             /                                       @@1127=1023
  618 01130 1054      TAD   C0054             /                                       @@1130=1054
  619 01131 7040      CMA                     /                                       @@1131=7040
  620 01132 7420      SNL                     /                                       @@1132=7420
  621 01133 7440      SZA                     /                                       @@1133=7440
  622 01134 7402      HLT                     /                                       @@1134=7402
  623 01135 7200      CLA                     /                                       @@1135=7200
  624 01136 7100      CLL                     /                                       @@1136=7100
  625 01137 1022      TAD   C0022             /                                       @@1137=1022
  626 01140 1025      TAD   L0025             /                                       @@1140=1025
  627 01141 1055      TAD   C0055             /                                       @@1141=1055

      AUTOMATIC DISASSEMBLY OF MAINDEC-8E-D0AB-PB.bin BY D8TAPE          Page 12


  628 01142 7040      CMA                     /                                       @@1142=7040
  629 01143 7420      SNL                     /                                       @@1143=7420
  630 01144 7440      SZA                     /                                       @@1144=7440
  631 01145 7402      HLT                     /                                       @@1145=7402
  632 01146 7200      CLA                     /                                       @@1146=7200
  633 01147 7100      CLL                     /                                       @@1147=7100
  634 01150 1024      TAD   C0024             /                                       @@1150=1024
  635 01151 1027      TAD   C0027             /                                       @@1151=1027
  636 01152 1056      TAD   C0056             /                                       @@1152=1056
  637 01153 7040      CMA                     /                                       @@1153=7040
  638 01154 7420      SNL                     /                                       @@1154=7420
  639 01155 7440      SZA                     /                                       @@1155=7440
  640 01156 7402      HLT                     /                                       @@1156=7402
  641 01157 7200      CLA                     /                                       @@1157=7200
  642 01160 7100      CLL                     /                                       @@1160=7100
  643 01161 1026      TAD   C0026             /                                       @@1161=1026
  644 01162 1031      TAD   C0031             /                                       @@1162=1031
  645 01163 1057      TAD   C0057             /                                       @@1163=1057
  646 01164 7040      CMA                     /                                       @@1164=7040
  647 01165 7420      SNL                     /                                       @@1165=7420
  648 01166 7440      SZA                     /                                       @@1166=7440
  649 01167 7402      HLT                     /                                       @@1167=7402
  650 01170 7200      CLA                     /                                       @@1170=7200
  651 01171 7100      CLL                     /                                       @@1171=7100
  652 01172 1030      TAD   C0030             /                                       @@1172=1030
  653 01173 1033      TAD   C0033             /                                       @@1173=1033
  654 01174 1061      TAD   C0061             /                                       @@1174=1061
  655 01175 7040      CMA                     /                                       @@1175=7040
  656 01176 7420      SNL                     /                                       @@1176=7420
  657 01177 7440      SZA                     /                                       @@1177=7440
  658 01200 7402      HLT                     /                                       @@1200=7402
  659 01201 7200      CLA                     /                                       @@1201=7200
  660 01202 7100      CLL                     /                                       @@1202=7100
  661 01203 1032      TAD   C0032             /                                       @@1203=1032
  662 01204 1035      TAD   C0035             /                                       @@1204=1035
  663 01205 1062      TAD   C0062             /                                       @@1205=1062
  664 01206 7040      CMA                     /                                       @@1206=7040
  665 01207 7420      SNL                     /                                       @@1207=7420
  666 01210 7440      SZA                     /                                       @@1210=7440
  667 01211 7402      HLT                     /                                       @@1211=7402
  668 01212 7200      CLA                     /                                       @@1212=7200
  669 01213 7100      CLL                     /                                       @@1213=7100
  670 01214 1034      TAD   C0034             /                                       @@1214=1034
  671 01215 1037      TAD   C0037             /                                       @@1215=1037
  672 01216 1063      TAD   C0063             /                                       @@1216=1063
  673 01217 7040      CMA                     /                                       @@1217=7040
  674 01220 7420      SNL                     /                                       @@1220=7420
  675 01221 7440      SZA                     /                                       @@1221=7440
  676 01222 7402      HLT                     /                                       @@1222=7402
  677 01223 7200      CLA                     /                                       @@1223=7200
  678 01224 7100      CLL                     /                                       @@1224=7100
  679 01225 1036      TAD   C0036             /                                       @@1225=1036
  680 01226 1041      TAD   C0041             /                                       @@1226=1041
  681 01227 1064      TAD   C0064             /                                       @@1227=1064
  682 01230 7040      CMA                     /                                       @@1230=7040
  683 01231 7420      SNL                     /                                       @@1231=7420
  684 01232 7440      SZA                     /                                       @@1232=7440

      AUTOMATIC DISASSEMBLY OF MAINDEC-8E-D0AB-PB.bin BY D8TAPE          Page 13


  685 01233 7402      HLT                     /                                       @@1233=7402
  686 01234 7200      CLA                     /                                       @@1234=7200
  687 01235 7100      CLL                     /                                       @@1235=7100
  688 01236 1040      TAD   C0040             /                                       @@1236=1040
  689 01237 1044      TAD   C0044             /                                       @@1237=1044
  690 01240 1065      TAD   C0065             /                                       @@1240=1065
  691 01241 7040      CMA                     /                                       @@1241=7040
  692 01242 7420      SNL                     /                                       @@1242=7420
  693 01243 7440      SZA                     /                                       @@1243=7440
  694 01244 7402      HLT                     /                                       @@1244=7402
  695 01245 7200      CLA                     /                                       @@1245=7200
  696 01246 7100      CLL                     /                                       @@1246=7100
  697 01247 1042      TAD   C0042             /                                       @@1247=1042
  698 01250 1046      TAD   C0046             /                                       @@1250=1046
  699 01251 1066      TAD   C0066             /                                       @@1251=1066
  700 01252 7040      CMA                     /                                       @@1252=7040
  701 01253 7420      SNL                     /                                       @@1253=7420
  702 01254 7440      SZA                     /                                       @@1254=7440
  703 01255 7402      HLT                     /                                       @@1255=7402
  704 01256 7200      CLA                     /                                       @@1256=7200
  705 01257 7100      CLL                     /                                       @@1257=7100
  706 01260 1045      TAD   C0045             /                                       @@1260=1045
  707 01261 1072      TAD   C0072             /                                       @@1261=1072
  708 01262 7430      SZL                     /                                       @@1262=7430
  709 01263 7440      SZA                     /                                       @@1263=7440
  710 01264 7402      HLT                     /                                       @@1264=7402
  711 01265 7200      CLA                     /                                       @@1265=7200
  712 01266 7100      CLL                     /                                       @@1266=7100
  713 01267 1067      TAD   C0067             /                                       @@1267=1067
  714 01270 1021      TAD   C0021             /                                       @@1270=1021
  715 01271 7430      SZL                     /                                       @@1271=7430
  716 01272 7440      SZA                     /                                       @@1272=7440
  717 01273 7402      HLT                     /                                       @@1273=7402
  718 01274 7200      CLA                     /                                       @@1274=7200
  719 01275 7100      CLL                     /                                       @@1275=7100
  720 01276 1023      TAD   C0023             /                                       @@1276=1023
  721 01277 1023      TAD   C0023             /                                       @@1277=1023
  722 01300 1100      TAD   C0100             /                                       @@1300=1100
  723 01301 1021      TAD   C0021             /                                       @@1301=1021
  724 01302 7040      CMA                     /                                       @@1302=7040
  725 01303 7420      SNL                     /                                       @@1303=7420
  726 01304 7440      SZA                     /                                       @@1304=7440
  727 01305 7402      HLT                     /                                       @@1305=7402
  728 01306 7200      CLA                     /                                       @@1306=7200
  729 01307 7100      CLL                     /                                       @@1307=7100
  730 01310 1025      TAD   L0025             /                                       @@1310=1025
  731 01311 1025      TAD   L0025             /                                       @@1311=1025
  732 01312 1077      TAD   C0077             /                                       @@1312=1077
  733 01313 1023      TAD   C0023             /                                       @@1313=1023
  734 01314 7040      CMA                     /                                       @@1314=7040
  735 01315 7420      SNL                     /                                       @@1315=7420
  736 01316 7440      SZA                     /                                       @@1316=7440
  737 01317 7402      HLT                     /                                       @@1317=7402
  738 01320 7200      CLA                     /                                       @@1320=7200
  739 01321 7100      CLL                     /                                       @@1321=7100
  740 01322 1027      TAD   C0027             /                                       @@1322=1027
  741 01323 1027      TAD   C0027             /                                       @@1323=1027

      AUTOMATIC DISASSEMBLY OF MAINDEC-8E-D0AB-PB.bin BY D8TAPE          Page 14


  742 01324 1076      TAD   C0076             /                                       @@1324=1076
  743 01325 1102      TAD   C0102             /                                       @@1325=1102
  744 01326 7040      CMA                     /                                       @@1326=7040
  745 01327 7420      SNL                     /                                       @@1327=7420
  746 01330 7440      SZA                     /                                       @@1330=7440
  747 01331 7402      HLT                     /                                       @@1331=7402
  748 01332 7200      CLA                     /                                       @@1332=7200
  749 01333 7100      CLL                     /                                       @@1333=7100
  750 01334 1031      TAD   C0031             /                                       @@1334=1031
  751 01335 1031      TAD   C0031             /                                       @@1335=1031
  752 01336 1051      TAD   C0051             /                                       @@1336=1051
  753 01337 7040      CMA                     /                                       @@1337=7040
  754 01340 7420      SNL                     /                                       @@1340=7420
  755 01341 7440      SZA                     /                                       @@1341=7440
  756 01342 7402      HLT                     /                                       @@1342=7402
  757 01343 7200      CLA                     /                                       @@1343=7200
  758 01344 7100      CLL                     /                                       @@1344=7100
  759 01345 1033      TAD   C0033             /                                       @@1345=1033
  760 01346 1033      TAD   C0033             /                                       @@1346=1033
  761 01347 1075      TAD   C0075             /                                       @@1347=1075
  762 01350 1105      TAD   C0105             /                                       @@1350=1105
  763 01351 7040      CMA                     /                                       @@1351=7040
  764 01352 7420      SNL                     /                                       @@1352=7420
  765 01353 7440      SZA                     /                                       @@1353=7440
  766 01354 7402      HLT                     /                                       @@1354=7402
  767 01355 7200      CLA                     /                                       @@1355=7200
  768 01356 7100      CLL                     /                                       @@1356=7100
  769 01357 1035      TAD   C0035             /                                       @@1357=1035
  770 01360 1035      TAD   C0035             /                                       @@1360=1035
  771 01361 1074      TAD   C0074             /                                       @@1361=1074
  772 01362 1106      TAD   C0106             /                                       @@1362=1106
  773 01363 7040      CMA                     /                                       @@1363=7040
  774 01364 7420      SNL                     /                                       @@1364=7420
  775 01365 7440      SZA                     /                                       @@1365=7440
  776 01366 7402      HLT                     /                                       @@1366=7402
  777 01367 7200      CLA                     /                                       @@1367=7200
  778 01370 7100      CLL                     /                                       @@1370=7100
  779 01371 1037      TAD   C0037             /                                       @@1371=1037
  780 01372 1037      TAD   C0037             /                                       @@1372=1037
  781 01373 1060      TAD   C0060             /                                       @@1373=1060
  782 01374 7040      CMA                     /                                       @@1374=7040
  783 01375 7420      SNL                     /                                       @@1375=7420
  784 01376 7440      SZA                     /                                       @@1376=7440
  785 01377 7402      HLT                     /                                       @@1377=7402
  786 01400 7200      CLA                     /                                       @@1400=7200
  787 01401 7100      CLL                     /                                       @@1401=7100
  788 01402 1041      TAD   C0041             /                                       @@1402=1041
  789 01403 1041      TAD   C0041             /                                       @@1403=1041
  790 01404 1072      TAD   C0072             /                                       @@1404=1072
  791 01405 1110      TAD   C0110             /                                       @@1405=1110
  792 01406 7040      CMA                     /                                       @@1406=7040
  793 01407 7420      SNL                     /                                       @@1407=7420
  794 01410 7440      SZA                     /                                       @@1410=7440
  795 01411 7402      HLT                     /                                       @@1411=7402
  796 01412 7200      CLA                     /                                       @@1412=7200
  797 01413 7100      CLL                     /                                       @@1413=7100
  798 01414 1044      TAD   C0044             /                                       @@1414=1044

      AUTOMATIC DISASSEMBLY OF MAINDEC-8E-D0AB-PB.bin BY D8TAPE          Page 15


  799 01415 1044      TAD   C0044             /                                       @@1415=1044
  800 01416 1050      TAD   C0050             /                                       @@1416=1050
  801 01417 1111      TAD   C0111             /                                       @@1417=1111
  802 01420 7040      CMA                     /                                       @@1420=7040
  803 01421 7420      SNL                     /                                       @@1421=7420
  804 01422 7440      SZA                     /                                       @@1422=7440
  805 01423 7402      HLT                     /                                       @@1423=7402
  806 01424 7200      CLA                     /                                       @@1424=7200
  807 01425 7100      CLL                     /                                       @@1425=7100
  808 01426 1046      TAD   C0046             /                                       @@1426=1046
  809 01427 1046      TAD   C0046             /                                       @@1427=1046
  810 01430 1112      TAD   D0112             /                                       @@1430=1112
  811 01431 7040      CMA                     /                                       @@1431=7040
  812 01432 7420      SNL                     /                                       @@1432=7420
  813 01433 7440      SZA                     /                                       @@1433=7440
  814 01434 7402      HLT                     /                                       @@1434=7402
  815 01435 7200      CLA                     /                                       @@1435=7200
  816 01436 7100      CLL                     /                                       @@1436=7100
  817 01437 1072      TAD   C0072             /                                       @@1437=1072
  818 01440 1072      TAD   C0072             /                                       @@1440=1072
  819 01441 1066      TAD   C0066             /                                       @@1441=1066
  820 01442 7040      CMA                     /                                       @@1442=7040
  821 01443 7430      SZL                     /                                       @@1443=7430
  822 01444 7440      SZA                     /                                       @@1444=7440
  823 01445 7402      HLT                     /                                       @@1445=7402
  824 01446 7200      CLA                     /                                       @@1446=7200
  825 01447 7100      CLL                     /                                       @@1447=7100
  826 01450 1067      TAD   C0067             /                                       @@1450=1067
  827 01451 1067      TAD   C0067             /                                       @@1451=1067
  828 01452 1021      TAD   C0021             /                                       @@1452=1021
  829 01453 7040      CMA                     /                                       @@1453=7040
  830 01454 7430      SZL                     /                                       @@1454=7430
  831 01455 7440      SZA                     /                                       @@1455=7440
  832 01456 7402      HLT                     /                                       @@1456=7402
  833 01457 7200      CLA                     /                                       @@1457=7200
  834 01460 7100      CLL                     /                                       @@1460=7100
  835 01461 1021      TAD   C0021             /                                       @@1461=1021
  836 01462 7010      RAR                     /                                       @@1462=7010
  837 01463 7420      SNL                     /                                       @@1463=7420
  838 01464 7402      HLT                     /                                       @@1464=7402
  839 01465 7200      CLA                     /                                       @@1465=7200
  840 01466 7100      CLL                     /                                       @@1466=7100
  841 01467 1020      TAD   C0020             /                                       @@1467=1020
  842 01470 7010      RAR                     /                                       @@1470=7010
  843 01471 7440      SZA                     /                                       @@1471=7440
  844 01472 7402      HLT                     /                                       @@1472=7402
  845 01473 7200      CLA                     /                                       @@1473=7200
  846 01474 7100      CLL                     /                                       @@1474=7100
  847 01475 1020      TAD   C0020             /                                       @@1475=1020
  848 01476 7010      RAR                     /                                       @@1476=7010
  849 01477 7430      SZL                     /                                       @@1477=7430
  850 01500 7402      HLT                     /                                       @@1500=7402
  851 01501 7200      CLA                     /                                       @@1501=7200
  852 01502 7100      CLL                     /                                       @@1502=7100
  853 01503 7020      CML                     /                                       @@1503=7020
  854 01504 1020      TAD   C0020             /                                       @@1504=1020
  855 01505 7010      RAR                     /                                       @@1505=7010

      AUTOMATIC DISASSEMBLY OF MAINDEC-8E-D0AB-PB.bin BY D8TAPE          Page 16


  856 01506 7430      SZL                     /                                       @@1506=7430
  857 01507 7402      HLT                     /                                       @@1507=7402
  858 01510 7200      CLA                     /                                       @@1510=7200
  859 01511 7100      CLL                     /                                       @@1511=7100
  860 01512 7020      CML                     /                                       @@1512=7020
  861 01513 1067      TAD   C0067             /                                       @@1513=1067
  862 01514 7010      RAR                     /                                       @@1514=7010
  863 01515 7040      CMA                     /                                       @@1515=7040
  864 01516 7440      SZA                     /                                       @@1516=7440
  865 01517 7402      HLT                     /                                       @@1517=7402
  866 01520 7200      CLA                     /                                       @@1520=7200
  867 01521 7100      CLL                     /                                       @@1521=7100
  868 01522 7020      CML                     /                                       @@1522=7020
  869 01523 1020      TAD   C0020             /                                       @@1523=1020
  870 01524 7010      RAR                     /                                       @@1524=7010
  871 01525 1066      TAD   C0066             /                                       @@1525=1066
  872 01526 7040      CMA                     /                                       @@1526=7040
  873 01527 7450      SNA                     /                                       @@1527=7450
  874 01530 7430      SZL                     /                                       @@1530=7430
  875 01531 7402      HLT                     /                                       @@1531=7402
  876 01532 7200      CLA                     /                                       @@1532=7200
  877 01533 7100      CLL                     /                                       @@1533=7100
  878 01534 1050      TAD   C0050             /                                       @@1534=1050
  879 01535 7010      RAR                     /                                       @@1535=7010
  880 01536 1065      TAD   C0065             /                                       @@1536=1065
  881 01537 7040      CMA                     /                                       @@1537=7040
  882 01540 7450      SNA                     /                                       @@1540=7450
  883 01541 7430      SZL                     /                                       @@1541=7430
  884 01542 7402      HLT                     /                                       @@1542=7402
  885 01543 7200      CLA                     /                                       @@1543=7200
  886 01544 7100      CLL                     /                                       @@1544=7100
  887 01545 1045      TAD   C0045             /                                       @@1545=1045
  888 01546 7010      RAR                     /                                       @@1546=7010
  889 01547 1064      TAD   C0064             /                                       @@1547=1064
  890 01550 7040      CMA                     /                                       @@1550=7040
  891 01551 7450      SNA                     /                                       @@1551=7450
  892 01552 7430      SZL                     /                                       @@1552=7430
  893 01553 7402      HLT                     /                                       @@1553=7402
  894 01554 7200      CLA                     /                                       @@1554=7200
  895 01555 7100      CLL                     /                                       @@1555=7100
  896 01556 1042      TAD   C0042             /                                       @@1556=1042
  897 01557 7010      RAR                     /                                       @@1557=7010
  898 01560 1063      TAD   C0063             /                                       @@1560=1063
  899 01561 7040      CMA                     /                                       @@1561=7040
  900 01562 7450      SNA                     /                                       @@1562=7450
  901 01563 7430      SZL                     /                                       @@1563=7430
  902 01564 7402      HLT                     /                                       @@1564=7402
  903 01565 7200      CLA                     /                                       @@1565=7200
  904 01566 7100      CLL                     /                                       @@1566=7100
  905 01567 1040      TAD   C0040             /                                       @@1567=1040
  906 01570 7010      RAR                     /                                       @@1570=7010
  907 01571 1062      TAD   C0062             /                                       @@1571=1062
  908 01572 7040      CMA                     /                                       @@1572=7040
  909 01573 7450      SNA                     /                                       @@1573=7450
  910 01574 7430      SZL                     /                                       @@1574=7430
  911 01575 7402      HLT                     /                                       @@1575=7402
  912 01576 7200      CLA                     /                                       @@1576=7200

      AUTOMATIC DISASSEMBLY OF MAINDEC-8E-D0AB-PB.bin BY D8TAPE          Page 17


  913 01577 7100      CLL                     /                                       @@1577=7100
  914 01600 1036      TAD   C0036             /                                       @@1600=1036
  915 01601 7010      RAR                     /                                       @@1601=7010
  916 01602 1061      TAD   C0061             /                                       @@1602=1061
  917 01603 7040      CMA                     /                                       @@1603=7040
  918 01604 7450      SNA                     /                                       @@1604=7450
  919 01605 7430      SZL                     /                                       @@1605=7430
  920 01606 7402      HLT                     /                                       @@1606=7402
  921 01607 7200      CLA                     /                                       @@1607=7200
  922 01610 7100      CLL                     /                                       @@1610=7100
  923 01611 1034      TAD   C0034             /                                       @@1611=1034
  924 01612 7010      RAR                     /                                       @@1612=7010
  925 01613 1057      TAD   C0057             /                                       @@1613=1057
  926 01614 7040      CMA                     /                                       @@1614=7040
  927 01615 7450      SNA                     /                                       @@1615=7450
  928 01616 7430      SZL                     /                                       @@1616=7430
  929 01617 7402      HLT                     /                                       @@1617=7402
  930 01620 7200      CLA                     /                                       @@1620=7200
  931 01621 7100      CLL                     /                                       @@1621=7100
  932 01622 1032      TAD   C0032             /                                       @@1622=1032
  933 01623 7010      RAR                     /                                       @@1623=7010
  934 01624 1056      TAD   C0056             /                                       @@1624=1056
  935 01625 7040      CMA                     /                                       @@1625=7040
  936 01626 7450      SNA                     /                                       @@1626=7450
  937 01627 7430      SZL                     /                                       @@1627=7430
  938 01630 7402      HLT                     /                                       @@1630=7402
  939 01631 7200      CLA                     /                                       @@1631=7200
  940 01632 7100      CLL                     /                                       @@1632=7100
  941 01633 1030      TAD   C0030             /                                       @@1633=1030
  942 01634 7010      RAR                     /                                       @@1634=7010
  943 01635 1055      TAD   C0055             /                                       @@1635=1055
  944 01636 7040      CMA                     /                                       @@1636=7040
  945 01637 7450      SNA                     /                                       @@1637=7450
  946 01640 7430      SZL                     /                                       @@1640=7430
  947 01641 7402      HLT                     /                                       @@1641=7402
  948 01642 7200      CLA                     /                                       @@1642=7200
  949 01643 7100      CLL                     /                                       @@1643=7100
  950 01644 1026      TAD   C0026             /                                       @@1644=1026
  951 01645 7010      RAR                     /                                       @@1645=7010
  952 01646 1054      TAD   C0054             /                                       @@1646=1054
  953 01647 7040      CMA                     /                                       @@1647=7040
  954 01650 7450      SNA                     /                                       @@1650=7450
  955 01651 7430      SZL                     /                                       @@1651=7430
  956 01652 7402      HLT                     /                                       @@1652=7402
  957 01653 7200      CLA                     /                                       @@1653=7200
  958 01654 7100      CLL                     /                                       @@1654=7100
  959 01655 1024      TAD   C0024             /                                       @@1655=1024
  960 01656 7010      RAR                     /                                       @@1656=7010
  961 01657 1053      TAD   C0053             /                                       @@1657=1053
  962 01660 7040      CMA                     /                                       @@1660=7040
  963 01661 7450      SNA                     /                                       @@1661=7450
  964 01662 7430      SZL                     /                                       @@1662=7430
  965 01663 7402      HLT                     /                                       @@1663=7402
  966 01664 7200      CLA                     /                                       @@1664=7200
  967 01665 7100      CLL                     /                                       @@1665=7100
  968 01666 1022      TAD   C0022             /                                       @@1666=1022
  969 01667 7010      RAR                     /                                       @@1667=7010

      AUTOMATIC DISASSEMBLY OF MAINDEC-8E-D0AB-PB.bin BY D8TAPE          Page 18


  970 01670 1052      TAD   L0052             /                                       @@1670=1052
  971 01671 7040      CMA                     /                                       @@1671=7040
  972 01672 7450      SNA                     /                                       @@1672=7450
  973 01673 7430      SZL                     /                                       @@1673=7430
  974 01674 7402      HLT                     /                                       @@1674=7402
  975 01675 7200      CLA                     /                                       @@1675=7200
  976 01676 7100      CLL                     /                                       @@1676=7100
  977 01677 1021      TAD   C0021             /                                       @@1677=1021
  978 01700 7010      RAR                     /                                       @@1700=7010
  979 01701 1067      TAD   C0067             /                                       @@1701=1067
  980 01702 7040      CMA                     /                                       @@1702=7040
  981 01703 7450      SNA                     /                                       @@1703=7450
  982 01704 7420      SNL                     /                                       @@1704=7420
  983 01705 7402      HLT                     /                                       @@1705=7402
  984 01706 7200      CLA                     /                                       @@1706=7200
  985 01707 7100      CLL                     /                                       @@1707=7100
  986 01710 1022      TAD   C0022             /                                       @@1710=1022
  987 01711 7012      RTR                     /                                       @@1711=7012
  988 01712 7420      SNL                     /                                       @@1712=7420
  989 01713 7402      HLT                     /                                       @@1713=7402
  990 01714 7200      CLA                     /                                       @@1714=7200
  991 01715 7100      CLL                     /                                       @@1715=7100
  992 01716 1020      TAD   C0020             /                                       @@1716=1020
  993 01717 7012      RTR                     /                                       @@1717=7012
  994 01720 7440      SZA                     /                                       @@1720=7440
  995 01721 7402      HLT                     /                                       @@1721=7402
  996 01722 7200      CLA                     /                                       @@1722=7200
  997 01723 7100      CLL                     /                                       @@1723=7100
  998 01724 1020      TAD   C0020             /                                       @@1724=1020
  999 01725 7012      RTR                     /                                       @@1725=7012
 1000 01726 7430      SZL                     /                                       @@1726=7430
 1001 01727 7402      HLT                     /                                       @@1727=7402
 1002 01730 7200      CLA                     /                                       @@1730=7200
 1003 01731 7100      CLL                     /                                       @@1731=7100
 1004 01732 7020      CML                     /                                       @@1732=7020
 1005 01733 1020      TAD   C0020             /                                       @@1733=1020
 1006 01734 7012      RTR                     /                                       @@1734=7012
 1007 01735 7430      SZL                     /                                       @@1735=7430
 1008 01736 7402      HLT                     /                                       @@1736=7402
 1009 01737 7200      CLA                     /                                       @@1737=7200
 1010 01740 7100      CLL                     /                                       @@1740=7100
 1011 01741 7020      CML                     /                                       @@1741=7020
 1012 01742 1067      TAD   C0067             /                                       @@1742=1067
 1013 01743 7012      RTR                     /                                       @@1743=7012
 1014 01744 7040      CMA                     /                                       @@1744=7040
 1015 01745 7440      SZA                     /                                       @@1745=7440
 1016 01746 7402      HLT                     /                                       @@1746=7402
 1017 01747 7200      CLA                     /                                       @@1747=7200
 1018 01750 7100      CLL                     /                                       @@1750=7100
 1019 01751 7020      CML                     /                                       @@1751=7020
 1020 01752 1020      TAD   C0020             /                                       @@1752=1020
 1021 01753 7012      RTR                     /                                       @@1753=7012
 1022 01754 1065      TAD   C0065             /                                       @@1754=1065
 1023 01755 7040      CMA                     /                                       @@1755=7040
 1024 01756 7450      SNA                     /                                       @@1756=7450
 1025 01757 7430      SZL                     /                                       @@1757=7430
 1026 01760 7402      HLT                     /                                       @@1760=7402

      AUTOMATIC DISASSEMBLY OF MAINDEC-8E-D0AB-PB.bin BY D8TAPE          Page 19


 1027 01761 7200      CLA                     /                                       @@1761=7200
 1028 01762 7100      CLL                     /                                       @@1762=7100
 1029 01763 1050      TAD   C0050             /                                       @@1763=1050
 1030 01764 7012      RTR                     /                                       @@1764=7012
 1031 01765 1064      TAD   C0064             /                                       @@1765=1064
 1032 01766 7040      CMA                     /                                       @@1766=7040
 1033 01767 7450      SNA                     /                                       @@1767=7450
 1034 01770 7430      SZL                     /                                       @@1770=7430
 1035 01771 7402      HLT                     /                                       @@1771=7402
 1036 01772 7200      CLA                     /                                       @@1772=7200
 1037 01773 7100      CLL                     /                                       @@1773=7100
 1038 01774 1045      TAD   C0045             /                                       @@1774=1045
 1039 01775 7012      RTR                     /                                       @@1775=7012
 1040 01776 1063      TAD   C0063             /                                       @@1776=1063
 1041 01777 7040      CMA                     /                                       @@1777=7040
 1042 02000 7450      SNA                     /                                       @@2000=7450
 1043 02001 7430      SZL                     /                                       @@2001=7430
 1044 02002 7402      HLT                     /                                       @@2002=7402
 1045 02003 7200      CLA                     /                                       @@2003=7200
 1046 02004 7100      CLL                     /                                       @@2004=7100
 1047 02005 1042      TAD   C0042             /                                       @@2005=1042
 1048 02006 7012      RTR                     /                                       @@2006=7012
 1049 02007 1062      TAD   C0062             /                                       @@2007=1062
 1050 02010 7040      CMA                     /                                       @@2010=7040
 1051 02011 7450      SNA                     /                                       @@2011=7450
 1052 02012 7430      SZL                     /                                       @@2012=7430
 1053 02013 7402      HLT                     /                                       @@2013=7402
 1054 02014 7200      CLA                     /                                       @@2014=7200
 1055 02015 7100      CLL                     /                                       @@2015=7100
 1056 02016 1040      TAD   C0040             /                                       @@2016=1040
 1057 02017 7012      RTR                     /                                       @@2017=7012
 1058 02020 1061      TAD   C0061             /                                       @@2020=1061
 1059 02021 7040      CMA                     /                                       @@2021=7040
 1060 02022 7450      SNA                     /                                       @@2022=7450
 1061 02023 7430      SZL                     /                                       @@2023=7430
 1062 02024 7402      HLT                     /                                       @@2024=7402
 1063 02025 7200      CLA                     /                                       @@2025=7200
 1064 02026 7100      CLL                     /                                       @@2026=7100
 1065 02027 1036      TAD   C0036             /                                       @@2027=1036
 1066 02030 7012      RTR                     /                                       @@2030=7012
 1067 02031 1057      TAD   C0057             /                                       @@2031=1057
 1068 02032 7040      CMA                     /                                       @@2032=7040
 1069 02033 7450      SNA                     /                                       @@2033=7450
 1070 02034 7430      SZL                     /                                       @@2034=7430
 1071 02035 7402      HLT                     /                                       @@2035=7402
 1072 02036 7200      CLA                     /                                       @@2036=7200
 1073 02037 7100      CLL                     /                                       @@2037=7100
 1074 02040 1034      TAD   C0034             /                                       @@2040=1034
 1075 02041 7012      RTR                     /                                       @@2041=7012
 1076 02042 1056      TAD   C0056             /                                       @@2042=1056
 1077 02043 7040      CMA                     /                                       @@2043=7040
 1078 02044 7450      SNA                     /                                       @@2044=7450
 1079 02045 7430      SZL                     /                                       @@2045=7430
 1080 02046 7402      HLT                     /                                       @@2046=7402
 1081 02047 7200      CLA                     /                                       @@2047=7200
 1082 02050 7100      CLL                     /                                       @@2050=7100
 1083 02051 1032      TAD   C0032             /                                       @@2051=1032

      AUTOMATIC DISASSEMBLY OF MAINDEC-8E-D0AB-PB.bin BY D8TAPE          Page 20


 1084 02052 7012      RTR                     /                                       @@2052=7012
 1085 02053 1055      TAD   C0055             /                                       @@2053=1055
 1086 02054 7040      CMA                     /                                       @@2054=7040
 1087 02055 7450      SNA                     /                                       @@2055=7450
 1088 02056 7430      SZL                     /                                       @@2056=7430
 1089 02057 7402      HLT                     /                                       @@2057=7402
 1090 02060 7200      CLA                     /                                       @@2060=7200
 1091 02061 7100      CLL                     /                                       @@2061=7100
 1092 02062 1030      TAD   C0030             /                                       @@2062=1030
 1093 02063 7012      RTR                     /                                       @@2063=7012
 1094 02064 1054      TAD   C0054             /                                       @@2064=1054
 1095 02065 7040      CMA                     /                                       @@2065=7040
 1096 02066 7450      SNA                     /                                       @@2066=7450
 1097 02067 7430      SZL                     /                                       @@2067=7430
 1098 02070 7402      HLT                     /                                       @@2070=7402
 1099 02071 7200      CLA                     /                                       @@2071=7200
 1100 02072 7100      CLL                     /                                       @@2072=7100
 1101 02073 1026      TAD   C0026             /                                       @@2073=1026
 1102 02074 7012      RTR                     /                                       @@2074=7012
 1103 02075 1053      TAD   C0053             /                                       @@2075=1053
 1104 02076 7040      CMA                     /                                       @@2076=7040
 1105 02077 7450      SNA                     /                                       @@2077=7450
 1106 02100 7430      SZL                     /                                       @@2100=7430
 1107 02101 7402      HLT                     /                                       @@2101=7402
 1108 02102 7300      CLA CLL                 / AC = 0000                             @@2102=7300
 1109 02103 1024      TAD   C0024             /                                       @@2103=1024
 1110 02104 7012      RTR                     /                                       @@2104=7012
 1111 02105 1052      TAD   L0052             /                                       @@2105=1052
 1112 02106 7040      CMA                     /                                       @@2106=7040
 1113 02107 7450      SNA                     /                                       @@2107=7450
 1114 02110 7430      SZL                     /                                       @@2110=7430
 1115 02111 7402      HLT                     /                                       @@2111=7402
 1116 02112 7200      CLA                     /                                       @@2112=7200
 1117 02113 7100      CLL                     /                                       @@2113=7100
 1118 02114 1022      TAD   C0022             /                                       @@2114=1022
 1119 02115 7012      RTR                     /                                       @@2115=7012
 1120 02116 7450      SNA                     /                                       @@2116=7450
 1121 02117 7420      SNL                     /                                       @@2117=7420
 1122 02120 7402      HLT                     /                                       @@2120=7402
 1123 02121 7200      CLA                     /                                       @@2121=7200
 1124 02122 7100      CLL                     /                                       @@2122=7100
 1125 02123 1021      TAD   C0021             /                                       @@2123=1021
 1126 02124 7012      RTR                     /                                       @@2124=7012
 1127 02125 1066      TAD   C0066             /                                       @@2125=1066
 1128 02126 7040      CMA                     /                                       @@2126=7040
 1129 02127 7450      SNA                     /                                       @@2127=7450
 1130 02130 7430      SZL                     /                                       @@2130=7430
 1131 02131 7402      HLT                     /                                       @@2131=7402
 1132 02132 7200      CLA                     /                                       @@2132=7200
 1133 02133 7100      CLL                     /                                       @@2133=7100
 1134 02134 1050      TAD   C0050             /                                       @@2134=1050
 1135 02135 7004      RAL                     /                                       @@2135=7004
 1136 02136 7430      SZL                     /                                       @@2136=7430
 1137 02137 7440      SZA                     /                                       @@2137=7440
 1138 02140 7402      HLT                     /                                       @@2140=7402
 1139 02141 7200      CLA                     /                                       @@2141=7200
 1140 02142 7100      CLL                     /                                       @@2142=7100

      AUTOMATIC DISASSEMBLY OF MAINDEC-8E-D0AB-PB.bin BY D8TAPE          Page 21


 1141 02143 1020      TAD   C0020             /                                       @@2143=1020
 1142 02144 7004      RAL                     /                                       @@2144=7004
 1143 02145 7420      SNL                     /                                       @@2145=7420
 1144 02146 7440      SZA                     /                                       @@2146=7440
 1145 02147 7402      HLT                     /                                       @@2147=7402
 1146 02150 7200      CLA                     /                                       @@2150=7200
 1147 02151 7100      CLL                     /                                       @@2151=7100
 1148 02152 7020      CML                     /                                       @@2152=7020
 1149 02153 1020      TAD   C0020             /                                       @@2153=1020
 1150 02154 7004      RAL                     /                                       @@2154=7004
 1151 02155 7430      SZL                     /                                       @@2155=7430
 1152 02156 7402      HLT                     /                                       @@2156=7402
 1153 02157 7200      CLA                     /                                       @@2157=7200
 1154 02160 7100      CLL                     /                                       @@2160=7100
 1155 02161 7020      CML                     /                                       @@2161=7020
 1156 02162 1067      TAD   C0067             /                                       @@2162=1067
 1157 02163 7004      RAL                     /                                       @@2163=7004
 1158 02164 7040      CMA                     /                                       @@2164=7040
 1159 02165 7440      SZA                     /                                       @@2165=7440
 1160 02166 7402      HLT                     /                                       @@2166=7402
 1161 02167 7200      CLA                     /                                       @@2167=7200
 1162 02170 7100      CLL                     /                                       @@2170=7100
 1163 02171 1045      TAD   C0045             /                                       @@2171=1045
 1164 02172 7004      RAL                     /                                       @@2172=7004
 1165 02173 1066      TAD   C0066             /                                       @@2173=1066
 1166 02174 7040      CMA                     /                                       @@2174=7040
 1167 02175 7450      SNA                     /                                       @@2175=7450
 1168 02176 7430      SZL                     /                                       @@2176=7430
 1169 02177 7402      HLT                     /                                       @@2177=7402
 1170 02200 7200      CLA                     /                                       @@2200=7200
 1171 02201 7100      CLL                     /                                       @@2201=7100
 1172 02202 1042      TAD   C0042             /                                       @@2202=1042
 1173 02203 7004      RAL                     /                                       @@2203=7004
 1174 02204 1065      TAD   C0065             /                                       @@2204=1065
 1175 02205 7040      CMA                     /                                       @@2205=7040
 1176 02206 7440      SZA                     /                                       @@2206=7440
 1177 02207 7402      HLT                     /                                       @@2207=7402
 1178 02210 7200      CLA                     /                                       @@2210=7200
 1179 02211 7100      CLL                     /                                       @@2211=7100
 1180 02212 1040      TAD   C0040             /                                       @@2212=1040
 1181 02213 7004      RAL                     /                                       @@2213=7004
 1182 02214 1064      TAD   C0064             /                                       @@2214=1064
 1183 02215 7040      CMA                     /                                       @@2215=7040
 1184 02216 7450      SNA                     /                                       @@2216=7450
 1185 02217 7430      SZL                     /                                       @@2217=7430
 1186 02220 7402      HLT                     /                                       @@2220=7402
 1187 02221 7200      CLA                     /                                       @@2221=7200
 1188 02222 7100      CLL                     /                                       @@2222=7100
 1189 02223 1036      TAD   C0036             /                                       @@2223=1036
 1190 02224 7004      RAL                     /                                       @@2224=7004
 1191 02225 1063      TAD   C0063             /                                       @@2225=1063
 1192 02226 7040      CMA                     /                                       @@2226=7040
 1193 02227 7450      SNA                     /                                       @@2227=7450
 1194 02230 7430      SZL                     /                                       @@2230=7430
 1195 02231 7402      HLT                     /                                       @@2231=7402
 1196 02232 7200      CLA                     /                                       @@2232=7200
 1197 02233 7100      CLL                     /                                       @@2233=7100

      AUTOMATIC DISASSEMBLY OF MAINDEC-8E-D0AB-PB.bin BY D8TAPE          Page 22


 1198 02234 1034      TAD   C0034             /                                       @@2234=1034
 1199 02235 7004      RAL                     /                                       @@2235=7004
 1200 02236 1062      TAD   C0062             /                                       @@2236=1062
 1201 02237 7040      CMA                     /                                       @@2237=7040
 1202 02240 7450      SNA                     /                                       @@2240=7450
 1203 02241 7430      SZL                     /                                       @@2241=7430
 1204 02242 7402      HLT                     /                                       @@2242=7402
 1205 02243 7200      CLA                     /                                       @@2243=7200
 1206 02244 7100      CLL                     /                                       @@2244=7100
 1207 02245 1032      TAD   C0032             /                                       @@2245=1032
 1208 02246 7004      RAL                     /                                       @@2246=7004
 1209 02247 1061      TAD   C0061             /                                       @@2247=1061
 1210 02250 7040      CMA                     /                                       @@2250=7040
 1211 02251 7450      SNA                     /                                       @@2251=7450
 1212 02252 7430      SZL                     /                                       @@2252=7430
 1213 02253 7402      HLT                     /                                       @@2253=7402
 1214 02254 7200      CLA                     /                                       @@2254=7200
 1215 02255 7100      CLL                     /                                       @@2255=7100
 1216 02256 1030      TAD   C0030             /                                       @@2256=1030
 1217 02257 7004      RAL                     /                                       @@2257=7004
 1218 02260 1057      TAD   C0057             /                                       @@2260=1057
 1219 02261 7040      CMA                     /                                       @@2261=7040
 1220 02262 7450      SNA                     /                                       @@2262=7450
 1221 02263 7430      SZL                     /                                       @@2263=7430
 1222 02264 7402      HLT                     /                                       @@2264=7402
 1223 02265 7200      CLA                     /                                       @@2265=7200
 1224 02266 7100      CLL                     /                                       @@2266=7100
 1225 02267 1026      TAD   C0026             /                                       @@2267=1026
 1226 02270 7004      RAL                     /                                       @@2270=7004
 1227 02271 1056      TAD   C0056             /                                       @@2271=1056
 1228 02272 7040      CMA                     /                                       @@2272=7040
 1229 02273 7450      SNA                     /                                       @@2273=7450
 1230 02274 7430      SZL                     /                                       @@2274=7430
 1231 02275 7402      HLT                     /                                       @@2275=7402
 1232 02276 7200      CLA                     /                                       @@2276=7200
 1233 02277 7100      CLL                     /                                       @@2277=7100
 1234 02300 1024      TAD   C0024             /                                       @@2300=1024
 1235 02301 7004      RAL                     /                                       @@2301=7004
 1236 02302 1055      TAD   C0055             /                                       @@2302=1055
 1237 02303 7040      CMA                     /                                       @@2303=7040
 1238 02304 7450      SNA                     /                                       @@2304=7450
 1239 02305 7430      SZL                     /                                       @@2305=7430
 1240 02306 7402      HLT                     /                                       @@2306=7402
 1241 02307 7200      CLA                     /                                       @@2307=7200
 1242 02310 7100      CLL                     /                                       @@2310=7100
 1243 02311 1022      TAD   C0022             /                                       @@2311=1022
 1244 02312 7004      RAL                     /                                       @@2312=7004
 1245 02313 1054      TAD   C0054             /                                       @@2313=1054
 1246 02314 7040      CMA                     /                                       @@2314=7040
 1247 02315 7450      SNA                     /                                       @@2315=7450
 1248 02316 7430      SZL                     /                                       @@2316=7430
 1249 02317 7402      HLT                     /                                       @@2317=7402
 1250 02320 7200      CLA                     /                                       @@2320=7200
 1251 02321 7100      CLL                     /                                       @@2321=7100
 1252 02322 1021      TAD   C0021             /                                       @@2322=1021
 1253 02323 7004      RAL                     /                                       @@2323=7004
 1254 02324 1053      TAD   C0053             /                                       @@2324=1053

      AUTOMATIC DISASSEMBLY OF MAINDEC-8E-D0AB-PB.bin BY D8TAPE          Page 23


 1255 02325 7040      CMA                     /                                       @@2325=7040
 1256 02326 7450      SNA                     /                                       @@2326=7450
 1257 02327 7430      SZL                     /                                       @@2327=7430
 1258 02330 7402      HLT                     /                                       @@2330=7402
 1259 02331 7200      CLA                     /                                       @@2331=7200
 1260 02332 7100      CLL                     /                                       @@2332=7100
 1261 02333 7020      CML                     /                                       @@2333=7020
 1262 02334 7004      RAL                     /                                       @@2334=7004
 1263 02335 1052      TAD   L0052             /                                       @@2335=1052
 1264 02336 7040      CMA                     /                                       @@2336=7040
 1265 02337 7450      SNA                     /                                       @@2337=7450
 1266 02340 7430      SZL                     /                                       @@2340=7430
 1267 02341 7402      HLT                     /                                       @@2341=7402
 1268 02342 7200      CLA                     /                                       @@2342=7200
 1269 02343 7100      CLL                     /                                       @@2343=7100
 1270 02344 1045      TAD   C0045             /                                       @@2344=1045
 1271 02345 7006      RTL                     /                                       @@2345=7006
 1272 02346 7420      SNL                     /                                       @@2346=7420
 1273 02347 7402      HLT                     /                                       @@2347=7402
 1274 02350 7200      CLA                     /                                       @@2350=7200
 1275 02351 7100      CLL                     /                                       @@2351=7100
 1276 02352 1020      TAD   C0020             /                                       @@2352=1020
 1277 02353 7006      RTL                     /                                       @@2353=7006
 1278 02354 7440      SZA                     /                                       @@2354=7440
 1279 02355 7402      HLT                     /                                       @@2355=7402
 1280 02356 7200      CLA                     /                                       @@2356=7200
 1281 02357 7100      CLL                     /                                       @@2357=7100
 1282 02360 1020      TAD   C0020             /                                       @@2360=1020
 1283 02361 7006      RTL                     /                                       @@2361=7006
 1284 02362 7430      SZL                     /                                       @@2362=7430
 1285 02363 7402      HLT                     /                                       @@2363=7402
 1286 02364 7200      CLA                     /                                       @@2364=7200
 1287 02365 7100      CLL                     /                                       @@2365=7100
 1288 02366 7020      CML                     /                                       @@2366=7020
 1289 02367 1020      TAD   C0020             /                                       @@2367=1020
 1290 02370 7006      RTL                     /                                       @@2370=7006
 1291 02371 7430      SZL                     /                                       @@2371=7430
 1292 02372 7402      HLT                     /                                       @@2372=7402
 1293 02373 7200      CLA                     /                                       @@2373=7200
 1294 02374 7100      CLL                     /                                       @@2374=7100
 1295 02375 7020      CML                     /                                       @@2375=7020
 1296 02376 1067      TAD   C0067             /                                       @@2376=1067
 1297 02377 7006      RTL                     /                                       @@2377=7006
 1298 02400 7040      CMA                     /                                       @@2400=7040
 1299 02401 7440      SZA                     /                                       @@2401=7440
 1300 02402 7402      HLT                     /                                       @@2402=7402
 1301 02403 7200      CLA                     /                                       @@2403=7200
 1302 02404 7100      CLL                     /                                       @@2404=7100
 1303 02405 1050      TAD   C0050             /                                       @@2405=1050
 1304 02406 7006      RTL                     /                                       @@2406=7006
 1305 02407 1052      TAD   L0052             /                                       @@2407=1052
 1306 02410 7040      CMA                     /                                       @@2410=7040
 1307 02411 7450      SNA                     /                                       @@2411=7450
 1308 02412 7430      SZL                     /                                       @@2412=7430
 1309 02413 7402      HLT                     /                                       @@2413=7402
 1310 02414 7200      CLA                     /                                       @@2414=7200
 1311 02415 7100      CLL                     /                                       @@2415=7100

      AUTOMATIC DISASSEMBLY OF MAINDEC-8E-D0AB-PB.bin BY D8TAPE          Page 24


 1312 02416 1045      TAD   C0045             /                                       @@2416=1045
 1313 02417 7006      RTL                     /                                       @@2417=7006
 1314 02420 7450      SNA                     /                                       @@2420=7450
 1315 02421 7420      SNL                     /                                       @@2421=7420
 1316 02422 7402      HLT                     /                                       @@2422=7402
 1317 02423 7200      CLA                     /                                       @@2423=7200
 1318 02424 7100      CLL                     /                                       @@2424=7100
 1319 02425 1042      TAD   C0042             /                                       @@2425=1042
 1320 02426 7006      RTL                     /                                       @@2426=7006
 1321 02427 1066      TAD   C0066             /                                       @@2427=1066
 1322 02430 7040      CMA                     /                                       @@2430=7040
 1323 02431 7450      SNA                     /                                       @@2431=7450
 1324 02432 7430      SZL                     /                                       @@2432=7430
 1325 02433 7402      HLT                     /                                       @@2433=7402
 1326 02434 7200      CLA                     /                                       @@2434=7200
 1327 02435 7100      CLL                     /                                       @@2435=7100
 1328 02436 1040      TAD   C0040             /                                       @@2436=1040
 1329 02437 7006      RTL                     /                                       @@2437=7006
 1330 02440 1065      TAD   C0065             /                                       @@2440=1065
 1331 02441 7040      CMA                     /                                       @@2441=7040
 1332 02442 7450      SNA                     /                                       @@2442=7450
 1333 02443 7430      SZL                     /                                       @@2443=7430
 1334 02444 7402      HLT                     /                                       @@2444=7402
 1335 02445 7200      CLA                     /                                       @@2445=7200
 1336 02446 7100      CLL                     /                                       @@2446=7100
 1337 02447 1036      TAD   C0036             /                                       @@2447=1036
 1338 02450 7006      RTL                     /                                       @@2450=7006
 1339 02451 1064      TAD   C0064             /                                       @@2451=1064
 1340 02452 7040      CMA                     /                                       @@2452=7040
 1341 02453 7450      SNA                     /                                       @@2453=7450
 1342 02454 7430      SZL                     /                                       @@2454=7430
 1343 02455 7402      HLT                     /                                       @@2455=7402
 1344 02456 7200      CLA                     /                                       @@2456=7200
 1345 02457 7100      CLL                     /                                       @@2457=7100
 1346 02460 1034      TAD   C0034             /                                       @@2460=1034
 1347 02461 7006      RTL                     /                                       @@2461=7006
 1348 02462 1063      TAD   C0063             /                                       @@2462=1063
 1349 02463 7040      CMA                     /                                       @@2463=7040
 1350 02464 7450      SNA                     /                                       @@2464=7450
 1351 02465 7430      SZL                     /                                       @@2465=7430
 1352 02466 7402      HLT                     /                                       @@2466=7402
 1353 02467 7200      CLA                     /                                       @@2467=7200
 1354 02470 7100      CLL                     /                                       @@2470=7100
 1355 02471 1032      TAD   C0032             /                                       @@2471=1032
 1356 02472 7006      RTL                     /                                       @@2472=7006
 1357 02473 1062      TAD   C0062             /                                       @@2473=1062
 1358 02474 7040      CMA                     /                                       @@2474=7040
 1359 02475 7450      SNA                     /                                       @@2475=7450
 1360 02476 7430      SZL                     /                                       @@2476=7430
 1361 02477 7402      HLT                     /                                       @@2477=7402
 1362 02500 7200      CLA                     /                                       @@2500=7200
 1363 02501 7100      CLL                     /                                       @@2501=7100
 1364 02502 1030      TAD   C0030             /                                       @@2502=1030
 1365 02503 7006      RTL                     /                                       @@2503=7006
 1366 02504 1061      TAD   C0061             /                                       @@2504=1061
 1367 02505 7040      CMA                     /                                       @@2505=7040
 1368 02506 7450      SNA                     /                                       @@2506=7450

      AUTOMATIC DISASSEMBLY OF MAINDEC-8E-D0AB-PB.bin BY D8TAPE          Page 25


 1369 02507 7430      SZL                     /                                       @@2507=7430
 1370 02510 7402      HLT                     /                                       @@2510=7402
 1371 02511 7200      CLA                     /                                       @@2511=7200
 1372 02512 7100      CLL                     /                                       @@2512=7100
 1373 02513 1026      TAD   C0026             /                                       @@2513=1026
 1374 02514 7006      RTL                     /                                       @@2514=7006
 1375 02515 1057      TAD   C0057             /                                       @@2515=1057
 1376 02516 7040      CMA                     /                                       @@2516=7040
 1377 02517 7450      SNA                     /                                       @@2517=7450
 1378 02520 7430      SZL                     /                                       @@2520=7430
 1379 02521 7402      HLT                     /                                       @@2521=7402
 1380 02522 7200      CLA                     /                                       @@2522=7200
 1381 02523 7100      CLL                     /                                       @@2523=7100
 1382 02524 1024      TAD   C0024             /                                       @@2524=1024
 1383 02525 7006      RTL                     /                                       @@2525=7006
 1384 02526 1056      TAD   C0056             /                                       @@2526=1056
 1385 02527 7040      CMA                     /                                       @@2527=7040
 1386 02530 7450      SNA                     /                                       @@2530=7450
 1387 02531 7430      SZL                     /                                       @@2531=7430
 1388 02532 7402      HLT                     /                                       @@2532=7402
 1389 02533 7200      CLA                     /                                       @@2533=7200
 1390 02534 7100      CLL                     /                                       @@2534=7100
 1391 02535 1022      TAD   C0022             /                                       @@2535=1022
 1392 02536 7006      RTL                     /                                       @@2536=7006
 1393 02537 1055      TAD   C0055             /                                       @@2537=1055
 1394 02540 7040      CMA                     /                                       @@2540=7040
 1395 02541 7450      SNA                     /                                       @@2541=7450
 1396 02542 7430      SZL                     /                                       @@2542=7430
 1397 02543 7402      HLT                     /                                       @@2543=7402
 1398 02544 7200      CLA                     /                                       @@2544=7200
 1399 02545 7100      CLL                     /                                       @@2545=7100
 1400 02546 1021      TAD   C0021             /                                       @@2546=1021
 1401 02547 7006      RTL                     /                                       @@2547=7006
 1402 02550 1054      TAD   C0054             /                                       @@2550=1054
 1403 02551 7040      CMA                     /                                       @@2551=7040
 1404 02552 7450      SNA                     /                                       @@2552=7450
 1405 02553 7430      SZL                     /                                       @@2553=7430
 1406 02554 7402      HLT                     /                                       @@2554=7402
 1407 02555 7200      CLA                     /                                       @@2555=7200
 1408 02556 7100      CLL                     /                                       @@2556=7100
 1409 02557 7020      CML                     /                                       @@2557=7020
 1410 02560 7006      RTL                     /                                       @@2560=7006
 1411 02561 1053      TAD   C0053             /                                       @@2561=1053
 1412 02562 7040      CMA                     /                                       @@2562=7040
 1413 02563 7450      SNA                     /                                       @@2563=7450
 1414 02564 7430      SZL                     /                                       @@2564=7430
 1415 02565 7402      HLT                     /                                       @@2565=7402
 1416 02566 7200      CLA                     /                                       @@2566=7200
 1417 02567 7100      CLL                     /                                       @@2567=7100
 1418 02570 7040      CMA                     /                                       @@2570=7040
 1419 02571 7002      BSW                     /                                       @@2571=7002
 1420 02572 7040      CMA                     /                                       @@2572=7040
 1421 02573 7420      SNL                     /                                       @@2573=7420
 1422 02574 7440      SZA                     /                                       @@2574=7440
 1423 02575 7402      HLT                     /                                       @@2575=7402
 1424 02576 7200      CLA                     /                                       @@2576=7200
 1425 02577 7100      CLL                     /                                       @@2577=7100

      AUTOMATIC DISASSEMBLY OF MAINDEC-8E-D0AB-PB.bin BY D8TAPE          Page 26


 1426 02600 7020      CML                     /                                       @@2600=7020
 1427 02601 7002      BSW                     /                                       @@2601=7002
 1428 02602 7450      SNA                     /                                       @@2602=7450
 1429 02603 7420      SNL                     /                                       @@2603=7420
 1430 02604 7402      HLT                     /                                       @@2604=7402
 1431 02605 7200      CLA                     /                                       @@2605=7200
 1432 02606 7100      CLL                     /                                       @@2606=7100
 1433 02607 1113      TAD   C0113             /                                       @@2607=1113
 1434 02610 7002      BSW                     /                                       @@2610=7002
 1435 02611 1113      TAD   C0113             /                                       @@2611=1113
 1436 02612 7040      CMA                     /                                       @@2612=7040
 1437 02613 7420      SNL                     /                                       @@2613=7420
 1438 02614 7440      SZA                     /                                       @@2614=7440
 1439 02615 7402      HLT                     /                                       @@2615=7402
 1440 02616 7200      CLA                     /                                       @@2616=7200
 1441 02617 7100      CLL                     /                                       @@2617=7100
 1442 02620 1106      TAD   C0106             /                                       @@2620=1106
 1443 02621 7002      BSW                     /                                       @@2621=7002
 1444 02622 1106      TAD   C0106             /                                       @@2622=1106
 1445 02623 7040      CMA                     /                                       @@2623=7040
 1446 02624 7420      SNL                     /                                       @@2624=7420
 1447 02625 7440      SZA                     /                                       @@2625=7440
 1448 02626 7402      HLT                     /                                       @@2626=7402
 1449 02627 7300      CLA CLL                 / AC = 0000                             @@2627=7300
 1450 02630 1116      TAD   C0116             /                                       @@2630=1116
 1451 02631 7002      BSW                     /                                       @@2631=7002
 1452 02632 1116      TAD   C0116             /                                       @@2632=1116
 1453 02633 7040      CMA                     /                                       @@2633=7040
 1454 02634 7420      SNL                     /                                       @@2634=7420
 1455 02635 7440      SZA                     /                                       @@2635=7440
 1456 02636 7402      HLT                     /                                       @@2636=7402
 1457 02637 7320      CLA CLL CML             /                                       @@2637=7320
 1458 02640 1117      TAD   C0117             /                                       @@2640=1117
 1459 02641 7002      BSW                     /                                       @@2641=7002
 1460 02642 1117      TAD   C0117             /                                       @@2642=1117
 1461 02643 7040      CMA                     /                                       @@2643=7040
 1462 02644 7430      SZL                     /                                       @@2644=7430
 1463 02645 7440      SZA                     /                                       @@2645=7440
 1464 02646 7402      HLT                     /                                       @@2646=7402
 1465 02647 7200      CLA                     /                                       @@2647=7200
 1466 02650 7100      CLL                     /                                       @@2650=7100
 1467 02651 1114      TAD   C0114             /                                       @@2651=1114
 1468 02652 7002      BSW                     /                                       @@2652=7002
 1469 02653 1114      TAD   C0114             /                                       @@2653=1114
 1470 02654 7040      CMA                     /                                       @@2654=7040
 1471 02655 7420      SNL                     /                                       @@2655=7420
 1472 02656 7440      SZA                     /                                       @@2656=7440
 1473 02657 7402      HLT                     /                                       @@2657=7402
 1474 02660 7200      CLA                     /                                       @@2660=7200
 1475 02661 7100      CLL                     /                                       @@2661=7100
 1476 02662 1115      TAD   C0115             /                                       @@2662=1115
 1477 02663 7002      BSW                     /                                       @@2663=7002
 1478 02664 1115      TAD   C0115             /                                       @@2664=1115
 1479 02665 7040      CMA                     /                                       @@2665=7040
 1480 02666 7420      SNL                     /                                       @@2666=7420
 1481 02667 7440      SZA                     /                                       @@2667=7440
 1482 02670 7402      HLT                     /                                       @@2670=7402

      AUTOMATIC DISASSEMBLY OF MAINDEC-8E-D0AB-PB.bin BY D8TAPE          Page 27


 1483 02671 7200      CLA                     /                                       @@2671=7200
 1484 02672 7100      CLL                     /                                       @@2672=7100
 1485 02673 7040      CMA                     /                                       @@2673=7040
 1486 02674 7020      CML                     /                                       @@2674=7020
 1487 02675 7300      CLA CLL                 / AC = 0000                             @@2675=7300
 1488 02676 7420      SNL                     /                                       @@2676=7420
 1489 02677 7440      SZA                     /                                       @@2677=7440
 1490 02700 7402      HLT                     /                                       @@2700=7402
 1491 02701 7200      CLA                     /                                       @@2701=7200
 1492 02702 1071      TAD   C0071             /                                       @@2702=1071
 1493 02703 7240      STA                     / AC = 7777 (-0001)                     @@2703=7240
 1494 02704 7040      CMA                     /                                       @@2704=7040
 1495 02705 7440      SZA                     /                                       @@2705=7440
 1496 02706 7402      HLT                     /                                       @@2706=7402
 1497 02707 7200      CLA                     /                                       @@2707=7200
 1498 02710 7100      CLL                     /                                       @@2710=7100
 1499 02711 7040      CMA                     /                                       @@2711=7040
 1500 02712 7140      CLL CMA                 /                                       @@2712=7140
 1501 02713 7420      SNL                     /                                       @@2713=7420
 1502 02714 7440      SZA                     /                                       @@2714=7440
 1503 02715 7402      HLT                     /                                       @@2715=7402
 1504 02716 7100      CLL                     /                                       @@2716=7100
 1505 02717 7020      CML                     /                                       @@2717=7020
 1506 02720 7200      CLA                     /                                       @@2720=7200
 1507 02721 7040      CMA                     /                                       @@2721=7040
 1508 02722 7340      CLA CLL CMA             / AC = 7777 (-0001)                     @@2722=7340
 1509 02723 7040      CMA                     /                                       @@2723=7040
 1510 02724 7420      SNL                     /                                       @@2724=7420
 1511 02725 7440      SZA                     /                                       @@2725=7440
 1512 02726 7402      HLT                     /                                       @@2726=7402
 1513 02727 7200      CLA                     /                                       @@2727=7200
 1514 02730 7100      CLL                     /                                       @@2730=7100
 1515 02731 7040      CMA                     /                                       @@2731=7040
 1516 02732 7220      CLA CML                 /                                       @@2732=7220
 1517 02733 7430      SZL                     /                                       @@2733=7430
 1518 02734 7440      SZA                     /                                       @@2734=7440
 1519 02735 7402      HLT                     /                                       @@2735=7402
 1520 02736 7100      CLL                     /                                       @@2736=7100
 1521 02737 7020      CML                     /                                       @@2737=7020
 1522 02740 7120      STL                     /                                       @@2740=7120
 1523 02741 7420      SNL                     /                                       @@2741=7420
 1524 02742 7402      HLT                     /                                       @@2742=7402
 1525 02743 7100      CLL                     /                                       @@2743=7100
 1526 02744 7120      STL                     /                                       @@2744=7120
 1527 02745 7420      SNL                     /                                       @@2745=7420
 1528 02746 7402      HLT                     /                                       @@2746=7402
 1529 02747 7120      STL                     /                                       @@2747=7120
 1530 02750 7240      STA                     / AC = 7777 (-0001)                     @@2750=7240
 1531 02751 7320      CLA CLL CML             /                                       @@2751=7320
 1532 02752 7430      SZL                     /                                       @@2752=7430
 1533 02753 7440      SZA                     /                                       @@2753=7440
 1534 02754 7402      HLT                     /                                       @@2754=7402
 1535 02755 7340      CLA CLL CMA             / AC = 7777 (-0001)                     @@2755=7340
 1536 02756 7320      CLA CLL CML             /                                       @@2756=7320
 1537 02757 7430      SZL                     /                                       @@2757=7430
 1538 02760 7440      SZA                     /                                       @@2760=7440
 1539 02761 7402      HLT                     /                                       @@2761=7402

      AUTOMATIC DISASSEMBLY OF MAINDEC-8E-D0AB-PB.bin BY D8TAPE          Page 28


 1540 02762 7340      CLA CLL CMA             / AC = 7777 (-0001)                     @@2762=7340
 1541 02763 7060      CMA CML                 /                                       @@2763=7060
 1542 02764 7430      SZL                     /                                       @@2764=7430
 1543 02765 7440      SZA                     /                                       @@2765=7440
 1544 02766 7402      HLT                     /                                       @@2766=7402
 1545 02767 7300      CLA CLL                 / AC = 0000                             @@2767=7300
 1546 02770 1071      TAD   C0071             /                                       @@2770=1071
 1547 02771 7340      CLA CLL CMA             / AC = 7777 (-0001)                     @@2771=7340
 1548 02772 7040      CMA                     /                                       @@2772=7040
 1549 02773 7420      SNL                     /                                       @@2773=7420
 1550 02774 7440      SZA                     /                                       @@2774=7440
 1551 02775 7402      HLT                     /                                       @@2775=7402
 1552 02776 7300      CLA CLL                 / AC = 0000                             @@2776=7300
 1553 02777 1071      TAD   C0071             /                                       @@2777=1071
 1554 03000 7160      CLL CMA CML             /                                       @@3000=7160
 1555 03001 1071      TAD   C0071             /                                       @@3001=1071
 1556 03002 7040      CMA                     /                                       @@3002=7040
 1557 03003 7430      SZL                     /                                       @@3003=7430
 1558 03004 7440      SZA                     /                                       @@3004=7440
 1559 03005 7402      HLT                     /                                       @@3005=7402
 1560 03006 7300      CLA CLL                 / AC = 0000                             @@3006=7300
 1561 03007 7020      CML                     /                                       @@3007=7020
 1562 03010 7160      CLL CMA CML             /                                       @@3010=7160
 1563 03011 7040      CMA                     /                                       @@3011=7040
 1564 03012 7430      SZL                     /                                       @@3012=7430
 1565 03013 7440      SZA                     /                                       @@3013=7440
 1566 03014 7402      HLT                     /                                       @@3014=7402
 1567 03015 7300      CLA CLL                 / AC = 0000                             @@3015=7300
 1568 03016 1071      TAD   C0071             /                                       @@3016=1071
 1569 03017 7360      CLA CLL CMA CML         /                                       @@3017=7360
 1570 03020 7040      CMA                     /                                       @@3020=7040
 1571 03021 7430      SZL                     /                                       @@3021=7430
 1572 03022 7440      SZA                     /                                       @@3022=7440
 1573 03023 7402      HLT                     /                                       @@3023=7402
 1574 03024 7320      CLA CLL CML             /                                       @@3024=7320
 1575 03025 1070      TAD   C0070             /                                       @@3025=1070
 1576 03026 7360      CLA CLL CMA CML         /                                       @@3026=7360
 1577 03027 7040      CMA                     /                                       @@3027=7040
 1578 03030 7430      SZL                     /                                       @@3030=7430
 1579 03031 7440      SZA                     /                                       @@3031=7440
 1580 03032 7402      HLT                     /                                       @@3032=7402
 1581 03033 7200      CLA                     /                                       @@3033=7200
 1582 03034 1071      TAD   C0071             /                                       @@3034=1071
 1583 03035 7201      CLA IAC                 /                                       @@3035=7201
 1584 03036 1052      TAD   L0052             /                                       @@3036=1052
 1585 03037 7040      CMA                     /                                       @@3037=7040
 1586 03040 7440      SZA                     /                                       @@3040=7440
 1587 03041 7402      HLT                     /                                       @@3041=7402
 1588 03042 7320      CLA CLL CML             /                                       @@3042=7320
 1589 03043 1052      TAD   L0052             /                                       @@3043=1052
 1590 03044 7101      CLL IAC                 /                                       @@3044=7101
 1591 03045 7040      CMA                     /                                       @@3045=7040
 1592 03046 7420      SNL                     /                                       @@3046=7420
 1593 03047 7440      SZA                     /                                       @@3047=7440
 1594 03050 7402      HLT                     /                                       @@3050=7402
 1595 03051 7320      CLA CLL CML             /                                       @@3051=7320
 1596 03052 1071      TAD   C0071             /                                       @@3052=1071

      AUTOMATIC DISASSEMBLY OF MAINDEC-8E-D0AB-PB.bin BY D8TAPE          Page 29


 1597 03053 7301      CLA CLL IAC             / AC = 0001                             @@3053=7301
 1598 03054 1052      TAD   L0052             /                                       @@3054=1052
 1599 03055 7040      CMA                     /                                       @@3055=7040
 1600 03056 7420      SNL                     /                                       @@3056=7420
 1601 03057 7440      SZA                     /                                       @@3057=7440
 1602 03060 7402      HLT                     /                                       @@3060=7402
 1603 03061 7300      CLA CLL                 / AC = 0000                             @@3061=7300
 1604 03062 7041      CIA                     /                                       @@3062=7041
 1605 03063 7430      SZL                     /                                       @@3063=7430
 1606 03064 7440      SZA                     /                                       @@3064=7440
 1607 03065 7402      HLT                     /                                       @@3065=7402
 1608 03066 7300      CLA CLL                 / AC = 0000                             @@3066=7300
 1609 03067 1071      TAD   C0071             /                                       @@3067=1071
 1610 03070 7241      CLA CMA IAC             /                                       @@3070=7241
 1611 03071 7430      SZL                     /                                       @@3071=7430
 1612 03072 7440      SZA                     /                                       @@3072=7440
 1613 03073 7402      HLT                     /                                       @@3073=7402
 1614 03074 7320      CLA CLL CML             /                                       @@3074=7320
 1615 03075 1021      TAD   C0021             /                                       @@3075=1021
 1616 03076 7141      CLL CMA IAC             /                                       @@3076=7141
 1617 03077 7040      CMA                     /                                       @@3077=7040
 1618 03100 7420      SNL                     /                                       @@3100=7420
 1619 03101 7440      SZA                     /                                       @@3101=7440
 1620 03102 7402      HLT                     /                                       @@3102=7402
 1621 03103 7320      CLA CLL CML             /                                       @@3103=7320
 1622 03104 1071      TAD   C0071             /                                       @@3104=1071
 1623 03105 7341      CLA CLL CMA IAC         /                                       @@3105=7341
 1624 03106 7430      SZL                     /                                       @@3106=7430
 1625 03107 7440      SZA                     /                                       @@3107=7440
 1626 03110 7402      HLT                     /                                       @@3110=7402
 1627 03111 7300      CLA CLL                 / AC = 0000                             @@3111=7300
 1628 03112 1070      TAD   C0070             /                                       @@3112=1070
 1629 03113 7341      CLA CLL CMA IAC         /                                       @@3113=7341
 1630 03114 7430      SZL                     /                                       @@3114=7430
 1631 03115 7440      SZA                     /                                       @@3115=7440
 1632 03116 7402      HLT                     /                                       @@3116=7402
 1633 03117 7300      CLA CLL                 / AC = 0000                             @@3117=7300
 1634 03120 1052      TAD   L0052             /                                       @@3120=1052
 1635 03121 7021      CML IAC                 /                                       @@3121=7021
 1636 03122 7040      CMA                     /                                       @@3122=7040
 1637 03123 7430      SZL                     /                                       @@3123=7430
 1638 03124 7440      SZA                     /                                       @@3124=7440
 1639 03125 7402      HLT                     /                                       @@3125=7402
 1640 03126 7320      CLA CLL CML             /                                       @@3126=7320
 1641 03127 1052      TAD   L0052             /                                       @@3127=1052
 1642 03130 7021      CML IAC                 /                                       @@3130=7021
 1643 03131 7040      CMA                     /                                       @@3131=7040
 1644 03132 7420      SNL                     /                                       @@3132=7420
 1645 03133 7440      SZA                     /                                       @@3133=7440
 1646 03134 7402      HLT                     /                                       @@3134=7402
 1647 03135 7300      CLA CLL                 / AC = 0000                             @@3135=7300
 1648 03136 1071      TAD   C0071             /                                       @@3136=1071
 1649 03137 7221      CLA CML IAC             /                                       @@3137=7221
 1650 03140 1052      TAD   L0052             /                                       @@3140=1052
 1651 03141 7040      CMA                     /                                       @@3141=7040
 1652 03142 7430      SZL                     /                                       @@3142=7430
 1653 03143 7440      SZA                     /                                       @@3143=7440

      AUTOMATIC DISASSEMBLY OF MAINDEC-8E-D0AB-PB.bin BY D8TAPE          Page 30


 1654 03144 7402      HLT                     /                                       @@3144=7402
 1655 03145 7320      CLA CLL CML             /                                       @@3145=7320
 1656 03146 1052      TAD   L0052             /                                       @@3146=1052
 1657 03147 7121      CLL CML IAC             /                                       @@3147=7121
 1658 03150 7040      CMA                     /                                       @@3150=7040
 1659 03151 7430      SZL                     /                                       @@3151=7430
 1660 03152 7440      SZA                     /                                       @@3152=7440
 1661 03153 7402      HLT                     /                                       @@3153=7402
 1662 03154 7300      CLA CLL                 / AC = 0000                             @@3154=7300
 1663 03155 1052      TAD   L0052             /                                       @@3155=1052
 1664 03156 7121      CLL CML IAC             /                                       @@3156=7121
 1665 03157 7040      CMA                     /                                       @@3157=7040
 1666 03160 7430      SZL                     /                                       @@3160=7430
 1667 03161 7440      SZA                     /                                       @@3161=7440
 1668 03162 7402      HLT                     /                                       @@3162=7402
 1669 03163 7300      CLA CLL                 / AC = 0000                             @@3163=7300
 1670 03164 1071      TAD   C0071             /                                       @@3164=1071
 1671 03165 7321      CLA CLL CML IAC         /                                       @@3165=7321
 1672 03166 1052      TAD   L0052             /                                       @@3166=1052
 1673 03167 7040      CMA                     /                                       @@3167=7040
 1674 03170 7430      SZL                     /                                       @@3170=7430
 1675 03171 7440      SZA                     /                                       @@3171=7440
 1676 03172 7402      HLT                     /                                       @@3172=7402
 1677 03173 7320      CLA CLL CML             /                                       @@3173=7320
 1678 03174 1071      TAD   C0071             /                                       @@3174=1071
 1679 03175 7321      CLA CLL CML IAC         /                                       @@3175=7321
 1680 03176 1052      TAD   L0052             /                                       @@3176=1052
 1681 03177 7040      CMA                     /                                       @@3177=7040
 1682 03200 7430      SZL                     /                                       @@3200=7430
 1683 03201 7440      SZA                     /                                       @@3201=7440
 1684 03202 7402      HLT                     /                                       @@3202=7402
 1685 03203 7300      CLA CLL                 / AC = 0000                             @@3203=7300
 1686 03204 1021      TAD   C0021             /                                       @@3204=1021
 1687 03205 7061      CMA CML IAC             /                                       @@3205=7061
 1688 03206 7040      CMA                     /                                       @@3206=7040
 1689 03207 7430      SZL                     /                                       @@3207=7430
 1690 03210 7440      SZA                     /                                       @@3210=7440
 1691 03211 7402      HLT                     /                                       @@3211=7402
 1692 03212 7320      CLA CLL CML             /                                       @@3212=7320
 1693 03213 1021      TAD   C0021             /                                       @@3213=1021
 1694 03214 7061      CMA CML IAC             /                                       @@3214=7061
 1695 03215 7040      CMA                     /                                       @@3215=7040
 1696 03216 7420      SNL                     /                                       @@3216=7420
 1697 03217 7440      SZA                     /                                       @@3217=7440
 1698 03220 7402      HLT                     /                                       @@3220=7402
 1699 03221 7300      CLA CLL                 / AC = 0000                             @@3221=7300
 1700 03222 1071      TAD   C0071             /                                       @@3222=1071
 1701 03223 7261      CLA CMA CML IAC         /                                       @@3223=7261
 1702 03224 7420      SNL                     /                                       @@3224=7420
 1703 03225 7430      SZL                     /                                       @@3225=7430
 1704 03226 7402      HLT                     /                                       @@3226=7402
 1705 03227 7320      CLA CLL CML             /                                       @@3227=7320
 1706 03230 1071      TAD   C0071             /                                       @@3230=1071
 1707 03231 7261      CLA CMA CML IAC         /                                       @@3231=7261
 1708 03232 7430      SZL                     /                                       @@3232=7430
 1709 03233 7440      SZA                     /                                       @@3233=7440
 1710 03234 7402      HLT                     /                                       @@3234=7402

      AUTOMATIC DISASSEMBLY OF MAINDEC-8E-D0AB-PB.bin BY D8TAPE          Page 31


 1711 03235 7300      CLA CLL                 / AC = 0000                             @@3235=7300
 1712 03236 1021      TAD   C0021             /                                       @@3236=1021
 1713 03237 7161      CLL CMA CML IAC         /                                       @@3237=7161
 1714 03240 7040      CMA                     /                                       @@3240=7040
 1715 03241 7430      SZL                     /                                       @@3241=7430
 1716 03242 7440      SZA                     /                                       @@3242=7440
 1717 03243 7402      HLT                     /                                       @@3243=7402
 1718 03244 7320      CLA CLL CML             /                                       @@3244=7320
 1719 03245 1021      TAD   C0021             /                                       @@3245=1021
 1720 03246 7161      CLL CMA CML IAC         /                                       @@3246=7161
 1721 03247 7040      CMA                     /                                       @@3247=7040
 1722 03250 7430      SZL                     /                                       @@3250=7430
 1723 03251 7440      SZA                     /                                       @@3251=7440
 1724 03252 7402      HLT                     /                                       @@3252=7402
 1725 03253 7300      CLA CLL                 / AC = 0000                             @@3253=7300
 1726 03254 1071      TAD   C0071             /                                       @@3254=1071
 1727 03255 7361      CLA CLL CMA CML IAC     /                                       @@3255=7361
 1728 03256 7420      SNL                     /                                       @@3256=7420
 1729 03257 7440      SZA                     /                                       @@3257=7440
 1730 03260 7402      HLT                     /                                       @@3260=7402
 1731 03261 7360      CLA CLL CMA CML         /                                       @@3261=7360
 1732 03262 7210      CLA RAR                 /                                       @@3262=7210
 1733 03263 1066      TAD   C0066             /                                       @@3263=1066
 1734 03264 7040      CMA                     /                                       @@3264=7040
 1735 03265 7420      SNL                     /                                       @@3265=7420
 1736 03266 7440      SZA                     /                                       @@3266=7440
 1737 03267 7402      HLT                     /                                       @@3267=7402
 1738 03270 7360      CLA CLL CMA CML         /                                       @@3270=7360
 1739 03271 7204      GLK                     /                                       @@3271=7204
 1740 03272 1052      TAD   L0052             /                                       @@3272=1052
 1741 03273 7040      CMA                     /                                       @@3273=7040
 1742 03274 7420      SNL                     /                                       @@3274=7420
 1743 03275 7440      SZA                     /                                       @@3275=7440
 1744 03276 7402      HLT                     /                                       @@3276=7402
 1745 03277 7360      CLA CLL CMA CML         /                                       @@3277=7360
 1746 03300 7212      CLA RTR                 /                                       @@3300=7212
 1747 03301 1065      TAD   C0065             /                                       @@3301=1065
 1748 03302 7040      CMA                     /                                       @@3302=7040
 1749 03303 7420      SNL                     /                                       @@3303=7420
 1750 03304 7440      SZA                     /                                       @@3304=7440
 1751 03305 7402      HLT                     /                                       @@3305=7402
 1752 03306 7360      CLA CLL CMA CML         /                                       @@3306=7360
 1753 03307 7206      CLA RTL                 /                                       @@3307=7206
 1754 03310 1053      TAD   C0053             /                                       @@3310=1053
 1755 03311 7040      CMA                     /                                       @@3311=7040
 1756 03312 7420      SNL                     /                                       @@3312=7420
 1757 03313 7440      SZA                     /                                       @@3313=7440
 1758 03314 7402      HLT                     /                                       @@3314=7402
 1759 03315 7320      CLA CLL CML             /                                       @@3315=7320
 1760 03316 1032      TAD   C0032             /                                       @@3316=1032
 1761 03317 7110      CLL RAR                 /                                       @@3317=7110
 1762 03320 1056      TAD   C0056             /                                       @@3320=1056
 1763 03321 7040      CMA                     /                                       @@3321=7040
 1764 03322 7420      SNL                     /                                       @@3322=7420
 1765 03323 7440      SZA                     /                                       @@3323=7440
 1766 03324 7402      HLT                     /                                       @@3324=7402
 1767 03325 7320      CLA CLL CML             /                                       @@3325=7320

      AUTOMATIC DISASSEMBLY OF MAINDEC-8E-D0AB-PB.bin BY D8TAPE          Page 32


 1768 03326 1032      TAD   C0032             /                                       @@3326=1032
 1769 03327 7104      CLL RAL                 /                                       @@3327=7104
 1770 03330 1061      TAD   C0061             /                                       @@3330=1061
 1771 03331 7040      CMA                     /                                       @@3331=7040
 1772 03332 7420      SNL                     /                                       @@3332=7420
 1773 03333 7440      SZA                     /                                       @@3333=7440
 1774 03334 7402      HLT                     /                                       @@3334=7402
 1775 03335 7320      CLA CLL CML             /                                       @@3335=7320
 1776 03336 1032      TAD   C0032             /                                       @@3336=1032
 1777 03337 7112      CLL RTR                 /                                       @@3337=7112
 1778 03340 1055      TAD   C0055             /                                       @@3340=1055
 1779 03341 7040      CMA                     /                                       @@3341=7040
 1780 03342 7420      SNL                     /                                       @@3342=7420
 1781 03343 7440      SZA                     /                                       @@3343=7440
 1782 03344 7402      HLT                     /                                       @@3344=7402
 1783 03345 7320      CLA CLL CML             /                                       @@3345=7320
 1784 03346 1032      TAD   C0032             /                                       @@3346=1032
 1785 03347 7106      CLL RTL                 /                                       @@3347=7106
 1786 03350 1062      TAD   C0062             /                                       @@3350=1062
 1787 03351 7040      CMA                     /                                       @@3351=7040
 1788 03352 7420      SNL                     /                                       @@3352=7420
 1789 03353 7440      SZA                     /                                       @@3353=7440
 1790 03354 7402      HLT                     /                                       @@3354=7402
 1791 03355 7360      CLA CLL CMA CML         /                                       @@3355=7360
 1792 03356 7310      CLA CLL RAR             /                                       @@3356=7310
 1793 03357 7420      SNL                     /                                       @@3357=7420
 1794 03360 7440      SZA                     /                                       @@3360=7440
 1795 03361 7402      HLT                     /                                       @@3361=7402
 1796 03362 7360      CLA CLL CMA CML         /                                       @@3362=7360
 1797 03363 7304      CLA CLL RAL             /                                       @@3363=7304
 1798 03364 7420      SNL                     /                                       @@3364=7420
 1799 03365 7430      SZL                     /                                       @@3365=7430
 1800 03366 7402      HLT                     /                                       @@3366=7402
 1801 03367 7360      CLA CLL CMA CML         /                                       @@3367=7360
 1802 03370 7312      CLA CLL RTR             /                                       @@3370=7312
 1803 03371 7420      SNL                     /                                       @@3371=7420
 1804 03372 7440      SZA                     /                                       @@3372=7440
 1805 03373 7402      HLT                     /                                       @@3373=7402
 1806 03374 7360      CLA CLL CMA CML         /                                       @@3374=7360
 1807 03375 7306      CLA CLL RTL             /                                       @@3375=7306
 1808 03376 7420      SNL                     /                                       @@3376=7420
 1809 03377 7440      SZA                     /                                       @@3377=7440
 1810 03400 7402      HLT                     /                                       @@3400=7402
 1811 03401 7300      CLA CLL                 / AC = 0000                             @@3401=7300
 1812 03402 7030      CML RAR                 /                                       @@3402=7030
 1813 03403 1066      TAD   C0066             /                                       @@3403=1066
 1814 03404 7040      CMA                     /                                       @@3404=7040
 1815 03405 7420      SNL                     /                                       @@3405=7420
 1816 03406 7440      SZA                     /                                       @@3406=7440
 1817 03407 7402      HLT                     /                                       @@3407=7402
 1818 03410 7300      CLA CLL                 / AC = 0000                             @@3410=7300
 1819 03411 7024      CML RAL                 /                                       @@3411=7024
 1820 03412 1052      TAD   L0052             /                                       @@3412=1052
 1821 03413 7040      CMA                     /                                       @@3413=7040
 1822 03414 7420      SNL                     /                                       @@3414=7420
 1823 03415 7440      SZA                     /                                       @@3415=7440
 1824 03416 7402      HLT                     /                                       @@3416=7402

      AUTOMATIC DISASSEMBLY OF MAINDEC-8E-D0AB-PB.bin BY D8TAPE          Page 33


 1825 03417 7300      CLA CLL                 / AC = 0000                             @@3417=7300
 1826 03420 7032      CML RTR                 /                                       @@3420=7032
 1827 03421 1065      TAD   C0065             /                                       @@3421=1065
 1828 03422 7040      CMA                     /                                       @@3422=7040
 1829 03423 7420      SNL                     /                                       @@3423=7420
 1830 03424 7440      SZA                     /                                       @@3424=7440
 1831 03425 7402      HLT                     /                                       @@3425=7402
 1832 03426 7300      CLA CLL                 / AC = 0000                             @@3426=7300
 1833 03427 7026      CML RTL                 /                                       @@3427=7026
 1834 03430 1053      TAD   C0053             /                                       @@3430=1053
 1835 03431 7040      CMA                     /                                       @@3431=7040
 1836 03432 7420      SNL                     /                                       @@3432=7420
 1837 03433 7440      SZA                     /                                       @@3433=7440
 1838 03434 7402      HLT                     /                                       @@3434=7402
 1839 03435 7300      CLA CLL                 / AC = 0000                             @@3435=7300
 1840 03436 1070      TAD   C0070             /                                       @@3436=1070
 1841 03437 7230      CLA CML RAR             /                                       @@3437=7230
 1842 03440 1066      TAD   C0066             /                                       @@3440=1066
 1843 03441 7040      CMA                     /                                       @@3441=7040
 1844 03442 7420      SNL                     /                                       @@3442=7420
 1845 03443 7440      SZA                     /                                       @@3443=7440
 1846 03444 7402      HLT                     /                                       @@3444=7402
 1847 03445 7300      CLA CLL                 / AC = 0000                             @@3445=7300
 1848 03446 1070      TAD   C0070             /                                       @@3446=1070
 1849 03447 7224      CLA CML RAL             /                                       @@3447=7224
 1850 03450 1052      TAD   L0052             /                                       @@3450=1052
 1851 03451 7040      CMA                     /                                       @@3451=7040
 1852 03452 7420      SNL                     /                                       @@3452=7420
 1853 03453 7440      SZA                     /                                       @@3453=7440
 1854 03454 7402      HLT                     /                                       @@3454=7402
 1855 03455 7300      CLA CLL                 / AC = 0000                             @@3455=7300
 1856 03456 1070      TAD   C0070             /                                       @@3456=1070
 1857 03457 7232      CLA CML RTR             /                                       @@3457=7232
 1858 03460 1065      TAD   C0065             /                                       @@3460=1065
 1859 03461 7040      CMA                     /                                       @@3461=7040
 1860 03462 7420      SNL                     /                                       @@3462=7420
 1861 03463 7440      SZA                     /                                       @@3463=7440
 1862 03464 7402      HLT                     /                                       @@3464=7402
 1863 03465 7300      CLA CLL                 / AC = 0000                             @@3465=7300
 1864 03466 1070      TAD   C0070             /                                       @@3466=1070
 1865 03467 7226      CLA CML RTL             /                                       @@3467=7226
 1866 03470 1053      TAD   C0053             /                                       @@3470=1053
 1867 03471 7040      CMA                     /                                       @@3471=7040
 1868 03472 7420      SNL                     /                                       @@3472=7420
 1869 03473 7440      SZA                     /                                       @@3473=7440
 1870 03474 7402      HLT                     /                                       @@3474=7402
 1871 03475 7300      CLA CLL                 / AC = 0000                             @@3475=7300
 1872 03476 7130      CLL CML RAR             /                                       @@3476=7130
 1873 03477 7004      RAL                     /                                       @@3477=7004
 1874 03500 7430      SZL                     /                                       @@3500=7430
 1875 03501 7440      SZA                     /                                       @@3501=7440
 1876 03502 7402      HLT                     /                                       @@3502=7402
 1877 03503 7320      CLA CLL CML             /                                       @@3503=7320
 1878 03504 7130      CLL CML RAR             /                                       @@3504=7130
 1879 03505 7004      RAL                     /                                       @@3505=7004
 1880 03506 7430      SZL                     /                                       @@3506=7430
 1881 03507 7440      SZA                     /                                       @@3507=7440

      AUTOMATIC DISASSEMBLY OF MAINDEC-8E-D0AB-PB.bin BY D8TAPE          Page 34


 1882 03510 7402      HLT                     /                                       @@3510=7402
 1883 03511 7300      CLA CLL                 / AC = 0000                             @@3511=7300
 1884 03512 7124      CLL CML RAL             /                                       @@3512=7124
 1885 03513 7010      RAR                     /                                       @@3513=7010
 1886 03514 7430      SZL                     /                                       @@3514=7430
 1887 03515 7440      SZA                     /                                       @@3515=7440
 1888 03516 7402      HLT                     /                                       @@3516=7402
 1889 03517 7320      CLA CLL CML             /                                       @@3517=7320
 1890 03520 7124      CLL CML RAL             /                                       @@3520=7124
 1891 03521 7010      RAR                     /                                       @@3521=7010
 1892 03522 7430      SZL                     /                                       @@3522=7430
 1893 03523 7440      SZA                     /                                       @@3523=7440
 1894 03524 7402      HLT                     /                                       @@3524=7402
 1895 03525 7300      CLA CLL                 / AC = 0000                             @@3525=7300
 1896 03526 7132      CLL CML RTR             /                                       @@3526=7132
 1897 03527 7006      RTL                     /                                       @@3527=7006
 1898 03530 7430      SZL                     /                                       @@3530=7430
 1899 03531 7440      SZA                     /                                       @@3531=7440
 1900 03532 7402      HLT                     /                                       @@3532=7402
 1901 03533 7320      CLA CLL CML             /                                       @@3533=7320
 1902 03534 7132      CLL CML RTR             /                                       @@3534=7132
 1903 03535 7006      RTL                     /                                       @@3535=7006
 1904 03536 7430      SZL                     /                                       @@3536=7430
 1905 03537 7440      SZA                     /                                       @@3537=7440
 1906 03540 7402      HLT                     /                                       @@3540=7402
 1907 03541 7300      CLA CLL                 / AC = 0000                             @@3541=7300
 1908 03542 7126      CLL CML RTL             /                                       @@3542=7126
 1909 03543 7012      RTR                     /                                       @@3543=7012
 1910 03544 7430      SZL                     /                                       @@3544=7430
 1911 03545 7440      SZA                     /                                       @@3545=7440
 1912 03546 7402      HLT                     /                                       @@3546=7402
 1913 03547 7320      CLA CLL CML             /                                       @@3547=7320
 1914 03550 7126      CLL CML RTL             /                                       @@3550=7126
 1915 03551 7012      RTR                     /                                       @@3551=7012
 1916 03552 7430      SZL                     /                                       @@3552=7430
 1917 03553 7440      SZA                     /                                       @@3553=7440
 1918 03554 7402      HLT                     /                                       @@3554=7402
 1919 03555 7300      CLA CLL                 / AC = 0000                             @@3555=7300
 1920 03556 1070      TAD   C0070             /                                       @@3556=1070
 1921 03557 7330      CLA CLL CML RAR         / AC = 4000 (-4000 = -2048 dec)         @@3557=7330
 1922 03560 7004      RAL                     /                                       @@3560=7004
 1923 03561 7430      SZL                     /                                       @@3561=7430
 1924 03562 7440      SZA                     /                                       @@3562=7440
 1925 03563 7402      HLT                     /                                       @@3563=7402
 1926 03564 7320      CLA CLL CML             /                                       @@3564=7320
 1927 03565 1071      TAD   C0071             /                                       @@3565=1071
 1928 03566 7330      CLA CLL CML RAR         / AC = 4000 (-4000 = -2048 dec)         @@3566=7330
 1929 03567 7004      RAL                     /                                       @@3567=7004
 1930 03570 7430      SZL                     /                                       @@3570=7430
 1931 03571 7440      SZA                     /                                       @@3571=7440
 1932 03572 7402      HLT                     /                                       @@3572=7402
 1933 03573 7300      CLA CLL                 / AC = 0000                             @@3573=7300
 1934 03574 1071      TAD   C0071             /                                       @@3574=1071
 1935 03575 7324      CLA CLL CML RAL         /                                       @@3575=7324
 1936 03576 7010      RAR                     /                                       @@3576=7010
 1937 03577 7430      SZL                     /                                       @@3577=7430
 1938 03600 7440      SZA                     /                                       @@3600=7440

      AUTOMATIC DISASSEMBLY OF MAINDEC-8E-D0AB-PB.bin BY D8TAPE          Page 35


 1939 03601 7402      HLT                     /                                       @@3601=7402
 1940 03602 7320      CLA CLL CML             /                                       @@3602=7320
 1941 03603 1070      TAD   C0070             /                                       @@3603=1070
 1942 03604 7324      CLA CLL CML RAL         /                                       @@3604=7324
 1943 03605 7010      RAR                     /                                       @@3605=7010
 1944 03606 7430      SZL                     /                                       @@3606=7430
 1945 03607 7440      SZA                     /                                       @@3607=7440
 1946 03610 7402      HLT                     /                                       @@3610=7402
 1947 03611 7300      CLA CLL                 / AC = 0000                             @@3611=7300
 1948 03612 1071      TAD   C0071             /                                       @@3612=1071
 1949 03613 7332      CLA CLL CML RTR         / AC = 2000 (1024)                      @@3613=7332
 1950 03614 7006      RTL                     /                                       @@3614=7006
 1951 03615 7430      SZL                     /                                       @@3615=7430
 1952 03616 7440      SZA                     /                                       @@3616=7440
 1953 03617 7402      HLT                     /                                       @@3617=7402
 1954 03620 7320      CLA CLL CML             /                                       @@3620=7320
 1955 03621 1070      TAD   C0070             /                                       @@3621=1070
 1956 03622 7332      CLA CLL CML RTR         / AC = 2000 (1024)                      @@3622=7332
 1957 03623 7006      RTL                     /                                       @@3623=7006
 1958 03624 7430      SZL                     /                                       @@3624=7430
 1959 03625 7440      SZA                     /                                       @@3625=7440
 1960 03626 7402      HLT                     /                                       @@3626=7402
 1961 03627 7300      CLA CLL                 / AC = 0000                             @@3627=7300
 1962 03630 1071      TAD   C0071             /                                       @@3630=1071
 1963 03631 7326      CLA CLL CML RTL         / AC = 0002                             @@3631=7326
 1964 03632 7012      RTR                     /                                       @@3632=7012
 1965 03633 7430      SZL                     /                                       @@3633=7430
 1966 03634 7440      SZA                     /                                       @@3634=7440
 1967 03635 7402      HLT                     /                                       @@3635=7402
 1968 03636 7320      CLA CLL CML             /                                       @@3636=7320
 1969 03637 1070      TAD   C0070             /                                       @@3637=1070
 1970 03640 7326      CLA CLL CML RTL         / AC = 0002                             @@3640=7326
 1971 03641 7012      RTR                     /                                       @@3641=7012
 1972 03642 7430      SZL                     /                                       @@3642=7430
 1973 03643 7440      SZA                     /                                       @@3643=7440
 1974 03644 7402      HLT                     /                                       @@3644=7402
 1975 03645 7300      CLA CLL                 / AC = 0000                             @@3645=7300
 1976 03646 1067      TAD   C0067             /                                       @@3646=1067
 1977 03647 7041      CIA                     /                                       @@3647=7041
 1978 03650 1052      TAD   L0052             /                                       @@3650=1052
 1979 03651 7040      CMA                     /                                       @@3651=7040
 1980 03652 7420      SNL                     /                                       @@3652=7420
 1981 03653 7440      SZA                     /                                       @@3653=7440
 1982 03654 7402      HLT                     /                                       @@3654=7402
 1983 03655 7300      CLA CLL                 / AC = 0000                             @@3655=7300
 1984 03656 1052      TAD   L0052             /                                       @@3656=1052
 1985 03657 7041      CIA                     /                                       @@3657=7041
 1986 03660 1053      TAD   C0053             /                                       @@3660=1053
 1987 03661 7040      CMA                     /                                       @@3661=7040
 1988 03662 7420      SNL                     /                                       @@3662=7420
 1989 03663 7440      SZA                     /                                       @@3663=7440
 1990 03664 7402      HLT                     /                                       @@3664=7402
 1991 03665 7300      CLA CLL                 / AC = 0000                             @@3665=7300
 1992 03666 1101      TAD   C0101             /                                       @@3666=1101
 1993 03667 7041      CIA                     /                                       @@3667=7041
 1994 03670 1054      TAD   C0054             /                                       @@3670=1054
 1995 03671 7040      CMA                     /                                       @@3671=7040

      AUTOMATIC DISASSEMBLY OF MAINDEC-8E-D0AB-PB.bin BY D8TAPE          Page 36


 1996 03672 7420      SNL                     /                                       @@3672=7420
 1997 03673 7440      SZA                     /                                       @@3673=7440
 1998 03674 7402      HLT                     /                                       @@3674=7402
 1999 03675 7300      CLA CLL                 / AC = 0000                             @@3675=7300
 2000 03676 1100      TAD   C0100             /                                       @@3676=1100
 2001 03677 7041      CIA                     /                                       @@3677=7041
 2002 03700 1055      TAD   C0055             /                                       @@3700=1055
 2003 03701 7040      CMA                     /                                       @@3701=7040
 2004 03702 7420      SNL                     /                                       @@3702=7420
 2005 03703 7440      SZA                     /                                       @@3703=7440
 2006 03704 7402      HLT                     /                                       @@3704=7402
 2007 03705 7300      CLA CLL                 / AC = 0000                             @@3705=7300
 2008 03706 1077      TAD   C0077             /                                       @@3706=1077
 2009 03707 7041      CIA                     /                                       @@3707=7041
 2010 03710 1056      TAD   C0056             /                                       @@3710=1056
 2011 03711 7040      CMA                     /                                       @@3711=7040
 2012 03712 7420      SNL                     /                                       @@3712=7420
 2013 03713 7440      SZA                     /                                       @@3713=7440
 2014 03714 7402      HLT                     /                                       @@3714=7402
 2015 03715 7300      CLA CLL                 / AC = 0000                             @@3715=7300
 2016 03716 1076      TAD   C0076             /                                       @@3716=1076
 2017 03717 7041      CIA                     /                                       @@3717=7041
 2018 03720 1057      TAD   C0057             /                                       @@3720=1057
 2019 03721 7040      CMA                     /                                       @@3721=7040
 2020 03722 7420      SNL                     /                                       @@3722=7420
 2021 03723 7440      SZA                     /                                       @@3723=7440
 2022 03724 7402      HLT                     /                                       @@3724=7402
 2023 03725 7300      CLA CLL                 / AC = 0000                             @@3725=7300
 2024 03726 1113      TAD   C0113             /                                       @@3726=1113
 2025 03727 7041      CIA                     /                                       @@3727=7041
 2026 03730 1061      TAD   C0061             /                                       @@3730=1061
 2027 03731 7040      CMA                     /                                       @@3731=7040
 2028 03732 7420      SNL                     /                                       @@3732=7420
 2029 03733 7440      SZA                     /                                       @@3733=7440
 2030 03734 7402      HLT                     /                                       @@3734=7402
 2031 03735 7300      CLA CLL                 / AC = 0000                             @@3735=7300
 2032 03736 1075      TAD   C0075             /                                       @@3736=1075
 2033 03737 7041      CIA                     /                                       @@3737=7041
 2034 03740 1062      TAD   C0062             /                                       @@3740=1062
 2035 03741 7040      CMA                     /                                       @@3741=7040
 2036 03742 7420      SNL                     /                                       @@3742=7420
 2037 03743 7440      SZA                     /                                       @@3743=7440
 2038 03744 7402      HLT                     /                                       @@3744=7402
 2039 03745 7300      CLA CLL                 / AC = 0000                             @@3745=7300
 2040 03746 1074      TAD   C0074             /                                       @@3746=1074
 2041 03747 7041      CIA                     /                                       @@3747=7041
 2042 03750 1063      TAD   C0063             /                                       @@3750=1063
 2043 03751 7040      CMA                     /                                       @@3751=7040
 2044 03752 7420      SNL                     /                                       @@3752=7420
 2045 03753 7440      SZA                     /                                       @@3753=7440
 2046 03754 7402      HLT                     /                                       @@3754=7402
 2047 03755 7300      CLA CLL                 / AC = 0000                             @@3755=7300
 2048 03756 1073      TAD   C0073             /                                       @@3756=1073
 2049 03757 7041      CIA                     /                                       @@3757=7041
 2050 03760 1064      TAD   C0064             /                                       @@3760=1064
 2051 03761 7040      CMA                     /                                       @@3761=7040
 2052 03762 7420      SNL                     /                                       @@3762=7420

      AUTOMATIC DISASSEMBLY OF MAINDEC-8E-D0AB-PB.bin BY D8TAPE          Page 37


 2053 03763 7440      SZA                     /                                       @@3763=7440
 2054 03764 7402      HLT                     /                                       @@3764=7402
 2055 03765 7300      CLA CLL                 / AC = 0000                             @@3765=7300
 2056 03766 1072      TAD   C0072             /                                       @@3766=1072
 2057 03767 7041      CIA                     /                                       @@3767=7041
 2058 03770 1065      TAD   C0065             /                                       @@3770=1065
 2059 03771 7040      CMA                     /                                       @@3771=7040
 2060 03772 7420      SNL                     /                                       @@3772=7420
 2061 03773 7440      SZA                     /                                       @@3773=7440
 2062 03774 7402      HLT                     /                                       @@3774=7402
 2063 03775 7300      CLA CLL                 / AC = 0000                             @@3775=7300
 2064 03776 1050      TAD   C0050             /                                       @@3776=1050
 2065 03777 7041      CIA                     /                                       @@3777=7041
 2066 04000 1066      TAD   C0066             /                                       @@4000=1066
 2067 04001 7040      CMA                     /                                       @@4001=7040
 2068 04002 7420      SNL                     /                                       @@4002=7420
 2069 04003 7440      SZA                     /                                       @@4003=7440
 2070 04004 7402      HLT                     /                                       @@4004=7402
 2071 04005 7300      CLA CLL                 / AC = 0000                             @@4005=7300
 2072 04006 1020      TAD   C0020             /                                       @@4006=1020
 2073 04007 7041      CIA                     /                                       @@4007=7041
 2074 04010 7450      SNA                     /                                       @@4010=7450
 2075 04011 7420      SNL                     /                                       @@4011=7420
 2076 04012 7402      HLT                     /                                       @@4012=7402
 2077 04013 7340      CLA CLL CMA             / AC = 7777 (-0001)                     @@4013=7340
 2078 04014 7311      CLA CLL IAC RAR         /                                       @@4014=7311
 2079 04015 7430      SZL                     /                                       @@4015=7430
 2080 04016 7440      SZA                     /                                       @@4016=7440
 2081 04017 7402      HLT                     /                                       @@4017=7402
 2082 04020 7360      CLA CLL CMA CML         /                                       @@4020=7360
 2083 04021 7305      CLA CLL IAC RAL         / AC = 0002                             @@4021=7305
 2084 04022 7430      SZL                     /                                       @@4022=7430
 2085 04023 7402      HLT                     /                                       @@4023=7402
 2086 04024 7041      CIA                     /                                       @@4024=7041
 2087 04025 1022      TAD   C0022             /                                       @@4025=1022
 2088 04026 7440      SZA                     /                                       @@4026=7440
 2089 04027 7402      HLT                     /                                       @@4027=7402
 2090 04030 7320      CLA CLL CML             /                                       @@4030=7320
 2091 04031 7313      CLA CLL IAC RTR         /                                       @@4031=7313
 2092 04032 7430      SZL                     /                                       @@4032=7430
 2093 04033 7402      HLT                     /                                       @@4033=7402
 2094 04034 7500      SMA                     /                                       @@4034=7500
 2095 04035 7402      HLT                     /                                       @@4035=7402
 2096 04036 7360      CLA CLL CMA CML         /                                       @@4036=7360
 2097 04037 7307      CLA CLL IAC RTL         / AC = 0004                             @@4037=7307
 2098 04040 7430      SZL                     /                                       @@4040=7430
 2099 04041 7402      HLT                     /                                       @@4041=7402
 2100 04042 7041      CIA                     /                                       @@4042=7041
 2101 04043 1024      TAD   C0024             /                                       @@4043=1024
 2102 04044 7440      SZA                     /                                       @@4044=7440
 2103 04045 7402      HLT                     /                                       @@4045=7402
 2104 04046 7300      CLA CLL                 / AC = 0000                             @@4046=7300
 2105 04047 7331      CLA CLL CML IAC RAR     /                                       @@4047=7331
 2106 04050 7520      SMA SNL                 /                                       @@4050=7520
 2107 04051 7402      HLT                     /                                       @@4051=7402
 2108 04052 7300      CLA CLL                 / AC = 0000                             @@4052=7300
 2109 04053 7345      CLA CLL CMA IAC RAL     /                                       @@4053=7345

      AUTOMATIC DISASSEMBLY OF MAINDEC-8E-D0AB-PB.bin BY D8TAPE          Page 38


 2110 04054 7430      SZL                     /                                       @@4054=7430
 2111 04055 7402      HLT                     /                                       @@4055=7402
 2112 04056 7041      CIA                     /                                       @@4056=7041
 2113 04057 1021      TAD   C0021             /                                       @@4057=1021
 2114 04060 7440      SZA                     /                                       @@4060=7440
 2115 04061 7402      HLT                     /                                       @@4061=7402
 2116 04062 7360      CLA CLL CMA CML         /                                       @@4062=7360
 2117 04063 7373      CLA CLL CMA CML IAC RTR /                                       @@4063=7373
 2118 04064 7440      SZA                     /                                       @@4064=7440
 2119 04065 7402      HLT                     /                                       @@4065=7402
 2120 04066 7430      SZL                     /                                       @@4066=7430
 2121 04067 7402      HLT                     /                                       @@4067=7402
 2122 04070 7332      CLA CLL CML RTR         / AC = 2000 (1024)                      @@4070=7332
 2123 04071 7006      RTL                     /                                       @@4071=7006
 2124 04072 7430      SZL                     /                                       @@4072=7430
 2125 04073 7440      SZA                     /                                       @@4073=7440
 2126 04074 7402      HLT                     /                                       @@4074=7402
 2127 04075 7360      CLA CLL CMA CML         /                                       @@4075=7360
 2128 04076 7342      CLA CLL CMA BSW         /                                       @@4076=7342
 2129 04077 7040      CMA                     /                                       @@4077=7040
 2130 04100 7420      SNL                     /                                       @@4100=7420
 2131 04101 7440      SZA                     /                                       @@4101=7440
 2132 04102 7402      HLT                     /                                       @@4102=7402
 2133 04103 7360      CLA CLL CMA CML         /                                       @@4103=7360
 2134 04104 7303      CLA CLL IAC BSW         /                                       @@4104=7303
 2135 04105 1061      TAD   C0061             /                                       @@4105=1061
 2136 04106 7040      CMA                     /                                       @@4106=7040
 2137 04107 7420      SNL                     /                                       @@4107=7420
 2138 04110 7440      SZA                     /                                       @@4110=7440
 2139 04111 7402      HLT                     /                                       @@4111=7402
 2140 04112 7360      CLA CLL CMA CML         /                                       @@4112=7360
 2141 04113 7343      CLA CLL CMA IAC BSW     /                                       @@4113=7343
 2142 04114 7430      SZL                     /                                       @@4114=7430
 2143 04115 7440      SZA                     /                                       @@4115=7440
 2144 04116 7402      HLT                     /                                       @@4116=7402
 2145 04117 7360      CLA CLL CMA CML         /                                       @@4117=7360
 2146 04120 7363      CLA CLL CMA CML IAC BSW /                                       @@4120=7363
 2147 04121 7420      SNL                     /                                       @@4121=7420
 2148 04122 7440      SZA                     /                                       @@4122=7440
 2149 04123 7402      HLT                     /                                       @@4123=7402
 2150 04124 7300      CLA CLL                 / AC = 0000                             @@4124=7300
 2151 04125 1043      TAD   C0043             /                                       @@4125=1043
 2152 04126 7063      CMA CML IAC BSW         /                                       @@4126=7063
 2153 04127 1047      TAD   C0047             /                                       @@4127=1047
 2154 04130 7040      CMA                     /                                       @@4130=7040
 2155 04131 7430      SZL                     /                                       @@4131=7430
 2156 04132 7440      SZA                     /                                       @@4132=7440
 2157 04133 7402      HLT                     /                                       @@4133=7402
 2158 04134 7332      CLA CLL CML RTR         / AC = 2000 (1024)                      @@4134=7332
 2159 04135 7063      CMA CML IAC BSW         /                                       @@4135=7063
 2160 04136 1051      TAD   C0051             /                                       @@4136=1051
 2161 04137 7040      CMA                     /                                       @@4137=7040
 2162 04140 7430      SZL                     /                                       @@4140=7430
 2163 04141 7440      SZA                     /                                       @@4141=7440
 2164 04142 7402      HLT                     /                                       @@4142=7402
 2165 04143 7240      STA                     / AC = 7777 (-0001)                     @@4143=7240
 2166 04144 7700      SMA CLA                 /                                       @@4144=7700

      AUTOMATIC DISASSEMBLY OF MAINDEC-8E-D0AB-PB.bin BY D8TAPE          Page 39


 2167 04145 7402      HLT                     /                                       @@4145=7402
 2168 04146 7440      SZA                     /                                       @@4146=7440
 2169 04147 7402      HLT                     /                                       @@4147=7402
 2170 04150 7240      STA                     / AC = 7777 (-0001)                     @@4150=7240
 2171 04151 7640      SZA CLA                 /                                       @@4151=7640
 2172 04152 7440      SZA                     /                                       @@4152=7440
 2173 04153 7402      HLT                     /                                       @@4153=7402
 2174 04154 7240      STA                     / AC = 7777 (-0001)                     @@4154=7240
 2175 04155 7540      SMA SZA                 /                                       @@4155=7540
 2176 04156 7402      HLT                     /                                       @@4156=7402
 2177 04157 7200      CLA                     /                                       @@4157=7200
 2178 04160 7540      SMA SZA                 /                                       @@4160=7540
 2179 04161 7402      HLT                     /                                       @@4161=7402
 2180 04162 7200      CLA                     /                                       @@4162=7200
 2181 04163 1066      TAD   C0066             /                                       @@4163=1066
 2182 04164 7540      SMA SZA                 /                                       @@4164=7540
 2183 04165 7450      SNA                     /                                       @@4165=7450
 2184 04166 7402      HLT                     /                                       @@4166=7402
 2185 04167 7240      STA                     / AC = 7777 (-0001)                     @@4167=7240
 2186 04170 7740      SMA SZA CLA             /                                       @@4170=7740
 2187 04171 7402      HLT                     /                                       @@4171=7402
 2188 04172 7440      SZA                     /                                       @@4172=7440
 2189 04173 7402      HLT                     /                                       @@4173=7402
 2190 04174 7200      CLA                     /                                       @@4174=7200
 2191 04175 7740      SMA SZA CLA             /                                       @@4175=7740
 2192 04176 7402      HLT                     /                                       @@4176=7402
 2193 04177 7440      SZA                     /                                       @@4177=7440
 2194 04200 7402      HLT                     /                                       @@4200=7402
 2195 04201 7200      CLA                     /                                       @@4201=7200
 2196 04202 1066      TAD   C0066             /                                       @@4202=1066
 2197 04203 7740      SMA SZA CLA             /                                       @@4203=7740
 2198 04204 7440      SZA                     /                                       @@4204=7440
 2199 04205 7402      HLT                     /                                       @@4205=7402
 2200 04206 7300      CLA CLL                 / AC = 0000                             @@4206=7300
 2201 04207 1070      TAD   C0070             /                                       @@4207=1070
 2202 04210 7620      SNL CLA                 /                                       @@4210=7620
 2203 04211 7440      SZA                     /                                       @@4211=7440
 2204 04212 7402      HLT                     /                                       @@4212=7402
 2205 04213 7320      CLA CLL CML             /                                       @@4213=7320
 2206 04214 1071      TAD   C0071             /                                       @@4214=1071
 2207 04215 7620      SNL CLA                 /                                       @@4215=7620
 2208 04216 7402      HLT                     /                                       @@4216=7402
 2209 04217 7440      SZA                     /                                       @@4217=7440
 2210 04220 7402      HLT                     /                                       @@4220=7402
 2211 04221 7300      CLA CLL                 / AC = 0000                             @@4221=7300
 2212 04222 7520      SMA SNL                 /                                       @@4222=7520
 2213 04223 7440      SZA                     /                                       @@4223=7440
 2214 04224 7402      HLT                     /                                       @@4224=7402
 2215 04225 7320      CLA CLL CML             /                                       @@4225=7320
 2216 04226 7520      SMA SNL                 /                                       @@4226=7520
 2217 04227 7402      HLT                     /                                       @@4227=7402
 2218 04230 7300      CLA CLL                 / AC = 0000                             @@4230=7300
 2219 04231 1050      TAD   C0050             /                                       @@4231=1050
 2220 04232 7520      SMA SNL                 /                                       @@4232=7520
 2221 04233 7402      HLT                     /                                       @@4233=7402
 2222 04234 7320      CLA CLL CML             /                                       @@4234=7320
 2223 04235 1050      TAD   C0050             /                                       @@4235=1050

      AUTOMATIC DISASSEMBLY OF MAINDEC-8E-D0AB-PB.bin BY D8TAPE          Page 40


 2224 04236 7520      SMA SNL                 /                                       @@4236=7520
 2225 04237 7402      HLT                     /                                       @@4237=7402
 2226 04240 7300      CLA CLL                 / AC = 0000                             @@4240=7300
 2227 04241 7720      SMA SNL CLA             /                                       @@4241=7720
 2228 04242 7440      SZA                     /                                       @@4242=7440
 2229 04243 7402      HLT                     /                                       @@4243=7402
 2230 04244 7320      CLA CLL CML             /                                       @@4244=7320
 2231 04245 7720      SMA SNL CLA             /                                       @@4245=7720
 2232 04246 7402      HLT                     /                                       @@4246=7402
 2233 04247 7440      SZA                     /                                       @@4247=7440
 2234 04250 7402      HLT                     /                                       @@4250=7402
 2235 04251 7300      CLA CLL                 / AC = 0000                             @@4251=7300
 2236 04252 1050      TAD   C0050             /                                       @@4252=1050
 2237 04253 7720      SMA SNL CLA             /                                       @@4253=7720
 2238 04254 7402      HLT                     /                                       @@4254=7402
 2239 04255 7440      SZA                     /                                       @@4255=7440
 2240 04256 7402      HLT                     /                                       @@4256=7402
 2241 04257 7320      CLA CLL CML             /                                       @@4257=7320
 2242 04260 1050      TAD   C0050             /                                       @@4260=1050
 2243 04261 7720      SMA SNL CLA             /                                       @@4261=7720
 2244 04262 7402      HLT                     /                                       @@4262=7402
 2245 04263 7440      SZA                     /                                       @@4263=7440
 2246 04264 7402      HLT                     /                                       @@4264=7402
 2247 04265 7300      CLA CLL                 / AC = 0000                             @@4265=7300
 2248 04266 7460      SZA SNL                 /                                       @@4266=7460
 2249 04267 7402      HLT                     /                                       @@4267=7402
 2250 04270 7320      CLA CLL CML             /                                       @@4270=7320
 2251 04271 7460      SZA SNL                 /                                       @@4271=7460
 2252 04272 7402      HLT                     /                                       @@4272=7402
 2253 04273 7300      CLA CLL                 / AC = 0000                             @@4273=7300
 2254 04274 1040      TAD   C0040             /                                       @@4274=1040
 2255 04275 7460      SZA SNL                 /                                       @@4275=7460
 2256 04276 7450      SNA                     /                                       @@4276=7450
 2257 04277 7402      HLT                     /                                       @@4277=7402
 2258 04300 7320      CLA CLL CML             /                                       @@4300=7320
 2259 04301 1032      TAD   C0032             /                                       @@4301=1032
 2260 04302 7460      SZA SNL                 /                                       @@4302=7460
 2261 04303 7402      HLT                     /                                       @@4303=7402
 2262 04304 7300      CLA CLL                 / AC = 0000                             @@4304=7300
 2263 04305 7660      SZA SNL CLA             /                                       @@4305=7660
 2264 04306 7402      HLT                     /                                       @@4306=7402
 2265 04307 7440      SZA                     /                                       @@4307=7440
 2266 04310 7402      HLT                     /                                       @@4310=7402
 2267 04311 7320      CLA CLL CML             /                                       @@4311=7320
 2268 04312 7660      SZA SNL CLA             /                                       @@4312=7660
 2269 04313 7402      HLT                     /                                       @@4313=7402
 2270 04314 7440      SZA                     /                                       @@4314=7440
 2271 04315 7402      HLT                     /                                       @@4315=7402
 2272 04316 7320      CLA CLL CML             /                                       @@4316=7320
 2273 04317 1036      TAD   C0036             /                                       @@4317=1036
 2274 04320 7660      SZA SNL CLA             /                                       @@4320=7660
 2275 04321 7402      HLT                     /                                       @@4321=7402
 2276 04322 7440      SZA                     /                                       @@4322=7440
 2277 04323 7402      HLT                     /                                       @@4323=7402
 2278 04324 7300      CLA CLL                 / AC = 0000                             @@4324=7300
 2279 04325 1045      TAD   C0045             /                                       @@4325=1045
 2280 04326 7660      SZA SNL CLA             /                                       @@4326=7660

      AUTOMATIC DISASSEMBLY OF MAINDEC-8E-D0AB-PB.bin BY D8TAPE          Page 41


 2281 04327 7440      SZA                     /                                       @@4327=7440
 2282 04330 7402      HLT                     /                                       @@4330=7402
 2283 04331 7300      CLA CLL                 / AC = 0000                             @@4331=7300
 2284 04332 7560      SMA SZA SNL             /                                       @@4332=7560
 2285 04333 7402      HLT                     /                                       @@4333=7402
 2286 04334 7320      CLA CLL CML             /                                       @@4334=7320
 2287 04335 1066      TAD   C0066             /                                       @@4335=1066
 2288 04336 7560      SMA SZA SNL             /                                       @@4336=7560
 2289 04337 7402      HLT                     /                                       @@4337=7402
 2290 04340 7300      CLA CLL                 / AC = 0000                             @@4340=7300
 2291 04341 1050      TAD   C0050             /                                       @@4341=1050
 2292 04342 7560      SMA SZA SNL             /                                       @@4342=7560
 2293 04343 7402      HLT                     /                                       @@4343=7402
 2294 04344 7300      CLA CLL                 / AC = 0000                             @@4344=7300
 2295 04345 1066      TAD   C0066             /                                       @@4345=1066
 2296 04346 7560      SMA SZA SNL             /                                       @@4346=7560
 2297 04347 7450      SNA                     /                                       @@4347=7450
 2298 04350 7402      HLT                     /                                       @@4350=7402
 2299 04351 7300      CLA CLL                 / AC = 0000                             @@4351=7300
 2300 04352 7760      SMA SZA SNL CLA         /                                       @@4352=7760
 2301 04353 7402      HLT                     /                                       @@4353=7402
 2302 04354 7440      SZA                     /                                       @@4354=7440
 2303 04355 7402      HLT                     /                                       @@4355=7402
 2304 04356 7320      CLA CLL CML             /                                       @@4356=7320
 2305 04357 1066      TAD   C0066             /                                       @@4357=1066
 2306 04360 7760      SMA SZA SNL CLA         /                                       @@4360=7760
 2307 04361 7402      HLT                     /                                       @@4361=7402
 2308 04362 7440      SZA                     /                                       @@4362=7440
 2309 04363 7402      HLT                     /                                       @@4363=7402
 2310 04364 7300      CLA CLL                 / AC = 0000                             @@4364=7300
 2311 04365 1050      TAD   C0050             /                                       @@4365=1050
 2312 04366 7760      SMA SZA SNL CLA         /                                       @@4366=7760
 2313 04367 7402      HLT                     /                                       @@4367=7402
 2314 04370 7440      SZA                     /                                       @@4370=7440
 2315 04371 7402      HLT                     /                                       @@4371=7402
 2316 04372 7300      CLA CLL                 / AC = 0000                             @@4372=7300
 2317 04373 1066      TAD   C0066             /                                       @@4373=1066
 2318 04374 7760      SMA SZA SNL CLA         /                                       @@4374=7760
 2319 04375 7440      SZA                     /                                       @@4375=7440
 2320 04376 7402      HLT                     /                                       @@4376=7402
 2321 04377 7300      CLA CLL                 / AC = 0000                             @@4377=7300
 2322 04400 7410      SKP                     /                                       @@4400=7410
 2323 04401 7402      HLT                     /                                       @@4401=7402
 2324 04402 7320      CLA CLL CML             /                                       @@4402=7320
 2325 04403 7410      SKP                     /                                       @@4403=7410
 2326 04404 7402      HLT                     /                                       @@4404=7402
 2327 04405 7320      CLA CLL CML             /                                       @@4405=7320
 2328 04406 1066      TAD   C0066             /                                       @@4406=1066
 2329 04407 7410      SKP                     /                                       @@4407=7410
 2330 04410 7402      HLT                     /                                       @@4410=7402
 2331 04411 7300      CLA CLL                 / AC = 0000                             @@4411=7300
 2332 04412 1066      TAD   C0066             /                                       @@4412=1066
 2333 04413 7410      SKP                     /                                       @@4413=7410
 2334 04414 7402      HLT                     /                                       @@4414=7402
 2335 04415 7200      CLA                     /                                       @@4415=7200
 2336 04416 1066      TAD   C0066             /                                       @@4416=1066
 2337 04417 7710      SPA CLA                 /                                       @@4417=7710

      AUTOMATIC DISASSEMBLY OF MAINDEC-8E-D0AB-PB.bin BY D8TAPE          Page 42


 2338 04420 7402      HLT                     /                                       @@4420=7402
 2339 04421 7440      SZA                     /                                       @@4421=7440
 2340 04422 7402      HLT                     /                                       @@4422=7402
 2341 04423 7200      CLA                     /                                       @@4423=7200
 2342 04424 1050      TAD   C0050             /                                       @@4424=1050
 2343 04425 7710      SPA CLA                 /                                       @@4425=7710
 2344 04426 7440      SZA                     /                                       @@4426=7440
 2345 04427 7402      HLT                     /                                       @@4427=7402
 2346 04430 7240      STA                     / AC = 7777 (-0001)                     @@4430=7240
 2347 04431 7650      SNA CLA                 /                                       @@4431=7650
 2348 04432 7402      HLT                     /                                       @@4432=7402
 2349 04433 7200      CLA                     /                                       @@4433=7200
 2350 04434 7650      SNA CLA                 /                                       @@4434=7650
 2351 04435 7440      SZA                     /                                       @@4435=7440
 2352 04436 7402      HLT                     /                                       @@4436=7402
 2353 04437 7200      CLA                     /                                       @@4437=7200
 2354 04440 7550      SPA SNA                 /                                       @@4440=7550
 2355 04441 7440      SZA                     /                                       @@4441=7440
 2356 04442 7402      HLT                     /                                       @@4442=7402
 2357 04443 7200      CLA                     /                                       @@4443=7200
 2358 04444 1066      TAD   C0066             /                                       @@4444=1066
 2359 04445 7550      SPA SNA                 /                                       @@4445=7550
 2360 04446 7402      HLT                     /                                       @@4446=7402
 2361 04447 7200      CLA                     /                                       @@4447=7200
 2362 04450 1050      TAD   C0050             /                                       @@4450=1050
 2363 04451 7550      SPA SNA                 /                                       @@4451=7550
 2364 04452 7450      SNA                     /                                       @@4452=7450
 2365 04453 7402      HLT                     /                                       @@4453=7402
 2366 04454 7200      CLA                     /                                       @@4454=7200
 2367 04455 7750      SPA SNA CLA             /                                       @@4455=7750
 2368 04456 7440      SZA                     /                                       @@4456=7440
 2369 04457 7402      HLT                     /                                       @@4457=7402
 2370 04460 7200      CLA                     /                                       @@4460=7200
 2371 04461 1066      TAD   C0066             /                                       @@4461=1066
 2372 04462 7750      SPA SNA CLA             /                                       @@4462=7750
 2373 04463 7402      HLT                     /                                       @@4463=7402
 2374 04464 7440      SZA                     /                                       @@4464=7440
 2375 04465 7402      HLT                     /                                       @@4465=7402
 2376 04466 7200      CLA                     /                                       @@4466=7200
 2377 04467 1050      TAD   C0050             /                                       @@4467=1050
 2378 04470 7750      SPA SNA CLA             /                                       @@4470=7750
 2379 04471 7440      SZA                     /                                       @@4471=7440
 2380 04472 7402      HLT                     /                                       @@4472=7402
 2381 04473 7300      CLA CLL                 / AC = 0000                             @@4473=7300
 2382 04474 1070      TAD   C0070             /                                       @@4474=1070
 2383 04475 7630      SZL CLA                 /                                       @@4475=7630
 2384 04476 7402      HLT                     /                                       @@4476=7402
 2385 04477 7440      SZA                     /                                       @@4477=7440
 2386 04500 7402      HLT                     /                                       @@4500=7402
 2387 04501 7360      CLA CLL CMA CML         /                                       @@4501=7360
 2388 04502 7630      SZL CLA                 /                                       @@4502=7630
 2389 04503 7440      SZA                     /                                       @@4503=7440
 2390 04504 7402      HLT                     /                                       @@4504=7402
 2391 04505 7300      CLA CLL                 / AC = 0000                             @@4505=7300
 2392 04506 1066      TAD   C0066             /                                       @@4506=1066
 2393 04507 7530      SPA SZL                 /                                       @@4507=7530
 2394 04510 7402      HLT                     /                                       @@4510=7402

      AUTOMATIC DISASSEMBLY OF MAINDEC-8E-D0AB-PB.bin BY D8TAPE          Page 43


 2395 04511 7320      CLA CLL CML             /                                       @@4511=7320
 2396 04512 1066      TAD   C0066             /                                       @@4512=1066
 2397 04513 7530      SPA SZL                 /                                       @@4513=7530
 2398 04514 7450      SNA                     /                                       @@4514=7450
 2399 04515 7402      HLT                     /                                       @@4515=7402
 2400 04516 7300      CLA CLL                 / AC = 0000                             @@4516=7300
 2401 04517 1050      TAD   C0050             /                                       @@4517=1050
 2402 04520 7530      SPA SZL                 /                                       @@4520=7530
 2403 04521 7500      SMA                     /                                       @@4521=7500
 2404 04522 7402      HLT                     /                                       @@4522=7402
 2405 04523 7300      CLA CLL                 / AC = 0000                             @@4523=7300
 2406 04524 1066      TAD   C0066             /                                       @@4524=1066
 2407 04525 7730      SPA SZL CLA             /                                       @@4525=7730
 2408 04526 7402      HLT                     /                                       @@4526=7402
 2409 04527 7440      SZA                     /                                       @@4527=7440
 2410 04530 7402      HLT                     /                                       @@4530=7402
 2411 04531 7320      CLA CLL CML             /                                       @@4531=7320
 2412 04532 1066      TAD   C0066             /                                       @@4532=1066
 2413 04533 7730      SPA SZL CLA             /                                       @@4533=7730
 2414 04534 7440      SZA                     /                                       @@4534=7440
 2415 04535 7402      HLT                     /                                       @@4535=7402
 2416 04536 7300      CLA CLL                 / AC = 0000                             @@4536=7300
 2417 04537 1050      TAD   C0050             /                                       @@4537=1050
 2418 04540 7730      SPA SZL CLA             /                                       @@4540=7730
 2419 04541 7440      SZA                     /                                       @@4541=7440
 2420 04542 7402      HLT                     /                                       @@4542=7402
 2421 04543 7300      CLA CLL                 / AC = 0000                             @@4543=7300
 2422 04544 1050      TAD   C0050             /                                       @@4544=1050
 2423 04545 7470      SNA SZL                 /                                       @@4545=7470
 2424 04546 7402      HLT                     /                                       @@4546=7402
 2425 04547 7320      CLA CLL CML             /                                       @@4547=7320
 2426 04550 1050      TAD   C0050             /                                       @@4550=1050
 2427 04551 7470      SNA SZL                 /                                       @@4551=7470
 2428 04552 7420      SNL                     /                                       @@4552=7420
 2429 04553 7402      HLT                     /                                       @@4553=7402
 2430 04554 7300      CLA CLL                 / AC = 0000                             @@4554=7300
 2431 04555 7470      SNA SZL                 /                                       @@4555=7470
 2432 04556 7430      SZL                     /                                       @@4556=7430
 2433 04557 7402      HLT                     /                                       @@4557=7402
 2434 04560 7320      CLA CLL CML             /                                       @@4560=7320
 2435 04561 1050      TAD   C0050             /                                       @@4561=1050
 2436 04562 7670      SNA SZL CLA             /                                       @@4562=7670
 2437 04563 7440      SZA                     /                                       @@4563=7440
 2438 04564 7402      HLT                     /                                       @@4564=7402
 2439 04565 7300      CLA CLL                 / AC = 0000                             @@4565=7300
 2440 04566 1050      TAD   C0050             /                                       @@4566=1050
 2441 04567 7670      SNA SZL CLA             /                                       @@4567=7670
 2442 04570 7402      HLT                     /                                       @@4570=7402
 2443 04571 7440      SZA                     /                                       @@4571=7440
 2444 04572 7402      HLT                     /                                       @@4572=7402
 2445 04573 7300      CLA CLL                 / AC = 0000                             @@4573=7300
 2446 04574 7670      SNA SZL CLA             /                                       @@4574=7670
 2447 04575 7440      SZA                     /                                       @@4575=7440
 2448 04576 7402      HLT                     /                                       @@4576=7402
 2449 04577 7300      CLA CLL                 / AC = 0000                             @@4577=7300
 2450 04600 1066      TAD   C0066             /                                       @@4600=1066
 2451 04601 7570      SPA SNA SZL             /                                       @@4601=7570

      AUTOMATIC DISASSEMBLY OF MAINDEC-8E-D0AB-PB.bin BY D8TAPE          Page 44


 2452 04602 7402      HLT                     /                                       @@4602=7402
 2453 04603 7320      CLA CLL CML             /                                       @@4603=7320
 2454 04604 1066      TAD   C0066             /                                       @@4604=1066
 2455 04605 7570      SPA SNA SZL             /                                       @@4605=7570
 2456 04606 7420      SNL                     /                                       @@4606=7420
 2457 04607 7402      HLT                     /                                       @@4607=7402
 2458 04610 7300      CLA CLL                 / AC = 0000                             @@4610=7300
 2459 04611 7570      SPA SNA SZL             /                                       @@4611=7570
 2460 04612 7430      SZL                     /                                       @@4612=7430
 2461 04613 7402      HLT                     /                                       @@4613=7402
 2462 04614 7300      CLA CLL                 / AC = 0000                             @@4614=7300
 2463 04615 1050      TAD   C0050             /                                       @@4615=1050
 2464 04616 7570      SPA SNA SZL             /                                       @@4616=7570
 2465 04617 7430      SZL                     /                                       @@4617=7430
 2466 04620 7402      HLT                     /                                       @@4620=7402
 2467 04621 7300      CLA CLL                 / AC = 0000                             @@4621=7300
 2468 04622 1066      TAD   C0066             /                                       @@4622=1066
 2469 04623 7770      SPA SNA SZL CLA         /                                       @@4623=7770
 2470 04624 7402      HLT                     /                                       @@4624=7402
 2471 04625 7440      SZA                     /                                       @@4625=7440
 2472 04626 7402      HLT                     /                                       @@4626=7402
 2473 04627 7320      CLA CLL CML             /                                       @@4627=7320
 2474 04630 1066      TAD   C0066             /                                       @@4630=1066
 2475 04631 7770      SPA SNA SZL CLA         /                                       @@4631=7770
 2476 04632 7440      SZA                     /                                       @@4632=7440
 2477 04633 7402      HLT                     /                                       @@4633=7402
 2478 04634 7300      CLA CLL                 / AC = 0000                             @@4634=7300
 2479 04635 1050      TAD   C0050             /                                       @@4635=1050
 2480 04636 7770      SPA SNA SZL CLA         /                                       @@4636=7770
 2481 04637 7440      SZA                     /                                       @@4637=7440
 2482 04640 7402      HLT                     /                                       @@4640=7402
 2483 04641 7300      CLA CLL                 / AC = 0000                             @@4641=7300
 2484 04642 7770      SPA SNA SZL CLA         /                                       @@4642=7770
 2485 04643 7440      SZA                     /                                       @@4643=7440
 2486 04644 7402      HLT                     /                                       @@4644=7402
 2487 04645 7200      CLA                     /                                       @@4645=7200
 2488 04646 1070      TAD   C0070             /                                       @@4646=1070
 2489 04647 7604      LAS                     /                                       @@4647=7604
 2490 04650 7040      CMA                     /                                       @@4650=7040
 2491 04651 7440      SZA                     /                                       @@4651=7440
 2492 04652 7402      HLT                     /                                       @@4652=7402
 2493 04653 7200      CLA                     /                                       @@4653=7200
 2494 04654 1050      TAD   C0050             /                                       @@4654=1050
 2495 04655 7504      SMA OSR                 /                                       @@4655=7504
 2496 04656 7402      HLT                     /                                       @@4656=7402
 2497 04657 7040      CMA                     /                                       @@4657=7040
 2498 04660 7440      SZA                     /                                       @@4660=7440
 2499 04661 7402      HLT                     /                                       @@4661=7402
 2500 04662 7200      CLA                     /                                       @@4662=7200
 2501 04663 7444      SZA OSR                 /                                       @@4663=7444
 2502 04664 7402      HLT                     /                                       @@4664=7402
 2503 04665 7040      CMA                     /                                       @@4665=7040
 2504 04666 7440      SZA                     /                                       @@4666=7440
 2505 04667 7402      HLT                     /                                       @@4667=7402
 2506 04670 7320      CLA CLL CML             /                                       @@4670=7320
 2507 04671 7424      SNL OSR                 /                                       @@4671=7424
 2508 04672 7402      HLT                     /                                       @@4672=7402

      AUTOMATIC DISASSEMBLY OF MAINDEC-8E-D0AB-PB.bin BY D8TAPE          Page 45


 2509 04673 7040      CMA                     /                                       @@4673=7040
 2510 04674 7440      SZA                     /                                       @@4674=7440
 2511 04675 7402      HLT                     /                                       @@4675=7402
 2512 04676 7300      CLA CLL                 / AC = 0000                             @@4676=7300
 2513 04677 1066      TAD   C0066             /                                       @@4677=1066
 2514 04700 7764      SMA SZA SNL CLA OSR     /                                       @@4700=7764
 2515 04701 7450      SNA                     /                                       @@4701=7450
 2516 04702 7402      HLT                     /                                       @@4702=7402
 2517 04703 7040      CMA                     /                                       @@4703=7040
 2518 04704 7440      SZA                     /                                       @@4704=7440
 2519 04705 7402      HLT                     /                                       @@4705=7402
 2520 04706 7200      CLA                     /                                       @@4706=7200
 2521 04707 7414      SKP OSR                 /                                       @@4707=7414
 2522 04710 7402      HLT                     /                                       @@4710=7402
 2523 04711 7040      CMA                     /                                       @@4711=7040
 2524 04712 7440      SZA                     /                                       @@4712=7440
 2525 04713 7402      HLT                     /                                       @@4713=7402
 2526 04714 7200      CLA                     /                                       @@4714=7200
 2527 04715 7514      SPA OSR                 /                                       @@4715=7514
 2528 04716 7402      HLT                     /                                       @@4716=7402
 2529 04717 7040      CMA                     /                                       @@4717=7040
 2530 04720 7440      SZA                     /                                       @@4720=7440
 2531 04721 7402      HLT                     /                                       @@4721=7402
 2532 04722 7200      CLA                     /                                       @@4722=7200
 2533 04723 1040      TAD   C0040             /                                       @@4723=1040
 2534 04724 7454      SNA OSR                 /                                       @@4724=7454
 2535 04725 7402      HLT                     /                                       @@4725=7402
 2536 04726 7040      CMA                     /                                       @@4726=7040
 2537 04727 7440      SZA                     /                                       @@4727=7440
 2538 04730 7402      HLT                     /                                       @@4730=7402
 2539 04731 7300      CLA CLL                 / AC = 0000                             @@4731=7300
 2540 04732 7434      SZL OSR                 /                                       @@4732=7434
 2541 04733 7402      HLT                     /                                       @@4733=7402
 2542 04734 7040      CMA                     /                                       @@4734=7040
 2543 04735 7440      SZA                     /                                       @@4735=7440
 2544 04736 7402      HLT                     /                                       @@4736=7402
 2545 04737 7300      CLA CLL                 / AC = 0000                             @@4737=7300
 2546 04740 1066      TAD   C0066             /                                       @@4740=1066
 2547 04741 7774      SPA SNA SZL CLA OSR     /                                       @@4741=7774
 2548 04742 7402      HLT                     /                                       @@4742=7402
 2549 04743 7040      CMA                     /                                       @@4743=7040
 2550 04744 7440      SZA                     /                                       @@4744=7440
 2551 04745 7402      HLT                     /                                       @@4745=7402
 2552 04746 7360      CLA CLL CMA CML         /                                       @@4746=7360
 2553 04747 7601      7601                    /                                       @@4747=7601
 2554 04750 7430      SZL                     /                                       @@4750=7430
 2555 04751 7440      SZA                     /                                       @@4751=7440
 2556 04752 7402      HLT                     /                                       @@4752=7402
 2557 04753 7360      CLA CLL CMA CML         /                                       @@4753=7360
 2558 04754 7401      7401                    /                                       @@4754=7401
 2559 04755 7040      CMA                     /                                       @@4755=7040
 2560 04756 7430      SZL                     /                                       @@4756=7430
 2561 04757 7440      SZA                     /                                       @@4757=7440
 2562 04760 7402      HLT                     /                                       @@4760=7402
 2563 04761 7360      CLA CLL CMA CML         /                                       @@4761=7360
 2564 04762 7421      MQL                     /                                       @@4762=7421
 2565 04763 7430      SZL                     /                                       @@4763=7430

      AUTOMATIC DISASSEMBLY OF MAINDEC-8E-D0AB-PB.bin BY D8TAPE          Page 46


 2566 04764 7440      SZA                     /                                       @@4764=7440
 2567 04765 7402      HLT                     /                                       @@4765=7402
 2568 04766 7300      CLA CLL                 / AC = 0000                             @@4766=7300
 2569 04767 7421      MQL                     /                                       @@4767=7421
 2570 04770 7040      CMA                     /                                       @@4770=7040
 2571 04771 7501      MQA                     /                                       @@4771=7501
 2572 04772 7040      CMA                     /                                       @@4772=7040
 2573 04773 7420      SNL                     /                                       @@4773=7420
 2574 04774 7440      SZA                     /                                       @@4774=7440
 2575 04775 7402      HLT                     /                                       @@4775=7402
 2576 04776 7340      CLA CLL CMA             / AC = 7777 (-0001)                     @@4776=7340
 2577 04777 7421      MQL                     /                                       @@4777=7421
 2578 05000 7501      MQA                     /                                       @@5000=7501
 2579 05001 7040      CMA                     /                                       @@5001=7040
 2580 05002 7420      SNL                     /                                       @@5002=7420
 2581 05003 7440      SZA                     /                                       @@5003=7440
 2582 05004 7402      HLT                     /                                       @@5004=7402
 2583 05005 7601      7601                    /                                       @@5005=7601
 2584 05006 1070      TAD   C0070             /                                       @@5006=1070
 2585 05007 7421      MQL                     /                                       @@5007=7421
 2586 05010 1071      TAD   C0071             /                                       @@5010=1071
 2587 05011 7501      MQA                     /                                       @@5011=7501
 2588 05012 7040      CMA                     /                                       @@5012=7040
 2589 05013 7440      SZA                     /                                       @@5013=7440
 2590 05014 7402      HLT                     /                                       @@5014=7402
 2591 05015 7360      CLA CLL CMA CML         /                                       @@5015=7360
 2592 05016 7421      MQL                     /                                       @@5016=7421
 2593 05017 7040      CMA                     /                                       @@5017=7040
 2594 05020 7621      CAM                     /                                       @@5020=7621
 2595 05021 7440      SZA                     /                                       @@5021=7440
 2596 05022 7402      HLT                     /                                       @@5022=7402
 2597 05023 7501      MQA                     /                                       @@5023=7501
 2598 05024 7430      SZL                     /                                       @@5024=7430
 2599 05025 7440      SZA                     /                                       @@5025=7440
 2600 05026 7402      HLT                     /                                       @@5026=7402
 2601 05027 7601      7601                    /                                       @@5027=7601
 2602 05030 7421      MQL                     /                                       @@5030=7421
 2603 05031 7040      CMA                     /                                       @@5031=7040
 2604 05032 7701      CLA MQA                 /                                       @@5032=7701
 2605 05033 7440      SZA                     /                                       @@5033=7440
 2606 05034 7402      HLT                     /                                       @@5034=7402
 2607 05035 7501      MQA                     /                                       @@5035=7501
 2608 05036 7440      SZA                     /                                       @@5036=7440
 2609 05037 7402      HLT                     /                                       @@5037=7402
 2610 05040 7240      STA                     / AC = 7777 (-0001)                     @@5040=7240
 2611 05041 7421      MQL                     /                                       @@5041=7421
 2612 05042 7701      CLA MQA                 /                                       @@5042=7701
 2613 05043 7040      CMA                     /                                       @@5043=7040
 2614 05044 7440      SZA                     /                                       @@5044=7440
 2615 05045 7402      HLT                     /                                       @@5045=7402
 2616 05046 7501      MQA                     /                                       @@5046=7501
 2617 05047 7040      CMA                     /                                       @@5047=7040
 2618 05050 7440      SZA                     /                                       @@5050=7440
 2619 05051 7402      HLT                     /                                       @@5051=7402
 2620 05052 7601      7601                    /                                       @@5052=7601
 2621 05053 1070      TAD   C0070             /                                       @@5053=1070
 2622 05054 7421      MQL                     /                                       @@5054=7421

      AUTOMATIC DISASSEMBLY OF MAINDEC-8E-D0AB-PB.bin BY D8TAPE          Page 47


 2623 05055 1071      TAD   C0071             /                                       @@5055=1071
 2624 05056 7701      CLA MQA                 /                                       @@5056=7701
 2625 05057 1071      TAD   C0071             /                                       @@5057=1071
 2626 05060 7040      CMA                     /                                       @@5060=7040
 2627 05061 7440      SZA                     /                                       @@5061=7440
 2628 05062 7402      HLT                     /                                       @@5062=7402
 2629 05063 7501      MQA                     /                                       @@5063=7501
 2630 05064 1071      TAD   C0071             /                                       @@5064=1071
 2631 05065 7040      CMA                     /                                       @@5065=7040
 2632 05066 7440      SZA                     /                                       @@5066=7440
 2633 05067 7402      HLT                     /                                       @@5067=7402
 2634 05070 7601      7601                    /                                       @@5070=7601
 2635 05071 1071      TAD   C0071             /                                       @@5071=1071
 2636 05072 7421      MQL                     /                                       @@5072=7421
 2637 05073 1070      TAD   C0070             /                                       @@5073=1070
 2638 05074 7701      CLA MQA                 /                                       @@5074=7701
 2639 05075 1070      TAD   C0070             /                                       @@5075=1070
 2640 05076 7040      CMA                     /                                       @@5076=7040
 2641 05077 7440      SZA                     /                                       @@5077=7440
 2642 05100 7402      HLT                     /                                       @@5100=7402
 2643 05101 7501      MQA                     /                                       @@5101=7501
 2644 05102 1070      TAD   C0070             /                                       @@5102=1070
 2645 05103 7040      CMA                     /                                       @@5103=7040
 2646 05104 7440      SZA                     /                                       @@5104=7440
 2647 05105 7402      HLT                     /                                       @@5105=7402
 2648 05106 7621      CAM                     /                                       @@5106=7621
 2649 05107 7040      CMA                     /                                       @@5107=7040
 2650 05110 7521      MQA MQL                 /                                       @@5110=7521
 2651 05111 7440      SZA                     /                                       @@5111=7440
 2652 05112 7402      HLT                     /                                       @@5112=7402
 2653 05113 7701      CLA MQA                 /                                       @@5113=7701
 2654 05114 7040      CMA                     /                                       @@5114=7040
 2655 05115 7440      SZA                     /                                       @@5115=7440
 2656 05116 7402      HLT                     /                                       @@5116=7402
 2657 05117 7621      CAM                     /                                       @@5117=7621
 2658 05120 7040      CMA                     /                                       @@5120=7040
 2659 05121 7421      MQL                     /                                       @@5121=7421
 2660 05122 7521      MQA MQL                 /                                       @@5122=7521
 2661 05123 7040      CMA                     /                                       @@5123=7040
 2662 05124 7440      SZA                     /                                       @@5124=7440
 2663 05125 7402      HLT                     /                                       @@5125=7402
 2664 05126 7701      CLA MQA                 /                                       @@5126=7701
 2665 05127 7440      SZA                     /                                       @@5127=7440
 2666 05130 7402      HLT                     /                                       @@5130=7402
 2667 05131 7621      CAM                     /                                       @@5131=7621
 2668 05132 1070      TAD   C0070             /                                       @@5132=1070
 2669 05133 7421      MQL                     /                                       @@5133=7421
 2670 05134 1071      TAD   C0071             /                                       @@5134=1071
 2671 05135 7521      MQA MQL                 /                                       @@5135=7521
 2672 05136 1071      TAD   C0071             /                                       @@5136=1071
 2673 05137 7040      CMA                     /                                       @@5137=7040
 2674 05140 7440      SZA                     /                                       @@5140=7440
 2675 05141 7402      HLT                     /                                       @@5141=7402
 2676 05142 7701      CLA MQA                 /                                       @@5142=7701
 2677 05143 1070      TAD   C0070             /                                       @@5143=1070
 2678 05144 7040      CMA                     /                                       @@5144=7040
 2679 05145 7440      SZA                     /                                       @@5145=7440

      AUTOMATIC DISASSEMBLY OF MAINDEC-8E-D0AB-PB.bin BY D8TAPE          Page 48


 2680 05146 7402      HLT                     /                                       @@5146=7402
 2681 05147 7621      CAM                     /                                       @@5147=7621
 2682 05150 1071      TAD   C0071             /                                       @@5150=1071
 2683 05151 7421      MQL                     /                                       @@5151=7421
 2684 05152 1070      TAD   C0070             /                                       @@5152=1070
 2685 05153 7521      MQA MQL                 /                                       @@5153=7521
 2686 05154 1070      TAD   C0070             /                                       @@5154=1070
 2687 05155 7040      CMA                     /                                       @@5155=7040
 2688 05156 7440      SZA                     /                                       @@5156=7440
 2689 05157 7402      HLT                     /                                       @@5157=7402
 2690 05160 7701      CLA MQA                 /                                       @@5160=7701
 2691 05161 1071      TAD   C0071             /                                       @@5161=1071
 2692 05162 7040      CMA                     /                                       @@5162=7040
 2693 05163 7440      SZA                     /                                       @@5163=7440
 2694 05164 7402      HLT                     /                                       @@5164=7402
 2695 05165 7621      CAM                     /                                       @@5165=7621
 2696 05166 7040      CMA                     /                                       @@5166=7040
 2697 05167 7721      CLA MQA MQL             /                                       @@5167=7721
 2698 05170 7440      SZA                     /                                       @@5170=7440
 2699 05171 7402      HLT                     /                                       @@5171=7402
 2700 05172 7701      CLA MQA                 /                                       @@5172=7701
 2701 05173 7440      SZA                     /                                       @@5173=7440
 2702 05174 7402      HLT                     /                                       @@5174=7402
 2703 05175 7621      CAM                     /                                       @@5175=7621
 2704 05176 7040      CMA                     /                                       @@5176=7040
 2705 05177 7421      MQL                     /                                       @@5177=7421
 2706 05200 7721      CLA MQA MQL             /                                       @@5200=7721
 2707 05201 7040      CMA                     /                                       @@5201=7040
 2708 05202 7440      SZA                     /                                       @@5202=7440
 2709 05203 7402      HLT                     /                                       @@5203=7402
 2710 05204 7701      CLA MQA                 /                                       @@5204=7701
 2711 05205 7440      SZA                     /                                       @@5205=7440
 2712 05206 7402      HLT                     /                                       @@5206=7402
 2713 05207 7621      CAM                     /                                       @@5207=7621
 2714 05210 1071      TAD   C0071             /                                       @@5210=1071
 2715 05211 7421      MQL                     /                                       @@5211=7421
 2716 05212 1070      TAD   C0070             /                                       @@5212=1070
 2717 05213 7721      CLA MQA MQL             /                                       @@5213=7721
 2718 05214 1070      TAD   C0070             /                                       @@5214=1070
 2719 05215 7040      CMA                     /                                       @@5215=7040
 2720 05216 7440      SZA                     /                                       @@5216=7440
 2721 05217 7402      HLT                     /                                       @@5217=7402
 2722 05220 7701      CLA MQA                 /                                       @@5220=7701
 2723 05221 7440      SZA                     /                                       @@5221=7440
 2724 05222 7402      HLT                     /                                       @@5222=7402
 2725 05223 7200      CLA                     /                                       @@5223=7200
 2726 05224 0067      AND   C0067             /                                       @@5224=0067
 2727 05225 7440      SZA                     /                                       @@5225=7440
 2728 05226 7402      HLT                     /                                       @@5226=7402
 2729 05227 7240      STA                     / AC = 7777 (-0001)                     @@5227=7240
 2730 05230 0020      AND   C0020             /                                       @@5230=0020
 2731 05231 7440      SZA                     /                                       @@5231=7440
 2732 05232 7402      HLT                     /                                       @@5232=7402
 2733 05233 7320      CLA CLL CML             /                                       @@5233=7320
 2734 05234 1067      TAD   C0067             /                                       @@5234=1067
 2735 05235 0067      AND   C0067             /                                       @@5235=0067
 2736 05236 7040      CMA                     /                                       @@5236=7040

      AUTOMATIC DISASSEMBLY OF MAINDEC-8E-D0AB-PB.bin BY D8TAPE          Page 49


 2737 05237 7430      SZL                     /                                       @@5237=7430
 2738 05240 7440      SZA                     /                                       @@5240=7440
 2739 05241 7402      HLT                     /                                       @@5241=7402
 2740 05242 7300      CLA CLL                 / AC = 0000                             @@5242=7300
 2741 05243 1071      TAD   C0071             /                                       @@5243=1071
 2742 05244 0070      AND   C0070             /                                       @@5244=0070
 2743 05245 7420      SNL                     /                                       @@5245=7420
 2744 05246 7440      SZA                     /                                       @@5246=7440
 2745 05247 7402      HLT                     /                                       @@5247=7402
 2746 05250 7300      CLA CLL                 / AC = 0000                             @@5250=7300
 2747 05251 1070      TAD   C0070             /                                       @@5251=1070
 2748 05252 0071      AND   C0071             /                                       @@5252=0071
 2749 05253 7420      SNL                     /                                       @@5253=7420
 2750 05254 7440      SZA                     /                                       @@5254=7440
 2751 05255 7402      HLT                     /                                       @@5255=7402
 2752 05256 7300      CLA CLL                 / AC = 0000                             @@5256=7300
 2753 05257 1052      TAD   L0052             /                                       @@5257=1052
 2754 05260 0070      AND   C0070             /                                       @@5260=0070
 2755 05261 7041      CIA                     /                                       @@5261=7041
 2756 05262 1070      TAD   C0070             /                                       @@5262=1070
 2757 05263 7430      SZL                     /                                       @@5263=7430
 2758 05264 7440      SZA                     /                                       @@5264=7440
 2759 05265 7402      HLT                     /                                       @@5265=7402
 2760 05266 7300      CLA CLL                 / AC = 0000                             @@5266=7300
 2761 05267 1071      TAD   C0071             /                                       @@5267=1071
 2762 05270 0071      AND   C0071             /                                       @@5270=0071
 2763 05271 7041      CIA                     /                                       @@5271=7041
 2764 05272 1071      TAD   C0071             /                                       @@5272=1071
 2765 05273 7430      SZL                     /                                       @@5273=7430
 2766 05274 7440      SZA                     /                                       @@5274=7440
 2767 05275 7402      HLT                     /                                       @@5275=7402
 2768 05276 7200      CLA                     /                                       @@5276=7200
 2769 05277 1121      TAD   D0121             /                                       @@5277=1121
 2770 05300 7001      IAC                     /                                       @@5300=7001
 2771 05301 3121      DCA   D0121             /                                       @@5301=3121
 2772 05302 1121      TAD   D0121             /                                       @@5302=1121
 2773 05303 7640      SZA CLA                 /                                       @@5303=7640
 2774 05304 5147      JMP   L0147             /                                       @@5304=5147
 2775 05305 1122      TAD   C0122             /                                       @@5305=1122
 2776 05306 3121      DCA   D0121             /                                       @@5306=3121
 2777 05307 1120      TAD   C0120             /                                       @@5307=1120
 2778 05310 6046      TLS                     / Load the TTO from the content of AC4  @@5310=6046
 2779             L5311,
 2780 05311 6041      TSF                     / Skip if teleprinter flag is a 1.      @@5311=6041
 2781 05312 5311      JMP   L5311             /                                       @@5312=5311
 2782 05313 6042      TCF                     / Clear teleprinter flag.               @@5313=6042
 2783 05314 5147      JMP   L0147             /                                       @@5314=5147
 2784             
 2785       7751  *7751                       / align to RIMLDR location
 2786 07751 0200      0200                    / addr of program start
 2787 07752 6032      KCC                     / first instr in std RIMLDR
 2788 07753 1352      TAD .-1                 / get KCC instr
 2789 07754 3356      DCA .+2                 / restore into RIMLDR
 2790 07755 5751      JMP I .-4               / start program
 2791 07756 5353      JMP .-3                 / overlay first word of RIMLDR
 2792             

      No detected errors

      AUTOMATIC DISASSEMBLY OF MAINDEC-8E-D0AB-PB.bin BY D8TAPE          Page 50
                                                                    Symbol Table

    1  AI0    00010   C0102  00102 
    2  C0001  00001   C0104  00104 
    3  C0002  00002   C0105  00105 
    4  C0003  00003   C0106  00106 
    5  C0004  00004   C0110  00110 
    6  C0006  00006   C0111  00111 
    7  C0007  00007   C0113  00113 
    8  C0020  00020   C0114  00114 
    9  C0021  00021   C0115  00115 
   10  C0022  00022   C0116  00116 
   11  C0023  00023   C0117  00117 
   12  C0024  00024   C0120  00120 
   13  C0025  00025   C0122  00122 
   14  C0026  00026   C0152  00152 
   15  C0027  00027   C0170  00170 
   16  C0030  00030   C0177  00177 
   17  C0031  00031   D0000  00000 
   18  C0032  00032   D0112  00112 
   19  C0033  00033   D0121  00121 
   20  C0034  00034   L0001  00001 
   21  C0035  00035   L0025  00025 
   22  C0036  00036   L0052  00052 
   23  C0037  00037   L0144  00144 
   24  C0040  00040   L0147  00147 
   25  C0041  00041   L0446  00446 
   26  C0042  00042   L0452  00452 
   27  C0043  00043   L0456  00456 
   28  C0044  00044   L5311  05311 
   29  C0045  00045 
   30  C0046  00046 
   31  C0047  00047 
   32  C0050  00050 
   33  C0051  00051 
   34  C0052  00052 
   35  C0053  00053 
   36  C0054  00054 
   37  C0055  00055 
   38  C0056  00056 
   39  C0057  00057 
   40  C0060  00060 
   41  C0061  00061 
   42  C0062  00062 
   43  C0063  00063 
   44  C0064  00064 
   45  C0065  00065 
   46  C0066  00066 
   47  C0067  00067 
   48  C0070  00070 
   49  C0071  00071 
   50  C0072  00072 
   51  C0073  00073 
   52  C0074  00074 
   53  C0075  00075 
   54  C0076  00076 
   55  C0077  00077 
   56  C0100  00100 
   57  C0101  00101 

      AUTOMATIC DISASSEMBLY OF MAINDEC-8E-D0AB-PB.bin BY D8TAPE          Page 51
                                                                 Cross Reference

    1 A     37  AI0     
    2 A     30  C0001   
    3 A     31  C0002   
    4 A     32  C0003   
    5 A     33  C0004   
    6 A     35  C0006   
    7 A     36  C0007   
    8 A     40  C0020       841    847    854    869    992    998   1005   1020
    9                      1141   1149   1276   1282   1289   2072   2730
   10 A     41  C0021       208    419    503    608    609    616    714    723
   11                       828    835    977   1125   1252   1400   1615   1686
   12                      1693   1712   1719   2113
   13 A     42  C0022       201    413    496    599    600    625    968    986
   14                      1118   1243   1391   2087
   15 A     43  C0023       617    720    721    733
   16 A     44  C0024       194    407    489    590    591    634    959   1109
   17                      1234   1382   2101
   18 A     46  C0025   
   19 A     47  C0026       187    401    482    581    582    643    950   1101
   20                      1225   1373
   21 A     48  C0027       635    740    741
   22 A     49  C0030       180    395    475    572    573    652    941   1092
   23                      1216   1364
   24 A     50  C0031       644    750    751
   25 A     51  C0032       173    389    468    563    564    661    932   1083
   26                      1207   1355   1760   1768   1776   1784   2259
   27 A     52  C0033       653    759    760
   28 A     53  C0034       166    383    461    554    555    670    923   1074
   29                      1198   1346
   30 A     54  C0035       662    769    770
   31 A     55  C0036       159    377    454    545    546    679    914   1065
   32                      1189   1337   2273
   33 A     56  C0037       671    779    780
   34 A     57  C0040       152    371    447    536    537    688    905   1056
   35                      1180   1328   2254   2533
   36 A     58  C0041       680    788    789
   37 A     59  C0042       145    365    440    527    528    697    896   1047
   38                      1172   1319
   39 A     60  C0043      2151
   40 A     61  C0044       689    798    799
   41 A     62  C0045       132    359    433    518    519    706    887   1038
   42                      1163   1270   1312   2279
   43 A     63  C0046       698    808    809
   44 A     64  C0047      2153
   45 A     65  C0050       125    219    229    286    300    305    353    425
   46                       426    510    511    800    878   1029   1134   1303
   47                      2064   2219   2223   2236   2242   2291   2311   2342
   48                      2362   2377   2401   2417   2422   2426   2435   2440
   49                      2463   2479   2494
   50 A     66  C0051       752   2160
   51 A     68  C0052   
   52 A     69  C0053       412    607    961   1103   1254   1411   1754   1834
   53                      1866   1986
   54 A     70  C0054       406    598    618    952   1094   1245   1402   1994
   55 A     71  C0055       400    589    627    943   1085   1236   1393   1778
   56                      2002
   57 A     72  C0056       394    580    636    934   1076   1227   1384   1762
      AUTOMATIC DISASSEMBLY OF MAINDEC-8E-D0AB-PB.bin BY D8TAPE          Page 52
                                                                 Cross Reference


   58                      2010
   59 A     73  C0057       388    571    645    925   1067   1218   1375   2018
   60 A     74  C0060       781
   61 A     75  C0061       382    562    654    916   1058   1209   1366   1770
   62                      2026   2135
   63 A     76  C0062       376    553    663    907   1049   1200   1357   1786
   64                      2034
   65 A     77  C0063       370    544    672    898   1040   1191   1348   2042
   66 A     78  C0064       364    535    681    889   1031   1182   1339   2050
   67 A     79  C0065       358    526    690    880   1022   1174   1330   1747
   68                      1827   1858   2058
   69 A     80  C0066       215    224    352    517    699    819    871   1127
   70                      1165   1321   1733   1813   1842   2066   2181   2196
   71                      2287   2295   2305   2317   2328   2332   2336   2358
   72                      2371   2392   2396   2406   2412   2450   2454   2468
   73                      2474   2513   2546
   74 A     81  C0067        93    112    233    256    266    330    502    713
   75                       826    827    861    979   1012   1156   1296   1976
   76                      2726   2734   2735
   77 A     82  C0070       247    251   1575   1628   1840   1848   1856   1864
   78                      1920   1941   1955   1969   2201   2382   2488   2584
   79                      2621   2637   2639   2644   2668   2677   2684   2686
   80                      2716   2718   2742   2747   2754   2756
   81 A     83  C0071       238    242   1492   1546   1553   1555   1568   1582
   82                      1596   1609   1622   1648   1670   1678   1700   1706
   83                      1726   1927   1934   1948   1962   2206   2586   2623
   84                      2625   2630   2635   2670   2672   2682   2691   2714
   85                      2741   2748   2761   2762   2764
   86 A     84  C0072       432    707    790    817    818   2056
   87 A     85  C0073       439   2048
   88 A     86  C0074       446    771   2040
   89 A     87  C0075       453    761   2032
   90 A     88  C0076       467    742   2016
   91 A     89  C0077       474    732   2008
   92 A     90  C0100       481    722   2000
   93 A     91  C0101       271    488   1992
   94 A     92  C0102       743
   95 A     94  C0104   
   96 A     95  C0105       762
   97 A     96  C0106       772   1442   1444
   98 A     98  C0110       791
   99 A     99  C0111       801
  100 A    101  C0113       460   1433   1435   2024
  101 A    102  C0114      1467   1469
  102 A    103  C0115      1476   1478
  103 A    104  C0116      1450   1452
  104 A    105  C0117      1458   1460
  105 A    106  C0120      2777
  106 A    108  C0122      2775
  107 A    119  C0152   
  108 A    133  C0170   
  109 A    140  C0177        97
  110 A     28  D0000        34
  111 A    100  D0112       810
  112 A    107  D0121      2769   2771   2772   2776
  113 A     29  L0001   
  114 A     45  L0025       626    730    731

      AUTOMATIC DISASSEMBLY OF MAINDEC-8E-D0AB-PB.bin BY D8TAPE          Page 53
                                                                 Cross Reference

  115 A     67  L0052       418    495    970   1111   1263   1305   1584   1589
  116                      1598   1634   1641   1650   1656   1663   1672   1680
  117                      1740   1820   1850   1978   1984   2753
  118 A    111  L0144       143
  119 A    115  L0147      2774   2783
  120 A    309  L0446       318
  121 A    314  L0452       308
  122 A    319  L0456       313
  123 A   2779  L5311      2781

      AUTOMATIC DISASSEMBLY OF MAINDEC-8E-D0AB-PB.bin BY D8TAPE          Page 54
                                                                      Memory Map

    1 00000/ XXXXXXXX X....... XXXXXXXX XXXXXXXX XXXXXXXX XXXXXXXX XXXXXXXX XXXXXXXX
    2 00100/ XXXXXXXX XXXXXXXX XXX..... ........ ....XXXX XXXXXXXX XXXXXXXX XXXXXXXX
    3
    4 00200/ XXXXXXXX XXXXXXXX XXXXXXXX XXXXXXXX XXXXXXXX XXXXXXXX XXXXXXXX XXXXXXXX
    5 00300/ XXXXXXXX XXXXXXXX XXXXXXXX XXXXXXXX XXXXXXXX XXXXXXXX XXXXXXXX XXXXXXXX
    6
    7 00400/ XXXXXXXX XXXXXXXX XXXXXXXX XXXXXXXX XXXXXXXX XXXXXXXX XXXXXXXX XXXXXXXX
    8 00500/ XXXXXXXX XXXXXXXX XXXXXXXX XXXXXXXX XXXXXXXX XXXXXXXX XXXXXXXX XXXXXXXX
    9
   10 00600/ XXXXXXXX XXXXXXXX XXXXXXXX XXXXXXXX XXXXXXXX XXXXXXXX XXXXXXXX XXXXXXXX
   11 00700/ XXXXXXXX XXXXXXXX XXXXXXXX XXXXXXXX XXXXXXXX XXXXXXXX XXXXXXXX XXXXXXXX
   12
   13 01000/ XXXXXXXX XXXXXXXX XXXXXXXX XXXXXXXX XXXXXXXX XXXXXXXX XXXXXXXX XXXXXXXX
   14 01100/ XXXXXXXX XXXXXXXX XXXXXXXX XXXXXXXX XXXXXXXX XXXXXXXX XXXXXXXX XXXXXXXX
   15
   16 01200/ XXXXXXXX XXXXXXXX XXXXXXXX XXXXXXXX XXXXXXXX XXXXXXXX XXXXXXXX XXXXXXXX
   17 01300/ XXXXXXXX XXXXXXXX XXXXXXXX XXXXXXXX XXXXXXXX XXXXXXXX XXXXXXXX XXXXXXXX
   18
   19 01400/ XXXXXXXX XXXXXXXX XXXXXXXX XXXXXXXX XXXXXXXX XXXXXXXX XXXXXXXX XXXXXXXX
   20 01500/ XXXXXXXX XXXXXXXX XXXXXXXX XXXXXXXX XXXXXXXX XXXXXXXX XXXXXXXX XXXXXXXX
   21
   22 01600/ XXXXXXXX XXXXXXXX XXXXXXXX XXXXXXXX XXXXXXXX XXXXXXXX XXXXXXXX XXXXXXXX
   23 01700/ XXXXXXXX XXXXXXXX XXXXXXXX XXXXXXXX XXXXXXXX XXXXXXXX XXXXXXXX XXXXXXXX
   24
   25 02000/ XXXXXXXX XXXXXXXX XXXXXXXX XXXXXXXX XXXXXXXX XXXXXXXX XXXXXXXX XXXXXXXX
   26 02100/ XXXXXXXX XXXXXXXX XXXXXXXX XXXXXXXX XXXXXXXX XXXXXXXX XXXXXXXX XXXXXXXX
   27
   28 02200/ XXXXXXXX XXXXXXXX XXXXXXXX XXXXXXXX XXXXXXXX XXXXXXXX XXXXXXXX XXXXXXXX
   29 02300/ XXXXXXXX XXXXXXXX XXXXXXXX XXXXXXXX XXXXXXXX XXXXXXXX XXXXXXXX XXXXXXXX
   30
   31 02400/ XXXXXXXX XXXXXXXX XXXXXXXX XXXXXXXX XXXXXXXX XXXXXXXX XXXXXXXX XXXXXXXX
   32 02500/ XXXXXXXX XXXXXXXX XXXXXXXX XXXXXXXX XXXXXXXX XXXXXXXX XXXXXXXX XXXXXXXX
   33
   34 02600/ XXXXXXXX XXXXXXXX XXXXXXXX XXXXXXXX XXXXXXXX XXXXXXXX XXXXXXXX XXXXXXXX
   35 02700/ XXXXXXXX XXXXXXXX XXXXXXXX XXXXXXXX XXXXXXXX XXXXXXXX XXXXXXXX XXXXXXXX
   36
   37 03000/ XXXXXXXX XXXXXXXX XXXXXXXX XXXXXXXX XXXXXXXX XXXXXXXX XXXXXXXX XXXXXXXX
   38 03100/ XXXXXXXX XXXXXXXX XXXXXXXX XXXXXXXX XXXXXXXX XXXXXXXX XXXXXXXX XXXXXXXX
   39
   40 03200/ XXXXXXXX XXXXXXXX XXXXXXXX XXXXXXXX XXXXXXXX XXXXXXXX XXXXXXXX XXXXXXXX
   41 03300/ XXXXXXXX XXXXXXXX XXXXXXXX XXXXXXXX XXXXXXXX XXXXXXXX XXXXXXXX XXXXXXXX
   42
   43 03400/ XXXXXXXX XXXXXXXX XXXXXXXX XXXXXXXX XXXXXXXX XXXXXXXX XXXXXXXX XXXXXXXX
   44 03500/ XXXXXXXX XXXXXXXX XXXXXXXX XXXXXXXX XXXXXXXX XXXXXXXX XXXXXXXX XXXXXXXX
   45
   46 03600/ XXXXXXXX XXXXXXXX XXXXXXXX XXXXXXXX XXXXXXXX XXXXXXXX XXXXXXXX XXXXXXXX
   47 03700/ XXXXXXXX XXXXXXXX XXXXXXXX XXXXXXXX XXXXXXXX XXXXXXXX XXXXXXXX XXXXXXXX
   48

      AUTOMATIC DISASSEMBLY OF MAINDEC-8E-D0AB-PB.bin BY D8TAPE          Page 55
                                                                      Memory Map

   49 04000/ XXXXXXXX XXXXXXXX XXXXXXXX XXXXXXXX XXXXXXXX XXXXXXXX XXXXXXXX XXXXXXXX
   50 04100/ XXXXXXXX XXXXXXXX XXXXXXXX XXXXXXXX XXXXXXXX XXXXXXXX XXXXXXXX XXXXXXXX
   51
   52 04200/ XXXXXXXX XXXXXXXX XXXXXXXX XXXXXXXX XXXXXXXX XXXXXXXX XXXXXXXX XXXXXXXX
   53 04300/ XXXXXXXX XXXXXXXX XXXXXXXX XXXXXXXX XXXXXXXX XXXXXXXX XXXXXXXX XXXXXXXX
   54
   55 04400/ XXXXXXXX XXXXXXXX XXXXXXXX XXXXXXXX XXXXXXXX XXXXXXXX XXXXXXXX XXXXXXXX
   56 04500/ XXXXXXXX XXXXXXXX XXXXXXXX XXXXXXXX XXXXXXXX XXXXXXXX XXXXXXXX XXXXXXXX
   57
   58 04600/ XXXXXXXX XXXXXXXX XXXXXXXX XXXXXXXX XXXXXXXX XXXXXXXX XXXXXXXX XXXXXXXX
   59 04700/ XXXXXXXX XXXXXXXX XXXXXXXX XXXXXXXX XXXXXXXX XXXXXXXX XXXXXXXX XXXXXXXX
   60
   61 05000/ XXXXXXXX XXXXXXXX XXXXXXXX XXXXXXXX XXXXXXXX XXXXXXXX XXXXXXXX XXXXXXXX
   62 05100/ XXXXXXXX XXXXXXXX XXXXXXXX XXXXXXXX XXXXXXXX XXXXXXXX XXXXXXXX XXXXXXXX
   63
   64 05200/ XXXXXXXX XXXXXXXX XXXXXXXX XXXXXXXX XXXXXXXX XXXXXXXX XXXXXXXX XXXXXXXX
   65 05300/ XXXXXXXX XXXXX... ........ ........ ........ ........ ........ ........
   66
   67 05400/ ........ ........ ........ ........ ........ ........ ........ ........
   68 05500/ ........ ........ ........ ........ ........ ........ ........ ........
   69
   70 05600/ ........ ........ ........ ........ ........ ........ ........ ........
   71 05700/ ........ ........ ........ ........ ........ ........ ........ ........
   72
   73 06000/ ........ ........ ........ ........ ........ ........ ........ ........
   74 06100/ ........ ........ ........ ........ ........ ........ ........ ........
   75
   76 06200/ ........ ........ ........ ........ ........ ........ ........ ........
   77 06300/ ........ ........ ........ ........ ........ ........ ........ ........
   78
   79 06400/ ........ ........ ........ ........ ........ ........ ........ ........
   80 06500/ ........ ........ ........ ........ ........ ........ ........ ........
   81
   82 06600/ ........ ........ ........ ........ ........ ........ ........ ........
   83 06700/ ........ ........ ........ ........ ........ ........ ........ ........
   84
   85 07000/ ........ ........ ........ ........ ........ ........ ........ ........
   86 07100/ ........ ........ ........ ........ ........ ........ ........ ........
   87
   88 07200/ ........ ........ ........ ........ ........ ........ ........ ........
   89 07300/ ........ ........ ........ ........ ........ ........ ........ ........
   90
   91 07400/ ........ ........ ........ ........ ........ ........ ........ ........
   92 07500/ ........ ........ ........ ........ ........ ........ ........ ........
   93
   94 07600/ ........ ........ ........ ........ ........ ........ ........ ........
   95 07700/ ........ ........ ........ ........ ........ .XXXXXX. ........ ........
   96
