
      AUTOMATIC DISASSEMBLY OF MAINDEC-8E-D0IB-PB.bin BY D8TAPE           Page 1


    1             TITLE "AUTOMATIC DISASSEMBLY OF MAINDEC-8E-D0IB-PB.bin BY D8TAPE"
    2             ////////////////////////////////////////////////////////////////////////////////
    3             /
    4             /   Automatic Disassembly of MAINDEC-8E-D0IB-PB.bin
    5             /   Generated 2015 10 26 22:25:49
    6             /   Generated by d8tape version 0.347
    7             /   Visit http://www.pdp12.org/pdp8/software/index.html for updates
    8             /
    9             /   Symbol format:
   10             /       AIx   -- Auto-index variables (address range 001x)
   11             /       Caaaa -- Constants (non-unique)
   12             /       Daaaa -- Data (read/write variables)
   13             /       Kvvvv -- Program-wide unique constants
   14             /       Laaaa -- Labels for control flow targets
   15             /       Saaaa -- Subroutines
   16             /
   17             /   Where:
   18             /       aaaa is the definition address
   19             /       vvvv is the value of the constant
   20             /       x    is the last digit of the address 001x for auto-index variables
   21             /
   22             /   3155 locations used, 2450 code and 0505 data
   23             ////////////////////////////////////////////////////////////////////////////////
   24             
   25       0200  *0200
   26             
   27       0000  *0000
   28             L0000,
   29             
   30             ////////////////////////////////////////////////////////////////////////////////
   31             /
   32             /   SUBROUTINE:  S0000
   33             /
   34             /   Never called
   35             ////////////////////////////////////////////////////////////////////////////////
   36             S0000,
   37 00000 0000      0                       / return area
   38             L0001,
   39 00001 5001  D0001,  5001                / JMP   L0001                           
   40             L0002,
   41 00002 0002  D0002,  0002                / AND   L0002                           
   42 00003 0003  D0003,  0003                / AND   D0003                           
   43             L0004,
   44 00004 0000  D0004,  0000                / AND   S0000                           
   45 00005 0000  D0005,  0000                / AND   S0000                           
   46 00006 7402      HLT                     /                                       @@0006=7402
   47 00007 7402      HLT                     /                                       @@0007=7402
   48             L0010,
   49 00010 7402      HLT                     /
   50 00011 7402      HLT                     /
   51 00012 7402      HLT                     /                                       @@0012=7402
   52 00013 7402      HLT                     /                                       @@0013=7402
   53 00014 7402      HLT                     /                                       @@0014=7402
   54 00015 7402      HLT                     /                                       @@0015=7402
   55 00016 7402      HLT                     /                                       @@0016=7402
   56 00017 7402      HLT                     /                                       @@0017=7402
   57             L0020,

      AUTOMATIC DISASSEMBLY OF MAINDEC-8E-D0IB-PB.bin BY D8TAPE           Page 2


   58             C0020,
   59 00020 7402  D0020,  7402                / HLT                                   
   60 00021 7402  D0021,  7402                / HLT                                   
   61             
   62       0022  *0022
   63             C0022,
   64 00022 0000  C0022,  0000                / AND   S0000                           
   65             C0023,
   66 00023 0001  C0023,  0001                / AND   L0001                           
   67             C0024,
   68 00024 0002  C0024,  0002                / AND   L0002                           
   69             C0025,
   70 00025 0004  C0025,  0004                / AND   L0004                           
   71             C0026,
   72 00026 0010  C0026,  0010                / AND   L0                              
   73             C0027,
   74 00027 0020  C0027,  0020                / AND   L0020                           
   75 00030 0040  D0030,  0040                / AND   C0040                           
   76             C0031,
   77 00031 0100  C0031,  0100                / AND   L0100                           
   78             C0032,
   79 00032 0200  C0032,  0200                / AND   S0000                           
   80             C0033,
   81 00033 0400  C0033,  0400                / AND I S0000                           
   82             C0034,
   83 00034 1000  C0034,  1000                / TAD   S0000                           
   84             C0035,
   85 00035 2000  C0035,  2000                / ISZ   S0000                           
   86             C0036,
   87 00036 4000  C0036,  4000                / JMS   S0000                           
   88             C0037,
   89 00037 3777  C0037,  3777                / DCA I C0177                           
   90             
   91       0042  *0042
   92             C0042,
   93 00042 5777  C0042,  5777                / JMP I C0177                           
   94             C0043,
   95 00043 6777  C0043,  6777                / 6777                                  
   96             C0044,
   97 00044 7377  C0044,  7377                / CLA CLL CMA CML IAC RTR RTL           
   98             C0045,
   99 00045 7577  C0045,  7577                / MQA SCA MQL LSR +                     
  100             C0046,
  101 00046 7677  C0046,  7677                / CLA SCA MQL LSR +                     
  102             C0047,
  103 00047 7737  C0047,  7737                / CLA MQA MQL LSR +                     
  104             C0050,
  105 00050 7757  C0050,  7757                / CLA MQA SCA LSR +                     
  106             C0051,
  107 00051 7767  C0051,  7767                / CLA MQA SCA MQL DVI +                 
  108             C0052,
  109 00052 7773  C0052,  7773                / CLA MQA SCA MQL SHL +                 
  110             C0053,
  111 00053 7775  C0053,  7775                / CLA MQA SCA MQL ASR +                 
  112             C0054,
  113 00054 7776  C0054,  7776                / SPA SNA SZL CLA OSR HLT               
  114             C0055,

      AUTOMATIC DISASSEMBLY OF MAINDEC-8E-D0IB-PB.bin BY D8TAPE           Page 3


  115 00055 7777  C0055,  7777                / CLA MQA SCA MQL LSR +                 
  116 00056 4620  C0056,  4620                / JMS I L0020                           
  117 00057 4640  C0057,  4640                / JMS I C0040                           
  118             L0060,
  119 00060 4660  D0060,  4660                / JMS I L0060                           
  120 00061 4700  C0061,  4700                / JMS I L0100                           
  121 00062 4720  C0062,  4720                / JMS I L0120                           
  122 00063 4740          4740                /                                       @@0063=4740
  123 00064 4760  C0064,  4760                / JMS I L0160                           
  124 00065 5000      JMP   S0000             /                                       @@0065=5000
  125 00066 5020      JMP   L0020             /                                       @@0066=5020
  126 00067 5040  C0067,  5040                / JMP   C0040                           
  127 00070 5060  C0070,  5060                / JMP   L0060                           
  128 00071 5100  C0071,  5100                / JMP   L0100                           
  129 00072 5120      JMP   L0120             /                                       @@0072=5120
  130 00073 5140      JMP   L0140             /                                       @@0073=5140
  131 00074 5160      JMP   L0160             /                                       @@0074=5160
  132 00075 5200          5200                /                                       @@0075=5200
  133 00076 5220          5220                /                                       @@0076=5220
  134             
  135       0102  *0102
  136 00102 5240  C0102,  5240                / JMP   C0040                           
  137 00103 5260          5260                /                                       @@0103=5260
  138 00104 5300  C0104,  5300                / JMP   L0100                           
  139 00105 5320          5320                /                                       @@0105=5320
  140 00106 5340          5340                /                                       @@0106=5340
  141 00107 5360          5360                /                                       @@0107=5360
  142 00110 5400  D0110,  5400                / JMP I S0000                           
  143 00111 5420      JMP I L0020             / long jump to L7402                    @@0111=5420
  144 00112 5440  C0112,  5440                / JMP I C0040                           
  145 00113 7777  C0113,  7777                / CLA MQA SCA MQL LSR +                 
  146 00114 7776  C0114,  7776                / SPA SNA SZL CLA OSR HLT               
  147 00115 7775  C0115,  7775                / CLA MQA SCA MQL ASR +                 
  148 00116 7774  C0116,  7774                / SPA SNA SZL CLA OSR                   
  149 00117 7773  C0117,  7773                / CLA MQA SCA MQL SHL +                 
  150             L0120,
  151 00120 7772  C0120,  7772                / SPA SNA SZL CLA HLT                   
  152 00121 7771  C0121,  7771                / CLA MQA SCA MQL NMI                   
  153 00122 7770  C0122,  7770                / SPA SNA SZL CLA                       
  154 00123 7767  C0123,  7767                / CLA MQA SCA MQL DVI +                 
  155 00124 7766  C0124,  7766                / SMA SZA SNL CLA OSR HLT               
  156 00125 7765  C0125,  7765                / CLA MQA SCA MQL MUY +                 
  157 00126 7764  C0126,  7764                / SMA SZA SNL CLA OSR                   
  158 00127 7763  C0127,  7763                / CLA MQA SCA MQL SCL +                 
  159 00130 7762  C0130,  7762                / SMA SZA SNL CLA HLT                   
  160 00131 7761  C0131,  7761                / CLA MQA SCA MQL                       
  161 00132 7760  C0132,  7760                / SMA SZA SNL CLA                       
  162 00133 7757  C0133,  7757                / CLA MQA SCA LSR +                     
  163 00134 7756  C0134,  7756                / SPA SNA CLA OSR HLT                   
  164 00135 7755  C0135,  7755                / CLA MQA SCA ASR +                     
  165 00136 0000  D0136,  0000                / AND   S0000                           
  166 00137 2410          2410                /                                       @@0137=2410
  167             L0140,
  168 00140 2440  D0140,  2440                / ISZ I C0040                           
  169 00141 2470          2470                /                                       @@0141=2470
  170 00142 2520          2520                /                                       @@0142=2520
  171 00143 2600          2600                /                                       @@0143=2600

      AUTOMATIC DISASSEMBLY OF MAINDEC-8E-D0IB-PB.bin BY D8TAPE           Page 4


  172 00144 2630          2630                /                                       @@0144=2630
  173 00145 2660          2660                /                                       @@0145=2660
  174 00146 2710          2710                /                                       @@0146=2710
  175 00147 2740          2740                /                                       @@0147=2740
  176 00150 3000          3000                /                                       @@0150=3000
  177 00151 3030          3030                /                                       @@0151=3030
  178 00152 3060          3060                /                                       @@0152=3060
  179 00153 3110          3110                /                                       @@0153=3110
  180 00154 3140          3140                /                                       @@0154=3140
  181 00155 3200          3200                /                                       @@0155=3200
  182 00156 3230          3230                /                                       @@0156=3230
  183 00157 3260          3260                /                                       @@0157=3260
  184             L0160,
  185 00160 3310          3310                /                                       @@0160=3310
  186 00161 3340          3340                /                                       @@0161=3340
  187 00162 3400          3400                /                                       @@0162=3400
  188 00163 3430          3430                /                                       @@0163=3430
  189 00164 3460          3460                /                                       @@0164=3460
  190 00165 3510          3510                /                                       @@0165=3510
  191 00166 3540          3540                /                                       @@0166=3540
  192             
  193       0170  *0170
  194             
  195             ////////////////////////////////////////////////////////////////////////////////
  196             /
  197             /   SUBROUTINE:  S0170
  198             /
  199             /   Called from:
  200             /   0634 0642 0650 0656 
  201             /   Total 0004 (4) calls
  202             ////////////////////////////////////////////////////////////////////////////////
  203             S0170,
  204 00170 0000      0                       / return area
  205 00171 1175      TAD   C0175             /                                       @@0171=1175
  206 00172 3410      DCA I L0010             /                                       @@0172=3410
  207 00173 1010      TAD   L0010             /                                       @@0173=1010
  208 00174 5570      JMP I S0170             / return                                @@0174=5570
  209 00175 7402  C0175,  7402                / HLT                                   
  210             
  211       0200  *0200
  212             L0200,
  213 00200 5601  D0200,  5601                / JMP I D0201                           
  214 00201 0600  D0201,  0600                / AND I L0200                           
  215             
  216       0600  *0600
  217 00600 7200  D0600,  7200                / CLA                                   
  218 00601 1453      TAD I C0053             /                                       @@0601=1453
  219 00602 3343      DCA   D0743             /                                       @@0602=3343
  220 00603 1452      TAD I C0052             /                                       @@0603=1452
  221 00604 3344      DCA   D0744             /                                       @@0604=3344
  222 00605 1736      TAD I C0736             /                                       @@0605=1736
  223 00606 3345      DCA   D0745             /                                       @@0606=3345
  224 00607 1451      TAD I C0051             /                                       @@0607=1451
  225 00610 3346      DCA   D0746             /                                       @@0610=3346
  226 00611 1737      TAD I C0737             /                                       @@0611=1737
  227 00612 3347      DCA   D0747             /                                       @@0612=3347
  228 00613 1450      TAD I C0050             /                                       @@0613=1450

      AUTOMATIC DISASSEMBLY OF MAINDEC-8E-D0IB-PB.bin BY D8TAPE           Page 5


  229 00614 3350      DCA   D0750             /                                       @@0614=3350
  230 00615 1740      TAD I C0740             /                                       @@0615=1740
  231 00616 3351      DCA   D0751             /                                       @@0616=3351
  232 00617 1447      TAD I C0047             /                                       @@0617=1447
  233 00620 3352      DCA   D0752             /                                       @@0620=3352
  234 00621 1741      TAD I C0741             /                                       @@0621=1741
  235 00622 3353      DCA   D0753             /                                       @@0622=3353
  236 00623 1446      TAD I C0046             /                                       @@0623=1446
  237 00624 3354      DCA   D0754             /                                       @@0624=3354
  238 00625 1742      TAD I C0742             /                                       @@0625=1742
  239 00626 3355      DCA   D0755             /                                       @@0626=3355
  240 00627 1455      TAD I C0055             /                                       @@0627=1455
  241 00630 3356      DCA   D0756             /                                       @@0630=3356
  242 00631 7300      CLA CLL                 / AC = 0000                             @@0631=7300
  243 00632 1264      TAD   C0664             /                                       @@0632=1264
  244 00633 3010      DCA   L0010             /                                       @@0633=3010
  245             L0634,
  246 00634 4170      JMS   S0170             /                                       @@0634=4170
  247 00635 1265      TAD   C0665             /                                       @@0635=1265
  248 00636 7640      SZA CLA                 /                                       @@0636=7640
  249 00637 5234      JMP   L0634             /                                       @@0637=5234
  250 00640 1266      TAD   C0666             /                                       @@0640=1266
  251 00641 3010      DCA   L0010             /                                       @@0641=3010
  252             L0642,
  253 00642 4170      JMS   S0170             /                                       @@0642=4170
  254 00643 1267      TAD   C0667             /                                       @@0643=1267
  255 00644 7640      SZA CLA                 /                                       @@0644=7640
  256 00645 5242      JMP   L0642             /                                       @@0645=5242
  257 00646 1270      TAD   C0670             /                                       @@0646=1270
  258 00647 3010      DCA   L0010             /                                       @@0647=3010
  259             L0650,
  260 00650 4170      JMS   S0170             /                                       @@0650=4170
  261 00651 1271      TAD   C0671             /                                       @@0651=1271
  262 00652 7640      SZA CLA                 /                                       @@0652=7640
  263 00653 5250      JMP   L0650             /                                       @@0653=5250
  264 00654 1272      TAD   C0672             /                                       @@0654=1272
  265 00655 3010      DCA   L0010             /                                       @@0655=3010
  266             L0656,
  267 00656 4170      JMS   S0170             /                                       @@0656=4170
  268 00657 1273      TAD   C0673             /                                       @@0657=1273
  269 00660 7640      SZA CLA                 /                                       @@0660=7640
  270 00661 5256      JMP   L0656             /                                       @@0661=5256
  271 00662 5300      JMP   L0700             /                                       @@0662=5300
  272 00663 4200  C0663,  4200                / JMS   D0600                           
  273 00664 0175  C0664,  0175                / AND   C0175                           
  274 00665 7201  C0665,  7201                / CLA IAC                               
  275 00666 0756  C0666,  0756                / AND I D0756                           
  276 00667 6001  C0667,  6001                / ION                                   
  277 00670 3572  C0670,  3572                / DCA I C0172                           
  278 00671 3601  C0671,  3601                / DCA I C0601                           
  279 00672 5451  C0672,  5451                / JMP I C0051                           
  280 00673 0200  C0673,  0200                / AND   D0600                           
  281             
  282       0700  *0700
  283             L0700,
  284 00700 1303      TAD   L0703             /                                       @@0700=1303
  285 00701 3200      DCA   D0600             /                                       @@0701=3200

      AUTOMATIC DISASSEMBLY OF MAINDEC-8E-D0IB-PB.bin BY D8TAPE           Page 6


  286 00702 5303      JMP   L0703             /                                       @@0702=5303
  287             L0703,
  288 00703 5663  C0703,  5663                / JMP I C0663                           
  289 00704 7200      CLA                     /                                       @@0704=7200
  290 00705 1343      TAD   D0743             /                                       @@0705=1343
  291 00706 3453      DCA I C0053             /                                       @@0706=3453
  292 00707 1344      TAD   D0744             /                                       @@0707=1344
  293 00710 3452      DCA I C0052             /                                       @@0710=3452
  294 00711 1345      TAD   D0745             /                                       @@0711=1345
  295 00712 3736      DCA I C0736             /                                       @@0712=3736
  296 00713 1346      TAD   D0746             /                                       @@0713=1346
  297 00714 3451      DCA I C0051             /                                       @@0714=3451
  298 00715 1347      TAD   D0747             /                                       @@0715=1347
  299 00716 3737      DCA I C0737             /                                       @@0716=3737
  300 00717 1350      TAD   D0750             /                                       @@0717=1350
  301 00720 3450      DCA I C0050             /                                       @@0720=3450
  302 00721 1351      TAD   D0751             /                                       @@0721=1351
  303 00722 3740      DCA I C0740             /                                       @@0722=3740
  304 00723 1352      TAD   D0752             /                                       @@0723=1352
  305 00724 3447      DCA I C0047             /                                       @@0724=3447
  306 00725 1353      TAD   D0753             /                                       @@0725=1353
  307 00726 3741      DCA I C0741             /                                       @@0726=3741
  308 00727 1354      TAD   D0754             /                                       @@0727=1354
  309 00730 3446      DCA I C0046             /                                       @@0730=3446
  310 00731 1355      TAD   D0755             /                                       @@0731=1355
  311 00732 3742      DCA I C0742             /                                       @@0732=3742
  312 00733 1356      TAD   D0756             /                                       @@0733=1356
  313 00734 3455      DCA I C0055             /                                       @@0734=3455
  314 00735 7402      HLT                     /                                       @@0735=7402
  315 00736 7774  C0736,  7774                / SPA SNA SZL CLA OSR                   
  316 00737 7770  C0737,  7770                / SPA SNA SZL CLA                       
  317 00740 7760  C0740,  7760                / SMA SZA SNL CLA                       
  318 00741 7740  C0741,  7740                / SMA SZA CLA                           
  319 00742 7700  C0742,  7700                / SMA CLA                               
  320 00743 0000  D0743,  0000                / AND   S0000                           
  321 00744 0000  D0744,  0000                / AND   S0000                           
  322 00745 0000  D0745,  0000                / AND   S0000                           
  323 00746 0000  D0746,  0000                / AND   S0000                           
  324 00747 1742  D0747,  1742                / TAD I C0742                           
  325 00750 0000  D0750,  0000                / AND   S0000                           
  326 00751 0000  D0751,  0000                / AND   S0000                           
  327 00752 0000  D0752,  0000                / AND   S0000                           
  328 00753 0000  D0753,  0000                / AND   S0000                           
  329 00754 0000  D0754,  0000                / AND   S0000                           
  330 00755 0000  D0755,  0000                / AND   S0000                           
  331 00756 0000  D0756,  0000                / AND   S0000                           
  332             
  333       4200  *4200
  334             L4200,
  335 04200 7200      CLA                     /                                       @@4200=7200
  336 04201 3136      DCA   D0136             /                                       @@4201=3136
  337 04202 5203      JMP   L4203             /                                       @@4202=5203
  338             L4203,
  339 04203 1136      TAD   D0136             /                                       @@4203=1136
  340 04204 7440      SZA                     /                                       @@4204=7440
  341 04205 7402      HLT                     /                                       @@4205=7402
  342 04206 1136      TAD   D0136             /                                       @@4206=1136

      AUTOMATIC DISASSEMBLY OF MAINDEC-8E-D0IB-PB.bin BY D8TAPE           Page 7


  343 04207 7001      IAC                     /                                       @@4207=7001
  344 04210 3136      DCA   D0136             /                                       @@4210=3136
  345 04211 5213      JMP   L4213             /                                       @@4211=5213
  346 04212 7402      HLT                     /                                       @@4212=7402
  347             L4213,
  348 04213 1136      TAD   D0136             /                                       @@4213=1136
  349 04214 1113      TAD   C0113             /                                       @@4214=1113
  350 04215 7440      SZA                     /                                       @@4215=7440
  351 04216 7402      HLT                     /                                       @@4216=7402
  352 04217 1136      TAD   D0136             /                                       @@4217=1136
  353 04220 7001      IAC                     /                                       @@4220=7001
  354 04221 3136      DCA   D0136             /                                       @@4221=3136
  355 04222 5225      JMP   L4225             /                                       @@4222=5225
  356 04223 7402      HLT                     /                                       @@4223=7402
  357 04224 7402      HLT                     /                                       @@4224=7402
  358             L4225,
  359 04225 1136      TAD   D0136             /                                       @@4225=1136
  360 04226 1114      TAD   C0114             /                                       @@4226=1114
  361 04227 7440      SZA                     /                                       @@4227=7440
  362 04230 7402      HLT                     /                                       @@4230=7402
  363 04231 1136      TAD   D0136             /                                       @@4231=1136
  364 04232 7001      IAC                     /                                       @@4232=7001
  365 04233 3136      DCA   D0136             /                                       @@4233=3136
  366 04234 5240      JMP   L4240             /                                       @@4234=5240
  367 04235 7402      HLT                     /                                       @@4235=7402
  368 04236 7402      HLT                     /                                       @@4236=7402
  369 04237 7402      HLT                     /                                       @@4237=7402
  370             L4240,
  371 04240 1136      TAD   D0136             /                                       @@4240=1136
  372 04241 1115      TAD   C0115             /                                       @@4241=1115
  373 04242 7440      SZA                     /                                       @@4242=7440
  374 04243 7402      HLT                     /                                       @@4243=7402
  375 04244 1136      TAD   D0136             /                                       @@4244=1136
  376 04245 7001      IAC                     /                                       @@4245=7001
  377 04246 3136      DCA   D0136             /                                       @@4246=3136
  378 04247 5254      JMP   L4254             /                                       @@4247=5254
  379 04250 7402      HLT                     /                                       @@4250=7402
  380 04251 7402      HLT                     /                                       @@4251=7402
  381 04252 7402      HLT                     /                                       @@4252=7402
  382 04253 7402      HLT                     /                                       @@4253=7402
  383             L4254,
  384 04254 1136      TAD   D0136             /                                       @@4254=1136
  385 04255 1116      TAD   C0116             /                                       @@4255=1116
  386 04256 7440      SZA                     /                                       @@4256=7440
  387 04257 7402      HLT                     /                                       @@4257=7402
  388 04260 1136      TAD   D0136             /                                       @@4260=1136
  389 04261 7001      IAC                     /                                       @@4261=7001
  390 04262 3136      DCA   D0136             /                                       @@4262=3136
  391 04263 5271      JMP   L4271             /                                       @@4263=5271
  392 04264 7402      HLT                     /                                       @@4264=7402
  393 04265 7402      HLT                     /                                       @@4265=7402
  394 04266 7402      HLT                     /                                       @@4266=7402
  395 04267 7402      HLT                     /                                       @@4267=7402
  396 04270 7402      HLT                     /                                       @@4270=7402
  397             L4271,
  398 04271 1136      TAD   D0136             /                                       @@4271=1136
  399 04272 1117      TAD   C0117             /                                       @@4272=1117

      AUTOMATIC DISASSEMBLY OF MAINDEC-8E-D0IB-PB.bin BY D8TAPE           Page 8


  400 04273 7440      SZA                     /                                       @@4273=7440
  401 04274 7402      HLT                     /                                       @@4274=7402
  402 04275 1136      TAD   D0136             /                                       @@4275=1136
  403 04276 7001      IAC                     /                                       @@4276=7001
  404 04277 3136      DCA   D0136             /                                       @@4277=3136
  405 04300 5307      JMP   L4307             /                                       @@4300=5307
  406 04301 7402      HLT                     /                                       @@4301=7402
  407 04302 7402      HLT                     /                                       @@4302=7402
  408 04303 7402      HLT                     /                                       @@4303=7402
  409 04304 7402      HLT                     /                                       @@4304=7402
  410 04305 7402      HLT                     /                                       @@4305=7402
  411 04306 7402      HLT                     /                                       @@4306=7402
  412             L4307,
  413 04307 1136      TAD   D0136             /                                       @@4307=1136
  414 04310 1120      TAD   L0120             /                                       @@4310=1120
  415 04311 7440      SZA                     /                                       @@4311=7440
  416 04312 7402      HLT                     /                                       @@4312=7402
  417 04313 1136      TAD   D0136             /                                       @@4313=1136
  418 04314 7001      IAC                     /                                       @@4314=7001
  419 04315 3136      DCA   D0136             /                                       @@4315=3136
  420 04316 5326      JMP   L4326             /                                       @@4316=5326
  421 04317 7402      HLT                     /                                       @@4317=7402
  422 04320 7402      HLT                     /                                       @@4320=7402
  423 04321 7402      HLT                     /                                       @@4321=7402
  424 04322 7402      HLT                     /                                       @@4322=7402
  425 04323 7402      HLT                     /                                       @@4323=7402
  426 04324 7402      HLT                     /                                       @@4324=7402
  427 04325 7402      HLT                     /                                       @@4325=7402
  428             L4326,
  429 04326 1136      TAD   D0136             /                                       @@4326=1136
  430 04327 1121      TAD   C0121             /                                       @@4327=1121
  431 04330 7440      SZA                     /                                       @@4330=7440
  432 04331 7402      HLT                     /                                       @@4331=7402
  433 04332 1136      TAD   D0136             /                                       @@4332=1136
  434 04333 7001      IAC                     /                                       @@4333=7001
  435 04334 3136      DCA   D0136             /                                       @@4334=3136
  436 04335 5346      JMP   L4346             /                                       @@4335=5346
  437 04336 7402      HLT                     /                                       @@4336=7402
  438 04337 7402      HLT                     /                                       @@4337=7402
  439 04340 7402      HLT                     /                                       @@4340=7402
  440 04341 7402      HLT                     /                                       @@4341=7402
  441 04342 7402      HLT                     /                                       @@4342=7402
  442 04343 7402      HLT                     /                                       @@4343=7402
  443 04344 7402      HLT                     /                                       @@4344=7402
  444 04345 7402      HLT                     /                                       @@4345=7402
  445             L4346,
  446 04346 1136      TAD   D0136             /                                       @@4346=1136
  447 04347 1122      TAD   C0122             /                                       @@4347=1122
  448 04350 7440      SZA                     /                                       @@4350=7440
  449 04351 7402      HLT                     /                                       @@4351=7402
  450 04352 1136      TAD   D0136             /                                       @@4352=1136
  451 04353 7001      IAC                     /                                       @@4353=7001
  452 04354 3136      DCA   D0136             /                                       @@4354=3136
  453 04355 5367      JMP   L4367             /                                       @@4355=5367
  454 04356 7402      HLT                     /                                       @@4356=7402
  455 04357 7402      HLT                     /                                       @@4357=7402
  456 04360 7402      HLT                     /                                       @@4360=7402

      AUTOMATIC DISASSEMBLY OF MAINDEC-8E-D0IB-PB.bin BY D8TAPE           Page 9


  457 04361 7402      HLT                     /                                       @@4361=7402
  458 04362 7402      HLT                     /                                       @@4362=7402
  459 04363 7402      HLT                     /                                       @@4363=7402
  460 04364 7402      HLT                     /                                       @@4364=7402
  461 04365 7402      HLT                     /                                       @@4365=7402
  462 04366 7402      HLT                     /                                       @@4366=7402
  463             L4367,
  464 04367 1136      TAD   D0136             /                                       @@4367=1136
  465 04370 1123      TAD   C0123             /                                       @@4370=1123
  466 04371 7440      SZA                     /                                       @@4371=7440
  467 04372 7402      HLT                     /                                       @@4372=7402
  468 04373 1136      TAD   D0136             /                                       @@4373=1136
  469 04374 7001      IAC                     /                                       @@4374=7001
  470 04375 3136      DCA   D0136             /                                       @@4375=3136
  471 04376 7000      NOP                     /                                       @@4376=7000
  472 04377 7000      NOP                     /                                       @@4377=7000
  473             
  474       4400  *4400
  475 04400 5201      JMP   L4401             /                                       @@4400=5201
  476             L4401,
  477 04401 1136      TAD   D0136             /                                       @@4401=1136
  478 04402 1124      TAD   C0124             /                                       @@4402=1124
  479 04403 7440      SZA                     /                                       @@4403=7440
  480 04404 7402      HLT                     /                                       @@4404=7402
  481 04405 1136      TAD   D0136             /                                       @@4405=1136
  482 04406 7001      IAC                     /                                       @@4406=7001
  483 04407 3136      DCA   D0136             /                                       @@4407=3136
  484 04410 5212      JMP   L4412             /                                       @@4410=5212
  485 04411 7402      HLT                     /                                       @@4411=7402
  486             L4412,
  487 04412 1136      TAD   D0136             /                                       @@4412=1136
  488 04413 1125      TAD   C0125             /                                       @@4413=1125
  489 04414 7440      SZA                     /                                       @@4414=7440
  490 04415 7402      HLT                     /                                       @@4415=7402
  491 04416 1136      TAD   D0136             /                                       @@4416=1136
  492 04417 7001      IAC                     /                                       @@4417=7001
  493 04420 3136      DCA   D0136             /                                       @@4420=3136
  494 04421 5224      JMP   L4424             /                                       @@4421=5224
  495 04422 7402      HLT                     /                                       @@4422=7402
  496 04423 7402      HLT                     /                                       @@4423=7402
  497             L4424,
  498 04424 1136      TAD   D0136             /                                       @@4424=1136
  499 04425 1126      TAD   C0126             /                                       @@4425=1126
  500 04426 7440      SZA                     /                                       @@4426=7440
  501 04427 7402      HLT                     /                                       @@4427=7402
  502 04430 1136      TAD   D0136             /                                       @@4430=1136
  503 04431 7001      IAC                     /                                       @@4431=7001
  504 04432 3136      DCA   D0136             /                                       @@4432=3136
  505 04433 5237      JMP   L4437             /                                       @@4433=5237
  506 04434 7402      HLT                     /                                       @@4434=7402
  507 04435 7402      HLT                     /                                       @@4435=7402
  508 04436 7402      HLT                     /                                       @@4436=7402
  509             L4437,
  510 04437 1136      TAD   D0136             /                                       @@4437=1136
  511 04440 1127      TAD   C0127             /                                       @@4440=1127
  512 04441 7440      SZA                     /                                       @@4441=7440
  513 04442 7402      HLT                     /                                       @@4442=7402

      AUTOMATIC DISASSEMBLY OF MAINDEC-8E-D0IB-PB.bin BY D8TAPE          Page 10


  514 04443 1136      TAD   D0136             /                                       @@4443=1136
  515 04444 7001      IAC                     /                                       @@4444=7001
  516 04445 3136      DCA   D0136             /                                       @@4445=3136
  517 04446 5253      JMP   L4453             /                                       @@4446=5253
  518 04447 7402      HLT                     /                                       @@4447=7402
  519 04450 7402      HLT                     /                                       @@4450=7402
  520 04451 7402      HLT                     /                                       @@4451=7402
  521 04452 7402      HLT                     /                                       @@4452=7402
  522             L4453,
  523 04453 1136      TAD   D0136             /                                       @@4453=1136
  524 04454 1130      TAD   C0130             /                                       @@4454=1130
  525 04455 7440      SZA                     /                                       @@4455=7440
  526 04456 7402      HLT                     /                                       @@4456=7402
  527 04457 1136      TAD   D0136             /                                       @@4457=1136
  528 04460 7001      IAC                     /                                       @@4460=7001
  529 04461 3136      DCA   D0136             /                                       @@4461=3136
  530 04462 5270      JMP   L4470             /                                       @@4462=5270
  531 04463 7402      HLT                     /                                       @@4463=7402
  532 04464 7402      HLT                     /                                       @@4464=7402
  533 04465 7402      HLT                     /                                       @@4465=7402
  534 04466 7402      HLT                     /                                       @@4466=7402
  535 04467 7402      HLT                     /                                       @@4467=7402
  536             L4470,
  537 04470 1136      TAD   D0136             /                                       @@4470=1136
  538 04471 1131      TAD   C0131             /                                       @@4471=1131
  539 04472 7440      SZA                     /                                       @@4472=7440
  540 04473 7402      HLT                     /                                       @@4473=7402
  541 04474 1136      TAD   D0136             /                                       @@4474=1136
  542 04475 7001      IAC                     /                                       @@4475=7001
  543 04476 3136      DCA   D0136             /                                       @@4476=3136
  544 04477 5306      JMP   L4506             /                                       @@4477=5306
  545 04500 7402      HLT                     /                                       @@4500=7402
  546 04501 7402      HLT                     /                                       @@4501=7402
  547 04502 7402      HLT                     /                                       @@4502=7402
  548 04503 7402      HLT                     /                                       @@4503=7402
  549 04504 7402      HLT                     /                                       @@4504=7402
  550 04505 7402      HLT                     /                                       @@4505=7402
  551             L4506,
  552 04506 1136      TAD   D0136             /                                       @@4506=1136
  553 04507 1132      TAD   C0132             /                                       @@4507=1132
  554 04510 7440      SZA                     /                                       @@4510=7440
  555 04511 7402      HLT                     /                                       @@4511=7402
  556 04512 1136      TAD   D0136             /                                       @@4512=1136
  557 04513 7001      IAC                     /                                       @@4513=7001
  558 04514 3136      DCA   D0136             /                                       @@4514=3136
  559 04515 5325      JMP   L4525             /                                       @@4515=5325
  560 04516 7402      HLT                     /                                       @@4516=7402
  561 04517 7402      HLT                     /                                       @@4517=7402
  562 04520 7402      HLT                     /                                       @@4520=7402
  563 04521 7402      HLT                     /                                       @@4521=7402
  564 04522 7402      HLT                     /                                       @@4522=7402
  565 04523 7402      HLT                     /                                       @@4523=7402
  566 04524 7402      HLT                     /                                       @@4524=7402
  567             L4525,
  568 04525 1136      TAD   D0136             /                                       @@4525=1136
  569 04526 1133      TAD   C0133             /                                       @@4526=1133
  570 04527 7440      SZA                     /                                       @@4527=7440

      AUTOMATIC DISASSEMBLY OF MAINDEC-8E-D0IB-PB.bin BY D8TAPE          Page 11


  571 04530 7402      HLT                     /                                       @@4530=7402
  572 04531 1136      TAD   D0136             /                                       @@4531=1136
  573 04532 7001      IAC                     /                                       @@4532=7001
  574 04533 3136      DCA   D0136             /                                       @@4533=3136
  575 04534 5345      JMP   L4545             /                                       @@4534=5345
  576 04535 7402      HLT                     /                                       @@4535=7402
  577 04536 7402      HLT                     /                                       @@4536=7402
  578 04537 7402      HLT                     /                                       @@4537=7402
  579 04540 7402      HLT                     /                                       @@4540=7402
  580 04541 7402      HLT                     /                                       @@4541=7402
  581 04542 7402      HLT                     /                                       @@4542=7402
  582 04543 7402      HLT                     /                                       @@4543=7402
  583 04544 7402      HLT                     /                                       @@4544=7402
  584             L4545,
  585 04545 1136      TAD   D0136             /                                       @@4545=1136
  586 04546 1134      TAD   C0134             /                                       @@4546=1134
  587 04547 7440      SZA                     /                                       @@4547=7440
  588 04550 7402      HLT                     /                                       @@4550=7402
  589 04551 1136      TAD   D0136             /                                       @@4551=1136
  590 04552 7001      IAC                     /                                       @@4552=7001
  591 04553 3136      DCA   D0136             /                                       @@4553=3136
  592 04554 5366      JMP   L4566             /                                       @@4554=5366
  593 04555 7402      HLT                     /                                       @@4555=7402
  594 04556 7402      HLT                     /                                       @@4556=7402
  595 04557 7402      HLT                     /                                       @@4557=7402
  596 04560 7402      HLT                     /                                       @@4560=7402
  597 04561 7402      HLT                     /                                       @@4561=7402
  598 04562 7402      HLT                     /                                       @@4562=7402
  599 04563 7402      HLT                     /                                       @@4563=7402
  600 04564 7402      HLT                     /                                       @@4564=7402
  601 04565 7402      HLT                     /                                       @@4565=7402
  602             L4566,
  603 04566 1136      TAD   D0136             /                                       @@4566=1136
  604 04567 1135      TAD   C0135             /                                       @@4567=1135
  605 04570 7440      SZA                     /                                       @@4570=7440
  606 04571 7402      HLT                     /                                       @@4571=7402
  607 04572 1136      TAD   D0136             /                                       @@4572=1136
  608 04573 7001      IAC                     /                                       @@4573=7001
  609 04574 3136      DCA   D0136             /                                       @@4574=3136
  610 04575 7000      NOP                     /                                       @@4575=7000
  611 04576 7000      NOP                     /                                       @@4576=7000
  612 04577 7000      NOP                     /                                       @@4577=7000
  613 04600 1205      TAD   C4605             /                                       @@4600=1205
  614 04601 3455      DCA I C0055             /                                       @@4601=3455
  615 04602 1206      TAD   C4606             /                                       @@4602=1206
  616 04603 3422      DCA I C0022             /                                       @@4603=3422
  617 04604 5455      JMP I C0055             / long jump to L7777                    @@4604=5455
  618 04605 5422  C4605,  5422                / JMP I C0022                           
  619 04606 5456  C4606,  5456                / JMP I C0056                           
  620             
  621       4620  *4620
  622 04620 1136      TAD   D0136             /                                       @@4620=1136
  623 04621 1236      TAD   C4636             /                                       @@4621=1236
  624 04622 7440      SZA                     /                                       @@4622=7440
  625 04623 7402      HLT                     /                                       @@4623=7402
  626 04624 1136      TAD   D0136             /                                       @@4624=1136
  627 04625 7001      IAC                     /                                       @@4625=7001

      AUTOMATIC DISASSEMBLY OF MAINDEC-8E-D0IB-PB.bin BY D8TAPE          Page 12


  628 04626 3136      DCA   D0136             /                                       @@4626=3136
  629 04627 1234      TAD   C4634             /                                       @@4627=1234
  630 04630 3454      DCA I C0054             /                                       @@4630=3454
  631 04631 1235      TAD   C4635             /                                       @@4631=1235
  632 04632 3423      DCA I C0023             /                                       @@4632=3423
  633 04633 5454      JMP I C0054             / long jump to L7776                    @@4633=5454
  634 04634 5423  C4634,  5423                / JMP I C0023                           
  635 04635 5457  C4635,  5457                / JMP I C0057                           
  636 04636 7754  C4636,  7754                / SPA SNA CLA OSR                       
  637             
  638       4640  *4640
  639 04640 1136      TAD   D0136             /                                       @@4640=1136
  640 04641 1256      TAD   C4656             /                                       @@4641=1256
  641 04642 7440      SZA                     /                                       @@4642=7440
  642 04643 7402      HLT                     /                                       @@4643=7402
  643 04644 1136      TAD   D0136             /                                       @@4644=1136
  644 04645 7001      IAC                     /                                       @@4645=7001
  645 04646 3136      DCA   D0136             /                                       @@4646=3136
  646 04647 1254      TAD   C4654             /                                       @@4647=1254
  647 04650 3453      DCA I C0053             /                                       @@4650=3453
  648 04651 1255      TAD   C4655             /                                       @@4651=1255
  649 04652 3424      DCA I C0024             /                                       @@4652=3424
  650 04653 5453      JMP I C0053             / long jump to L7775                    @@4653=5453
  651 04654 5424  C4654,  5424                / JMP I C0024                           
  652 04655 5660  C4655,  5660                / JMP I C4660                           
  653 04656 7753  C4656,  7753                / CLA MQA SCA SHL +                     
  654             
  655       4660  *4660
  656 04660 1136      TAD   D0136             /                                       @@4660=1136
  657 04661 1276      TAD   C4676             /                                       @@4661=1276
  658 04662 7440      SZA                     /                                       @@4662=7440
  659 04663 7402      HLT                     /                                       @@4663=7402
  660 04664 1136      TAD   D0136             /                                       @@4664=1136
  661 04665 7001      IAC                     /                                       @@4665=7001
  662 04666 3136      DCA   D0136             /                                       @@4666=3136
  663 04667 1274      TAD   C4674             /                                       @@4667=1274
  664 04670 3452      DCA I C0052             /                                       @@4670=3452
  665 04671 1275      TAD   C4675             /                                       @@4671=1275
  666 04672 3425      DCA I C0025             /                                       @@4672=3425
  667 04673 5452      JMP I C0052             / long jump to L7773                    @@4673=5452
  668 04674 5425  C4674,  5425                / JMP I C0025                           
  669 04675 5461  C4675,  5461                / JMP I C0061                           
  670 04676 7752  C4676,  7752                / SPA SNA CLA HLT                       
  671             
  672       4700  *4700
  673 04700 1136      TAD   D0136             /                                       @@4700=1136
  674 04701 1316      TAD   C4716             /                                       @@4701=1316
  675 04702 7440      SZA                     /                                       @@4702=7440
  676 04703 7402      HLT                     /                                       @@4703=7402
  677 04704 1136      TAD   D0136             /                                       @@4704=1136
  678 04705 7001      IAC                     /                                       @@4705=7001
  679 04706 3136      DCA   D0136             /                                       @@4706=3136
  680 04707 1314      TAD   C4714             /                                       @@4707=1314
  681 04710 3451      DCA I C0051             /                                       @@4710=3451
  682 04711 1315      TAD   C4715             /                                       @@4711=1315
  683 04712 3426      DCA I C0026             /                                       @@4712=3426
  684 04713 5451      JMP I C0051             / long jump to L7767                    @@4713=5451

      AUTOMATIC DISASSEMBLY OF MAINDEC-8E-D0IB-PB.bin BY D8TAPE          Page 13


  685 04714 5426  C4714,  5426                / JMP I C0026                           
  686 04715 5462  C4715,  5462                / JMP I C0062                           
  687 04716 7751  C4716,  7751                / CLA MQA SCA NMI                       
  688             
  689       4720  *4720
  690 04720 1136      TAD   D0136             /                                       @@4720=1136
  691 04721 1336      TAD   C4736             /                                       @@4721=1336
  692 04722 7440      SZA                     /                                       @@4722=7440
  693 04723 7402      HLT                     /                                       @@4723=7402
  694 04724 1136      TAD   D0136             /                                       @@4724=1136
  695 04725 7001      IAC                     /                                       @@4725=7001
  696 04726 3136      DCA   D0136             /                                       @@4726=3136
  697 04727 1334      TAD   C4734             /                                       @@4727=1334
  698 04730 3450      DCA I C0050             /                                       @@4730=3450
  699 04731 1335      TAD   C4735             /                                       @@4731=1335
  700 04732 3427      DCA I C0027             /                                       @@4732=3427
  701 04733 5450      JMP I C0050             / long jump to L7757                    @@4733=5450
  702 04734 5427  C4734,  5427                / JMP I C0027                           
  703 04735 5463  C4735,  5463                / JMP I C0063                           
  704 04736 7750  C4736,  7750                / SPA SNA CLA                           
  705             
  706       4740  *4740
  707 04740 1136      TAD   D0136             /                                       @@4740=1136
  708 04741 1356      TAD   C4756             /                                       @@4741=1356
  709 04742 7440      SZA                     /                                       @@4742=7440
  710 04743 7402      HLT                     /                                       @@4743=7402
  711 04744 1136      TAD   D0136             /                                       @@4744=1136
  712 04745 7001      IAC                     /                                       @@4745=7001
  713 04746 3136      DCA   D0136             /                                       @@4746=3136
  714 04747 1354      TAD   C4754             /                                       @@4747=1354
  715 04750 3447      DCA I C0047             /                                       @@4750=3447
  716 04751 1355      TAD   C4755             /                                       @@4751=1355
  717 04752 3430      DCA I D0030             /                                       @@4752=3430
  718 04753 5447      JMP I C0047             / long jump to L7737                    @@4753=5447
  719 04754 5430  C4754,  5430                / JMP I D0030                           
  720 04755 5464  C4755,  5464                / JMP I C0064                           
  721 04756 7747  C4756,  7747                / CLA MQA SCA DVI +                     
  722             
  723       4760  *4760
  724 04760 1136      TAD   D0136             /                                       @@4760=1136
  725 04761 1376      TAD   C4776             /                                       @@4761=1376
  726 04762 7440      SZA                     /                                       @@4762=7440
  727 04763 7402      HLT                     /                                       @@4763=7402
  728 04764 1136      TAD   D0136             /                                       @@4764=1136
  729 04765 7001      IAC                     /                                       @@4765=7001
  730 04766 3136      DCA   D0136             /                                       @@4766=3136
  731 04767 1374      TAD   C4774             /                                       @@4767=1374
  732 04770 3446      DCA I C0046             /                                       @@4770=3446
  733 04771 1375      TAD   C4775             /                                       @@4771=1375
  734 04772 3431      DCA I C0031             /                                       @@4772=3431
  735 04773 5446      JMP I C0046             / long jump to L7677                    @@4773=5446
  736 04774 5431  C4774,  5431                / JMP I C0031                           
  737 04775 5465  C4775,  5465                / JMP I C0065                           
  738 04776 7746  C4776,  7746                / SMA SZA CLA OSR HLT                   
  739             
  740       5000  *5000
  741 05000 1136      TAD   D0136             /                                       @@5000=1136

      AUTOMATIC DISASSEMBLY OF MAINDEC-8E-D0IB-PB.bin BY D8TAPE          Page 14


  742 05001 1216      TAD   C5016             /                                       @@5001=1216
  743 05002 7440      SZA                     /                                       @@5002=7440
  744 05003 7402      HLT                     /                                       @@5003=7402
  745 05004 1136      TAD   D0136             /                                       @@5004=1136
  746 05005 7001      IAC                     /                                       @@5005=7001
  747 05006 3136      DCA   D0136             /                                       @@5006=3136
  748 05007 1214      TAD   C5014             /                                       @@5007=1214
  749 05010 3445      DCA I C0045             /                                       @@5010=3445
  750 05011 1215      TAD   C5015             /                                       @@5011=1215
  751 05012 3432      DCA I C0032             /                                       @@5012=3432
  752 05013 5445      JMP I C0045             / long jump to L7577                    @@5013=5445
  753 05014 5432  C5014,  5432                / JMP I C0032                           
  754 05015 5466  C5015,  5466                / JMP I C0066                           
  755 05016 7745  C5016,  7745                / CLA MQA SCA MUY +                     
  756             
  757       5020  *5020
  758 05020 1136      TAD   D0136             /                                       @@5020=1136
  759 05021 1236      TAD   C5036             /                                       @@5021=1236
  760 05022 7440      SZA                     /                                       @@5022=7440
  761 05023 7402      HLT                     /                                       @@5023=7402
  762 05024 1136      TAD   D0136             /                                       @@5024=1136
  763 05025 7001      IAC                     /                                       @@5025=7001
  764 05026 3136      DCA   D0136             /                                       @@5026=3136
  765 05027 1234      TAD   C5034             /                                       @@5027=1234
  766 05030 3444      DCA I C0044             /                                       @@5030=3444
  767 05031 1235      TAD   C5035             /                                       @@5031=1235
  768 05032 3433      DCA I C0033             /                                       @@5032=3433
  769 05033 5444      JMP I C0044             / long jump to L7377                    @@5033=5444
  770 05034 5433  C5034,  5433                / JMP I C0033                           
  771 05035 5467  C5035,  5467                / JMP I C0067                           
  772 05036 7744  C5036,  7744                / SMA SZA CLA OSR                       
  773             
  774       5040  *5040
  775 05040 1136      TAD   D0136             /                                       @@5040=1136
  776 05041 1256      TAD   C5056             /                                       @@5041=1256
  777 05042 7440      SZA                     /                                       @@5042=7440
  778 05043 7402      HLT                     /                                       @@5043=7402
  779 05044 1136      TAD   D0136             /                                       @@5044=1136
  780 05045 7001      IAC                     /                                       @@5045=7001
  781 05046 3136      DCA   D0136             /                                       @@5046=3136
  782 05047 1254      TAD   C5054             /                                       @@5047=1254
  783 05050 3443      DCA I C0043             /                                       @@5050=3443
  784 05051 1255      TAD   C5055             /                                       @@5051=1255
  785 05052 3434      DCA I C0034             /                                       @@5052=3434
  786 05053 5443      JMP I C0043             / long jump to L6777                    @@5053=5443
  787 05054 5434  C5054,  5434                / JMP I C0034                           
  788 05055 5470  C5055,  5470                / JMP I C0070                           
  789 05056 7743  C5056,  7743                / CLA MQA SCA SCL +                     
  790             
  791       5060  *5060
  792 05060 1136  D5060,  1136                / TAD   D0136                           
  793 05061 1276      TAD   C5076             /                                       @@5061=1276
  794 05062 7440      SZA                     /                                       @@5062=7440
  795 05063 7402      HLT                     /                                       @@5063=7402
  796 05064 1136      TAD   D0136             /                                       @@5064=1136
  797 05065 7001      IAC                     /                                       @@5065=7001
  798 05066 3136      DCA   D0136             /                                       @@5066=3136

      AUTOMATIC DISASSEMBLY OF MAINDEC-8E-D0IB-PB.bin BY D8TAPE          Page 15


  799 05067 1274      TAD   C5074             /                                       @@5067=1274
  800 05070 3442      DCA I C0042             /                                       @@5070=3442
  801 05071 1275      TAD   C5075             /                                       @@5071=1275
  802 05072 3435      DCA I C0035             /                                       @@5072=3435
  803 05073 5442      JMP I C0042             / long jump to L5777                    @@5073=5442
  804 05074 5435  C5074,  5435                / JMP I C0035                           
  805 05075 5471  C5075,  5471                / JMP I C0071                           
  806 05076 7742  C5076,  7742                / SMA SZA CLA HLT                       
  807             
  808       5100  *5100
  809 05100 1136      TAD   D0136             /                                       @@5100=1136
  810 05101 1316      TAD   C5116             /                                       @@5101=1316
  811 05102 7440      SZA                     /                                       @@5102=7440
  812 05103 7402      HLT                     /                                       @@5103=7402
  813 05104 1136      TAD   D0136             /                                       @@5104=1136
  814 05105 7001      IAC                     /                                       @@5105=7001
  815 05106 3136      DCA   D0136             /                                       @@5106=3136
  816 05107 1314      TAD   C5114             /                                       @@5107=1314
  817 05110 3437      DCA I C0037             /                                       @@5110=3437
  818 05111 1315      TAD   C5115             /                                       @@5111=1315
  819 05112 3436      DCA I C0036             /                                       @@5112=3436
  820 05113 5437      JMP I C0037             / long jump to L3777                    @@5113=5437
  821 05114 5436  C5114,  5436                / JMP I C0036                           
  822 05115 5472  C5115,  5472                / JMP I C0072                           
  823 05116 7741  C5116,  7741                / CLA MQA SCA                           
  824             
  825       5120  *5120
  826 05120 1136      TAD   D0136             /                                       @@5120=1136
  827 05121 1336      TAD   C5136             /                                       @@5121=1336
  828 05122 7440      SZA                     /                                       @@5122=7440
  829 05123 7402      HLT                     /                                       @@5123=7402
  830 05124 1136      TAD   D0136             /                                       @@5124=1136
  831 05125 7001      IAC                     /                                       @@5125=7001
  832 05126 3136      DCA   D0136             /                                       @@5126=3136
  833 05127 1334      TAD   C5134             /                                       @@5127=1334
  834 05130 3422      DCA I C0022             /                                       @@5130=3422
  835 05131 1335      TAD   C5135             /                                       @@5131=1335
  836 05132 3455      DCA I C0055             /                                       @@5132=3455
  837 05133 5422      JMP I C0022             / long jump to L0000                    @@5133=5422
  838 05134 5455  C5134,  5455                / JMP I C0055                           
  839 05135 5473  C5135,  5473                / JMP I C0073                           
  840 05136 7740  C5136,  7740                / SMA SZA CLA                           
  841             
  842       5140  *5140
  843 05140 1136      TAD   D0136             /                                       @@5140=1136
  844 05141 1356      TAD   C5156             /                                       @@5141=1356
  845 05142 7440      SZA                     /                                       @@5142=7440
  846 05143 7402      HLT                     /                                       @@5143=7402
  847 05144 1136      TAD   D0136             /                                       @@5144=1136
  848 05145 7001      IAC                     /                                       @@5145=7001
  849 05146 3136      DCA   D0136             /                                       @@5146=3136
  850 05147 1354      TAD   C5154             /                                       @@5147=1354
  851 05150 3423      DCA I C0023             /                                       @@5150=3423
  852 05151 1355      TAD   C5155             /                                       @@5151=1355
  853 05152 3454      DCA I C0054             /                                       @@5152=3454
  854 05153 5423      JMP I C0023             / long jump to L0001                    @@5153=5423
  855 05154 5454  C5154,  5454                / JMP I C0054                           

      AUTOMATIC DISASSEMBLY OF MAINDEC-8E-D0IB-PB.bin BY D8TAPE          Page 16


  856 05155 5474  C5155,  5474                / JMP I C0074                           
  857 05156 7737  C5156,  7737                / CLA MQA MQL LSR +                     
  858             
  859       5160  *5160
  860 05160 1136      TAD   D0136             /                                       @@5160=1136
  861 05161 1376      TAD   C5176             /                                       @@5161=1376
  862 05162 7440      SZA                     /                                       @@5162=7440
  863 05163 7402      HLT                     /                                       @@5163=7402
  864 05164 1136      TAD   D0136             /                                       @@5164=1136
  865 05165 7001      IAC                     /                                       @@5165=7001
  866 05166 3136      DCA   D0136             /                                       @@5166=3136
  867 05167 1374      TAD   C5174             /                                       @@5167=1374
  868 05170 3424      DCA I C0024             /                                       @@5170=3424
  869 05171 1375      TAD   C5175             /                                       @@5171=1375
  870 05172 3453      DCA I C0053             /                                       @@5172=3453
  871 05173 5424      JMP I C0024             / long jump to L0002                    @@5173=5424
  872 05174 5453  C5174,  5453                / JMP I C0053                           
  873 05175 5475  C5175,  5475                / JMP I C0075                           
  874 05176 7736  C5176,  7736                / SPA SZL CLA OSR HLT                   
  875             
  876       5200  *5200
  877 05200 1136      TAD   D0136             /                                       @@5200=1136
  878 05201 1216      TAD   C5216             /                                       @@5201=1216
  879 05202 7440      SZA                     /                                       @@5202=7440
  880 05203 7402      HLT                     /                                       @@5203=7402
  881 05204 1136      TAD   D0136             /                                       @@5204=1136
  882 05205 7001      IAC                     /                                       @@5205=7001
  883 05206 3136      DCA   D0136             /                                       @@5206=3136
  884 05207 1214      TAD   C5214             /                                       @@5207=1214
  885 05210 3425      DCA I C0025             /                                       @@5210=3425
  886 05211 1215      TAD   C5215             /                                       @@5211=1215
  887 05212 3452      DCA I C0052             /                                       @@5212=3452
  888 05213 5425      JMP I C0025             / long jump to L0004                    @@5213=5425
  889 05214 5452  C5214,  5452                / JMP I C0052                           
  890 05215 5476  C5215,  5476                / JMP I C0076                           
  891 05216 7735  C5216,  7735                / CLA MQA MQL ASR +                     
  892             
  893       5220  *5220
  894 05220 1136      TAD   D0136             /                                       @@5220=1136
  895 05221 1236      TAD   C5236             /                                       @@5221=1236
  896 05222 7440      SZA                     /                                       @@5222=7440
  897 05223 7402      HLT                     /                                       @@5223=7402
  898 05224 1136      TAD   D0136             /                                       @@5224=1136
  899 05225 7001      IAC                     /                                       @@5225=7001
  900 05226 3136      DCA   D0136             /                                       @@5226=3136
  901 05227 1234      TAD   C5234             /                                       @@5227=1234
  902 05230 3426      DCA I C0026             /                                       @@5230=3426
  903 05231 1235      TAD   C5235             /                                       @@5231=1235
  904 05232 3451      DCA I C0051             /                                       @@5232=3451
  905 05233 5426      JMP I C0026             / long jump to L0010                    @@5233=5426
  906 05234 5451  C5234,  5451                / JMP I C0051                           
  907 05235 5502  C5235,  5502                / JMP I C0102                           
  908 05236 7734  C5236,  7734                / SPA SZL CLA OSR                       
  909             
  910       5240  *5240
  911 05240 1136      TAD   D0136             /                                       @@5240=1136
  912 05241 1256      TAD   C5256             /                                       @@5241=1256

      AUTOMATIC DISASSEMBLY OF MAINDEC-8E-D0IB-PB.bin BY D8TAPE          Page 17


  913 05242 7440      SZA                     /                                       @@5242=7440
  914 05243 7402      HLT                     /                                       @@5243=7402
  915 05244 1136      TAD   D0136             /                                       @@5244=1136
  916 05245 7001      IAC                     /                                       @@5245=7001
  917 05246 3136      DCA   D0136             /                                       @@5246=3136
  918 05247 1254      TAD   C5254             /                                       @@5247=1254
  919 05250 3427      DCA I C0027             /                                       @@5250=3427
  920 05251 1255      TAD   C5255             /                                       @@5251=1255
  921 05252 3450      DCA I C0050             /                                       @@5252=3450
  922 05253 5427      JMP I C0027             / long jump to L0020                    @@5253=5427
  923 05254 5450  C5254,  5450                / JMP I C0050                           
  924 05255 5503  C5255,  5503                / JMP I C0103                           
  925 05256 7733  C5256,  7733                / CLA MQA MQL SHL +                     
  926             
  927       5260  *5260
  928 05260 1136      TAD   D0136             /                                       @@5260=1136
  929 05261 1276      TAD   C5276             /                                       @@5261=1276
  930 05262 7440      SZA                     /                                       @@5262=7440
  931 05263 7402      HLT                     /                                       @@5263=7402
  932 05264 1136      TAD   D0136             /                                       @@5264=1136
  933 05265 7001      IAC                     /                                       @@5265=7001
  934 05266 3136      DCA   D0136             /                                       @@5266=3136
  935 05267 1274      TAD   C5274             /                                       @@5267=1274
  936 05270 3430      DCA I D0030             /                                       @@5270=3430
  937 05271 1275      TAD   C5275             /                                       @@5271=1275
  938 05272 3447      DCA I C0047             /                                       @@5272=3447
  939 05273 5430      JMP I D0030             / long jump to L0040                    @@5273=5430
  940 05274 5447  C5274,  5447                / JMP I C0047                           
  941 05275 5504  C5275,  5504                / JMP I C0104                           
  942 05276 7732  C5276,  7732                / SPA SZL CLA HLT                       
  943             
  944       5300  *5300
  945 05300 1136      TAD   D0136             /                                       @@5300=1136
  946 05301 1316      TAD   C5316             /                                       @@5301=1316
  947 05302 7440      SZA                     /                                       @@5302=7440
  948 05303 7402      HLT                     /                                       @@5303=7402
  949 05304 1136      TAD   D0136             /                                       @@5304=1136
  950 05305 7001      IAC                     /                                       @@5305=7001
  951 05306 3136      DCA   D0136             /                                       @@5306=3136
  952 05307 1314      TAD   C5314             /                                       @@5307=1314
  953 05310 3431      DCA I C0031             /                                       @@5310=3431
  954 05311 1315      TAD   C5315             /                                       @@5311=1315
  955 05312 3446      DCA I C0046             /                                       @@5312=3446
  956 05313 5431      JMP I C0031             / long jump to L0100                    @@5313=5431
  957 05314 5446  C5314,  5446                / JMP I C0046                           
  958 05315 5505  C5315,  5505                / JMP I C0105                           
  959 05316 7731  C5316,  7731                / CLA MQA MQL NMI                       
  960             
  961       5320  *5320
  962 05320 1136      TAD   D0136             /                                       @@5320=1136
  963 05321 1336      TAD   C5336             /                                       @@5321=1336
  964 05322 7440      SZA                     /                                       @@5322=7440
  965 05323 7402      HLT                     /                                       @@5323=7402
  966 05324 1136      TAD   D0136             /                                       @@5324=1136
  967 05325 7001      IAC                     /                                       @@5325=7001
  968 05326 3136      DCA   D0136             /                                       @@5326=3136
  969 05327 1334      TAD   C5334             /                                       @@5327=1334

      AUTOMATIC DISASSEMBLY OF MAINDEC-8E-D0IB-PB.bin BY D8TAPE          Page 18


  970 05330 3432      DCA I C0032             /                                       @@5330=3432
  971 05331 1335      TAD   C5335             /                                       @@5331=1335
  972 05332 3445      DCA I C0045             /                                       @@5332=3445
  973 05333 5432      JMP I C0032             / long jump to L0200                    @@5333=5432
  974 05334 5445  C5334,  5445                / JMP I C0045                           
  975 05335 5506  C5335,  5506                / JMP I C0106                           
  976 05336 7730  C5336,  7730                / SPA SZL CLA                           
  977             
  978       5340  *5340
  979 05340 1136      TAD   D0136             /                                       @@5340=1136
  980 05341 1356      TAD   C5356             /                                       @@5341=1356
  981 05342 7440      SZA                     /                                       @@5342=7440
  982 05343 7402      HLT                     /                                       @@5343=7402
  983 05344 1136      TAD   D0136             /                                       @@5344=1136
  984 05345 7001      IAC                     /                                       @@5345=7001
  985 05346 3136      DCA   D0136             /                                       @@5346=3136
  986 05347 1354      TAD   C5354             /                                       @@5347=1354
  987 05350 3433      DCA I C0033             /                                       @@5350=3433
  988 05351 1355      TAD   C5355             /                                       @@5351=1355
  989 05352 3444      DCA I C0044             /                                       @@5352=3444
  990 05353 5433      JMP I C0033             / long jump to L0400                    @@5353=5433
  991 05354 5444  C5354,  5444                / JMP I C0044                           
  992 05355 5507  C5355,  5507                / JMP I C0107                           
  993 05356 7727  C5356,  7727                / CLA MQA MQL DVI +                     
  994             
  995       5360  *5360
  996 05360 1136      TAD   D0136             /                                       @@5360=1136
  997 05361 1376      TAD   C5376             /                                       @@5361=1376
  998 05362 7440      SZA                     /                                       @@5362=7440
  999 05363 7402      HLT                     /                                       @@5363=7402
 1000 05364 1136      TAD   D0136             /                                       @@5364=1136
 1001 05365 7001      IAC                     /                                       @@5365=7001
 1002 05366 3136      DCA   D0136             /                                       @@5366=3136
 1003 05367 1374      TAD   C5374             /                                       @@5367=1374
 1004 05370 3434      DCA I C0034             /                                       @@5370=3434
 1005 05371 1375      TAD   C5375             /                                       @@5371=1375
 1006 05372 3443      DCA I C0043             /                                       @@5372=3443
 1007 05373 5434      JMP I C0034             / long jump to L1000                    @@5373=5434
 1008 05374 5443  C5374,  5443                / JMP I C0043                           
 1009 05375 5510  C5375,  5510                / JMP I D0110                           
 1010 05376 7726  C5376,  7726                / SMA SNL CLA OSR HLT                   
 1011             
 1012       5400  *5400
 1013 05400 1136      TAD   D0136             /                                       @@5400=1136
 1014 05401 1216      TAD   C5416             /                                       @@5401=1216
 1015 05402 7440      SZA                     /                                       @@5402=7440
 1016 05403 7402      HLT                     /                                       @@5403=7402
 1017 05404 1136      TAD   D0136             /                                       @@5404=1136
 1018 05405 7001      IAC                     /                                       @@5405=7001
 1019 05406 3136      DCA   D0136             /                                       @@5406=3136
 1020 05407 1214      TAD   C5414             /                                       @@5407=1214
 1021 05410 3435      DCA I C0035             /                                       @@5410=3435
 1022 05411 1215      TAD   C5415             /                                       @@5411=1215
 1023 05412 3442      DCA I C0042             /                                       @@5412=3442
 1024 05413 5435      JMP I C0035             / long jump to L2000                    @@5413=5435
 1025 05414 5442  C5414,  5442                / JMP I C0042                           
 1026 05415 5511  C5415,  5511                / JMP I C0111                           

      AUTOMATIC DISASSEMBLY OF MAINDEC-8E-D0IB-PB.bin BY D8TAPE          Page 19


 1027 05416 7725  C5416,  7725                / CLA MQA MQL MUY +                     
 1028             
 1029       5420  *5420
 1030 05420 1136      TAD   D0136             /                                       @@5420=1136
 1031 05421 1236      TAD   C5436             /                                       @@5421=1236
 1032 05422 7440      SZA                     /                                       @@5422=7440
 1033 05423 7402      HLT                     /                                       @@5423=7402
 1034 05424 1136      TAD   D0136             /                                       @@5424=1136
 1035 05425 7001      IAC                     /                                       @@5425=7001
 1036 05426 3136      DCA   D0136             /                                       @@5426=3136
 1037 05427 1234      TAD   C5434             /                                       @@5427=1234
 1038 05430 3436      DCA I C0036             /                                       @@5430=3436
 1039 05431 1235      TAD   C5435             /                                       @@5431=1235
 1040 05432 3437      DCA I C0037             /                                       @@5432=3437
 1041 05433 5436      JMP I C0036             / long jump to L4000                    @@5433=5436
 1042 05434 5437  C5434,  5437                / JMP I C0037                           
 1043 05435 5512  C5435,  5512                / JMP I C0112                           
 1044 05436 7724  C5436,  7724                / SMA SNL CLA OSR                       
 1045             
 1046       5440  *5440
 1047 05440 1136      TAD   D0136             /                                       @@5440=1136
 1048 05441 1250      TAD   C5450             /                                       @@5441=1250
 1049 05442 7440      SZA                     /                                       @@5442=7440
 1050 05443 7402      HLT                     /                                       @@5443=7402
 1051 05444 1136      TAD   D0136             /                                       @@5444=1136
 1052 05445 7001      IAC                     /                                       @@5445=7001
 1053 05446 3136      DCA   D0136             /                                       @@5446=3136
 1054 05447 5651      JMP I C5451             / long jump to L2002                    @@5447=5651
 1055 05450 7723  C5450,  7723                / CLA MQA MQL SCL +                     
 1056             C5451,
 1057 05451 2002  C5451,  2002                / ISZ   L0002                           
 1058             
 1059       2002  *2002
 1060             L2002,
 1061 02002 4203  C2002,  4203                / JMS   L2003                           
 1062             L2003,
 1063 02003 5203  D2003,  5203                / JMP   L2003                           
 1064 02004 1136      TAD   D0136             /                                       @@2004=1136
 1065 02005 1222      TAD   C2022             /                                       @@2005=1222
 1066 02006 7440      SZA                     /                                       @@2006=7440
 1067 02007 7402      HLT                     /                                       @@2007=7402
 1068 02010 1224      TAD   C2024             /                                       @@2010=1224
 1069 02011 7041      CIA                     /                                       @@2011=7041
 1070 02012 1203      TAD   L2003             /                                       @@2012=1203
 1071 02013 7440      SZA                     /                                       @@2013=7440
 1072 02014 7402      HLT                     /                                       @@2014=7402
 1073 02015 3203      DCA   L2003             /                                       @@2015=3203
 1074 02016 1136      TAD   D0136             /                                       @@2016=1136
 1075 02017 7001      IAC                     /                                       @@2017=7001
 1076 02020 3136      DCA   D0136             /                                       @@2020=3136
 1077 02021 7410      SKP                     /                                       @@2021=7410
 1078 02022 7722  C2022,  7722                / SMA SNL CLA HLT                       
 1079 02023 7410      SKP                     /                                       @@2023=7410
 1080 02024 2003  C2024,  2003                / ISZ   D0003                           
 1081 02025 4227  C2025,  4227                / JMS   L2027                           
 1082 02026 7402      HLT                     /                                       @@2026=7402
 1083             L2027,

      AUTOMATIC DISASSEMBLY OF MAINDEC-8E-D0IB-PB.bin BY D8TAPE          Page 20


 1084 02027 5227  D2027,  5227                / JMP   L2027                           
 1085 02030 1136      TAD   D0136             /                                       @@2030=1136
 1086 02031 1246      TAD   C2046             /                                       @@2031=1246
 1087 02032 7440      SZA                     /                                       @@2032=7440
 1088 02033 7402      HLT                     /                                       @@2033=7402
 1089 02034 1250      TAD   C2050             /                                       @@2034=1250
 1090 02035 7041      CIA                     /                                       @@2035=7041
 1091 02036 1227      TAD   L2027             /                                       @@2036=1227
 1092 02037 7440      SZA                     /                                       @@2037=7440
 1093 02040 7402      HLT                     /                                       @@2040=7402
 1094 02041 3227      DCA   L2027             /                                       @@2041=3227
 1095 02042 1136      TAD   D0136             /                                       @@2042=1136
 1096 02043 7001      IAC                     /                                       @@2043=7001
 1097 02044 3136      DCA   D0136             /                                       @@2044=3136
 1098 02045 7410      SKP                     /                                       @@2045=7410
 1099 02046 7721  C2046,  7721                / CLA MQA MQL                           
 1100 02047 7410      SKP                     /                                       @@2047=7410
 1101 02050 2026  C2050,  2026                / ISZ   C0026                           
 1102 02051 4254  C2051,  4254                / JMS   L2054                           
 1103 02052 7402      HLT                     /                                       @@2052=7402
 1104 02053 7402      HLT                     /                                       @@2053=7402
 1105             L2054,
 1106 02054 5254  D2054,  5254                / JMP   L2054                           
 1107 02055 1136      TAD   D0136             /                                       @@2055=1136
 1108 02056 1275      TAD   C2075             /                                       @@2056=1275
 1109 02057 7440      SZA                     /                                       @@2057=7440
 1110 02060 7402      HLT                     /                                       @@2060=7402
 1111 02061 1273      TAD   C2073             /                                       @@2061=1273
 1112 02062 7041      CIA                     /                                       @@2062=7041
 1113 02063 1254      TAD   L2054             /                                       @@2063=1254
 1114 02064 7440      SZA                     /                                       @@2064=7440
 1115 02065 7402      HLT                     /                                       @@2065=7402
 1116 02066 3254      DCA   L2054             /                                       @@2066=3254
 1117 02067 1136      TAD   D0136             /                                       @@2067=1136
 1118 02070 7001      IAC                     /                                       @@2070=7001
 1119 02071 3136      DCA   D0136             /                                       @@2071=3136
 1120 02072 7410      SKP                     /                                       @@2072=7410
 1121 02073 2052  C2073,  2052                / ISZ   C0052                           
 1122 02074 7410      SKP                     /                                       @@2074=7410
 1123 02075 7720  C2075,  7720                / SMA SNL CLA                           
 1124 02076 4302  C2076,  4302                / JMS   L2102                           
 1125 02077 7402      HLT                     /                                       @@2077=7402
 1126 02100 7402      HLT                     /                                       @@2100=7402
 1127 02101 7402      HLT                     /                                       @@2101=7402
 1128             L2102,
 1129 02102 5302  D2102,  5302                / JMP   L2102                           
 1130 02103 1136      TAD   D0136             /                                       @@2103=1136
 1131 02104 1323      TAD   C2123             /                                       @@2104=1323
 1132 02105 7440      SZA                     /                                       @@2105=7440
 1133 02106 7402      HLT                     /                                       @@2106=7402
 1134 02107 1321      TAD   C2121             /                                       @@2107=1321
 1135 02110 7041      CIA                     /                                       @@2110=7041
 1136 02111 1302      TAD   L2102             /                                       @@2111=1302
 1137 02112 7440      SZA                     /                                       @@2112=7440
 1138 02113 7402      HLT                     /                                       @@2113=7402
 1139 02114 3302      DCA   L2102             /                                       @@2114=3302
 1140 02115 1136      TAD   D0136             /                                       @@2115=1136

      AUTOMATIC DISASSEMBLY OF MAINDEC-8E-D0IB-PB.bin BY D8TAPE          Page 21


 1141 02116 7001      IAC                     /                                       @@2116=7001
 1142 02117 3136      DCA   D0136             /                                       @@2117=3136
 1143 02120 7410      SKP                     /                                       @@2120=7410
 1144 02121 2077  C2121,  2077                / ISZ   C0077                           
 1145 02122 7410      SKP                     /                                       @@2122=7410
 1146 02123 7717  C2123,  7717                / CLA MQA LSR +                         
 1147 02124 4330  C2124,  4330                / JMS   L2130                           
 1148 02125 7402      HLT                     /                                       @@2125=7402
 1149 02126 7402      HLT                     /                                       @@2126=7402
 1150 02127 7402      HLT                     /                                       @@2127=7402
 1151             L2130,
 1152 02130 5330  D2130,  5330                / JMP   L2130                           
 1153 02131 1136      TAD   D0136             /                                       @@2131=1136
 1154 02132 1351      TAD   C2151             /                                       @@2132=1351
 1155 02133 7440      SZA                     /                                       @@2133=7440
 1156 02134 7402      HLT                     /                                       @@2134=7402
 1157 02135 1347      TAD   C2147             /                                       @@2135=1347
 1158 02136 7041      CIA                     /                                       @@2136=7041
 1159 02137 1330      TAD   L2130             /                                       @@2137=1330
 1160 02140 7440      SZA                     /                                       @@2140=7440
 1161 02141 7402      HLT                     /                                       @@2141=7402
 1162 02142 3330      DCA   L2130             /                                       @@2142=3330
 1163 02143 1136      TAD   D0136             /                                       @@2143=1136
 1164 02144 7001      IAC                     /                                       @@2144=7001
 1165 02145 3136      DCA   D0136             /                                       @@2145=3136
 1166 02146 7410      SKP                     /                                       @@2146=7410
 1167 02147 2125  C2147,  2125                / ISZ   C0125                           
 1168 02150 7410      SKP                     /                                       @@2150=7410
 1169 02151 7716  C2151,  7716                / SPA CLA OSR HLT                       
 1170 02152 4356  C2152,  4356                / JMS   L2156                           
 1171 02153 7402      HLT                     /                                       @@2153=7402
 1172 02154 7402      HLT                     /                                       @@2154=7402
 1173 02155 7402      HLT                     /                                       @@2155=7402
 1174             L2156,
 1175 02156 5356  D2156,  5356                / JMP   L2156                           
 1176 02157 1136      TAD   D0136             /                                       @@2157=1136
 1177 02160 1377      TAD   C2177             /                                       @@2160=1377
 1178 02161 7440      SZA                     /                                       @@2161=7440
 1179 02162 7402      HLT                     /                                       @@2162=7402
 1180 02163 1375      TAD   C2175             /                                       @@2163=1375
 1181 02164 7041      CIA                     /                                       @@2164=7041
 1182 02165 1356      TAD   L2156             /                                       @@2165=1356
 1183 02166 7440      SZA                     /                                       @@2166=7440
 1184 02167 7402      HLT                     /                                       @@2167=7402
 1185 02170 3356      DCA   L2156             /                                       @@2170=3356
 1186 02171 1136      TAD   D0136             /                                       @@2171=1136
 1187 02172 7001      IAC                     /                                       @@2172=7001
 1188 02173 3136      DCA   D0136             /                                       @@2173=3136
 1189 02174 7410      SKP                     /                                       @@2174=7410
 1190 02175 2153  C2175,  2153                / ISZ   C0153                           
 1191 02176 7410      SKP                     /                                       @@2176=7410
 1192 02177 7715  C2177,  7715                / CLA MQA ASR +                         
 1193             
 1194       2200  *2200
 1195 02200 7000      NOP                     /                                       @@2200=7000
 1196 02201 4202  C2201,  4202                / JMS   L2202                           
 1197             L2202,

      AUTOMATIC DISASSEMBLY OF MAINDEC-8E-D0IB-PB.bin BY D8TAPE          Page 22


 1198 02202 5202  D2202,  5202                / JMP   L2202                           
 1199 02203 1136      TAD   D0136             /                                       @@2203=1136
 1200 02204 1221      TAD   C2221             /                                       @@2204=1221
 1201 02205 7440      SZA                     /                                       @@2205=7440
 1202 02206 7402      HLT                     /                                       @@2206=7402
 1203 02207 1202      TAD   L2202             /                                       @@2207=1202
 1204 02210 7041      CIA                     /                                       @@2210=7041
 1205 02211 1223      TAD   C2223             /                                       @@2211=1223
 1206 02212 7440      SZA                     /                                       @@2212=7440
 1207 02213 7402      HLT                     /                                       @@2213=7402
 1208 02214 3202      DCA   L2202             /                                       @@2214=3202
 1209 02215 1136      TAD   D0136             /                                       @@2215=1136
 1210 02216 7001      IAC                     /                                       @@2216=7001
 1211 02217 3136      DCA   D0136             /                                       @@2217=3136
 1212 02220 7410      SKP                     /                                       @@2220=7410
 1213 02221 7714  C2221,  7714                / SPA CLA OSR                           
 1214 02222 7410      SKP                     /                                       @@2222=7410
 1215 02223 2202  C2223,  2202                / ISZ   L2202                           
 1216 02224 4226  C2224,  4226                / JMS   L2226                           
 1217 02225 7402      HLT                     /                                       @@2225=7402
 1218             L2226,
 1219 02226 5226  D2226,  5226                / JMP   L2226                           
 1220 02227 1136      TAD   D0136             /                                       @@2227=1136
 1221 02230 1245      TAD   C2245             /                                       @@2230=1245
 1222 02231 7440      SZA                     /                                       @@2231=7440
 1223 02232 7402      HLT                     /                                       @@2232=7402
 1224 02233 1247      TAD   C2247             /                                       @@2233=1247
 1225 02234 7041      CIA                     /                                       @@2234=7041
 1226 02235 1226      TAD   L2226             /                                       @@2235=1226
 1227 02236 7440      SZA                     /                                       @@2236=7440
 1228 02237 7402      HLT                     /                                       @@2237=7402
 1229 02240 3226      DCA   L2226             /                                       @@2240=3226
 1230 02241 1136      TAD   D0136             /                                       @@2241=1136
 1231 02242 7001      IAC                     /                                       @@2242=7001
 1232 02243 3136      DCA   D0136             /                                       @@2243=3136
 1233 02244 7410      SKP                     /                                       @@2244=7410
 1234 02245 7713  C2245,  7713                / CLA MQA SHL +                         
 1235 02246 7410      SKP                     /                                       @@2246=7410
 1236 02247 2225  C2247,  2225                / ISZ   C2225                           
 1237 02250 4253  C2250,  4253                / JMS   L2253                           
 1238 02251 7402      HLT                     /                                       @@2251=7402
 1239 02252 7402      HLT                     /                                       @@2252=7402
 1240             L2253,
 1241 02253 5253  D2253,  5253                / JMP   L2253                           
 1242 02254 1136      TAD   D0136             /                                       @@2254=1136
 1243 02255 1274      TAD   C2274             /                                       @@2255=1274
 1244 02256 7440      SZA                     /                                       @@2256=7440
 1245 02257 7402      HLT                     /                                       @@2257=7402
 1246 02260 1253      TAD   L2253             /                                       @@2260=1253
 1247 02261 7041      CIA                     /                                       @@2261=7041
 1248 02262 1272      TAD   C2272             /                                       @@2262=1272
 1249 02263 7440      SZA                     /                                       @@2263=7440
 1250 02264 7402      HLT                     /                                       @@2264=7402
 1251 02265 3253      DCA   L2253             /                                       @@2265=3253
 1252 02266 1136      TAD   D0136             /                                       @@2266=1136
 1253 02267 7001      IAC                     /                                       @@2267=7001
 1254 02270 3136      DCA   D0136             /                                       @@2270=3136

      AUTOMATIC DISASSEMBLY OF MAINDEC-8E-D0IB-PB.bin BY D8TAPE          Page 23


 1255 02271 7410      SKP                     /                                       @@2271=7410
 1256 02272 2251  C2272,  2251                / ISZ   C2251                           
 1257 02273 7410      SKP                     /                                       @@2273=7410
 1258 02274 7712  C2274,  7712                / SPA CLA HLT                           
 1259 02275 4301  C2275,  4301                / JMS   L2301                           
 1260 02276 7402      HLT                     /                                       @@2276=7402
 1261 02277 7402      HLT                     /                                       @@2277=7402
 1262 02300 7402      HLT                     /                                       @@2300=7402
 1263             L2301,
 1264 02301 5301  D2301,  5301                / JMP   L2301                           
 1265 02302 1136      TAD   D0136             /                                       @@2302=1136
 1266 02303 1322      TAD   C2322             /                                       @@2303=1322
 1267 02304 7440      SZA                     /                                       @@2304=7440
 1268 02305 7402      HLT                     /                                       @@2305=7402
 1269 02306 1301      TAD   L2301             /                                       @@2306=1301
 1270 02307 7041      CIA                     /                                       @@2307=7041
 1271 02310 1320      TAD   C2320             /                                       @@2310=1320
 1272 02311 7440      SZA                     /                                       @@2311=7440
 1273 02312 7402      HLT                     /                                       @@2312=7402
 1274 02313 3301      DCA   L2301             /                                       @@2313=3301
 1275 02314 1136      TAD   D0136             /                                       @@2314=1136
 1276 02315 7001      IAC                     /                                       @@2315=7001
 1277 02316 3136      DCA   D0136             /                                       @@2316=3136
 1278 02317 7410      SKP                     /                                       @@2317=7410
 1279 02320 2276  C2320,  2276                / ISZ   C2276                           
 1280 02321 7410      SKP                     /                                       @@2321=7410
 1281 02322 7711  C2322,  7711                / CLA MQA NMI                           
 1282 02323 4330  C2323,  4330                / JMS   L2330                           
 1283 02324 7402      HLT                     /                                       @@2324=7402
 1284 02325 7402      HLT                     /                                       @@2325=7402
 1285 02326 7402      HLT                     /                                       @@2326=7402
 1286 02327 7402      HLT                     /                                       @@2327=7402
 1287             L2330,
 1288 02330 5330  D2330,  5330                / JMP   L2330                           
 1289 02331 1136      TAD   D0136             /                                       @@2331=1136
 1290 02332 1351      TAD   C2351             /                                       @@2332=1351
 1291 02333 7440      SZA                     /                                       @@2333=7440
 1292 02334 7402      HLT                     /                                       @@2334=7402
 1293 02335 1330      TAD   L2330             /                                       @@2335=1330
 1294 02336 7041      CIA                     /                                       @@2336=7041
 1295 02337 1347      TAD   C2347             /                                       @@2337=1347
 1296 02340 7440      SZA                     /                                       @@2340=7440
 1297 02341 7402      HLT                     /                                       @@2341=7402
 1298 02342 3330      DCA   L2330             /                                       @@2342=3330
 1299 02343 1136      TAD   D0136             /                                       @@2343=1136
 1300 02344 7001      IAC                     /                                       @@2344=7001
 1301 02345 3136      DCA   D0136             /                                       @@2345=3136
 1302 02346 7410      SKP                     /                                       @@2346=7410
 1303 02347 2324  C2347,  2324                / ISZ   C2324                           
 1304 02350 7410      SKP                     /                                       @@2350=7410
 1305 02351 7710  C2351,  7710                / SPA CLA                               
 1306 02352 4356  C2352,  4356                / JMS   L2356                           
 1307 02353 7402      HLT                     /                                       @@2353=7402
 1308 02354 7402      HLT                     /                                       @@2354=7402
 1309 02355 7402      HLT                     /                                       @@2355=7402
 1310             L2356,
 1311 02356 5356  D2356,  5356                / JMP   L2356                           

      AUTOMATIC DISASSEMBLY OF MAINDEC-8E-D0IB-PB.bin BY D8TAPE          Page 24


 1312 02357 1136      TAD   D0136             /                                       @@2357=1136
 1313 02360 1377      TAD   C2377             /                                       @@2360=1377
 1314 02361 7440      SZA                     /                                       @@2361=7440
 1315 02362 7402      HLT                     /                                       @@2362=7402
 1316 02363 1356      TAD   L2356             /                                       @@2363=1356
 1317 02364 7041      CIA                     /                                       @@2364=7041
 1318 02365 1375      TAD   C2375             /                                       @@2365=1375
 1319 02366 7440      SZA                     /                                       @@2366=7440
 1320 02367 7402      HLT                     /                                       @@2367=7402
 1321 02370 3356      DCA   L2356             /                                       @@2370=3356
 1322 02371 1136      TAD   D0136             /                                       @@2371=1136
 1323 02372 7001      IAC                     /                                       @@2372=7001
 1324 02373 3136      DCA   D0136             /                                       @@2373=3136
 1325 02374 7410      SKP                     /                                       @@2374=7410
 1326 02375 2353  C2375,  2353                / ISZ   C2353                           
 1327 02376 7410      SKP                     /                                       @@2376=7410
 1328 02377 7707  C2377,  7707                / CLA MQA DVI +                         
 1329             
 1330       2400  *2400
 1331 02400 1205      TAD   C2405             /                                       @@2400=1205
 1332 02401 3455      DCA I C0055             /                                       @@2401=3455
 1333 02402 1206      TAD   C2406             /                                       @@2402=1206
 1334 02403 3423      DCA I C0023             /                                       @@2403=3423
 1335 02404 5423      JMP I C0023             / long jump to L0001                    @@2404=5423
 1336 02405 5537  C2405,  5537                / JMP I C0137                           
 1337 02406 4454  C2406,  4454                / JMS I C0054                           
 1338             
 1339       2410  *2410
 1340 02410 1136      TAD   D0136             /                                       @@2410=1136
 1341 02411 1233      TAD   C2433             /                                       @@2411=1233
 1342 02412 7440      SZA                     /                                       @@2412=7440
 1343 02413 7402      HLT                     /                                       @@2413=7402
 1344 02414 1454      TAD I C0054             /                                       @@2414=1454
 1345 02415 1054      TAD   C0054             /                                       @@2415=1054
 1346 02416 7440      SZA                     /                                       @@2416=7440
 1347 02417 7402      HLT                     /                                       @@2417=7402
 1348 02420 3454      DCA I C0054             /                                       @@2420=3454
 1349 02421 1136      TAD   D0136             /                                       @@2421=1136
 1350 02422 7001      IAC                     /                                       @@2422=7001
 1351 02423 3136      DCA   D0136             /                                       @@2423=3136
 1352 02424 1231      TAD   C2431             /                                       @@2424=1231
 1353 02425 3454      DCA I C0054             /                                       @@2425=3454
 1354 02426 1232      TAD   C2432             /                                       @@2426=1232
 1355 02427 3424      DCA I C0024             /                                       @@2427=3424
 1356 02430 5424      JMP I C0024             / long jump to L0002                    @@2430=5424
 1357 02431 5540  C2431,  5540                / JMP I L0140                           
 1358 02432 4453  C2432,  4453                / JMS I C0053                           
 1359 02433 7706  C2433,  7706                / SMA CLA OSR HLT                       
 1360             
 1361       2440  *2440
 1362 02440 1136      TAD   D0136             /                                       @@2440=1136
 1363 02441 1263      TAD   C2463             /                                       @@2441=1263
 1364 02442 7440      SZA                     /                                       @@2442=7440
 1365 02443 7402      HLT                     /                                       @@2443=7402
 1366 02444 1453      TAD I C0053             /                                       @@2444=1453
 1367 02445 1053      TAD   C0053             /                                       @@2445=1053
 1368 02446 7440      SZA                     /                                       @@2446=7440

      AUTOMATIC DISASSEMBLY OF MAINDEC-8E-D0IB-PB.bin BY D8TAPE          Page 25


 1369 02447 7402      HLT                     /                                       @@2447=7402
 1370 02450 3453      DCA I C0053             /                                       @@2450=3453
 1371 02451 1136      TAD   D0136             /                                       @@2451=1136
 1372 02452 7001      IAC                     /                                       @@2452=7001
 1373 02453 3136      DCA   D0136             /                                       @@2453=3136
 1374 02454 1261      TAD   C2461             /                                       @@2454=1261
 1375 02455 3664      DCA I C2464             /                                       @@2455=3664
 1376 02456 1262      TAD   C2462             /                                       @@2456=1262
 1377 02457 3425      DCA I C0025             /                                       @@2457=3425
 1378 02460 5425      JMP I C0025             / long jump to L0004                    @@2460=5425
 1379 02461 5541  C2461,  5541                / JMP I C0141                           
 1380 02462 4452  C2462,  4452                / JMS I C0052                           
 1381 02463 7705  C2463,  7705                / CLA MQA MUY +                         
 1382 02464 7774  C2464,  7774                / SPA SNA SZL CLA OSR                   
 1383             
 1384       2470  *2470
 1385 02470 1136      TAD   D0136             /                                       @@2470=1136
 1386 02471 1313      TAD   C2513             /                                       @@2471=1313
 1387 02472 7440      SZA                     /                                       @@2472=7440
 1388 02473 7402      HLT                     /                                       @@2473=7402
 1389 02474 1452      TAD I C0052             /                                       @@2474=1452
 1390 02475 1052      TAD   C0052             /                                       @@2475=1052
 1391 02476 7440      SZA                     /                                       @@2476=7440
 1392 02477 7402      HLT                     /                                       @@2477=7402
 1393 02500 3452      DCA I C0052             /                                       @@2500=3452
 1394 02501 1136      TAD   D0136             /                                       @@2501=1136
 1395 02502 7001      IAC                     /                                       @@2502=7001
 1396 02503 3136      DCA   D0136             /                                       @@2503=3136
 1397 02504 1311      TAD   C2511             /                                       @@2504=1311
 1398 02505 3714      DCA I C2514             /                                       @@2505=3714
 1399 02506 1312      TAD   C2512             /                                       @@2506=1312
 1400 02507 3426      DCA I C0026             /                                       @@2507=3426
 1401 02510 5426      JMP I C0026             / long jump to L0010                    @@2510=5426
 1402 02511 5542  C2511,  5542                / JMP I C0142                           
 1403 02512 4451  C2512,  4451                / JMS I C0051                           
 1404 02513 7704  C2513,  7704                / SMA CLA OSR                           
 1405 02514 7770  C2514,  7770                / SPA SNA SZL CLA                       
 1406             
 1407       2520  *2520
 1408 02520 1136      TAD   D0136             /                                       @@2520=1136
 1409 02521 1343      TAD   C2543             /                                       @@2521=1343
 1410 02522 7440      SZA                     /                                       @@2522=7440
 1411 02523 7402      HLT                     /                                       @@2523=7402
 1412 02524 1451      TAD I C0051             /                                       @@2524=1451
 1413 02525 1051      TAD   C0051             /                                       @@2525=1051
 1414 02526 7440      SZA                     /                                       @@2526=7440
 1415 02527 7402      HLT                     /                                       @@2527=7402
 1416 02530 3451      DCA I C0051             /                                       @@2530=3451
 1417 02531 1136      TAD   D0136             /                                       @@2531=1136
 1418 02532 7001      IAC                     /                                       @@2532=7001
 1419 02533 3136      DCA   D0136             /                                       @@2533=3136
 1420 02534 1341      TAD   C2541             /                                       @@2534=1341
 1421 02535 3744      DCA I C2544             /                                       @@2535=3744
 1422 02536 1342      TAD   C2542             /                                       @@2536=1342
 1423 02537 3427      DCA I C0027             /                                       @@2537=3427
 1424 02540 5427      JMP I C0027             / long jump to L0020                    @@2540=5427
 1425 02541 5543  C2541,  5543                / JMP I C0143                           

      AUTOMATIC DISASSEMBLY OF MAINDEC-8E-D0IB-PB.bin BY D8TAPE          Page 26


 1426 02542 4450  C2542,  4450                / JMS I C0050                           
 1427 02543 7703  C2543,  7703                / CLA MQA SCL +                         
 1428 02544 7760  C2544,  7760                / SMA SZA SNL CLA                       
 1429             
 1430       2600  *2600
 1431 02600 1136      TAD   D0136             /                                       @@2600=1136
 1432 02601 1223      TAD   C2623             /                                       @@2601=1223
 1433 02602 7440      SZA                     /                                       @@2602=7440
 1434 02603 7402      HLT                     /                                       @@2603=7402
 1435 02604 1450      TAD I C0050             /                                       @@2604=1450
 1436 02605 1050      TAD   C0050             /                                       @@2605=1050
 1437 02606 7440      SZA                     /                                       @@2606=7440
 1438 02607 7402      HLT                     /                                       @@2607=7402
 1439 02610 3450      DCA I C0050             /                                       @@2610=3450
 1440 02611 1136      TAD   D0136             /                                       @@2611=1136
 1441 02612 7001      IAC                     /                                       @@2612=7001
 1442 02613 3136      DCA   D0136             /                                       @@2613=3136
 1443 02614 1221      TAD   C2621             /                                       @@2614=1221
 1444 02615 3624      DCA I C2624             /                                       @@2615=3624
 1445 02616 1222      TAD   C2622             /                                       @@2616=1222
 1446 02617 3430      DCA I D0030             /                                       @@2617=3430
 1447 02620 5430      JMP I D0030             / long jump to L0040                    @@2620=5430
 1448 02621 5544  C2621,  5544                / JMP I C0144                           
 1449 02622 4447  C2622,  4447                / JMS I C0047                           
 1450 02623 7702  C2623,  7702                / SMA CLA HLT                           
 1451 02624 7740  C2624,  7740                / SMA SZA CLA                           
 1452             
 1453       2630  *2630
 1454 02630 1136      TAD   D0136             /                                       @@2630=1136
 1455 02631 1253      TAD   C2653             /                                       @@2631=1253
 1456 02632 7440      SZA                     /                                       @@2632=7440
 1457 02633 7402      HLT                     /                                       @@2633=7402
 1458 02634 1447      TAD I C0047             /                                       @@2634=1447
 1459 02635 1047      TAD   C0047             /                                       @@2635=1047
 1460 02636 7440      SZA                     /                                       @@2636=7440
 1461 02637 7402      HLT                     /                                       @@2637=7402
 1462 02640 3447      DCA I C0047             /                                       @@2640=3447
 1463 02641 1136      TAD   D0136             /                                       @@2641=1136
 1464 02642 7001      IAC                     /                                       @@2642=7001
 1465 02643 3136      DCA   D0136             /                                       @@2643=3136
 1466 02644 1251      TAD   C2651             /                                       @@2644=1251
 1467 02645 3654      DCA I C2654             /                                       @@2645=3654
 1468 02646 1252      TAD   C2652             /                                       @@2646=1252
 1469 02647 3431      DCA I C0031             /                                       @@2647=3431
 1470 02650 5431      JMP I C0031             / long jump to L0100                    @@2650=5431
 1471 02651 5545  C2651,  5545                / JMP I C0145                           
 1472 02652 4446  C2652,  4446                / JMS I C0046                           
 1473 02653 7701  C2653,  7701                / CLA MQA                               
 1474 02654 7700  C2654,  7700                / SMA CLA                               
 1475             
 1476       2660  *2660
 1477 02660 1136      TAD   D0136             /                                       @@2660=1136
 1478 02661 1303      TAD   C2703             /                                       @@2661=1303
 1479 02662 7440      SZA                     /                                       @@2662=7440
 1480 02663 7402      HLT                     /                                       @@2663=7402
 1481 02664 1446      TAD I C0046             /                                       @@2664=1446
 1482 02665 1046      TAD   C0046             /                                       @@2665=1046

      AUTOMATIC DISASSEMBLY OF MAINDEC-8E-D0IB-PB.bin BY D8TAPE          Page 27


 1483 02666 7440      SZA                     /                                       @@2666=7440
 1484 02667 7402      HLT                     /                                       @@2667=7402
 1485 02670 3446      DCA I C0046             /                                       @@2670=3446
 1486 02671 1136      TAD   D0136             /                                       @@2671=1136
 1487 02672 7001      IAC                     /                                       @@2672=7001
 1488 02673 3136      DCA   D0136             /                                       @@2673=3136
 1489 02674 1301      TAD   C2701             /                                       @@2674=1301
 1490 02675 3704      DCA I C2704             /                                       @@2675=3704
 1491 02676 1302      TAD   C2702             /                                       @@2676=1302
 1492 02677 3432      DCA I C0032             /                                       @@2677=3432
 1493 02700 5432      JMP I C0032             / long jump to L0200                    @@2700=5432
 1494 02701 5546  C2701,  5546                / JMP I C0146                           
 1495 02702 4445  C2702,  4445                / JMS I C0045                           
 1496 02703 7700  C2703,  7700                / SMA CLA                               
 1497 02704 7600  C2704,  7600                / 7600                                  
 1498             
 1499       2710  *2710
 1500 02710 1136      TAD   D0136             /                                       @@2710=1136
 1501 02711 1333      TAD   C2733             /                                       @@2711=1333
 1502 02712 7440      SZA                     /                                       @@2712=7440
 1503 02713 7402      HLT                     /                                       @@2713=7402
 1504 02714 1445      TAD I C0045             /                                       @@2714=1445
 1505 02715 1045      TAD   C0045             /                                       @@2715=1045
 1506 02716 7440      SZA                     /                                       @@2716=7440
 1507 02717 7402      HLT                     /                                       @@2717=7402
 1508 02720 3445      DCA I C0045             /                                       @@2720=3445
 1509 02721 1136      TAD   D0136             /                                       @@2721=1136
 1510 02722 7001      IAC                     /                                       @@2722=7001
 1511 02723 3136      DCA   D0136             /                                       @@2723=3136
 1512 02724 1331      TAD   C2731             /                                       @@2724=1331
 1513 02725 3734      DCA I C2734             /                                       @@2725=3734
 1514 02726 1332      TAD   C2732             /                                       @@2726=1332
 1515 02727 3433      DCA I C0033             /                                       @@2727=3433
 1516 02730 5433      JMP I C0033             / long jump to L0400                    @@2730=5433
 1517 02731 5547  C2731,  5547                / JMP I C0147                           
 1518 02732 4444  C2732,  4444                / JMS I C0044                           
 1519 02733 7677  C2733,  7677                / CLA SCA MQL LSR +                     
 1520 02734 7400  C2734,  7400                / 7400                                  
 1521             
 1522       2740  *2740
 1523 02740 1136      TAD   D0136             /                                       @@2740=1136
 1524 02741 1363      TAD   C2763             /                                       @@2741=1363
 1525 02742 7440      SZA                     /                                       @@2742=7440
 1526 02743 7402      HLT                     /                                       @@2743=7402
 1527 02744 1444      TAD I C0044             /                                       @@2744=1444
 1528 02745 1044      TAD   C0044             /                                       @@2745=1044
 1529 02746 7440      SZA                     /                                       @@2746=7440
 1530 02747 7402      HLT                     /                                       @@2747=7402
 1531 02750 3444      DCA I C0044             /                                       @@2750=3444
 1532 02751 1136      TAD   D0136             /                                       @@2751=1136
 1533 02752 7001      IAC                     /                                       @@2752=7001
 1534 02753 3136      DCA   D0136             /                                       @@2753=3136
 1535 02754 1361      TAD   C2761             /                                       @@2754=1361
 1536 02755 3764      DCA I C2764             /                                       @@2755=3764
 1537 02756 1362      TAD   C2762             /                                       @@2756=1362
 1538 02757 3434      DCA I C0034             /                                       @@2757=3434
 1539 02760 5434      JMP I C0034             / long jump to L1000                    @@2760=5434

      AUTOMATIC DISASSEMBLY OF MAINDEC-8E-D0IB-PB.bin BY D8TAPE          Page 28


 1540 02761 5550  C2761,  5550                / JMP I C0150                           
 1541 02762 4443  C2762,  4443                / JMS I C0043                           
 1542 02763 7676  C2763,  7676                / SNA SZL CLA OSR HLT                   
 1543 02764 7000  C2764,  7000                / NOP                                   
 1544             
 1545       3000  *3000
 1546 03000 1136      TAD   D0136             /                                       @@3000=1136
 1547 03001 1223      TAD   C3023             /                                       @@3001=1223
 1548 03002 7440      SZA                     /                                       @@3002=7440
 1549 03003 7402      HLT                     /                                       @@3003=7402
 1550 03004 1443      TAD I C0043             /                                       @@3004=1443
 1551 03005 1043      TAD   C0043             /                                       @@3005=1043
 1552 03006 7440      SZA                     /                                       @@3006=7440
 1553 03007 7402      HLT                     /                                       @@3007=7402
 1554 03010 3443      DCA I C0043             /                                       @@3010=3443
 1555 03011 1136      TAD   D0136             /                                       @@3011=1136
 1556 03012 7001      IAC                     /                                       @@3012=7001
 1557 03013 3136      DCA   D0136             /                                       @@3013=3136
 1558 03014 1221      TAD   C3021             /                                       @@3014=1221
 1559 03015 3624      DCA I C3024             /                                       @@3015=3624
 1560 03016 1222      TAD   C3022             /                                       @@3016=1222
 1561 03017 3435      DCA I C0035             /                                       @@3017=3435
 1562 03020 5435      JMP I C0035             / long jump to L2000                    @@3020=5435
 1563 03021 5551  C3021,  5551                / JMP I C0151                           
 1564 03022 4442  C3022,  4442                / JMS I C0042                           
 1565 03023 7675  C3023,  7675                / CLA SCA MQL ASR +                     
 1566 03024 6000  C3024,  6000                / 6000                                  
 1567             
 1568       3030  *3030
 1569 03030 1136      TAD   D0136             /                                       @@3030=1136
 1570 03031 1253      TAD   C3053             /                                       @@3031=1253
 1571 03032 7440      SZA                     /                                       @@3032=7440
 1572 03033 7402      HLT                     /                                       @@3033=7402
 1573 03034 1442      TAD I C0042             /                                       @@3034=1442
 1574 03035 1042      TAD   C0042             /                                       @@3035=1042
 1575 03036 7440      SZA                     /                                       @@3036=7440
 1576 03037 7402      HLT                     /                                       @@3037=7402
 1577 03040 3442      DCA I C0042             /                                       @@3040=3442
 1578 03041 1136      TAD   D0136             /                                       @@3041=1136
 1579 03042 7001      IAC                     /                                       @@3042=7001
 1580 03043 3136      DCA   D0136             /                                       @@3043=3136
 1581 03044 1251      TAD   C3051             /                                       @@3044=1251
 1582 03045 3654      DCA I C3054             /                                       @@3045=3654
 1583 03046 1252      TAD   C3052             /                                       @@3046=1252
 1584 03047 3437      DCA I C0037             /                                       @@3047=3437
 1585 03050 5437      JMP I C0037             / long jump to L3777                    @@3050=5437
 1586 03051 5552  C3051,  5552                / JMP I C0152                           
 1587 03052 4436  C3052,  4436                / JMS I C0036                           
 1588 03053 7674  C3053,  7674                / SNA SZL CLA OSR                       
 1589 03054 4001  C3054,  4001                / JMS   L0001                           
 1590             
 1591       3060  *3060
 1592 03060 1136      TAD   D0136             /                                       @@3060=1136
 1593 03061 1303      TAD   C3103             /                                       @@3061=1303
 1594 03062 7440      SZA                     /                                       @@3062=7440
 1595 03063 7402      HLT                     /                                       @@3063=7402
 1596 03064 1436      TAD I C0036             /                                       @@3064=1436

      AUTOMATIC DISASSEMBLY OF MAINDEC-8E-D0IB-PB.bin BY D8TAPE          Page 29


 1597 03065 1036      TAD   C0036             /                                       @@3065=1036
 1598 03066 7440      SZA                     /                                       @@3066=7440
 1599 03067 7402      HLT                     /                                       @@3067=7402
 1600 03070 3436      DCA I C0036             /                                       @@3070=3436
 1601 03071 1136      TAD   D0136             /                                       @@3071=1136
 1602 03072 7001      IAC                     /                                       @@3072=7001
 1603 03073 3136      DCA   D0136             /                                       @@3073=3136
 1604 03074 1301      TAD   C3101             /                                       @@3074=1301
 1605 03075 3704      DCA I C3104             /                                       @@3075=3704
 1606 03076 1302      TAD   C3102             /                                       @@3076=1302
 1607 03077 3442      DCA I C0042             /                                       @@3077=3442
 1608 03100 5442      JMP I C0042             / long jump to L5777                    @@3100=5442
 1609 03101 5553  C3101,  5553                / JMP I C0153                           
 1610 03102 4435  C3102,  4435                / JMS I C0035                           
 1611 03103 7673  C3103,  7673                / CLA SCA MQL SHL +                     
 1612 03104 2001  C3104,  2001                / ISZ   L0001                           
 1613             
 1614       3110  *3110
 1615 03110 1136      TAD   D0136             /                                       @@3110=1136
 1616 03111 1333      TAD   C3133             /                                       @@3111=1333
 1617 03112 7440      SZA                     /                                       @@3112=7440
 1618 03113 7402      HLT                     /                                       @@3113=7402
 1619 03114 1435      TAD I C0035             /                                       @@3114=1435
 1620 03115 1035      TAD   C0035             /                                       @@3115=1035
 1621 03116 7440      SZA                     /                                       @@3116=7440
 1622 03117 7402      HLT                     /                                       @@3117=7402
 1623 03120 3435      DCA I C0035             /                                       @@3120=3435
 1624 03121 1136      TAD   D0136             /                                       @@3121=1136
 1625 03122 7001      IAC                     /                                       @@3122=7001
 1626 03123 3136      DCA   D0136             /                                       @@3123=3136
 1627 03124 1331      TAD   C3131             /                                       @@3124=1331
 1628 03125 3734      DCA I C3134             /                                       @@3125=3734
 1629 03126 1332      TAD   C3132             /                                       @@3126=1332
 1630 03127 3443      DCA I C0043             /                                       @@3127=3443
 1631 03130 5443      JMP I C0043             / long jump to L6777                    @@3130=5443
 1632 03131 5554  C3131,  5554                / JMP I C0154                           
 1633 03132 4434  C3132,  4434                / JMS I C0034                           
 1634 03133 7672  C3133,  7672                / SNA SZL CLA HLT                       
 1635 03134 1001  C3134,  1001                / TAD   L0001                           
 1636             
 1637       3140  *3140
 1638 03140 1136      TAD   D0136             /                                       @@3140=1136
 1639 03141 1363      TAD   C3163             /                                       @@3141=1363
 1640 03142 7440      SZA                     /                                       @@3142=7440
 1641 03143 7402      HLT                     /                                       @@3143=7402
 1642 03144 1434      TAD I C0034             /                                       @@3144=1434
 1643 03145 1034      TAD   C0034             /                                       @@3145=1034
 1644 03146 7440      SZA                     /                                       @@3146=7440
 1645 03147 7402      HLT                     /                                       @@3147=7402
 1646 03150 3434      DCA I C0034             /                                       @@3150=3434
 1647 03151 1136      TAD   D0136             /                                       @@3151=1136
 1648 03152 7001      IAC                     /                                       @@3152=7001
 1649 03153 3136      DCA   D0136             /                                       @@3153=3136
 1650 03154 1361      TAD   C3161             /                                       @@3154=1361
 1651 03155 3764      DCA I C3164             /                                       @@3155=3764
 1652 03156 1362      TAD   C3162             /                                       @@3156=1362
 1653 03157 3444      DCA I C0044             /                                       @@3157=3444

      AUTOMATIC DISASSEMBLY OF MAINDEC-8E-D0IB-PB.bin BY D8TAPE          Page 30


 1654 03160 5444      JMP I C0044             / long jump to L7377                    @@3160=5444
 1655 03161 5555  C3161,  5555                / JMP I C0155                           
 1656 03162 4433  C3162,  4433                / JMS I C0033                           
 1657 03163 7671  C3163,  7671                / CLA SCA MQL NMI                       
 1658 03164 0401  C3164,  0401                / AND I L0001                           
 1659             
 1660       3200  *3200
 1661 03200 1136      TAD   D0136             /                                       @@3200=1136
 1662 03201 1223      TAD   C3223             /                                       @@3201=1223
 1663 03202 7440      SZA                     /                                       @@3202=7440
 1664 03203 7402      HLT                     /                                       @@3203=7402
 1665 03204 1433      TAD I C0033             /                                       @@3204=1433
 1666 03205 1033      TAD   C0033             /                                       @@3205=1033
 1667 03206 7440      SZA                     /                                       @@3206=7440
 1668 03207 7402      HLT                     /                                       @@3207=7402
 1669 03210 3433      DCA I C0033             /                                       @@3210=3433
 1670 03211 1136      TAD   D0136             /                                       @@3211=1136
 1671 03212 7001      IAC                     /                                       @@3212=7001
 1672 03213 3136      DCA   D0136             /                                       @@3213=3136
 1673 03214 1221      TAD   C3221             /                                       @@3214=1221
 1674 03215 3624      DCA I C3224             /                                       @@3215=3624
 1675 03216 1222      TAD   C3222             /                                       @@3216=1222
 1676 03217 3445      DCA I C0045             /                                       @@3217=3445
 1677 03220 5445      JMP I C0045             / long jump to L7577                    @@3220=5445
 1678 03221 5556  C3221,  5556                / JMP I C0156                           
 1679 03222 4432  C3222,  4432                / JMS I C0032                           
 1680 03223 7670  C3223,  7670                / SNA SZL CLA                           
 1681 03224 0201  C3224,  0201                / AND   C3201                           
 1682             
 1683       3230  *3230
 1684 03230 1136      TAD   D0136             /                                       @@3230=1136
 1685 03231 1253      TAD   C3253             /                                       @@3231=1253
 1686 03232 7440      SZA                     /                                       @@3232=7440
 1687 03233 7402      HLT                     /                                       @@3233=7402
 1688 03234 1432      TAD I C0032             /                                       @@3234=1432
 1689 03235 1032      TAD   C0032             /                                       @@3235=1032
 1690 03236 7440      SZA                     /                                       @@3236=7440
 1691 03237 7402      HLT                     /                                       @@3237=7402
 1692 03240 3432      DCA I C0032             /                                       @@3240=3432
 1693 03241 1136      TAD   D0136             /                                       @@3241=1136
 1694 03242 7001      IAC                     /                                       @@3242=7001
 1695 03243 3136      DCA   D0136             /                                       @@3243=3136
 1696 03244 1251      TAD   C3251             /                                       @@3244=1251
 1697 03245 3654      DCA I C3254             /                                       @@3245=3654
 1698 03246 1252      TAD   C3252             /                                       @@3246=1252
 1699 03247 3446      DCA I C0046             /                                       @@3247=3446
 1700 03250 5446      JMP I C0046             / long jump to L7677                    @@3250=5446
 1701 03251 5557  C3251,  5557                / JMP I C0157                           
 1702 03252 4431  C3252,  4431                / JMS I C0031                           
 1703 03253 7667  C3253,  7667                / CLA SCA MQL DVI +                     
 1704 03254 0101  C3254,  0101                / AND   D0101                           
 1705             
 1706       3260  *3260
 1707 03260 1136      TAD   D0136             /                                       @@3260=1136
 1708 03261 1303      TAD   C3303             /                                       @@3261=1303
 1709 03262 7440      SZA                     /                                       @@3262=7440
 1710 03263 7402      HLT                     /                                       @@3263=7402

      AUTOMATIC DISASSEMBLY OF MAINDEC-8E-D0IB-PB.bin BY D8TAPE          Page 31


 1711 03264 1431      TAD I C0031             /                                       @@3264=1431
 1712 03265 1031      TAD   C0031             /                                       @@3265=1031
 1713 03266 7440      SZA                     /                                       @@3266=7440
 1714 03267 7402      HLT                     /                                       @@3267=7402
 1715 03270 3431      DCA I C0031             /                                       @@3270=3431
 1716 03271 1136      TAD   D0136             /                                       @@3271=1136
 1717 03272 7001      IAC                     /                                       @@3272=7001
 1718 03273 3136      DCA   D0136             /                                       @@3273=3136
 1719 03274 1301      TAD   C3301             /                                       @@3274=1301
 1720 03275 3704      DCA I C3304             /                                       @@3275=3704
 1721 03276 1302      TAD   C3302             /                                       @@3276=1302
 1722 03277 3447      DCA I C0047             /                                       @@3277=3447
 1723 03300 5447      JMP I C0047             / long jump to L7737                    @@3300=5447
 1724 03301 5560  C3301,  5560                / JMP I L0160                           
 1725 03302 4430  C3302,  4430                / JMS I D0030                           
 1726 03303 7666  C3303,  7666                / SZA SNL CLA OSR HLT                   
 1727 03304 0041  C3304,  0041                / AND   D0041                           
 1728             
 1729       3310  *3310
 1730 03310 1136      TAD   D0136             /                                       @@3310=1136
 1731 03311 1333      TAD   C3333             /                                       @@3311=1333
 1732 03312 7440      SZA                     /                                       @@3312=7440
 1733 03313 7402      HLT                     /                                       @@3313=7402
 1734 03314 1430      TAD I D0030             /                                       @@3314=1430
 1735 03315 1030      TAD   D0030             /                                       @@3315=1030
 1736 03316 7440      SZA                     /                                       @@3316=7440
 1737 03317 7402      HLT                     /                                       @@3317=7402
 1738 03320 3430      DCA I D0030             /                                       @@3320=3430
 1739 03321 1136      TAD   D0136             /                                       @@3321=1136
 1740 03322 7001      IAC                     /                                       @@3322=7001
 1741 03323 3136      DCA   D0136             /                                       @@3323=3136
 1742 03324 1331      TAD   C3331             /                                       @@3324=1331
 1743 03325 3734      DCA I C3334             /                                       @@3325=3734
 1744 03326 1332      TAD   C3332             /                                       @@3326=1332
 1745 03327 3450      DCA I C0050             /                                       @@3327=3450
 1746 03330 5450      JMP I C0050             / long jump to L7757                    @@3330=5450
 1747 03331 5561  C3331,  5561                / JMP I C0161                           
 1748 03332 4427  C3332,  4427                / JMS I C0027                           
 1749 03333 7665  C3333,  7665                / CLA SCA MQL MUY +                     
 1750 03334 0021  C3334,  0021                / AND   D0021                           
 1751             
 1752       3340  *3340
 1753 03340 1136      TAD   D0136             /                                       @@3340=1136
 1754 03341 1363      TAD   C3363             /                                       @@3341=1363
 1755 03342 7440      SZA                     /                                       @@3342=7440
 1756 03343 7402      HLT                     /                                       @@3343=7402
 1757 03344 1427      TAD I C0027             /                                       @@3344=1427
 1758 03345 1027      TAD   C0027             /                                       @@3345=1027
 1759 03346 7440      SZA                     /                                       @@3346=7440
 1760 03347 7402      HLT                     /                                       @@3347=7402
 1761 03350 3427      DCA I C0027             /                                       @@3350=3427
 1762 03351 1136      TAD   D0136             /                                       @@3351=1136
 1763 03352 7001      IAC                     /                                       @@3352=7001
 1764 03353 3136      DCA   D0136             /                                       @@3353=3136
 1765 03354 1361      TAD   C3361             /                                       @@3354=1361
 1766 03355 3764      DCA I C3364             /                                       @@3355=3764
 1767 03356 1362      TAD   C3362             /                                       @@3356=1362

      AUTOMATIC DISASSEMBLY OF MAINDEC-8E-D0IB-PB.bin BY D8TAPE          Page 32


 1768 03357 3451      DCA I C0051             /                                       @@3357=3451
 1769 03360 5451      JMP I C0051             / long jump to L7767                    @@3360=5451
 1770 03361 5562  C3361,  5562                / JMP I C0162                           
 1771 03362 4426  C3362,  4426                / JMS I C0026                           
 1772 03363 7664  C3363,  7664                / SZA SNL CLA OSR                       
 1773 03364 0011  C3364,  0011                / AND   AI1                             
 1774             
 1775       3400  *3400
 1776 03400 1136      TAD   D0136             /                                       @@3400=1136
 1777 03401 1223      TAD   C3423             /                                       @@3401=1223
 1778 03402 7440      SZA                     /                                       @@3402=7440
 1779 03403 7402      HLT                     /                                       @@3403=7402
 1780 03404 1426      TAD I C0026             /                                       @@3404=1426
 1781 03405 1026      TAD   C0026             /                                       @@3405=1026
 1782 03406 7440      SZA                     /                                       @@3406=7440
 1783 03407 7402      HLT                     /                                       @@3407=7402
 1784 03410 3426      DCA I C0026             /                                       @@3410=3426
 1785 03411 1136      TAD   D0136             /                                       @@3411=1136
 1786 03412 7001      IAC                     /                                       @@3412=7001
 1787 03413 3136      DCA   D0136             /                                       @@3413=3136
 1788 03414 1221      TAD   C3421             /                                       @@3414=1221
 1789 03415 3624      DCA I C3424             /                                       @@3415=3624
 1790 03416 1222      TAD   C3422             /                                       @@3416=1222
 1791 03417 3452      DCA I C0052             /                                       @@3417=3452
 1792 03420 5452      JMP I C0052             / long jump to L7773                    @@3420=5452
 1793 03421 5563  C3421,  5563                / JMP I C0163                           
 1794 03422 4425  C3422,  4425                / JMS I C0025                           
 1795 03423 7663  C3423,  7663                / CLA SCA MQL SCL +                     
 1796 03424 0005  C3424,  0005                / AND   D0005                           
 1797             
 1798       3430  *3430
 1799 03430 1136      TAD   D0136             /                                       @@3430=1136
 1800 03431 1253      TAD   C3453             /                                       @@3431=1253
 1801 03432 7440      SZA                     /                                       @@3432=7440
 1802 03433 7402      HLT                     /                                       @@3433=7402
 1803 03434 1425      TAD I C0025             /                                       @@3434=1425
 1804 03435 1025      TAD   C0025             /                                       @@3435=1025
 1805 03436 7440      SZA                     /                                       @@3436=7440
 1806 03437 7402      HLT                     /                                       @@3437=7402
 1807 03440 3425      DCA I C0025             /                                       @@3440=3425
 1808 03441 1136      TAD   D0136             /                                       @@3441=1136
 1809 03442 7001      IAC                     /                                       @@3442=7001
 1810 03443 3136      DCA   D0136             /                                       @@3443=3136
 1811 03444 1251      TAD   C3451             /                                       @@3444=1251
 1812 03445 3654      DCA I C3454             /                                       @@3445=3654
 1813 03446 1252      TAD   C3452             /                                       @@3446=1252
 1814 03447 3453      DCA I C0053             /                                       @@3447=3453
 1815 03450 5453      JMP I C0053             / long jump to L7775                    @@3450=5453
 1816 03451 5564  C3451,  5564                / JMP I C0164                           
 1817 03452 4424  C3452,  4424                / JMS I C0024                           
 1818 03453 7662  C3453,  7662                / SZA SNL CLA HLT                       
 1819 03454 0003  C3454,  0003                / AND   D0003                           
 1820             
 1821       3460  *3460
 1822 03460 1136      TAD   D0136             /                                       @@3460=1136
 1823 03461 1303      TAD   C3503             /                                       @@3461=1303
 1824 03462 7440      SZA                     /                                       @@3462=7440

      AUTOMATIC DISASSEMBLY OF MAINDEC-8E-D0IB-PB.bin BY D8TAPE          Page 33


 1825 03463 7402      HLT                     /                                       @@3463=7402
 1826 03464 1424      TAD I C0024             /                                       @@3464=1424
 1827 03465 1024      TAD   C0024             /                                       @@3465=1024
 1828 03466 7440      SZA                     /                                       @@3466=7440
 1829 03467 7402      HLT                     /                                       @@3467=7402
 1830 03470 3424      DCA I C0024             /                                       @@3470=3424
 1831 03471 1136      TAD   D0136             /                                       @@3471=1136
 1832 03472 7001      IAC                     /                                       @@3472=7001
 1833 03473 3136      DCA   D0136             /                                       @@3473=3136
 1834 03474 1301      TAD   C3501             /                                       @@3474=1301
 1835 03475 3424      DCA I C0024             /                                       @@3475=3424
 1836 03476 1302      TAD   C3502             /                                       @@3476=1302
 1837 03477 3454      DCA I C0054             /                                       @@3477=3454
 1838 03500 5454      JMP I C0054             / long jump to L7776                    @@3500=5454
 1839 03501 5565  C3501,  5565                / JMP I C0165                           
 1840 03502 4423  C3502,  4423                / JMS I C0023                           
 1841 03503 7661  C3503,  7661                / CLA SCA MQL                           
 1842             
 1843       3510  *3510
 1844 03510 1136      TAD   D0136             /                                       @@3510=1136
 1845 03511 1333      TAD   C3533             /                                       @@3511=1333
 1846 03512 7440      SZA                     /                                       @@3512=7440
 1847 03513 7402      HLT                     /                                       @@3513=7402
 1848 03514 1423      TAD I C0023             /                                       @@3514=1423
 1849 03515 1023      TAD   C0023             /                                       @@3515=1023
 1850 03516 7440      SZA                     /                                       @@3516=7440
 1851 03517 7402      HLT                     /                                       @@3517=7402
 1852 03520 3423      DCA I C0023             /                                       @@3520=3423
 1853 03521 1136      TAD   D0136             /                                       @@3521=1136
 1854 03522 7001      IAC                     /                                       @@3522=7001
 1855 03523 3136      DCA   D0136             /                                       @@3523=3136
 1856 03524 1331      TAD   C3531             /                                       @@3524=1331
 1857 03525 3423      DCA I C0023             /                                       @@3525=3423
 1858 03526 1332      TAD   C3532             /                                       @@3526=1332
 1859 03527 3455      DCA I C0055             /                                       @@3527=3455
 1860 03530 5455      JMP I C0055             / long jump to L7777                    @@3530=5455
 1861 03531 5566  C3531,  5566                / JMP I C0166                           
 1862 03532 4422  C3532,  4422                / JMS I C0022                           
 1863 03533 7660  C3533,  7660                / SZA SNL CLA                           
 1864             
 1865       3540  *3540
 1866 03540 1136      TAD   D0136             /                                       @@3540=1136
 1867 03541 1370      TAD   C3570             /                                       @@3541=1370
 1868 03542 7440      SZA                     /                                       @@3542=7440
 1869 03543 7402      HLT                     /                                       @@3543=7402
 1870 03544 1422      TAD I C0022             /                                       @@3544=1422
 1871 03545 1022      TAD   C0022             /                                       @@3545=1022
 1872 03546 7440      SZA                     /                                       @@3546=7440
 1873 03547 7402      HLT                     /                                       @@3547=7402
 1874 03550 3422      DCA I C0022             /                                       @@3550=3422
 1875 03551 1371      TAD   D3571             /                                       @@3551=1371
 1876 03552 7001      IAC                     /                                       @@3552=7001
 1877 03553 3371      DCA   D3571             /                                       @@3553=3371
 1878 03554 1371      TAD   D3571             /                                       @@3554=1371
 1879 03555 1372      TAD   C3572             /                                       @@3555=1372
 1880 03556 7640      SZA CLA                 /                                       @@3556=7640
 1881 03557 5766      JMP I C3566             / long jump to L4200                    @@3557=5766

      AUTOMATIC DISASSEMBLY OF MAINDEC-8E-D0IB-PB.bin BY D8TAPE          Page 34


 1882 03560 3371      DCA   D3571             /                                       @@3560=3371
 1883 03561 1367      TAD   C3567             /                                       @@3561=1367
 1884 03562 6046      TLS                     / Load the TTO from the content of AC4  @@3562=6046
 1885             L3563,
 1886 03563 6041      TSF                     / Skip if teleprinter flag is a 1.      @@3563=6041
 1887 03564 5363      JMP   L3563             /                                       @@3564=5363
 1888 03565 5766      JMP I C3566             / long jump to L4200                    @@3565=5766
 1889             C3566,
 1890 03566 4200  C3566,  4200                / JMS   C3400                           
 1891 03567 0256  C3567,  0256                / AND   C3407      changed 0207/BELL to 0256/period
 1892 03570 7657  C3570,  7657                / CLA SCA LSR +                         
 1893 03571 0000  D3571,  0000                / AND   S0000                           
 1894 03572 1200  C3572,  1200                / TAD   C3400                           
 1895             
 1896       7751  *7751                       / align to RIMLDR location
 1897 07751 0200      0200                    / addr of program start
 1898 07752 6032      KCC                     / first instr in std RIMLDR
 1899 07753 1352      TAD .-1                 / get KCC instr
 1900 07754 3356      DCA .+2                 / restore into RIMLDR
 1901 07755 5751      JMP I .-4               / start program
 1902 07756 5353      JMP .-3                 / overlay first word of RIMLDR
 1903             

      No detected errors

      AUTOMATIC DISASSEMBLY OF MAINDEC-8E-D0IB-PB.bin BY D8TAPE          Page 35
                                                                    Symbol Table

    1  C0020  00020   C0663  00663   C2462  02462   C3253  03253   C5016  05016 
    2  C0022  00022   C0664  00664   C2463  02463   C3254  03254   C5034  05034 
    3  C0023  00023   C0665  00665   C2464  02464   C3301  03301   C5035  05035 
    4  C0024  00024   C0666  00666   C2511  02511   C3302  03302   C5036  05036 
    5  C0025  00025   C0667  00667   C2512  02512   C3303  03303   C5054  05054 
    6  C0026  00026   C0670  00670   C2513  02513   C3304  03304   C5055  05055 
    7  C0027  00027   C0671  00671   C2514  02514   C3331  03331   C5056  05056 
    8  C0031  00031   C0672  00672   C2541  02541   C3332  03332   C5074  05074 
    9  C0032  00032   C0673  00673   C2542  02542   C3333  03333   C5075  05075 
   10  C0033  00033   C0703  00703   C2543  02543   C3334  03334   C5076  05076 
   11  C0034  00034   C0736  00736   C2544  02544   C3361  03361   C5114  05114 
   12  C0035  00035   C0737  00737   C2621  02621   C3362  03362   C5115  05115 
   13  C0036  00036   C0740  00740   C2622  02622   C3363  03363   C5116  05116 
   14  C0037  00037   C0741  00741   C2623  02623   C3364  03364   C5134  05134 
   15  C0042  00042   C0742  00742   C2624  02624   C3421  03421   C5135  05135 
   16  C0043  00043   C2002  02002   C2651  02651   C3422  03422   C5136  05136 
   17  C0044  00044   C2022  02022   C2652  02652   C3423  03423   C5154  05154 
   18  C0045  00045   C2024  02024   C2653  02653   C3424  03424   C5155  05155 
   19  C0046  00046   C2025  02025   C2654  02654   C3451  03451   C5156  05156 
   20  C0047  00047   C2046  02046   C2701  02701   C3452  03452   C5174  05174 
   21  C0050  00050   C2050  02050   C2702  02702   C3453  03453   C5175  05175 
   22  C0051  00051   C2051  02051   C2703  02703   C3454  03454   C5176  05176 
   23  C0052  00052   C2073  02073   C2704  02704   C3501  03501   C5214  05214 
   24  C0053  00053   C2075  02075   C2731  02731   C3502  03502   C5215  05215 
   25  C0054  00054   C2076  02076   C2732  02732   C3503  03503   C5216  05216 
   26  C0055  00055   C2121  02121   C2733  02733   C3531  03531   C5234  05234 
   27  C0056  00056   C2123  02123   C2734  02734   C3532  03532   C5235  05235 
   28  C0057  00057   C2124  02124   C2761  02761   C3533  03533   C5236  05236 
   29  C0061  00061   C2147  02147   C2762  02762   C3566  03566   C5254  05254 
   30  C0062  00062   C2151  02151   C2763  02763   C3567  03567   C5255  05255 
   31  C0064  00064   C2152  02152   C2764  02764   C3570  03570   C5256  05256 
   32  C0067  00067   C2175  02175   C3021  03021   C3572  03572   C5274  05274 
   33  C0070  00070   C2177  02177   C3022  03022   C4605  04605   C5275  05275 
   34  C0071  00071   C2201  02201   C3023  03023   C4606  04606   C5276  05276 
   35  C0102  00102   C2221  02221   C3024  03024   C4634  04634   C5314  05314 
   36  C0104  00104   C2223  02223   C3051  03051   C4635  04635   C5315  05315 
   37  C0112  00112   C2224  02224   C3052  03052   C4636  04636   C5316  05316 
   38  C0113  00113   C2245  02245   C3053  03053   C4654  04654   C5334  05334 
   39  C0114  00114   C2247  02247   C3054  03054   C4655  04655   C5335  05335 
   40  C0115  00115   C2250  02250   C3101  03101   C4656  04656   C5336  05336 
   41  C0116  00116   C2272  02272   C3102  03102   C4674  04674   C5354  05354 
   42  C0117  00117   C2274  02274   C3103  03103   C4675  04675   C5355  05355 
   43  C0120  00120   C2275  02275   C3104  03104   C4676  04676   C5356  05356 
   44  C0121  00121   C2320  02320   C3131  03131   C4714  04714   C5374  05374 
   45  C0122  00122   C2322  02322   C3132  03132   C4715  04715   C5375  05375 
   46  C0123  00123   C2323  02323   C3133  03133   C4716  04716   C5376  05376 
   47  C0124  00124   C2347  02347   C3134  03134   C4734  04734   C5414  05414 
   48  C0125  00125   C2351  02351   C3161  03161   C4735  04735   C5415  05415 
   49  C0126  00126   C2352  02352   C3162  03162   C4736  04736   C5416  05416 
   50  C0127  00127   C2375  02375   C3163  03163   C4754  04754   C5434  05434 
   51  C0130  00130   C2377  02377   C3164  03164   C4755  04755   C5435  05435 
   52  C0131  00131   C2405  02405   C3221  03221   C4756  04756   C5436  05436 
   53  C0132  00132   C2406  02406   C3222  03222   C4774  04774   C5450  05450 
   54  C0133  00133   C2431  02431   C3223  03223   C4775  04775   C5451  05451 
   55  C0134  00134   C2432  02432   C3224  03224   C4776  04776   D0001  00001 
   56  C0135  00135   C2433  02433   C3251  03251   C5014  05014   D0002  00002 
   57  C0175  00175   C2461  02461   C3252  03252   C5015  05015   D0003  00003 

      AUTOMATIC DISASSEMBLY OF MAINDEC-8E-D0IB-PB.bin BY D8TAPE          Page 36
                                                                    Symbol Table

   58  D0004  00004   L2027  02027 
   59  D0005  00005   L2054  02054 
   60  D0020  00020   L2102  02102 
   61  D0021  00021   L2130  02130 
   62  D0030  00030   L2156  02156 
   63  D0060  00060   L2202  02202 
   64  D0110  00110   L2226  02226 
   65  D0136  00136   L2253  02253 
   66  D0140  00140   L2301  02301 
   67  D0200  00200   L2330  02330 
   68  D0201  00201   L2356  02356 
   69  D0600  00600   L3563  03563 
   70  D0743  00743   L4200  04200 
   71  D0744  00744   L4203  04203 
   72  D0745  00745   L4213  04213 
   73  D0746  00746   L4225  04225 
   74  D0747  00747   L4240  04240 
   75  D0750  00750   L4254  04254 
   76  D0751  00751   L4271  04271 
   77  D0752  00752   L4307  04307 
   78  D0753  00753   L4326  04326 
   79  D0754  00754   L4346  04346 
   80  D0755  00755   L4367  04367 
   81  D0756  00756   L4401  04401 
   82  D2003  02003   L4412  04412 
   83  D2027  02027   L4424  04424 
   84  D2054  02054   L4437  04437 
   85  D2102  02102   L4453  04453 
   86  D2130  02130   L4470  04470 
   87  D2156  02156   L4506  04506 
   88  D2202  02202   L4525  04525 
   89  D2226  02226   L4545  04545 
   90  D2253  02253   L4566  04566 
   91  D2301  02301   S0000  00000 
   92  D2330  02330   S0170  00170 
   93  D2356  02356 
   94  D3571  03571 
   95  D5060  05060 
   96  L0000  00000 
   97  L0001  00001 
   98  L0002  00002 
   99  L0004  00004 
  100  L0010  00010 
  101  L0020  00020 
  102  L0060  00060 
  103  L0120  00120 
  104  L0140  00140 
  105  L0160  00160 
  106  L0200  00200 
  107  L0634  00634 
  108  L0642  00642 
  109  L0650  00650 
  110  L0656  00656 
  111  L0700  00700 
  112  L0703  00703 
  113  L2002  02002 
  114  L2003  02003 

      AUTOMATIC DISASSEMBLY OF MAINDEC-8E-D0IB-PB.bin BY D8TAPE          Page 37
                                                                 Cross Reference

    1 A     58  C0020   
    2 A     64  C0022       616    834    837   1870   1871   1874
    3 A     66  C0023       632    851    854   1334   1335   1848   1849   1852
    4                      1857
    5 A     68  C0024       649    868    871   1355   1356   1826   1827   1830
    6                      1835
    7 A     70  C0025       666    885    888   1377   1378   1803   1804   1807
    8 A     72  C0026       683    902    905   1400   1401   1780   1781   1784
    9 A     74  C0027       700    919    922   1423   1424   1757   1758   1761
   10 A     77  C0031       734    953    956   1469   1470   1711   1712   1715
   11 A     79  C0032       751    970    973   1492   1493   1688   1689   1692
   12 A     81  C0033       768    987    990   1515   1516   1665   1666   1669
   13 A     83  C0034       785   1004   1007   1538   1539   1642   1643   1646
   14 A     85  C0035       802   1021   1024   1561   1562   1619   1620   1623
   15 A     87  C0036       819   1038   1041   1596   1597   1600
   16 A     89  C0037       817    820   1040   1584   1585
   17 A     93  C0042       800    803   1023   1573   1574   1577   1607   1608
   18 A     95  C0043       783    786   1006   1550   1551   1554   1630   1631
   19 A     97  C0044       766    769    989   1527   1528   1531   1653   1654
   20 A     99  C0045       749    752    972   1504   1505   1508   1676   1677
   21 A    101  C0046       236    309    732    735    955   1481   1482   1485
   22                      1699   1700
   23 A    103  C0047       232    305    715    718    938   1458   1459   1462
   24                      1722   1723
   25 A    105  C0050       228    301    698    701    921   1435   1436   1439
   26                      1745   1746
   27 A    107  C0051       224    297    681    684    904   1412   1413   1416
   28                      1768   1769
   29 A    109  C0052       220    293    664    667    887   1389   1390   1393
   30                      1791   1792
   31 A    111  C0053       218    291    647    650    870   1366   1367   1370
   32                      1814   1815
   33 A    113  C0054       630    633    853   1344   1345   1348   1353   1837
   34                      1838
   35 A    115  C0055       240    313    614    617    836   1332   1859   1860
   36 A    116  C0056   
   37 A    117  C0057   
   38 A    120  C0061   
   39 A    121  C0062   
   40 A    123  C0064   
   41 A    126  C0067   
   42 A    127  C0070   
   43 A    128  C0071   
   44 A    136  C0102   
   45 A    138  C0104   
   46 A    144  C0112   
   47 A    145  C0113       349
   48 A    146  C0114       360
   49 A    147  C0115       372
   50 A    148  C0116       385
   51 A    149  C0117       399
   52 A    151  C0120   
   53 A    152  C0121       430
   54 A    153  C0122       447
   55 A    154  C0123       465
   56 A    155  C0124       478
   57 A    156  C0125       488

      AUTOMATIC DISASSEMBLY OF MAINDEC-8E-D0IB-PB.bin BY D8TAPE          Page 38
                                                                 Cross Reference

   58 A    157  C0126       499
   59 A    158  C0127       511
   60 A    159  C0130       524
   61 A    160  C0131       538
   62 A    161  C0132       553
   63 A    162  C0133       569
   64 A    163  C0134       586
   65 A    164  C0135       604
   66 A    209  C0175       205
   67 A    272  C0663   
   68 A    273  C0664       243
   69 A    274  C0665       247
   70 A    275  C0666       250
   71 A    276  C0667       254
   72 A    277  C0670       257
   73 A    278  C0671       261
   74 A    279  C0672       264
   75 A    280  C0673       268
   76 A    288  C0703   
   77 A    315  C0736       222    295
   78 A    316  C0737       226    299
   79 A    317  C0740       230    303
   80 A    318  C0741       234    307
   81 A    319  C0742       238    311
   82 A   1061  C2002   
   83 A   1078  C2022      1065
   84 A   1080  C2024      1068
   85 A   1081  C2025   
   86 A   1099  C2046      1086
   87 A   1101  C2050      1089
   88 A   1102  C2051   
   89 A   1121  C2073      1111
   90 A   1123  C2075      1108
   91 A   1124  C2076   
   92 A   1144  C2121      1134
   93 A   1146  C2123      1131
   94 A   1147  C2124   
   95 A   1167  C2147      1157
   96 A   1169  C2151      1154
   97 A   1170  C2152   
   98 A   1190  C2175      1180
   99 A   1192  C2177      1177
  100 A   1196  C2201   
  101 A   1213  C2221      1200
  102 A   1215  C2223      1205
  103 A   1216  C2224   
  104 A   1234  C2245      1221
  105 A   1236  C2247      1224
  106 A   1237  C2250   
  107 A   1256  C2272      1248
  108 A   1258  C2274      1243
  109 A   1259  C2275   
  110 A   1279  C2320      1271
  111 A   1281  C2322      1266
  112 A   1282  C2323   
  113 A   1303  C2347      1295
  114 A   1305  C2351      1290

      AUTOMATIC DISASSEMBLY OF MAINDEC-8E-D0IB-PB.bin BY D8TAPE          Page 39
                                                                 Cross Reference

  115 A   1306  C2352   
  116 A   1326  C2375      1318
  117 A   1328  C2377      1313
  118 A   1336  C2405      1331
  119 A   1337  C2406      1333
  120 A   1357  C2431      1352
  121 A   1358  C2432      1354
  122 A   1359  C2433      1341
  123 A   1379  C2461      1374
  124 A   1380  C2462      1376
  125 A   1381  C2463      1363
  126 A   1382  C2464      1375
  127 A   1402  C2511      1397
  128 A   1403  C2512      1399
  129 A   1404  C2513      1386
  130 A   1405  C2514      1398
  131 A   1425  C2541      1420
  132 A   1426  C2542      1422
  133 A   1427  C2543      1409
  134 A   1428  C2544      1421
  135 A   1448  C2621      1443
  136 A   1449  C2622      1445
  137 A   1450  C2623      1432
  138 A   1451  C2624      1444
  139 A   1471  C2651      1466
  140 A   1472  C2652      1468
  141 A   1473  C2653      1455
  142 A   1474  C2654      1467
  143 A   1494  C2701      1489
  144 A   1495  C2702      1491
  145 A   1496  C2703      1478
  146 A   1497  C2704      1490
  147 A   1517  C2731      1512
  148 A   1518  C2732      1514
  149 A   1519  C2733      1501
  150 A   1520  C2734      1513
  151 A   1540  C2761      1535
  152 A   1541  C2762      1537
  153 A   1542  C2763      1524
  154 A   1543  C2764      1536
  155 A   1563  C3021      1558
  156 A   1564  C3022      1560
  157 A   1565  C3023      1547
  158 A   1566  C3024      1559
  159 A   1586  C3051      1581
  160 A   1587  C3052      1583
  161 A   1588  C3053      1570
  162 A   1589  C3054      1582
  163 A   1609  C3101      1604
  164 A   1610  C3102      1606
  165 A   1611  C3103      1593
  166 A   1612  C3104      1605
  167 A   1632  C3131      1627
  168 A   1633  C3132      1629
  169 A   1634  C3133      1616
  170 A   1635  C3134      1628
  171 A   1655  C3161      1650

      AUTOMATIC DISASSEMBLY OF MAINDEC-8E-D0IB-PB.bin BY D8TAPE          Page 40
                                                                 Cross Reference

  172 A   1656  C3162      1652
  173 A   1657  C3163      1639
  174 A   1658  C3164      1651
  175 A   1678  C3221      1673
  176 A   1679  C3222      1675
  177 A   1680  C3223      1662
  178 A   1681  C3224      1674
  179 A   1701  C3251      1696
  180 A   1702  C3252      1698
  181 A   1703  C3253      1685
  182 A   1704  C3254      1697
  183 A   1724  C3301      1719
  184 A   1725  C3302      1721
  185 A   1726  C3303      1708
  186 A   1727  C3304      1720
  187 A   1747  C3331      1742
  188 A   1748  C3332      1744
  189 A   1749  C3333      1731
  190 A   1750  C3334      1743
  191 A   1770  C3361      1765
  192 A   1771  C3362      1767
  193 A   1772  C3363      1754
  194 A   1773  C3364      1766
  195 A   1793  C3421      1788
  196 A   1794  C3422      1790
  197 A   1795  C3423      1777
  198 A   1796  C3424      1789
  199 A   1816  C3451      1811
  200 A   1817  C3452      1813
  201 A   1818  C3453      1800
  202 A   1819  C3454      1812
  203 A   1839  C3501      1834
  204 A   1840  C3502      1836
  205 A   1841  C3503      1823
  206 A   1861  C3531      1856
  207 A   1862  C3532      1858
  208 A   1863  C3533      1845
  209 A   1890  C3566      1881   1888
  210 A   1891  C3567      1883
  211 A   1892  C3570      1867
  212 A   1894  C3572      1879
  213 A    618  C4605       613
  214 A    619  C4606       615
  215 A    634  C4634       629
  216 A    635  C4635       631
  217 A    636  C4636       623
  218 A    651  C4654       646
  219 A    652  C4655       648
  220 A    653  C4656       640
  221 A    668  C4674       663
  222 A    669  C4675       665
  223 A    670  C4676       657
  224 A    685  C4714       680
  225 A    686  C4715       682
  226 A    687  C4716       674
  227 A    702  C4734       697
  228 A    703  C4735       699

      AUTOMATIC DISASSEMBLY OF MAINDEC-8E-D0IB-PB.bin BY D8TAPE          Page 41
                                                                 Cross Reference

  229 A    704  C4736       691
  230 A    719  C4754       714
  231 A    720  C4755       716
  232 A    721  C4756       708
  233 A    736  C4774       731
  234 A    737  C4775       733
  235 A    738  C4776       725
  236 A    753  C5014       748
  237 A    754  C5015       750
  238 A    755  C5016       742
  239 A    770  C5034       765
  240 A    771  C5035       767
  241 A    772  C5036       759
  242 A    787  C5054       782
  243 A    788  C5055       784
  244 A    789  C5056       776
  245 A    804  C5074       799
  246 A    805  C5075       801
  247 A    806  C5076       793
  248 A    821  C5114       816
  249 A    822  C5115       818
  250 A    823  C5116       810
  251 A    838  C5134       833
  252 A    839  C5135       835
  253 A    840  C5136       827
  254 A    855  C5154       850
  255 A    856  C5155       852
  256 A    857  C5156       844
  257 A    872  C5174       867
  258 A    873  C5175       869
  259 A    874  C5176       861
  260 A    889  C5214       884
  261 A    890  C5215       886
  262 A    891  C5216       878
  263 A    906  C5234       901
  264 A    907  C5235       903
  265 A    908  C5236       895
  266 A    923  C5254       918
  267 A    924  C5255       920
  268 A    925  C5256       912
  269 A    940  C5274       935
  270 A    941  C5275       937
  271 A    942  C5276       929
  272 A    957  C5314       952
  273 A    958  C5315       954
  274 A    959  C5316       946
  275 A    974  C5334       969
  276 A    975  C5335       971
  277 A    976  C5336       963
  278 A    991  C5354       986
  279 A    992  C5355       988
  280 A    993  C5356       980
  281 A   1008  C5374      1003
  282 A   1009  C5375      1005
  283 A   1010  C5376       997
  284 A   1025  C5414      1020
  285 A   1026  C5415      1022

      AUTOMATIC DISASSEMBLY OF MAINDEC-8E-D0IB-PB.bin BY D8TAPE          Page 42
                                                                 Cross Reference

  286 A   1027  C5416      1014
  287 A   1042  C5434      1037
  288 A   1043  C5435      1039
  289 A   1044  C5436      1031
  290 A   1055  C5450      1048
  291 A   1057  C5451      1054
  292 A     39  D0001   
  293 A     41  D0002   
  294 A     42  D0003   
  295 A     44  D0004   
  296 A     45  D0005   
  297 A     59  D0020   
  298 A     60  D0021   
  299 A     75  D0030       717    936    939   1446   1447   1734   1735   1738
  300 A    119  D0060   
  301 A    142  D0110   
  302 A    165  D0136       336    339    342    344    348    352    354    359
  303                       363    365    371    375    377    384    388    390
  304                       398    402    404    413    417    419    429    433
  305                       435    446    450    452    464    468    470    477
  306                       481    483    487    491    493    498    502    504
  307                       510    514    516    523    527    529    537    541
  308                       543    552    556    558    568    572    574    585
  309                       589    591    603    607    609    622    626    628
  310                       639    643    645    656    660    662    673    677
  311                       679    690    694    696    707    711    713    724
  312                       728    730    741    745    747    758    762    764
  313                       775    779    781    796    798    809    813    815
  314                       826    830    832    843    847    849    860    864
  315                       866    877    881    883    894    898    900    911
  316                       915    917    928    932    934    945    949    951
  317                       962    966    968    979    983    985    996   1000
  318                      1002   1013   1017   1019   1030   1034   1036   1047
  319                      1051   1053   1064   1074   1076   1085   1095   1097
  320                      1107   1117   1119   1130   1140   1142   1153   1163
  321                      1165   1176   1186   1188   1199   1209   1211   1220
  322                      1230   1232   1242   1252   1254   1265   1275   1277
  323                      1289   1299   1301   1312   1322   1324   1340   1349
  324                      1351   1362   1371   1373   1385   1394   1396   1408
  325                      1417   1419   1431   1440   1442   1454   1463   1465
  326                      1477   1486   1488   1500   1509   1511   1523   1532
  327                      1534   1546   1555   1557   1569   1578   1580   1592
  328                      1601   1603   1615   1624   1626   1638   1647   1649
  329                      1661   1670   1672   1684   1693   1695   1707   1716
  330                      1718   1730   1739   1741   1753   1762   1764   1776
  331                      1785   1787   1799   1808   1810   1822   1831   1833
  332                      1844   1853   1855   1866
  333 A    168  D0140   
  334 A    213  D0200   
  335 A    214  D0201   
  336 A    217  D0600       285
  337 A    320  D0743       219    290
  338 A    321  D0744       221    292
  339 A    322  D0745       223    294
  340 A    323  D0746       225    296
  341 A    324  D0747       227    298
  342 A    325  D0750       229    300

      AUTOMATIC DISASSEMBLY OF MAINDEC-8E-D0IB-PB.bin BY D8TAPE          Page 43
                                                                 Cross Reference

  343 A    326  D0751       231    302
  344 A    327  D0752       233    304
  345 A    328  D0753       235    306
  346 A    329  D0754       237    308
  347 A    330  D0755       239    310
  348 A    331  D0756       241    312
  349 A   1063  D2003   
  350 A   1084  D2027   
  351 A   1106  D2054   
  352 A   1129  D2102   
  353 A   1152  D2130   
  354 A   1175  D2156   
  355 A   1198  D2202   
  356 A   1219  D2226   
  357 A   1241  D2253   
  358 A   1264  D2301   
  359 A   1288  D2330   
  360 A   1311  D2356   
  361 A   1893  D3571      1875   1877   1878   1882
  362 A    792  D5060   
  363 A     28  L0000   
  364 A     38  L0001   
  365 A     40  L0002   
  366 A     43  L0004   
  367 A     48  L0010       206    207    244    251    258    265
  368 A     57  L0020       125    143
  369 A    118  L0060   
  370 A    150  L0120       129    414
  371 A    167  L0140       130
  372 A    184  L0160       131
  373 A    212  L0200   
  374 A    245  L0634       249
  375 A    252  L0642       256
  376 A    259  L0650       263
  377 A    266  L0656       270
  378 A    283  L0700       271
  379 A    287  L0703       284    286
  380 A   1060  L2002   
  381 A   1062  L2003      1070   1073
  382 A   1083  L2027      1091   1094
  383 A   1105  L2054      1113   1116
  384 A   1128  L2102      1136   1139
  385 A   1151  L2130      1159   1162
  386 A   1174  L2156      1182   1185
  387 A   1197  L2202      1203   1208
  388 A   1218  L2226      1226   1229
  389 A   1240  L2253      1246   1251
  390 A   1263  L2301      1269   1274
  391 A   1287  L2330      1293   1298
  392 A   1310  L2356      1316   1321
  393 A   1885  L3563      1887
  394 A    334  L4200   
  395 A    338  L4203       337
  396 A    347  L4213       345
  397 A    358  L4225       355
  398 A    370  L4240       366
  399 A    383  L4254       378

      AUTOMATIC DISASSEMBLY OF MAINDEC-8E-D0IB-PB.bin BY D8TAPE          Page 44
                                                                 Cross Reference

  400 A    397  L4271       391
  401 A    412  L4307       405
  402 A    428  L4326       420
  403 A    445  L4346       436
  404 A    463  L4367       453
  405 A    476  L4401       475
  406 A    486  L4412       484
  407 A    497  L4424       494
  408 A    509  L4437       505
  409 A    522  L4453       517
  410 A    536  L4470       530
  411 A    551  L4506       544
  412 A    567  L4525       559
  413 A    584  L4545       575
  414 A    602  L4566       592
  415 A     36  S0000       124
  416 A    203  S0170       208    246    253    260    267

      AUTOMATIC DISASSEMBLY OF MAINDEC-8E-D0IB-PB.bin BY D8TAPE          Page 45
                                                                      Memory Map

    1 00000/ XXXXXXXX XXXXXXXX XXXXXXXX XXXXXXXX ..XXXXXX XXXXXXXX XXXXXXXX XXXXXXX.
    2 00100/ ..XXXXXX XXXXXXXX XXXXXXXX XXXXXXXX XXXXXXXX XXXXXXXX XXXXXXX. XXXXXX..
    3
    4 00200/ XX...... ........ ........ ........ ........ ........ ........ ........
    5 00300/ ........ ........ ........ ........ ........ ........ ........ ........
    6
    7 00400/ ........ ........ ........ ........ ........ ........ ........ ........
    8 00500/ ........ ........ ........ ........ ........ ........ ........ ........
    9
   10 00600/ XXXXXXXX XXXXXXXX XXXXXXXX XXXXXXXX XXXXXXXX XXXXXXXX XXXXXXXX XXXX....
   11 00700/ XXXXXXXX XXXXXXXX XXXXXXXX XXXXXXXX XXXXXXXX XXXXXXX. ........ ........
   12
   13 01000/ ........ ........ ........ ........ ........ ........ ........ ........
   14 01100/ ........ ........ ........ ........ ........ ........ ........ ........
   15
   16 01200/ ........ ........ ........ ........ ........ ........ ........ ........
   17 01300/ ........ ........ ........ ........ ........ ........ ........ ........
   18
   19 01400/ ........ ........ ........ ........ ........ ........ ........ ........
   20 01500/ ........ ........ ........ ........ ........ ........ ........ ........
   21
   22 01600/ ........ ........ ........ ........ ........ ........ ........ ........
   23 01700/ ........ ........ ........ ........ ........ ........ ........ ........
   24
   25 02000/ ..XXXXXX XXXXXXXX XXXXXXXX XXXXXXXX XXXXXXXX XXXXXXXX XXXXXXXX XXXXXXXX
   26 02100/ XXXXXXXX XXXXXXXX XXXXXXXX XXXXXXXX XXXXXXXX XXXXXXXX XXXXXXXX XXXXXXXX
   27
   28 02200/ XXXXXXXX XXXXXXXX XXXXXXXX XXXXXXXX XXXXXXXX XXXXXXXX XXXXXXXX XXXXXXXX
   29 02300/ XXXXXXXX XXXXXXXX XXXXXXXX XXXXXXXX XXXXXXXX XXXXXXXX XXXXXXXX XXXXXXXX
   30
   31 02400/ XXXXXXX. XXXXXXXX XXXXXXXX XXXX.... XXXXXXXX XXXXXXXX XXXXX... XXXXXXXX
   32 02500/ XXXXXXXX XXXXX... XXXXXXXX XXXXXXXX XXXXX... ........ ........ ........
   33
   34 02600/ XXXXXXXX XXXXXXXX XXXXX... XXXXXXXX XXXXXXXX XXXXX... XXXXXXXX XXXXXXXX
   35 02700/ XXXXX... XXXXXXXX XXXXXXXX XXXXX... XXXXXXXX XXXXXXXX XXXXX... ........
   36
   37 03000/ XXXXXXXX XXXXXXXX XXXXX... XXXXXXXX XXXXXXXX XXXXX... XXXXXXXX XXXXXXXX
   38 03100/ XXXXX... XXXXXXXX XXXXXXXX XXXXX... XXXXXXXX XXXXXXXX XXXXX... ........
   39
   40 03200/ XXXXXXXX XXXXXXXX XXXXX... XXXXXXXX XXXXXXXX XXXXX... XXXXXXXX XXXXXXXX
   41 03300/ XXXXX... XXXXXXXX XXXXXXXX XXXXX... XXXXXXXX XXXXXXXX XXXXX... ........
   42
   43 03400/ XXXXXXXX XXXXXXXX XXXXX... XXXXXXXX XXXXXXXX XXXXX... XXXXXXXX XXXXXXXX
   44 03500/ XXXX.... XXXXXXXX XXXXXXXX XXXX.... XXXXXXXX XXXXXXXX XXXXXXXX XXX.....
   45
   46 03600/ ........ ........ ........ ........ ........ ........ ........ ........
   47 03700/ ........ ........ ........ ........ ........ ........ ........ ........
   48

      AUTOMATIC DISASSEMBLY OF MAINDEC-8E-D0IB-PB.bin BY D8TAPE          Page 46
                                                                      Memory Map

   49 04000/ ........ ........ ........ ........ ........ ........ ........ ........
   50 04100/ ........ ........ ........ ........ ........ ........ ........ ........
   51
   52 04200/ XXXXXXXX XXXXXXXX XXXXXXXX XXXXXXXX XXXXXXXX XXXXXXXX XXXXXXXX XXXXXXXX
   53 04300/ XXXXXXXX XXXXXXXX XXXXXXXX XXXXXXXX XXXXXXXX XXXXXXXX XXXXXXXX XXXXXXXX
   54
   55 04400/ XXXXXXXX XXXXXXXX XXXXXXXX XXXXXXXX XXXXXXXX XXXXXXXX XXXXXXXX XXXXXXXX
   56 04500/ XXXXXXXX XXXXXXXX XXXXXXXX XXXXXXXX XXXXXXXX XXXXXXXX XXXXXXXX XXXXXXXX
   57
   58 04600/ XXXXXXX. ........ XXXXXXXX XXXXXXX. XXXXXXXX XXXXXXX. XXXXXXXX XXXXXXX.
   59 04700/ XXXXXXXX XXXXXXX. XXXXXXXX XXXXXXX. XXXXXXXX XXXXXXX. XXXXXXXX XXXXXXX.
   60
   61 05000/ XXXXXXXX XXXXXXX. XXXXXXXX XXXXXXX. XXXXXXXX XXXXXXX. XXXXXXXX XXXXXXX.
   62 05100/ XXXXXXXX XXXXXXX. XXXXXXXX XXXXXXX. XXXXXXXX XXXXXXX. XXXXXXXX XXXXXXX.
   63
   64 05200/ XXXXXXXX XXXXXXX. XXXXXXXX XXXXXXX. XXXXXXXX XXXXXXX. XXXXXXXX XXXXXXX.
   65 05300/ XXXXXXXX XXXXXXX. XXXXXXXX XXXXXXX. XXXXXXXX XXXXXXX. XXXXXXXX XXXXXXX.
   66
   67 05400/ XXXXXXXX XXXXXXX. XXXXXXXX XXXXXXX. XXXXXXXX XX...... ........ ........
   68 05500/ ........ ........ ........ ........ ........ ........ ........ ........
   69
   70 05600/ ........ ........ ........ ........ ........ ........ ........ ........
   71 05700/ ........ ........ ........ ........ ........ ........ ........ ........
   72
   73 06000/ ........ ........ ........ ........ ........ ........ ........ ........
   74 06100/ ........ ........ ........ ........ ........ ........ ........ ........
   75
   76 06200/ ........ ........ ........ ........ ........ ........ ........ ........
   77 06300/ ........ ........ ........ ........ ........ ........ ........ ........
   78
   79 06400/ ........ ........ ........ ........ ........ ........ ........ ........
   80 06500/ ........ ........ ........ ........ ........ ........ ........ ........
   81
   82 06600/ ........ ........ ........ ........ ........ ........ ........ ........
   83 06700/ ........ ........ ........ ........ ........ ........ ........ ........
   84
   85 07000/ ........ ........ ........ ........ ........ ........ ........ ........
   86 07100/ ........ ........ ........ ........ ........ ........ ........ ........
   87
   88 07200/ ........ ........ ........ ........ ........ ........ ........ ........
   89 07300/ ........ ........ ........ ........ ........ ........ ........ ........
   90
   91 07400/ ........ ........ ........ ........ ........ ........ ........ ........
   92 07500/ ........ ........ ........ ........ ........ ........ ........ ........
   93
   94 07600/ ........ ........ ........ ........ ........ ........ ........ ........
   95 07700/ ........ ........ ........ ........ ........ .XXXXXX. ........ ........
   96
