
      AUTOMATIC DISASSEMBLY OF MAINDEC-08-DHMCA-A-PB.bin BY D8TAPE        Page 1


    1             TITLE "AUTOMATIC DISASSEMBLY OF MAINDEC-08-DHMCA-A-PB.bin BY D8TAPE"
    2             ////////////////////////////////////////////////////////////////////////////////
    3             /
    4             /   Automatic Disassembly of MAINDEC-08-DHMCA-A-PB.bin
    5             /   Generated 2015 10 28 21:34:08
    6             /   Generated by d8tape version 0.347
    7             /   Visit http://www.pdp12.org/pdp8/software/index.html for updates
    8             /
    9             /   Symbol format:
   10             /       AIx   -- Auto-index variables (address range 001x)
   11             /       Caaaa -- Constants (non-unique)
   12             /       Daaaa -- Data (read/write variables)
   13             /       Kvvvv -- Program-wide unique constants
   14             /       Laaaa -- Labels for control flow targets
   15             /       Saaaa -- Subroutines
   16             /
   17             /   Where:
   18             /       aaaa is the definition address
   19             /       vvvv is the value of the constant
   20             /       x    is the last digit of the address 001x for auto-index variables
   21             /
   22             /   3336 locations used, 2647 code and 0467 data
   23             ////////////////////////////////////////////////////////////////////////////////
   24             
   25             DEFINE SDF N <
   26                    N^10+CDF >
   27             
   28             DEFINE SIF N <
   29                    N^10+CIF >
   30             
   31       6264  CUF=6264
   32       6274  SUF=6274
   33             
   34       6204  CINT=6204
   35       6254  SINT=6254
   36             
   37       0200  *0200
   38             
   39       0000  *0000
   40             L0000,
   41             
   42             ////////////////////////////////////////////////////////////////////////////////
   43             /
   44             /   SUBROUTINE:  S0000
   45             /
   46             /   Never called
   47             ////////////////////////////////////////////////////////////////////////////////
   48             S0000,
   49 00000 0000      0                       / return area
   50             L0001,
   51 00001 5001  D0001,  5001                / JMP   L0001                           
   52             L0002,
   53 00002 0002  D0002,  0002                / AND   L0002                           
   54 00003 0003  D0003,  0003                / AND   D0003                           
   55             
   56       0020  *0020
   57             C0020,

      AUTOMATIC DISASSEMBLY OF MAINDEC-08-DHMCA-A-PB.bin BY D8TAPE        Page 2


   58 00020 5400  D0020,  5400                / JMP I S0000                           
   59 00021 2000  C0021,  2000                / ISZ   S0000                           
   60             C0022,
   61 00022 2443  C0022,  2443                / ISZ I C0043                           
   62             C0023,
   63 00023 2435  C0023,  2435                / ISZ I C0035                           
   64 00024 1050      TAD   C0050             /                                       @@0024=1050
   65             C0025,
   66 00025 1321  C0025,  1321                / TAD   C0121                           
   67 00026 1432      TAD I D0032             /                                       @@0026=1432
   68 00027 0000  D0027,  0000                / AND   S0000                           
   69 00030 0000  D0030,  0000                / AND   S0000                           
   70 00031 0000  D0031,  0000                / AND   S0000                           
   71 00032 0000  D0032,  0000                / AND   S0000                           
   72 00033 0000  D0033,  0000                / AND   S0000                           
   73 00034 0000  D0034,  0000                / AND   S0000                           
   74 00035 1132  C0035,  1132                / TAD   C0132                           
   75 00036 1133  C0036,  1133                / TAD   C0133                           
   76 00037 7402  C0037,  7402                / HLT                                   
   77 00040 6201  C0040,  6201                / SDF 0                                  
   78 00041 6202  C0041,  6202                / SIF 0                                  
   79 00042 1316  C0042,  1316                / TAD   C0116                           
   80 00043 0001  C0043,  0001                / AND   L0001                           
   81 00044 0007  C0044,  0007                / AND   C0007                           
   82 00045 0010  C0045,  0010                / AND   AI0                             
   83 00046 7777  C0046,  7777                / CLA MQA SCA MQL LSR +                 
   84             C0047,
   85 00047 7000  C0047,  7000                / NOP                                   
   86 00050 7707  C0050,  7707                / CLA MQA DVI +                         
   87 00051 7767  C0051,  7767                / CLA MQA SCA MQL DVI +                 
   88 00052 7757  C0052,  7757                / CLA MQA SCA LSR +                     
   89 00053 7747  C0053,  7747                / CLA MQA SCA DVI +                     
   90 00054 7737  C0054,  7737                / CLA MQA MQL LSR +                     
   91 00055 7727  C0055,  7727                / CLA MQA MQL DVI +                     
   92 00056 7717  C0056,  7717                / CLA MQA LSR +                         
   93 00057 7776  C0057,  7776                / SPA SNA SZL CLA OSR HLT               
   94 00060 7775  C0060,  7775                / CLA MQA SCA MQL ASR +                 
   95 00061 7774  C0061,  7774                / SPA SNA SZL CLA OSR                   
   96 00062 7773  C0062,  7773                / CLA MQA SCA MQL SHL +                 
   97 00063 7772  C0063,  7772                / SPA SNA SZL CLA HLT                   
   98 00064 7771  C0064,  7771                / CLA MQA SCA MQL NMI                   
   99 00065 0067  C0065,  0067                / AND   C0067                           
  100 00066 0067  D0066,  0067                / AND   C0067                           
  101 00067 7766  C0067,  7766                / SMA SZA SNL CLA OSR HLT               
  102 00070 7755  D0070,  7755                / CLA MQA SCA ASR +                     
  103 00071 7744  C0071,  7744                / SMA SZA CLA OSR                       
  104 00072 7733  C0072,  7733                / CLA MQA MQL SHL +                     
  105 00073 7722      SMA SNL CLA HLT         /                                       @@0073=7722
  106 00074 7711  C0074,  7711                / CLA MQA NMI                           
  107 00075 7700      SMA CLA                 /                                       @@0075=7700
  108             C0076,
  109 00076 1127  C0076,  1127                / TAD   C0127                           
  110 00077 1130  C0077,  1130                / TAD   C0130                           
  111 00100 1302  C0100,  1302                / TAD   C0102                           
  112 00101 5402  C0101,  5402                / JMP I L0002                           
  113 00102 1200  C0102,  1200                / TAD   S0000                           
  114 00103 0020  C0103,  0020                / AND   D0020                           

      AUTOMATIC DISASSEMBLY OF MAINDEC-08-DHMCA-A-PB.bin BY D8TAPE        Page 3


  115 00104 5505  C0104,  5505                / JMP I C0105                           
  116 00105 1427      TAD I D0027             /                                       @@0105=1427
  117 00106 1422  C0106,  1422                / TAD I C0022                           
  118             C0107,
  119 00107 1400  C0107,  1400                / TAD I S0000                           
  120 00110 7770  C0110,  7770                / SPA SNA SZL CLA                       
  121 00111 0070  C0111,  0070                / AND   D0070                           
  122 00112 0000  D0112,  0000                / AND   S0000                           
  123 00113 7770  D0113,  7770                / SPA SNA SZL CLA                       
  124 00114 0000  D0114,  0000                / AND   S0000                           
  125 00115 5200  C0115,  5200                / JMP   S0000                           
  126 00116 1200  C0116,  1200                / TAD   S0000                           
  127 00117 0077  C0117,  0077                / AND   C0077                           
  128 00120 0011  C0120,  0011                / AND   AI1                             
  129 00121 7700  C0121,  7700                / SMA CLA                               
  130 00122 0002  C0122,  0002                / AND   L0002                           
  131             D0123,
  132 00123 0004  C0123,  0004                / AND   D0004                           
  133 00124 7402  C0124,  7402                / HLT                                   
  134 00125 6000  C0125,  6000                / 6000                                  
  135 00126 0100  C0126,  0100                / AND   C0100                           
  136             C0127,
  137 00127 0203  C0127,  0203                / AND   D0003                           
  138 00130 1000  C0130,  1000                / TAD   S0000                           
  139             C0131,
  140 00131 2600  C0131,  2600                / ISZ I S0000                           
  141 00132 0017  C0132,  0017                / AND   AI7                             
  142 00133 6001  C0133,  6001                / ION                                   
  143 00134 5535  C0134,  5535                / JMP I C0135                           
  144 00135 2511      ISZ I C0111             /                                       @@0135=2511
  145 00136 0000  D0136,  0000                / AND   S0000                           
  146 00137 0000  C0137,  0000                / AND   S0000                           
  147 00140 0003  C0140,  0003                / AND   D0003                           
  148             C0141,
  149 00141 0001  C0141,  0001                / AND   L0001                           
  150 00142 1100  C0142,  1100                / TAD   C0100                           
  151 00143 7745  D0143,  7745                / CLA MQA SCA MUY +                     
  152 00144 3577  C0144,  3577                / DCA I C0177                           
  153 00145 7745  C0145,  7745                / CLA MQA SCA MUY +                     
  154             C0146,
  155 00146 3633  C0146,  3633                / DCA I D0033                           
  156 00147 1556  C0147,  1556                / TAD I C0156                           
  157             C0150,
  158 00150 1555  C0150,  1555                / TAD I C0155                           
  159 00151 6046  C0151,  6046                / TLS                                   
  160             C0152,
  161 00152 3643  C0152,  3643                / DCA I C0043                           
  162 00153 5531  C0153,  5531                / JMP I C0131                           
  163 00154 0000      AND   S0000             /                                       @@0154=0000
  164             C0155,
  165 00155 2047  C0155,  2047                / ISZ   C0047                           
  166 00156 6211  C0156,  6211                / SDF 1                                  
  167 00157 2525  C0157,  2525                / ISZ I C0125                           
  168             
  169       0200  *0200
  170 00200 7604      LAS                     /                                       @@0200=7604
  171 00201 7510      SPA                     /                                       @@0201=7510

      AUTOMATIC DISASSEMBLY OF MAINDEC-08-DHMCA-A-PB.bin BY D8TAPE        Page 4


  172 00202 5552      JMP I C0152             / long jump to L3643                    @@0202=5552
  173             L0203,
  174 00203 7300      CLA CLL                 / AC = 0000                             @@0203=7300
  175 00204 6007  C0204,  6007                / 6007                                  
  176 00205 6264      CUF                     / (KT8/I) Clears the user flag.  Clear  @@0205=6264
  177 00206 1037      TAD   C0037             /                                       @@0206=1037
  178 00207 3001      DCA   L0001             /                                       @@0207=3001
  179 00210 6001      ION                     / Enable Interrupts                     @@0210=6001
  180             L0211,
  181                 SDF 0                   / Change to data field 0. The data fie  @@0211=6201
  181 00211 6201         0^10+CDF 
  182 00212 6214      RDF                     / Read data field into AC6-8.  Bit 0-5  @@0212=6214
  183 00213 7450      SNA                     /                                       @@0213=7450
  184 00214 5220      JMP   L0220             /                                       @@0214=5220
  185 00215 7402      HLT                     /                                       @@0215=7402
  186 00216 7200      CLA                     /                                       @@0216=7200
  187 00217 5211      JMP   L0211             /                                       @@0217=5211
  188             L0220,
  189 00220 1050      TAD   C0050             /                                       @@0220=1050
  190                 SDF 7                   / Change to data field 7. The data fie  @@0221=6271
  190 00221 6271         7^10+CDF 
  191 00222 6214      RDF                     / Read data field into AC6-8.  Bit 0-5  @@0222=6214
  192 00223 7040      CMA                     /                                       @@0223=7040
  193 00224 7450      SNA                     /                                       @@0224=7450
  194 00225 5231      JMP   L0231             /                                       @@0225=5231
  195 00226 7402      HLT                     /                                       @@0226=7402
  196 00227 7200      CLA                     /                                       @@0227=7200
  197 00230 5220      JMP   L0220             /                                       @@0230=5220
  198             L0231,
  199 00231 2027      ISZ   D0027             /                                       @@0231=2027
  200 00232 5211      JMP   L0211             /                                       @@0232=5211
  201 00233 7200      CLA                     /                                       @@0233=7200
  202 00234 3027      DCA   D0027             /                                       @@0234=3027
  203             L0235,
  204 00235 1051      TAD   C0051             /                                       @@0235=1051
  205                 SDF 1                   / Change to data field 1. The data fie  @@0236=6211
  205 00236 6211         1^10+CDF 
  206 00237 6214      RDF                     / Read data field into AC6-8.  Bit 0-5  @@0237=6214
  207 00240 7040      CMA                     /                                       @@0240=7040
  208 00241 7450      SNA                     /                                       @@0241=7450
  209 00242 5246      JMP   L0246             /                                       @@0242=5246
  210 00243 7402      HLT                     /                                       @@0243=7402
  211 00244 7200      CLA                     /                                       @@0244=7200
  212 00245 5235      JMP   L0235             /                                       @@0245=5235
  213             L0246,
  214 00246 1052      TAD   C0052             /                                       @@0246=1052
  215                 SDF 2                   / Change to data field 2. The data fie  @@0247=6221
  215 00247 6221         2^10+CDF 
  216 00250 6214      RDF                     / Read data field into AC6-8.  Bit 0-5  @@0250=6214
  217 00251 7040      CMA                     /                                       @@0251=7040
  218 00252 7450      SNA                     /                                       @@0252=7450
  219 00253 5257      JMP   L0257             /                                       @@0253=5257
  220 00254 7402      HLT                     /                                       @@0254=7402
  221 00255 7200      CLA                     /                                       @@0255=7200
  222 00256 5246      JMP   L0246             /                                       @@0256=5246
  223             L0257,
  224 00257 2027      ISZ   D0027             /                                       @@0257=2027

      AUTOMATIC DISASSEMBLY OF MAINDEC-08-DHMCA-A-PB.bin BY D8TAPE        Page 5


  225 00260 5235      JMP   L0235             /                                       @@0260=5235
  226 00261 7200      CLA                     /                                       @@0261=7200
  227 00262 3027      DCA   D0027             /                                       @@0262=3027
  228             L0263,
  229 00263 1053      TAD   C0053             /                                       @@0263=1053
  230                 SDF 3                   / Change to data field 3. The data fie  @@0264=6231
  230 00264 6231         3^10+CDF 
  231 00265 6214      RDF                     / Read data field into AC6-8.  Bit 0-5  @@0265=6214
  232 00266 7040      CMA                     /                                       @@0266=7040
  233 00267 7450      SNA                     /                                       @@0267=7450
  234 00270 5274      JMP   L0274             /                                       @@0270=5274
  235 00271 7402      HLT                     /                                       @@0271=7402
  236 00272 7200      CLA                     /                                       @@0272=7200
  237 00273 5263      JMP   L0263             /                                       @@0273=5263
  238             L0274,
  239 00274 1054      TAD   C0054             /                                       @@0274=1054
  240                 SDF 4                   / Change to data field 4. The data fie  @@0275=6241
  240 00275 6241         4^10+CDF 
  241 00276 6214      RDF                     / Read data field into AC6-8.  Bit 0-5  @@0276=6214
  242 00277 7040      CMA                     /                                       @@0277=7040
  243 00300 7450      SNA                     /                                       @@0300=7450
  244 00301 5305      JMP   L0305             /                                       @@0301=5305
  245 00302 7402      HLT                     /                                       @@0302=7402
  246 00303 7200      CLA                     /                                       @@0303=7200
  247 00304 5274      JMP   L0274             /                                       @@0304=5274
  248             L0305,
  249 00305 2027      ISZ   D0027             /                                       @@0305=2027
  250 00306 5263      JMP   L0263             /                                       @@0306=5263
  251 00307 7200      CLA                     /                                       @@0307=7200
  252 00310 3027      DCA   D0027             /                                       @@0310=3027
  253             L0311,
  254 00311 1055      TAD   C0055             /                                       @@0311=1055
  255                 SDF 5                    / Change to data field 5. The data fie  @@0312=6251
  255 00312 6251         5^10+CDF 
  256 00313 6214      RDF                     / Read data field into AC6-8.  Bit 0-5  @@0313=6214
  257 00314 7040      CMA                     /                                       @@0314=7040
  258 00315 7450      SNA                     /                                       @@0315=7450
  259 00316 5322      JMP   L0322             /                                       @@0316=5322
  260 00317 7402      HLT                     /                                       @@0317=7402
  261 00320 7200      CLA                     /                                       @@0320=7200
  262 00321 5311      JMP   L0311             /                                       @@0321=5311
  263             L0322,
  264 00322 1056      TAD   C0056             /                                       @@0322=1056
  265                 SDF 6                   / Change to data field 6. The data fie  @@0323=6261
  265 00323 6261         6^10+CDF 
  266 00324 6214      RDF                     / Read data field into AC6-8.  Bit 0-5  @@0324=6214
  267 00325 7040      CMA                     /                                       @@0325=7040
  268 00326 7450      SNA                     /                                       @@0326=7450
  269 00327 5333      JMP   L0333             /                                       @@0327=5333
  270 00330 7402      HLT                     /                                       @@0330=7402
  271 00331 7200      CLA                     /                                       @@0331=7200
  272 00332 5322      JMP   L0322             /                                       @@0332=5322
  273             L0333,
  274 00333 2027      ISZ   D0027             /                                       @@0333=2027
  275 00334 5311      JMP   L0311             /                                       @@0334=5311
  276 00335 6000  C0335,  6000                / 6000                                  
  277 00336 7402      HLT                     /                                       @@0336=7402

      AUTOMATIC DISASSEMBLY OF MAINDEC-08-DHMCA-A-PB.bin BY D8TAPE        Page 6


  278                 SDF 0                   / Change to data field 0. The data fie  @@0337=6201
  278 00337 6201         0^10+CDF 
  279 00340 1020      TAD   D0020             /                                       @@0340=1020
  280 00341 3001      DCA   L0001             /                                       @@0341=3001
  281 00342 3027      DCA   D0027             /                                       @@0342=3027
  282 00343 6041      TSF                     / Skip if teleprinter flag is a 1.      @@0343=6041
  283 00344 4422      JMS I C0022             / long call to S2443                    @@0344=4422
  284             L0345,
  285 00345 6001      ION                     / Enable Interrupts                     @@0345=6001
  286 00346 7200      CLA                     /                                       @@0346=7200
  287 00347 6234      RIB                     / Read interrupt buffer.  The instruct  @@0347=6234
  288 00350 7450      SNA                     /                                       @@0350=7450
  289 00351 5354      JMP   L0354             /                                       @@0351=5354
  290 00352 7402      HLT                     /                                       @@0352=7402
  291 00353 5345      JMP   L0345             /                                       @@0353=5345
  292             L0354,
  293                 SDF 1                   / Change to data field 1. The data fie  @@0354=6211
  293 00354 6211         1^10+CDF 
  294 00355 6001      ION                     / Enable Interrupts                     @@0355=6001
  295 00356 7200      CLA                     /                                       @@0356=7200
  296 00357 6214      RDF                     / Read data field into AC6-8.  Bit 0-5  @@0357=6214
  297 00360 7450      SNA                     /                                       @@0360=7450
  298 00361 5364      JMP   L0364             /                                       @@0361=5364
  299 00362 7402      HLT                     /                                       @@0362=7402
  300 00363 5354      JMP   L0354             /                                       @@0363=5354
  301             L0364,
  302 00364 1057      TAD   C0057             /                                       @@0364=1057
  303 00365 6234      RIB                     / Read interrupt buffer.  The instruct  @@0365=6234
  304 00366 7040      CMA                     /                                       @@0366=7040
  305 00367 7450      SNA                     /                                       @@0367=7450
  306 00370 5373      JMP   L0373             /                                       @@0370=5373
  307 00371 7402      HLT                     /                                       @@0371=7402
  308 00372 5354      JMP   L0354             /                                       @@0372=5354
  309             L0373,
  310 00373 2027      ISZ   D0027             /                                       @@0373=2027
  311 00374 5345      JMP   L0345             /                                       @@0374=5345
  312 00375 5776      JMP I C0376             / long jump to L0400                    @@0375=5776
  313             C0376,
  314 00376 0400  C0376,  0400                / AND I S0000                           
  315             
  316       0400  *0400
  317             L0400,
  318 00400 7200  C0400,  7200                / CLA                                   
  319 00401 3027      DCA   D0027             /                                       @@0401=3027
  320             L0402,
  321                 SDF 2                   / Change to data field 2. The data fie  @@0402=6221
  321 00402 6221         2^10+CDF 
  322 00403 6001      ION                     / Enable Interrupts                     @@0403=6001
  323 00404 7200      CLA                     /                                       @@0404=7200
  324 00405 6214      RDF                     / Read data field into AC6-8.  Bit 0-5  @@0405=6214
  325 00406 7450      SNA                     /                                       @@0406=7450
  326 00407 5212      JMP   L0412             /                                       @@0407=5212
  327 00410 7402      HLT                     /                                       @@0410=7402
  328 00411 5202      JMP   L0402             /                                       @@0411=5202
  329             L0412,
  330 00412 1060      TAD   C0060             /                                       @@0412=1060
  331 00413 6234      RIB                     / Read interrupt buffer.  The instruct  @@0413=6234

      AUTOMATIC DISASSEMBLY OF MAINDEC-08-DHMCA-A-PB.bin BY D8TAPE        Page 7


  332 00414 7040      CMA                     /                                       @@0414=7040
  333 00415 7450      SNA                     /                                       @@0415=7450
  334 00416 5221      JMP   L0421             /                                       @@0416=5221
  335 00417 7402      HLT                     /                                       @@0417=7402
  336 00420 5202      JMP   L0402             /                                       @@0420=5202
  337             L0421,
  338                 SDF 3                   / Change to data field 3. The data fie  @@0421=6231
  338 00421 6231         3^10+CDF 
  339 00422 6001      ION                     / Enable Interrupts                     @@0422=6001
  340 00423 7200      CLA                     /                                       @@0423=7200
  341 00424 6214      RDF                     / Read data field into AC6-8.  Bit 0-5  @@0424=6214
  342 00425 7450      SNA                     /                                       @@0425=7450
  343 00426 5231      JMP   L0431             /                                       @@0426=5231
  344 00427 7402      HLT                     /                                       @@0427=7402
  345 00430 5221      JMP   L0421             /                                       @@0430=5221
  346             L0431,
  347 00431 1061      TAD   C0061             /                                       @@0431=1061
  348 00432 6234      RIB                     / Read interrupt buffer.  The instruct  @@0432=6234
  349 00433 7040      CMA                     /                                       @@0433=7040
  350 00434 7450      SNA                     /                                       @@0434=7450
  351 00435 5240      JMP   L0440             /                                       @@0435=5240
  352 00436 7402      HLT                     /                                       @@0436=7402
  353 00437 5221      JMP   L0421             /                                       @@0437=5221
  354             L0440,
  355 00440 2027      ISZ   D0027             /                                       @@0440=2027
  356 00441 5202      JMP   L0402             /                                       @@0441=5202
  357 00442 7200      CLA                     /                                       @@0442=7200
  358 00443 3027      DCA   D0027             /                                       @@0443=3027
  359             L0444,
  360                 SDF 4                   / Change to data field 4. The data fie  @@0444=6241
  360 00444 6241         4^10+CDF 
  361 00445 6001      ION                     / Enable Interrupts                     @@0445=6001
  362 00446 7200      CLA                     /                                       @@0446=7200
  363 00447 6214      RDF                     / Read data field into AC6-8.  Bit 0-5  @@0447=6214
  364 00450 7450      SNA                     /                                       @@0450=7450
  365 00451 5254      JMP   L0454             /                                       @@0451=5254
  366 00452 7402      HLT                     /                                       @@0452=7402
  367 00453 5244      JMP   L0444             /                                       @@0453=5244
  368             L0454,
  369 00454 1062      TAD   C0062             /                                       @@0454=1062
  370 00455 6234      RIB                     / Read interrupt buffer.  The instruct  @@0455=6234
  371 00456 7040      CMA                     /                                       @@0456=7040
  372 00457 7450      SNA                     /                                       @@0457=7450
  373 00460 5263      JMP   L0463             /                                       @@0460=5263
  374 00461 7402      HLT                     /                                       @@0461=7402
  375 00462 5244      JMP   L0444             /                                       @@0462=5244
  376             L0463,
  377                 SDF 5                   / Change to data field 5. The data fie  @@0463=6251
  377 00463 6251         5^10+CDF 
  378 00464 6001      ION                     / Enable Interrupts                     @@0464=6001
  379 00465 7200      CLA                     /                                       @@0465=7200
  380 00466 6214      RDF                     / Read data field into AC6-8.  Bit 0-5  @@0466=6214
  381 00467 7450      SNA                     /                                       @@0467=7450
  382 00470 5273      JMP   L0473             /                                       @@0470=5273
  383 00471 7402      HLT                     /                                       @@0471=7402
  384 00472 5263      JMP   L0463             /                                       @@0472=5263
  385             L0473,

      AUTOMATIC DISASSEMBLY OF MAINDEC-08-DHMCA-A-PB.bin BY D8TAPE        Page 8


  386 00473 1063      TAD   C0063             /                                       @@0473=1063
  387 00474 6234      RIB                     / Read interrupt buffer.  The instruct  @@0474=6234
  388 00475 7040      CMA                     /                                       @@0475=7040
  389 00476 7450      SNA                     /                                       @@0476=7450
  390 00477 5302      JMP   L0502             /                                       @@0477=5302
  391 00500 7402      HLT                     /                                       @@0500=7402
  392 00501 5263      JMP   L0463             /                                       @@0501=5263
  393             L0502,
  394 00502 2027      ISZ   D0027             /                                       @@0502=2027
  395 00503 5244      JMP   L0444             /                                       @@0503=5244
  396 00504 7200      CLA                     /                                       @@0504=7200
  397 00505 3027      DCA   D0027             /                                       @@0505=3027
  398             L0506,
  399                 SDF 6                   / Change to data field 6. The data fie  @@0506=6261
  399 00506 6261         6^10+CDF 
  400 00507 6001      ION                     / Enable Interrupts                     @@0507=6001
  401 00510 7200      CLA                     /                                       @@0510=7200
  402 00511 6214      RDF                     / Read data field into AC6-8.  Bit 0-5  @@0511=6214
  403 00512 7450      SNA                     /                                       @@0512=7450
  404 00513 5316      JMP   L0516             /                                       @@0513=5316
  405 00514 7402      HLT                     /                                       @@0514=7402
  406 00515 5306      JMP   L0506             /                                       @@0515=5306
  407             L0516,
  408 00516 1064      TAD   C0064             /                                       @@0516=1064
  409 00517 6234      RIB                     / Read interrupt buffer.  The instruct  @@0517=6234
  410 00520 7040      CMA                     /                                       @@0520=7040
  411 00521 7450      SNA                     /                                       @@0521=7450
  412 00522 5325      JMP   L0525             /                                       @@0522=5325
  413 00523 7402      HLT                     /                                       @@0523=7402
  414 00524 5306      JMP   L0506             /                                       @@0524=5306
  415             L0525,
  416                 SDF 7                   / Change to data field 7. The data fie  @@0525=6271
  416 00525 6271         7^10+CDF 
  417 00526 6001      ION                     / Enable Interrupts                     @@0526=6001
  418 00527 7200      CLA                     /                                       @@0527=7200
  419 00530 6214      RDF                     / Read data field into AC6-8.  Bit 0-5  @@0530=6214
  420 00531 7450      SNA                     /                                       @@0531=7450
  421 00532 5335      JMP   L0535             /                                       @@0532=5335
  422 00533 7402      HLT                     /                                       @@0533=7402
  423 00534 5325      JMP   L0525             /                                       @@0534=5325
  424             L0535,
  425 00535 1110      TAD   C0110             /                                       @@0535=1110
  426 00536 6234      RIB                     / Read interrupt buffer.  The instruct  @@0536=6234
  427 00537 7040      CMA                     /                                       @@0537=7040
  428 00540 7450      SNA                     /                                       @@0540=7450
  429 00541 5344      JMP   L0544             /                                       @@0541=5344
  430 00542 7402      HLT                     /                                       @@0542=7402
  431 00543 5325      JMP   L0525             /                                       @@0543=5325
  432             L0544,
  433 00544 2027      ISZ   D0027             /                                       @@0544=2027
  434 00545 5306      JMP   L0506             /                                       @@0545=5306
  435 00546 5747      JMP I C0547             / long jump to L0600                    @@0546=5747
  436             C0547,
  437 00547 0600  C0547,  0600                / AND I L0400                           
  438             
  439       0600  *0600
  440             L0600,

      AUTOMATIC DISASSEMBLY OF MAINDEC-08-DHMCA-A-PB.bin BY D8TAPE        Page 9


  441 00600 3027      DCA   D0027             /                                       @@0600=3027
  442             L0601,
  443 00601 4423      JMS I C0023             / long call to S2435                    @@0601=4423
  444 00602 7001      IAC                     /                                       @@0602=7001
  445 00603 3030      DCA   D0030             /                                       @@0603=3030
  446 00604 1040      TAD   C0040             /                                       @@0604=1040
  447 00605 1045      TAD   C0045             /                                       @@0605=1045
  448 00606 3207      DCA   L0607             /                                       @@0606=3207
  449             L0607,
  450 00607 6201  D0607,  6201                / SDF0                                  
  451 00610 1030      TAD   D0030             /                                       @@0610=1030
  452 00611 3447      DCA I C0047             /                                       @@0611=3447
  453 00612 2031      ISZ   D0031             /                                       @@0612=2031
  454 00613 7410      SKP                     /                                       @@0613=7410
  455 00614 5222      JMP   L0622             /                                       @@0614=5222
  456 00615 1045      TAD   C0045             /                                       @@0615=1045
  457 00616 1207      TAD   L0607             /                                       @@0616=1207
  458 00617 3207      DCA   L0607             /                                       @@0617=3207
  459 00620 2030      ISZ   D0030             /                                       @@0620=2030
  460 00621 5207      JMP   L0607             /                                       @@0621=5207
  461             L0622,
  462 00622 4423      JMS I C0023             / long call to S2435                    @@0622=4423
  463 00623 7001      IAC                     /                                       @@0623=7001
  464 00624 3030      DCA   D0030             /                                       @@0624=3030
  465 00625 1040      TAD   C0040             /                                       @@0625=1040
  466 00626 1045      TAD   C0045             /                                       @@0626=1045
  467 00627 3230      DCA   L0630             /                                       @@0627=3230
  468             L0630,
  469 00630 6201  D0630,  6201                / SDF0                                  
  470 00631 1447      TAD I C0047             /                                       @@0631=1447
  471 00632 3032      DCA   D0032             /                                       @@0632=3032
  472 00633 1032      TAD   D0032             /                                       @@0633=1032
  473 00634 7041      CIA                     /                                       @@0634=7041
  474 00635 1030      TAD   D0030             /                                       @@0635=1030
  475 00636 7640      SZA CLA                 /                                       @@0636=7640
  476 00637 5252      JMP   L0652             /                                       @@0637=5252
  477 00640 2031      ISZ   D0031             /                                       @@0640=2031
  478 00641 5245      JMP   L0645             /                                       @@0641=5245
  479 00642 2027      ISZ   D0027             /                                       @@0642=2027
  480 00643 5201      JMP   L0601             /                                       @@0643=5201
  481 00644 5256      JMP   L0656             /                                       @@0644=5256
  482             L0645,
  483 00645 1045      TAD   C0045             /                                       @@0645=1045
  484 00646 1230      TAD   L0630             /                                       @@0646=1230
  485 00647 3230      DCA   L0630             /                                       @@0647=3230
  486 00650 2030      ISZ   D0030             /                                       @@0650=2030
  487 00651 5230      JMP   L0630             /                                       @@0651=5230
  488             L0652,
  489 00652 1032      TAD   D0032             /                                       @@0652=1032
  490 00653 7402      HLT                     /                                       @@0653=7402
  491 00654 7200      CLA                     /                                       @@0654=7200
  492 00655 5230      JMP   L0630             /                                       @@0655=5230
  493             L0656,
  494                 SDF 0                   / Change to data field 0. The data fie  @@0656=6201
  494 00656 6201         0^10+CDF 
  495 00657 1021      TAD   C0021             /                                       @@0657=1021
  496 00660 3001      DCA   L0001             /                                       @@0660=3001

      AUTOMATIC DISASSEMBLY OF MAINDEC-08-DHMCA-A-PB.bin BY D8TAPE       Page 10


  497 00661 1352      TAD   C0752             /                                       @@0661=1352
  498 00662 3002      DCA   L0002             /                                       @@0662=3002
  499 00663 1020      TAD   D0020             /                                       @@0663=1020
  500 00664 3003      DCA   D0003             /                                       @@0664=3003
  501 00665 4423      JMS I C0023             / long call to S2435                    @@0665=4423
  502 00666 1040      TAD   C0040             /                                       @@0666=1040
  503             L0667,
  504 00667 1045      TAD   C0045             /                                       @@0667=1045
  505 00670 3271      DCA   D0671             /                                       @@0670=3271
  506 00671 6211  D0671,  6211                / SDF 1                                  
  507 00672 1037      TAD   C0037             /                                       @@0672=1037
  508 00673 3443      DCA I C0043             /                                       @@0673=3443
  509 00674 1037      TAD   C0037             /                                       @@0674=1037
  510 00675 3754      DCA I C0754             /                                       @@0675=3754
  511 00676 1037      TAD   C0037             /                                       @@0676=1037
  512 00677 3755      DCA I C0755             /                                       @@0677=3755
  513 00700 2031      ISZ   D0031             /                                       @@0700=2031
  514 00701 7410      SKP                     /                                       @@0701=7410
  515 00702 5305      JMP   L0705             /                                       @@0702=5305
  516 00703 1271      TAD   D0671             /                                       @@0703=1271
  517 00704 5267      JMP   L0667             /                                       @@0704=5267
  518             L0705,
  519                 SDF 0                   / Change to data field 0. The data fie  @@0705=6201
  519 00705 6201         0^10+CDF 
  520 00706 6041      TSF                     / Skip if teleprinter flag is a 1.      @@0706=6041
  521 00707 4422      JMS I C0022             / long call to S2443                    @@0707=4422
  522 00710 3027      DCA   D0027             /                                       @@0710=3027
  523             L0711,
  524 00711 1041      TAD   C0041             /                                       @@0711=1041
  525 00712 3323      DCA   L0723             /                                       @@0712=3323
  526 00713 3353      DCA   D0753             /                                       @@0713=3353
  527 00714 4423      JMS I C0023             / long call to S2435                    @@0714=4423
  528             L0715,
  529 00715 1323      TAD   L0723             /                                       @@0715=1323
  530 00716 1045      TAD   C0045             /                                       @@0716=1045
  531 00717 3323      DCA   L0723             /                                       @@0717=3323
  532 00720 1353      TAD   D0753             /                                       @@0720=1353
  533 00721 1045      TAD   C0045             /                                       @@0721=1045
  534 00722 3353      DCA   D0753             /                                       @@0722=3353
  535             L0723,
  536 00723 6202  D0723,  6202                / SIF0                                  
  537 00724 6001  D0724,  6001                / ION                                   
  538 00725 7000      NOP                     /                                       @@0725=7000
  539 00726 5327      JMP   L0727             /                                       @@0726=5327
  540             L0727,
  541 00727 7402      HLT                     /                                       @@0727=7402
  542 00730 6234      RIB                     / Read interrupt buffer.  The instruct  @@0730=6234
  543 00731 7041      CIA                     /                                       @@0731=7041
  544 00732 1353      TAD   D0753             /                                       @@0732=1353
  545 00733 7650      SNA CLA                 /                                       @@0733=7650
  546 00734 5344      JMP   L0744             /                                       @@0734=5344
  547 00735 1353      TAD   D0753             /                                       @@0735=1353
  548 00736 7421      MQL                     /                                       @@0736=7421
  549 00737 7300      CLA CLL                 / AC = 0000                             @@0737=7300
  550 00740 6234      RIB                     / Read interrupt buffer.  The instruct  @@0740=6234
  551 00741 7402      HLT                     /                                       @@0741=7402
  552 00742 7200      CLA                     /                                       @@0742=7200

      AUTOMATIC DISASSEMBLY OF MAINDEC-08-DHMCA-A-PB.bin BY D8TAPE       Page 11


  553 00743 5323      JMP   L0723             /                                       @@0743=5323
  554             L0744,
  555 00744 2031      ISZ   D0031             /                                       @@0744=2031
  556 00745 5315      JMP   L0715             /                                       @@0745=5315
  557 00746 2027      ISZ   D0027             /                                       @@0746=2027
  558 00747 5311      JMP   L0711             /                                       @@0747=5311
  559 00750 5751      JMP I C0751             / long jump to L1000                    @@0750=5751
  560             C0751,
  561 00751 1000  C0751,  1000                / TAD   S0000                           
  562 00752 7000  C0752,  7000                / NOP                                   
  563 00753 0000  D0753,  0000                / AND   S0000                           
  564 00754 0724  C0754,  0724                / AND I D0724                           
  565 00755 1020  C0755,  1020                / TAD   D0020                           
  566             
  567       1000  *1000
  568             L1000,
  569 01000 7200      CLA                     /                                       @@1000=7200
  570                 SDF 0                   / Change to data field 0. The data fie  @@1001=6201
  570 01001 6201         0^10+CDF 
  571 01002 6041      TSF                     / Skip if teleprinter flag is a 1.      @@1002=6041
  572 01003 4422      JMS I C0022             / long call to S2443                    @@1003=4422
  573 01004 3027      DCA   D0027             /                                       @@1004=3027
  574             L1005,
  575 01005 1041      TAD   C0041             /                                       @@1005=1041
  576 01006 3217      DCA   L1017             /                                       @@1006=3217
  577 01007 3246      DCA   D1046             /                                       @@1007=3246
  578 01010 4423      JMS I C0023             / long call to S2435                    @@1010=4423
  579             L1011,
  580 01011 1217      TAD   L1017             /                                       @@1011=1217
  581 01012 1045      TAD   C0045             /                                       @@1012=1045
  582 01013 3217      DCA   L1017             /                                       @@1013=3217
  583 01014 1246      TAD   D1046             /                                       @@1014=1246
  584 01015 1045      TAD   C0045             /                                       @@1015=1045
  585 01016 3246      DCA   D1046             /                                       @@1016=3246
  586             L1017,
  587 01017 6202  D1017,  6202                / SIF0                                  
  588 01020 6001  D1020,  6001                / ION                                   
  589 01021 7000      NOP                     /                                       @@1021=7000
  590 01022 4223      JMS   L1023             /                                       @@1022=4223
  591             L1023,
  592 01023 0000      0000                    /                                       @@1023=0000
  593 01024 7402      HLT                     /                                       @@1024=7402
  594 01025 6234      RIB                     / Read interrupt buffer.  The instruct  @@1025=6234
  595 01026 7041      CIA                     /                                       @@1026=7041
  596 01027 1246      TAD   D1046             /                                       @@1027=1246
  597 01030 7650      SNA CLA                 /                                       @@1030=7650
  598 01031 5241      JMP   L1041             /                                       @@1031=5241
  599 01032 1246      TAD   D1046             /                                       @@1032=1246
  600 01033 7110      CLL RAR                 /                                       @@1033=7110
  601 01034 7012      RTR                     /                                       @@1034=7012
  602 01035 6234      RIB                     / Read interrupt buffer.  The instruct  @@1035=6234
  603 01036 7402      HLT                     /                                       @@1036=7402
  604 01037 7200      CLA                     /                                       @@1037=7200
  605 01040 5217      JMP   L1017             /                                       @@1040=5217
  606             L1041,
  607 01041 2031      ISZ   D0031             /                                       @@1041=2031
  608 01042 5211      JMP   L1011             /                                       @@1042=5211

      AUTOMATIC DISASSEMBLY OF MAINDEC-08-DHMCA-A-PB.bin BY D8TAPE       Page 12


  609 01043 2027      ISZ   D0027             /                                       @@1043=2027
  610 01044 5205      JMP   L1005             /                                       @@1044=5205
  611 01045 5647      JMP I C1047             / long jump to L2271                    @@1045=5647
  612 01046 0000  D1046,  0000                / AND   S0000                           
  613             C1047,
  614 01047 2271  C1047,  2271                / ISZ   D1071                           
  615             L1050,
  616 01050 4423      JMS I C0023             / long call to S2435                    @@1050=4423
  617 01051 1040      TAD   C0040             /                                       @@1051=1040
  618 01052 3260      DCA   D1060             /                                       @@1052=3260
  619             L1053,
  620 01053 1260      TAD   D1060             /                                       @@1053=1260
  621 01054 1045      TAD   C0045             /                                       @@1054=1045
  622 01055 3260      DCA   D1060             /                                       @@1055=3260
  623 01056 7040      CMA                     /                                       @@1056=7040
  624 01057 3010  C1057,  3010                / DCA   AI0                             
  625 01060 6201  D1060,  6201                / SDF0                                  
  626             L1061,
  627 01061 3410  C1061,  3410                / DCA I AI0                             
  628 01062 1010  C1062,  1010                / TAD   AI0                             
  629 01063 7040      CMA                     /                                       @@1063=7040
  630 01064 7640      SZA CLA                 /                                       @@1064=7640
  631 01065 5261      JMP   L1061             /                                       @@1065=5261
  632 01066 2031      ISZ   D0031             /                                       @@1066=2031
  633 01067 5253      JMP   L1053             /                                       @@1067=5253
  634 01070 4423      JMS I C0023             / long call to S2435                    @@1070=4423
  635 01071 1040  D1071,  1040                / TAD   C0040                           
  636             L1072,
  637 01072 1045      TAD   C0045             /                                       @@1072=1045
  638 01073 3274      DCA   D1074             /                                       @@1073=3274
  639 01074 6201  D1074,  6201                / SDF0                                  
  640 01075 1036      TAD   C0036             /                                       @@1075=1036
  641 01076 3027      DCA   D0027             /                                       @@1076=3027
  642 01077 1037      TAD   C0037             /                                       @@1077=1037
  643 01100 3427      DCA I D0027             /                                       @@1100=3427
  644 01101 2031      ISZ   D0031             /                                       @@1101=2031
  645 01102 7410      SKP                     /                                       @@1102=7410
  646 01103 5306      JMP   L1106             /                                       @@1103=5306
  647 01104 1274      TAD   D1074             /                                       @@1104=1274
  648 01105 5272      JMP   L1072             /                                       @@1105=5272
  649             L1106,
  650                 SDF 0                   / Change to data field 0. The data fie  @@1106=6201
  650 01106 6201         0^10+CDF 
  651 01107 6041      TSF                     / Skip if teleprinter flag is a 1.      @@1107=6041
  652 01110 4422      JMS I C0022             / long call to S2443                    @@1110=4422
  653 01111 1050      TAD   C0050             /                                       @@1111=1050
  654 01112 3027      DCA   D0027             /                                       @@1112=3027
  655             L1113,
  656 01113 1065      TAD   C0065             /                                       @@1113=1065
  657 01114 3066      DCA   D0066             /                                       @@1114=3066
  658 01115 4423      JMS I C0023             / long call to S2435                    @@1115=4423
  659 01116 1040      TAD   C0040             /                                       @@1116=1040
  660 01117 1045      TAD   C0045             /                                       @@1117=1045
  661 01120 3327      DCA   L1127             /                                       @@1120=3327
  662 01121 1041      TAD   C0041             /                                       @@1121=1041
  663 01122 1045      TAD   C0045             /                                       @@1122=1045
  664 01123 3330      DCA   D1130             /                                       @@1123=3330

      AUTOMATIC DISASSEMBLY OF MAINDEC-08-DHMCA-A-PB.bin BY D8TAPE       Page 13


  665 01124 1330      TAD   D1130             /                                       @@1124=1330
  666 01125 3442      DCA I C0042             /                                       @@1125=3442
  667 01126 4425      JMS I C0025             / long call to S1321                    @@1126=4425
  668             L1127,
  669 01127 6211  D1127,  6211                / SDF 1                                  
  670 01130 6212  D1130,  6212                / SIF 1                                 
  671 01131 5332      JMP   L1132             /                                       @@1131=5332
  672             L1132,
  673 01132 7000  D1132,  7000                / NOP                                   
  674 01133 7402  D1133,  7402                / HLT                                   
  675 01134 5327      JMP   L1127             /                                       @@1134=5327
  676             
  677       1200  *1200
  678 01200 6214      RDF                     / Read data field into AC6-8.  Bit 0-5  @@1200=6214
  679 01201 7450      SNA                     /                                       @@1201=7450
  680 01202 5206      JMP   L1206             /                                       @@1202=5206
  681 01203 7402      HLT                     /                                       @@1203=7402
  682 01204 7200      CLA                     /                                       @@1204=7200
  683 01205 5476      JMP I C0076             / long jump to L1127                    @@1205=5476
  684             L1206,
  685                 SIF 1                   / Prepare to change to instruction fie  @@1206=6212
  685 01206 6212         1^10+CIF 
  686 01207 6244      RMF                     / Restore memory field.  Used to exit   @@1207=6244
  687 01210 6234      RIB                     / Read interrupt buffer.  The instruct  @@1210=6234
  688                 SIF 0                   / Prepare to change to instruction fie  @@1211=6202
  688 01211 6202         0^10+CIF 
  689                 SDF 0                   / Change to data field 0. The data fie  @@1212=6201
  689 01212 6201         0^10+CDF 
  690 01213 1466      TAD I D0066             /                                       @@1213=1466
  691 01214 7040      CMA                     /                                       @@1214=7040
  692 01215 7650      SNA CLA                 /                                       @@1215=7650
  693 01216 5226      JMP   L1226             /                                       @@1216=5226
  694 01217 6244      RMF                     / Restore memory field.  Used to exit   @@1217=6244
  695 01220 6234      RIB                     / Read interrupt buffer.  The instruct  @@1220=6234
  696 01221 7402      HLT                     /                                       @@1221=7402
  697 01222 7200      CLA                     /                                       @@1222=7200
  698                 SDF 0                   / Change to data field 0. The data fie  @@1223=6201
  698 01223 6201         0^10+CDF 
  699                 SIF 0                   / Prepare to change to instruction fie  @@1224=6202
  699 01224 6202         0^10+CIF 
  700 01225 5476      JMP I C0076             / long jump to L1127                    @@1225=5476
  701             L1226,
  702 01226 1036      TAD   C0036             /                                       @@1226=1036
  703 01227 7001      IAC                     /                                       @@1227=7001
  704 01230 7041      CIA                     /                                       @@1230=7041
  705 01231 1000      TAD   S0000             /                                       @@1231=1000
  706 01232 7650      SNA CLA                 /                                       @@1232=7650
  707 01233 5240      JMP   L1240             /                                       @@1233=5240
  708 01234 1000      TAD   S0000             /                                       @@1234=1000
  709 01235 7402      HLT                     /                                       @@1235=7402
  710 01236 7200      CLA                     /                                       @@1236=7200
  711 01237 5476      JMP I C0076             / long jump to L1127                    @@1237=5476
  712             L1240,
  713 01240 2031      ISZ   D0031             /                                       @@1240=2031
  714 01241 5246      JMP   L1246             /                                       @@1241=5246
  715 01242 2027      ISZ   D0027             /                                       @@1242=2027
  716 01243 5645      JMP I C1245             / long jump to L1113                    @@1243=5645

      AUTOMATIC DISASSEMBLY OF MAINDEC-08-DHMCA-A-PB.bin BY D8TAPE       Page 14


  717 01244 5507      JMP I C0107             / long jump to L1400                    @@1244=5507
  718             C1245,
  719 01245 1113  C1245,  1113                / TAD   D0113                           
  720             L1246,
  721 01246 7240      STA                     / AC = 7777 (-0001)                     @@1246=7240
  722 01247 3010  C1247,  3010                / DCA   AI0                             
  723 01250 1476      TAD I C0076             /                                       @@1250=1476
  724 01251 3252      DCA   D1252             /                                       @@1251=3252
  725 01252 6211  D1252,  6211                / SDF 0                                  
  726             L1253,
  727 01253 3410  C1253,  3410                / DCA I AI0                             
  728 01254 1010  C1254,  1010                / TAD   AI0                             
  729 01255 7040      CMA                     /                                       @@1255=7040
  730 01256 7640      SZA CLA                 /                                       @@1256=7640
  731 01257 5253      JMP   L1253             /                                       @@1257=5253
  732                 SDF 0                   / Change to data field 0. The data fie  @@1260=6201
  732 01260 6201         0^10+CDF 
  733 01261 1476      TAD I C0076             /                                       @@1261=1476
  734 01262 3263      DCA   D1263             /                                       @@1262=3263
  735 01263 6211  D1263,  6211                / SDF0                                  
  736 01264 1037      TAD   C0037             /                                       @@1264=1037
  737 01265 3436      DCA I C0036             /                                       @@1265=3436
  738                 SDF 0                   / Change to data field 0. The data fie  @@1266=6201
  738 01266 6201         0^10+CDF 
  739 01267 1476      TAD I C0076             /                                       @@1267=1476
  740 01270 1045      TAD   C0045             /                                       @@1270=1045
  741 01271 3476      DCA I C0076             /                                       @@1271=3476
  742 01272 1477      TAD I C0077             /                                       @@1272=1477
  743 01273 1045      TAD   C0045             /                                       @@1273=1045
  744 01274 3477      DCA I C0077             /                                       @@1274=3477
  745 01275 1477      TAD I C0077             /                                       @@1275=1477
  746 01276 3316      DCA   D1316             /                                       @@1276=3316
  747 01277 2066      ISZ   D0066             /                                       @@1277=2066
  748 01300 4321      JMS   S1321             /                                       @@1300=4321
  749 01301 5476      JMP I C0076             / long jump to L1127                    @@1301=5476
  750 01302 0000      AND   S0000             /                                       @@1302=0000
  751 01303 1000      TAD   S0000             /                                       @@1303=1000
  752 01304 7450      SNA                     /                                       @@1304=7450
  753 01305 5010  C1305,  5010                / JMP   AI0                             
  754 01306 7402      HLT                     /                                       @@1306=7402
  755 01307 7200      CLA                     /                                       @@1307=7200
  756 01310 3000      DCA   S0000             /                                       @@1310=3000
  757 01311 5420      JMP I D0020             / long jump to L5400                    @@1311=5420
  758 01312 7402      HLT                     /                                       @@1312=7402
  759 01313 5005  C1313,  5005                / JMP   C0005                           
  760 01314 1133      TAD   C0133             /                                       @@1314=1133
  761 01315 1133      TAD   C0133             /                                       @@1315=1133
  762 01316 6212  D1316,  6212                / SIF 1                                  
  763 01317 6001      ION                     / Enable Interrupts                     @@1317=6001
  764 01320 5412  C1320,  5412                / JMP I AI2                             
  765             
  766             ////////////////////////////////////////////////////////////////////////////////
  767             /
  768             /   SUBROUTINE:  S1321
  769             /
  770             /   Called from:
  771             /   1126 1300 

      AUTOMATIC DISASSEMBLY OF MAINDEC-08-DHMCA-A-PB.bin BY D8TAPE       Page 15


  772             /   Total 0002 (2) calls
  773             ////////////////////////////////////////////////////////////////////////////////
  774             S1321,
  775 01321 0000      0                       / return area
  776 01322 1101      TAD   C0101             /                                       @@1322=1101
  777 01323 3001      DCA   L0001             /                                       @@1323=3001
  778 01324 1102      TAD   C0102             /                                       @@1324=1102
  779 01325 3002      DCA   L0002             /                                       @@1325=3002
  780 01326 1100      TAD   C0100             /                                       @@1326=1100
  781 01327 3010  C1327,  3010                / DCA   AI0                             
  782 01330 3011  C1330,  3011                / DCA   AI1                             
  783 01331 1067      TAD   C0067             /                                       @@1331=1067
  784 01332 3000      DCA   S0000             /                                       @@1332=3000
  785 01333 1476      TAD I C0076             /                                       @@1333=1476
  786 01334 3337      DCA   D1337             /                                       @@1334=3337
  787             L1335,
  788                 SDF 0                   / Change to data field 0. The data fie  @@1335=6201
  788 01335 6201         0^10+CDF 
  789 01336 1410  C1336,  1410                / TAD I AI0                             
  790 01337 6211  D1337,  6211                / SDF0                                  
  791 01340 3411  C1340,  3411                / DCA I AI1                             
  792 01341 2000      ISZ   S0000             /                                       @@1341=2000
  793 01342 5335      JMP   L1335             /                                       @@1342=5335
  794 01343 1337      TAD   D1337             /                                       @@1343=1337
  795 01344 3347      DCA   D1347             /                                       @@1344=3347
  796                 SDF 0                   / Change to data field 0. The data fie  @@1345=6201
  796 01345 6201         0^10+CDF 
  797 01346 1410  C1346,  1410                / TAD I AI0                             
  798 01347 6211  D1347,  6211                / SDF0                                  
  799 01350 3503      DCA I C0103             /                                       @@1350=3503
  800                 SDF 0                   / Change to data field 0. The data fie  @@1351=6201
  800 01351 6201         0^10+CDF 
  801 01352 1337      TAD   D1337             /                                       @@1352=1337
  802 01353 3355      DCA   D1355             /                                       @@1353=3355
  803 01354 1410  C1354,  1410                / TAD I AI0                             
  804 01355 6211  D1355,  6211                / SDF0                                  
  805 01356 3435      DCA I C0035             /                                       @@1356=3435
  806                 SDF 0                   / Change to data field 0. The data fie  @@1357=6201
  806 01357 6201         0^10+CDF 
  807 01360 1337      TAD   D1337             /                                       @@1360=1337
  808 01361 3363      DCA   D1363             /                                       @@1361=3363
  809 01362 1410  C1362,  1410                / TAD I AI0                             
  810 01363 6211  D1363,  6211                / SDF0                                  
  811 01364 3436      DCA I C0036             /                                       @@1364=3436
  812                 SDF 0                   / Change to data field 0. The data fie  @@1365=6201
  812 01365 6201         0^10+CDF 
  813 01366 1337      TAD   D1337             /                                       @@1366=1337
  814 01367 3371      DCA   D1371             /                                       @@1367=3371
  815 01370 1410  C1370,  1410                / TAD I AI0                             
  816 01371 6211  D1371,  6211                / SDF0                                  
  817 01372 3446      DCA I C0046             /                                       @@1372=3446
  818                 SDF 0                   / Change to data field 0. The data fie  @@1373=6201
  818 01373 6201         0^10+CDF 
  819 01374 5721      JMP I S1321             / return                                @@1374=5721
  820             
  821       1400  *1400
  822             L1400,

      AUTOMATIC DISASSEMBLY OF MAINDEC-08-DHMCA-A-PB.bin BY D8TAPE       Page 16


  823 01400 6041  C1400,  6041                / TSF                                   
  824 01401 4422      JMS I C0022             / long call to S2443                    @@1401=4422
  825 01402 1047      TAD   C0047             /                                       @@1402=1047
  826 01403 3027      DCA   D0027             /                                       @@1403=3027
  827                 SDF 1                   / Change to data field 1. The data fie  @@1404=6211
  827 01404 6211         1^10+CDF 
  828 01405 1037      TAD   C0037             /                                       @@1405=1037
  829 01406 3447      DCA I C0047             /                                       @@1406=3447
  830                 SDF 0                   / Change to data field 0. The data fie  @@1407=6201
  830 01407 6201         0^10+CDF 
  831 01410 1104      TAD   C0104             /                                       @@1410=1104
  832 01411 3447      DCA I C0047             /                                       @@1411=3447
  833 01412 1101      TAD   C0101             /                                       @@1412=1101
  834 01413 3001      DCA   L0001             /                                       @@1413=3001
  835 01414 1106      TAD   C0106             /                                       @@1414=1106
  836 01415 3002      DCA   L0002             /                                       @@1415=3002
  837             L1416,
  838 01416 6001      ION                     / Enable Interrupts                     @@1416=6001
  839 01417 7000      NOP                     /                                       @@1417=7000
  840 01420 7402      HLT                     /                                       @@1420=7402
  841 01421 5200      JMP   L1400             /                                       @@1421=5200
  842 01422 7200      CLA                     /                                       @@1422=7200
  843                 SDF 1                   / Change to data field 1. The data fie  @@1423=6211
  843 01423 6211         1^10+CDF 
  844                 SIF 1                   / Prepare to change to instruction fie  @@1424=6212
  844 01424 6212         1^10+CIF 
  845 01425 6244      RMF                     / Restore memory field.  Used to exit   @@1425=6244
  846 01426 5447      JMP I C0047             / long jump to L7000                    @@1426=5447
  847 01427 2027      ISZ   D0027             /                                       @@1427=2027
  848 01430 5216      JMP   L1416             /                                       @@1430=5216
  849 01431 5232      JMP   L1432             /                                       @@1431=5232
  850             L1432,
  851                 SDF 0                   / Change to data field 0. The data fie  @@1432=6201
  851 01432 6201         0^10+CDF 
  852 01433 1050      TAD   C0050             /                                       @@1433=1050
  853 01434 3027      DCA   D0027             /                                       @@1434=3027
  854             L1435,
  855 01435 4423      JMS I C0023             / long call to S2435                    @@1435=4423
  856 01436 1040      TAD   C0040             /                                       @@1436=1040
  857 01437 3246      DCA   D1446             /                                       @@1437=3246
  858             L1440,
  859 01440 1246      TAD   D1446             /                                       @@1440=1246
  860 01441 1045      TAD   C0045             /                                       @@1441=1045
  861 01442 3246      DCA   D1446             /                                       @@1442=3246
  862 01443 7040      CMA                     /                                       @@1443=7040
  863 01444 3010  C1444,  3010                / DCA   AI0                             
  864 01445 3000      DCA   S0000             /                                       @@1445=3000
  865 01446 6211  D1446,  6211                / SDF0                                  
  866             L1447,
  867 01447 3410  C1447,  3410                / DCA I AI0                             
  868 01450 2000      ISZ   S0000             /                                       @@1450=2000
  869 01451 5247      JMP   L1447             /                                       @@1451=5247
  870                 SDF 0                   / Change to data field 0. The data fie  @@1452=6201
  870 01452 6201         0^10+CDF 
  871 01453 1317      TAD   C1517             /                                       @@1453=1317
  872 01454 3010  C1454,  3010                / DCA   AI0                             
  873 01455 1071      TAD   C0071             /                                       @@1455=1071

      AUTOMATIC DISASSEMBLY OF MAINDEC-08-DHMCA-A-PB.bin BY D8TAPE       Page 17


  874 01456 3000      DCA   S0000             /                                       @@1456=3000
  875 01457 1317      TAD   C1517             /                                       @@1457=1317
  876 01460 3011  C1460,  3011                / DCA   AI1                             
  877 01461 1246      TAD   D1446             /                                       @@1461=1246
  878 01462 3265      DCA   D1465             /                                       @@1462=3265
  879             L1463,
  880                 SDF 0                   / Change to data field 0. The data fie  @@1463=6201
  880 01463 6201         0^10+CDF 
  881 01464 1410  C1464,  1410                / TAD I AI0                             
  882 01465 6211  D1465,  6211                / SDF0                                  
  883 01466 3411  C1466,  3411                / DCA I AI1                             
  884 01467 2000      ISZ   S0000             /                                       @@1467=2000
  885 01470 5263      JMP   L1463             /                                       @@1470=5263
  886 01471 1110      TAD   C0110             /                                       @@1471=1110
  887 01472 3000      DCA   S0000             /                                       @@1472=3000
  888 01473 1044      TAD   C0044             /                                       @@1473=1044
  889 01474 3010  C1474,  3010                / DCA   AI0                             
  890             L1475,
  891 01475 7040      CMA                     /                                       @@1475=7040
  892 01476 3410  C1476,  3410                / DCA I AI0                             
  893 01477 2000      ISZ   S0000             /                                       @@1477=2000
  894 01500 5275      JMP   L1475             /                                       @@1500=5275
  895 01501 7040      CMA                     /                                       @@1501=7040
  896 01502 3446      DCA I C0046             /                                       @@1502=3446
  897 01503 6214      RDF                     / Read data field into AC6-8.  Bit 0-5  @@1503=6214
  898 01504 1041      TAD   C0041             /                                       @@1504=1041
  899 01505 3306      DCA   D1506             /                                       @@1505=3306
  900 01506 6212  D1506,  6212                / SIF 1                                  
  901 01507 4716  C1507,  4716                / JMS I C1516                           
  902             L1510,
  903 01510 2031      ISZ   D0031             /                                       @@1510=2031
  904 01511 5240      JMP   L1440             /                                       @@1511=5240
  905 01512 2027      ISZ   D0027             /                                       @@1512=2027
  906 01513 5235      JMP   L1435             /                                       @@1513=5235
  907 01514 5715      JMP I C1515             / long jump to L1600                    @@1514=5715
  908             C1515,
  909 01515 1600  C1515,  1600                / TAD I L1400                           
  910 01516 1002      TAD   L0002             /                                       @@1516=1002
  911 01517 1517  C1517,  1517                / TAD I C0117                           
  912 01520 7200      CLA                     /                                       @@1520=7200
  913 01521 1410  C1521,  1410                / TAD I AI0                             
  914 01522 7440      SZA                     /                                       @@1522=7440
  915 01523 7402      HLT                     /                                       @@1523=7402
  916 01524 1411  C1524,  1411                / TAD I AI1                             
  917 01525 7440      SZA                     /                                       @@1525=7440
  918 01526 7402      HLT                     /                                       @@1526=7402
  919 01527 1412  C1527,  1412                / TAD I AI2                             
  920 01530 7440      SZA                     /                                       @@1530=7440
  921 01531 7402      HLT                     /                                       @@1531=7402
  922 01532 1413  C1532,  1413                / TAD I AI3                             
  923 01533 7440      SZA                     /                                       @@1533=7440
  924 01534 7402      HLT                     /                                       @@1534=7402
  925 01535 1414  C1535,  1414                / TAD I AI4                             
  926 01536 7440      SZA                     /                                       @@1536=7440
  927 01537 7402      HLT                     /                                       @@1537=7402
  928 01540 1415  C1540,  1415                / TAD I AI5                             
  929 01541 7440      SZA                     /                                       @@1541=7440

      AUTOMATIC DISASSEMBLY OF MAINDEC-08-DHMCA-A-PB.bin BY D8TAPE       Page 18


  930 01542 7402      HLT                     /                                       @@1542=7402
  931 01543 1416  C1543,  1416                / TAD I AI6                             
  932 01544 7440      SZA                     /                                       @@1544=7440
  933 01545 7402      HLT                     /                                       @@1545=7402
  934 01546 1417  C1546,  1417                / TAD I AI7                             
  935 01547 7440      SZA                     /                                       @@1547=7440
  936 01550 7402      HLT                     /                                       @@1550=7402
  937                 SDF 0                   / Change to data field 0. The data fie  @@1551=6201
  937 01551 6201         0^10+CDF 
  938                 SIF 0                   / Prepare to change to instruction fie  @@1552=6202
  938 01552 6202         0^10+CIF 
  939 01553 5310      JMP   L1510             /                                       @@1553=5310
  940 01554 0256  C1554,  0256                / changed from 0207/BELL to 0256/period                           
  941             L1555,
  942 01555 1354      TAD   C1554             /                                       @@1555=1354
  943 01556 6046  D1556,  6046                / TLS                                   
  944             L1557,
  945 01557 6041      TSF                     / Skip if teleprinter flag is a 1.      @@1557=6041
  946 01560 5357      JMP   L1557             /                                       @@1560=5357
  947 01561 7604      LAS                     /                                       @@1561=7604
  948 01562 7004      RAL                     /                                       @@1562=7004
  949 01563 7500      SMA                     /                                       @@1563=7500
  950 01564 5527      JMP I C0127             / long jump to L0203                    @@1564=5527
  951 01565 7402      HLT                     /                                       @@1565=7402
  952 01566 5527      JMP I C0127             / long jump to L0203                    @@1566=5527
  953             
  954       1600  *1600
  955             L1600,
  956 01600 7604  D1600,  7604                / LAS                                   
  957 01601 0044      AND   C0044             /                                       @@1601=0044
  958 01602 7041      CIA                     /                                       @@1602=7041
  959 01603 3205      DCA   D1605             /                                       @@1603=3205
  960 01604 4700      JMS I C1700             / long call to S2000                    @@1604=4700
  961 01605 0000  D1605,  0000                / AND   S0000                           
  962 01606 7744      SMA SZA CLA OSR         /                                       @@1606=7744
  963 01607 1702      TAD I C1702             /                                       @@1607=1702
  964 01610 3275      DCA   D1675             /                                       @@1610=3275
  965 01611 1302      TAD   C1702             /                                       @@1611=1302
  966 01612 3001      DCA   L0001             /                                       @@1612=3001
  967 01613 1274      TAD   C1674             /                                       @@1613=1274
  968 01614 3004  C1614,  3004                / DCA   D0004                           
  969             L1615,
  970                 SDF 0                   / Change to data field 0. The data fie  @@1615=6201
  970 01615 6201         0^10+CDF 
  971 01616 3341      DCA   D1741             /                                       @@1616=3341
  972 01617 1205      TAD   D1605             /                                       @@1617=1205
  973 01620 3276      DCA   D1676             /                                       @@1620=3276
  974             L1621,
  975 01621 1341      TAD   D1741             /                                       @@1621=1341
  976 01622 1045      TAD   C0045             /                                       @@1622=1045
  977 01623 3341      DCA   D1741             /                                       @@1623=3341
  978 01624 1341      TAD   D1741             /                                       @@1624=1341
  979 01625 7041      CIA                     /                                       @@1625=7041
  980 01626 3342      DCA   D1742             /                                       @@1626=3342
  981 01627 1110      TAD   C0110             /                                       @@1627=1110
  982 01630 3277      DCA   D1677             /                                       @@1630=3277
  983 01631 1110      TAD   C0110             /                                       @@1631=1110

      AUTOMATIC DISASSEMBLY OF MAINDEC-08-DHMCA-A-PB.bin BY D8TAPE       Page 19


  984 01632 3337      DCA   D1737             /                                       @@1632=3337
  985             L1633,
  986 01633 1337      TAD   D1737             /                                       @@1633=1337
  987 01634 1045      TAD   C0045             /                                       @@1634=1045
  988 01635 3337      DCA   D1737             /                                       @@1635=3337
  989 01636 1337      TAD   D1737             /                                       @@1636=1337
  990 01637 7041      CIA                     /                                       @@1637=7041
  991 01640 3340      DCA   D1740             /                                       @@1640=3340
  992 01641 1205      TAD   D1605             /                                       @@1641=1205
  993 01642 3244      DCA   D1644             /                                       @@1642=3244
  994 01643 4700      JMS I C1700             / long call to S2000                    @@1643=4700
  995 01644 0000  D1644,  0000                / AND   S0000                           
  996 01645 7774      SPA SNA SZL CLA OSR     /                                       @@1645=7774
  997 01646 1736      TAD I C1736             /                                       @@1646=1736
  998                 SDF 0                   / Change to data field 0. The data fie  @@1647=6201
  998 01647 6201         0^10+CDF 
  999 01650 1040      TAD   C0040             /                                       @@1650=1040
 1000 01651 1337      TAD   D1737             /                                       @@1651=1337
 1001 01652 3260      DCA   D1660             /                                       @@1652=3260
 1002 01653 1041      TAD   C0041             /                                       @@1653=1041
 1003 01654 1341      TAD   D1741             /                                       @@1654=1341
 1004 01655 3261      DCA   D1661             /                                       @@1655=3261
 1005             L1656,
 1006 01656 6041  C1656,  6041                / TSF                                   
 1007 01657 4422      JMS I C0022             / long call to S2443                    @@1657=4422
 1008 01660 6201  D1660,  6201                / SDF 0                                  
 1009 01661 6202  D1661,  6202                / SIF 0                                  
 1010 01662 5303      JMP   L1703             /                                       @@1662=5303
 1011 01663 6244      RMF                     / Restore memory field.  Used to exit   @@1663=6244
 1012 01664 5310      JMP   L1710             /                                       @@1664=5310
 1013             L1665,
 1014 01665 2277  C1665,  2277                / ISZ   D1677                           
 1015 01666 5233      JMP   L1633             /                                       @@1666=5233
 1016 01667 2276      ISZ   D1676             /                                       @@1667=2276
 1017 01670 5221      JMP   L1621             /                                       @@1670=5221
 1018 01671 2275      ISZ   D1675             /                                       @@1671=2275
 1019 01672 5215      JMP   L1615             /                                       @@1672=5215
 1020 01673 5701      JMP I C1701             / long jump to L2200                    @@1673=5701
 1021 01674 1663  C1674,  1663                / TAD I C1663                           
 1022 01675 0000  D1675,  0000                / AND   S0000                           
 1023 01676 0000  D1676,  0000                / AND   S0000                           
 1024 01677 0000  D1677,  0000                / AND   S0000                           
 1025             C1700,
 1026 01700 2000  C1700,  2000                / ISZ   S0000                           
 1027             C1701,
 1028 01701 2200  C1701,  2200                / ISZ   L1600                           
 1029 01702 5404  C1702,  5404                / JMP I D0004                           
 1030             L1703,
 1031 01703 6001      ION                     / Enable Interrupts                     @@1703=6001
 1032 01704 7000      NOP                     /                                       @@1704=7000
 1033 01705 6002      IOF                     / Disable Interrupts                    @@1705=6002
 1034 01706 7402      HLT                     /                                       @@1706=7402
 1035 01707 5333      JMP   L1733             /                                       @@1707=5333
 1036             L1710,
 1037 01710 7200      CLA                     /                                       @@1710=7200
 1038 01711 6214      RDF                     / Read data field into AC6-8.  Bit 0-5  @@1711=6214
 1039 01712 1340      TAD   D1740             /                                       @@1712=1340

      AUTOMATIC DISASSEMBLY OF MAINDEC-08-DHMCA-A-PB.bin BY D8TAPE       Page 20


 1040 01713 7650      SNA CLA                 /                                       @@1713=7650
 1041 01714 5320      JMP   L1720             /                                       @@1714=5320
 1042 01715 1337      TAD   D1737             /                                       @@1715=1337
 1043 01716 7402      HLT                     /                                       @@1716=7402
 1044 01717 5333      JMP   L1733             /                                       @@1717=5333
 1045             L1720,
 1046 01720 6224      RIF                     / Same as RDF except reads the instruc  @@1720=6224
 1047 01721 1342      TAD   D1742             /                                       @@1721=1342
 1048 01722 7650      SNA CLA                 /                                       @@1722=7650
 1049 01723 5327      JMP   L1727             /                                       @@1723=5327
 1050 01724 1341      TAD   D1741             /                                       @@1724=1341
 1051 01725 7402      HLT                     /                                       @@1725=7402
 1052 01726 5333      JMP   L1733             /                                       @@1726=5333
 1053             L1727,
 1054                 SDF 0                   / Change to data field 0. The data fie  @@1727=6201
 1054 01727 6201         0^10+CDF 
 1055                 SIF 0                   / Prepare to change to instruction fie  @@1730=6202
 1055 01730 6202         0^10+CIF 
 1056 01731 5732      JMP I C1732             / long jump to L1665                    @@1731=5732
 1057             C1732,
 1058 01732 1665  C1732,  1665                / TAD I L1665                           
 1059             L1733,
 1060                 SDF 0                   / Change to data field 0. The data fie  @@1733=6201
 1060 01733 6201         0^10+CDF 
 1061                 SIF 0                   / Prepare to change to instruction fie  @@1734=6202
 1061 01734 6202         0^10+CIF 
 1062 01735 5736      JMP I C1736             / long jump to L1656                    @@1735=5736
 1063             C1736,
 1064 01736 1656  C1736,  1656                / TAD I L1656                           
 1065 01737 0000  D1737,  0000                / AND   S0000                           
 1066 01740 0000  D1740,  0000                / AND   S0000                           
 1067 01741 0000  D1741,  0000                / AND   S0000                           
 1068 01742 0000  D1742,  0000                / AND   S0000                           
 1069             
 1070       2000  *2000
 1071             
 1072             ////////////////////////////////////////////////////////////////////////////////
 1073             /
 1074             /   SUBROUTINE:  S2000
 1075             /
 1076             /   Called from:
 1077             /   1604 1643 
 1078             /   Total 0002 (2) calls
 1079             ////////////////////////////////////////////////////////////////////////////////
 1080             S2000,
 1081 02000 0000      0                       / return area
 1082 02001 7200      CLA                     /                                       @@2001=7200
 1083 02002 1600      TAD I S2000             /                                       @@2002=1600
 1084 02003 3242      DCA   D2042             /                                       @@2003=3242
 1085 02004 2200      ISZ   S2000             /                                       @@2004=2200
 1086 02005 1600      TAD I S2000             /                                       @@2005=1600
 1087 02006 3243      DCA   D2043             /                                       @@2006=3243
 1088 02007 2200      ISZ   S2000             /                                       @@2007=2200
 1089 02010 1600      TAD I S2000             /                                       @@2010=1600
 1090 02011 3244      DCA   D2044             /                                       @@2011=3244
 1091 02012 2200      ISZ   S2000             /                                       @@2012=2200
 1092 02013 1040      TAD   C0040             /                                       @@2013=1040

      AUTOMATIC DISASSEMBLY OF MAINDEC-08-DHMCA-A-PB.bin BY D8TAPE       Page 21


 1093 02014 3232      DCA   D2032             /                                       @@2014=3232
 1094 02015 1242      TAD   D2042             /                                       @@2015=1242
 1095 02016 3245      DCA   D2045             /                                       @@2016=3245
 1096             L2017,
 1097 02017 1244      TAD   D2044             /                                       @@2017=1244
 1098 02020 3010  C2020,  3010                / DCA   AI0                             
 1099 02021 1244      TAD   D2044             /                                       @@2021=1244
 1100 02022 3011  C2022,  3011                / DCA   AI1                             
 1101 02023 1243      TAD   D2043             /                                       @@2023=1243
 1102 02024 3246      DCA   D2046             /                                       @@2024=3246
 1103 02025 1232      TAD   D2032             /                                       @@2025=1232
 1104 02026 1045      TAD   C0045             /                                       @@2026=1045
 1105 02027 3232      DCA   D2032             /                                       @@2027=3232
 1106             L2030,
 1107                 SDF 0                   / Change to data field 0. The data fie  @@2030=6201
 1107 02030 6201         0^10+CDF 
 1108 02031 1410  C2031,  1410                / TAD I AI0                             
 1109 02032 6201  D2032,  6201                / SDF0                                  
 1110 02033 3411  C2033,  3411                / DCA I AI1                             
 1111 02034 2246      ISZ   D2046             /                                       @@2034=2246
 1112 02035 5230      JMP   L2030             /                                       @@2035=5230
 1113 02036 2245      ISZ   D2045             /                                       @@2036=2245
 1114 02037 5217      JMP   L2017             /                                       @@2037=5217
 1115                 SDF 0                   / Change to data field 0. The data fie  @@2040=6201
 1115 02040 6201         0^10+CDF 
 1116 02041 5600      JMP I S2000             / return                                @@2041=5600
 1117 02042 0000  D2042,  0000                / AND   S0000                           
 1118 02043 0000  D2043,  0000                / AND   S0000                           
 1119 02044 0000  D2044,  0000                / AND   S0000                           
 1120 02045 0000  D2045,  0000                / AND   S0000                           
 1121 02046 0000  D2046,  0000                / AND   S0000                           
 1122             
 1123             ////////////////////////////////////////////////////////////////////////////////
 1124             /
 1125             /   SUBROUTINE:  S2047
 1126             /
 1127             /   Called from:
 1128             /   2367 
 1129             /   Total 0001 (1) calls
 1130             ////////////////////////////////////////////////////////////////////////////////
 1131             S2047,
 1132 02047 0000      0                       / return area
 1133 02050 7300      CLA CLL                 / AC = 0000                             @@2050=7300
 1134 02051 4423      JMS I C0023             / long call to S2435                    @@2051=4423
 1135 02052 1040      TAD   C0040             /                                       @@2052=1040
 1136 02053 1045      TAD   C0045             /                                       @@2053=1045
 1137 02054 3257      DCA   D2057             /                                       @@2054=3257
 1138             L2055,
 1139 02055 7340      CLA CLL CMA             / AC = 7777 (-0001)                     @@2055=7340
 1140 02056 3010  C2056,  3010                / DCA   AI0                             
 1141 02057 6201  D2057,  6201                / SDF0                                  
 1142 02060 4276      JMS   S2076             /                                       @@2060=4276
 1143 02061 7340      CLA CLL CMA             / AC = 7777 (-0001)                     @@2061=7340
 1144 02062 3010  C2062,  3010                / DCA   AI0                             
 1145 02063 4312      JMS   S2112             /                                       @@2063=4312
 1146 02064 7300      CLA CLL                 / AC = 0000                             @@2064=7300
 1147 02065 2031      ISZ   D0031             /                                       @@2065=2031

      AUTOMATIC DISASSEMBLY OF MAINDEC-08-DHMCA-A-PB.bin BY D8TAPE       Page 22


 1148 02066 7410      SKP                     /                                       @@2066=7410
 1149 02067 5274      JMP   L2074             /                                       @@2067=5274
 1150 02070 1257      TAD   D2057             /                                       @@2070=1257
 1151 02071 1045      TAD   C0045             /                                       @@2071=1045
 1152 02072 3257      DCA   D2057             /                                       @@2072=3257
 1153 02073 5255      JMP   L2055             /                                       @@2073=5255
 1154             L2074,
 1155                 SDF 0                   / Change to data field 0. The data fie  @@2074=6201
 1155 02074 6201         0^10+CDF 
 1156 02075 5647      JMP I S2047             / return                                @@2075=5647
 1157             
 1158             ////////////////////////////////////////////////////////////////////////////////
 1159             /
 1160             /   SUBROUTINE:  S2076
 1161             /
 1162             /   Called from:
 1163             /   2060 
 1164             /   Total 0001 (1) calls
 1165             ////////////////////////////////////////////////////////////////////////////////
 1166             S2076,
 1167 02076 0000      0                       / return area
 1168             L2077,
 1169 02077 7300      CLA CLL                 / AC = 0000                             @@2077=7300
 1170 02100 1157      TAD   C0157             /                                       @@2100=1157
 1171 02101 3410  C2101,  3410                / DCA I AI0                             
 1172 02102 1157      TAD   C0157             /                                       @@2102=1157
 1173 02103 7040      CMA                     /                                       @@2103=7040
 1174 02104 3410  C2104,  3410                / DCA I AI0                             
 1175 02105 1010  C2105,  1010                / TAD   AI0                             
 1176 02106 7001      IAC                     /                                       @@2106=7001
 1177 02107 7640      SZA CLA                 /                                       @@2107=7640
 1178 02110 5277      JMP   L2077             /                                       @@2110=5277
 1179 02111 5676      JMP I S2076             / return                                @@2111=5676
 1180             
 1181             ////////////////////////////////////////////////////////////////////////////////
 1182             /
 1183             /   SUBROUTINE:  S2112
 1184             /
 1185             /   Called from:
 1186             /   2063 
 1187             /   Total 0001 (1) calls
 1188             ////////////////////////////////////////////////////////////////////////////////
 1189             S2112,
 1190 02112 0000      0                       / return area
 1191             L2113,
 1192 02113 7300      CLA CLL                 / AC = 0000                             @@2113=7300
 1193 02114 1410  C2114,  1410                / TAD I AI0                             
 1194 02115 7001      IAC                     /                                       @@2115=7001
 1195 02116 1410  C2116,  1410                / TAD I AI0                             
 1196 02117 7440      SZA                     /                                       @@2117=7440
 1197 02120 7402      HLT                     /                                       @@2120=7402
 1198 02121 7300      CLA CLL                 / AC = 0000                             @@2121=7300
 1199 02122 1010  C2122,  1010                / TAD   AI0                             
 1200 02123 7001      IAC                     /                                       @@2123=7001
 1201 02124 7640      SZA CLA                 /                                       @@2124=7640
 1202 02125 5313      JMP   L2113             /                                       @@2125=5313
 1203 02126 5712      JMP I S2112             / return                                @@2126=5712

      AUTOMATIC DISASSEMBLY OF MAINDEC-08-DHMCA-A-PB.bin BY D8TAPE       Page 23


 1204             
 1205       2200  *2200
 1206             L2200,
 1207 02200 7200      CLA                     /                                       @@2200=7200
 1208 02201 1110      TAD   C0110             /                                       @@2201=1110
 1209 02202 3027      DCA   D0027             /                                       @@2202=3027
 1210             L2203,
 1211 02203 7604  D2203,  7604                / LAS                                   
 1212 02204 0044      AND   C0044             /                                       @@2204=0044
 1213 02205 7041      CIA                     /                                       @@2205=7041
 1214 02206 1044      TAD   C0044             /                                       @@2206=1044
 1215 02207 7450      SNA                     /                                       @@2207=7450
 1216 02210 5546      JMP I C0146             / long jump to L3633                    @@2210=5546
 1217 02211 3033      DCA   D0033             /                                       @@2211=3033
 1218 02212 3547      DCA I C0147             /                                       @@2212=3547
 1219 02213 7604      LAS                     /                                       @@2213=7604
 1220 02214 0044      AND   C0044             /                                       @@2214=0044
 1221 02215 7001      IAC                     /                                       @@2215=7001
 1222 02216 7100      CLL                     /                                       @@2216=7100
 1223 02217 7006      RTL                     /                                       @@2217=7006
 1224 02220 7004      RAL                     /                                       @@2220=7004
 1225 02221 3034      DCA   D0034             /                                       @@2221=3034
 1226 02222 1033      TAD   D0033             /                                       @@2222=1033
 1227 02223 7041      CIA                     /                                       @@2223=7041
 1228 02224 3033      DCA   D0033             /                                       @@2224=3033
 1229 02225 1040      TAD   C0040             /                                       @@2225=1040
 1230 02226 1034      TAD   D0034             /                                       @@2226=1034
 1231 02227 3245      DCA   D2245             /                                       @@2227=3245
 1232 02230 4244      JMS   S2244             /                                       @@2230=4244
 1233             L2231,
 1234 02231 2033      ISZ   D0033             /                                       @@2231=2033
 1235 02232 5237      JMP   L2237             /                                       @@2232=5237
 1236 02233 2027      ISZ   D0027             /                                       @@2233=2027
 1237 02234 5636      JMP I C2236             / long jump to L2203                    @@2234=5636
 1238 02235 5546      JMP I C0146             / long jump to L3633                    @@2235=5546
 1239             C2236,
 1240 02236 2203  C2236,  2203                / ISZ   L2203                           
 1241             L2237,
 1242 02237 1245      TAD   D2245             /                                       @@2237=1245
 1243 02240 1045      TAD   C0045             /                                       @@2240=1045
 1244 02241 3245      DCA   D2245             /                                       @@2241=3245
 1245 02242 4244      JMS   S2244             /                                       @@2242=4244
 1246 02243 5231      JMP   L2231             /                                       @@2243=5231
 1247             
 1248             ////////////////////////////////////////////////////////////////////////////////
 1249             /
 1250             /   SUBROUTINE:  S2244
 1251             /
 1252             /   Called from:
 1253             /   2230 2242 
 1254             /   Total 0002 (2) calls
 1255             ////////////////////////////////////////////////////////////////////////////////
 1256             S2244,
 1257 02244 0000      0                       / return area
 1258 02245 6201  D2245,  6201                / SDF0                                  
 1259 02246 7240      STA                     / AC = 7777 (-0001)                     @@2246=7240
 1260 02247 3010  C2247,  3010                / DCA   AI0                             

      AUTOMATIC DISASSEMBLY OF MAINDEC-08-DHMCA-A-PB.bin BY D8TAPE       Page 24


 1261 02250 7040      CMA                     /                                       @@2250=7040
 1262 02251 3011  C2251,  3011                / DCA   AI1                             
 1263 02252 3002      DCA   L0002             /                                       @@2252=3002
 1264             L2253,
 1265 02253 7040      CMA                     /                                       @@2253=7040
 1266 02254 3410  C2254,  3410                / DCA I AI0                             
 1267 02255 2002      ISZ   L0002             /                                       @@2255=2002
 1268 02256 5253      JMP   L2253             /                                       @@2256=5253
 1269             L2257,
 1270 02257 1411  C2257,  1411                / TAD I AI1                             
 1271 02260 7650      SNA CLA                 /                                       @@2260=7650
 1272 02261 5264      JMP   L2264             /                                       @@2261=5264
 1273 02262 1011  C2262,  1011                / TAD   AI1                             
 1274 02263 7402      HLT                     /                                       @@2263=7402
 1275             L2264,
 1276 02264 2002      ISZ   L0002             /                                       @@2264=2002
 1277 02265 5257      JMP   L2257             /                                       @@2265=5257
 1278                 SDF 0                   / Change to data field 0. The data fie  @@2266=6201
 1278 02266 6201         0^10+CDF 
 1279                 SIF 0                   / Prepare to change to instruction fie  @@2267=6202
 1279 02267 6202         0^10+CIF 
 1280 02270 5644      JMP I S2244             / return                                @@2270=5644
 1281             L2271,
 1282 02271 7300      CLA CLL                 / AC = 0000                             @@2271=7300
 1283 02272 1020      TAD   D0020             /                                       @@2272=1020
 1284 02273 3001      DCA   L0001             /                                       @@2273=3001
 1285 02274 1040      TAD   C0040             /                                       @@2274=1040
 1286 02275 3304      DCA   D2304             /                                       @@2275=3304
 1287             L2276,
 1288 02276 1304      TAD   D2304             /                                       @@2276=1304
 1289 02277 0111      AND   C0111             /                                       @@2277=0111
 1290 02300 7120      STL                     /                                       @@2300=7120
 1291 02301 7010      RAR                     /                                       @@2301=7010
 1292 02302 7012      RTR                     /                                       @@2302=7012
 1293 02303 3112      DCA   D0112             /                                       @@2303=3112
 1294 02304 6201  D2304,  6201                / SDF0                                  
 1295 02305 6041      TSF                     / Skip if teleprinter flag is a 1.      @@2305=6041
 1296 02306 4422      JMS I C0022             / long call to S2443                    @@2306=4422
 1297 02307 6001      ION                     / Enable Interrupts                     @@2307=6001
 1298 02310 7340      CLA CLL CMA             / AC = 7777 (-0001)                     @@2310=7340
 1299 02311 6004  C2311,  6004                / 6004                                  
 1300 02312 7041      CIA                     /                                       @@2312=7041
 1301 02313 1112      TAD   D0112             /                                       @@2313=1112
 1302 02314 7440      SZA                     /                                       @@2314=7440
 1303 02315 7402      HLT                     /                                       @@2315=7402
 1304 02316 2027      ISZ   D0027             /                                       @@2316=2027
 1305 02317 5276      JMP   L2276             /                                       @@2317=5276
 1306 02320 1045      TAD   C0045             /                                       @@2320=1045
 1307 02321 1304      TAD   D2304             /                                       @@2321=1304
 1308 02322 3304      DCA   D2304             /                                       @@2322=3304
 1309 02323 2113      ISZ   D0113             /                                       @@2323=2113
 1310 02324 5276      JMP   L2276             /                                       @@2324=5276
 1311 02325 1110      TAD   C0110             /                                       @@2325=1110
 1312 02326 3113      DCA   D0113             /                                       @@2326=3113
 1313 02327 5730      JMP I C2330             / long jump to L2331                    @@2327=5730
 1314             C2330,
 1315 02330 2331  C2330,  2331                / ISZ   L2331                           

      AUTOMATIC DISASSEMBLY OF MAINDEC-08-DHMCA-A-PB.bin BY D8TAPE       Page 25


 1316             L2331,
 1317 02331 7300  D2331,  7300                / CLA CLL                               
 1318 02332 1021      TAD   C0021             /                                       @@2332=1021
 1319 02333 3001      DCA   L0001             /                                       @@2333=3001
 1320 02334 1020      TAD   D0020             /                                       @@2334=1020
 1321 02335 3002      DCA   L0002             /                                       @@2335=3002
 1322 02336 6005  C2336,  6005                / 6005                                  
 1323 02337 5340      JMP   L2340             /                                       @@2337=5340
 1324             L2340,
 1325 02340 7402      HLT                     /                                       @@2340=7402
 1326 02341 7300      CLA CLL                 / AC = 0000                             @@2341=7300
 1327 02342 1115      TAD   C0115             /                                       @@2342=1115
 1328 02343 6005  C2343,  6005                / 6005                                  
 1329 02344 7240      STA                     / AC = 7777 (-0001)                     @@2344=7240
 1330 02345 6004  C2345,  6004                / 6004                                  
 1331 02346 7041      CIA                     /                                       @@2346=7041
 1332 02347 1115      TAD   C0115             /                                       @@2347=1115
 1333 02350 7440      SZA                     /                                       @@2350=7440
 1334 02351 7402      HLT                     /                                       @@2351=7402
 1335 02352 7300      CLA CLL                 / AC = 0000                             @@2352=7300
 1336 02353 6005  C2353,  6005                / 6005                                  
 1337 02354 7300      CLA CLL                 / AC = 0000                             @@2354=7300
 1338 02355 6004  C2355,  6004                / 6004                                  
 1339 02356 7041      CIA                     /                                       @@2356=7041
 1340 02357 1116      TAD   C0116             /                                       @@2357=1116
 1341 02360 7440      SZA                     /                                       @@2360=7440
 1342 02361 7402      HLT                     /                                       @@2361=7402
 1343 02362 5363      JMP   L2363             /                                       @@2362=5363
 1344             L2363,
 1345 02363 7402      HLT                     /                                       @@2363=7402
 1346 02364 7300      CLA CLL                 / AC = 0000                             @@2364=7300
 1347 02365 2027      ISZ   D0027             /                                       @@2365=2027
 1348 02366 5331      JMP   L2331             /                                       @@2366=5331
 1349 02367 4555      JMS I C0155             / long call to S2047                    @@2367=4555
 1350 02370 4773      JMS I C2373             / long call to S4000                    @@2370=4773
 1351 02371 5772      JMP I C2372             / long jump to L2400                    @@2371=5772
 1352             C2372,
 1353 02372 2400  C2372,  2400                / ISZ I S0000                           
 1354             C2373,
 1355 02373 4000  C2373,  4000                / JMS   S0000                           
 1356             
 1357       2400  *2400
 1358             L2400,
 1359 02400 7300      CLA CLL                 / AC = 0000                             @@2400=7300
 1360 02401 4422      JMS I C0022             / long call to S2443                    @@2401=4422
 1361 02402 1021      TAD   C0021             /                                       @@2402=1021
 1362 02403 3001      DCA   L0001             /                                       @@2403=3001
 1363 02404 1020      TAD   D0020             /                                       @@2404=1020
 1364 02405 3002      DCA   L0002             /                                       @@2405=3002
 1365 02406 3114      DCA   D0114             /                                       @@2406=3114
 1366             L2407,
 1367 02407 1114      TAD   D0114             /                                       @@2407=1114
 1368 02410 6005  C2410,  6005                / 6005                                  
 1369 02411 5212      JMP   L2412             /                                       @@2411=5212
 1370             L2412,
 1371 02412 7402      HLT                     /                                       @@2412=7402
 1372 02413 7300      CLA CLL                 / AC = 0000                             @@2413=7300

      AUTOMATIC DISASSEMBLY OF MAINDEC-08-DHMCA-A-PB.bin BY D8TAPE       Page 26


 1373 02414 6004  C2414,  6004                / 6004                                  
 1374 02415 0117      AND   C0117             /                                       @@2415=0117
 1375 02416 7041      CIA                     /                                       @@2416=7041
 1376 02417 1114      TAD   D0114             /                                       @@2417=1114
 1377 02420 7440      SZA                     /                                       @@2420=7440
 1378 02421 7402      HLT                     /                                       @@2421=7402
 1379 02422 2027      ISZ   D0027             /                                       @@2422=2027
 1380 02423 5207      JMP   L2407             /                                       @@2423=5207
 1381 02424 1114      TAD   D0114             /                                       @@2424=1114
 1382 02425 1120      TAD   C0120             /                                       @@2425=1120
 1383 02426 3114      DCA   D0114             /                                       @@2426=3114
 1384 02427 2113      ISZ   D0113             /                                       @@2427=2113
 1385 02430 5207      JMP   L2407             /                                       @@2430=5207
 1386 02431 1110      TAD   C0110             /                                       @@2431=1110
 1387 02432 3113      DCA   D0113             /                                       @@2432=3113
 1388 02433 5634      JMP I C2434             / long jump to L2452                    @@2433=5634
 1389             C2434,
 1390 02434 2452  C2434,  2452                / ISZ I C0052                           
 1391             
 1392             ////////////////////////////////////////////////////////////////////////////////
 1393             /
 1394             /   SUBROUTINE:  S2435
 1395             /
 1396             /   Called from:
 1397             /   0601 0622 0665 0714 1010 1050 1070 1115 1435 2051 2453 3504 
 1398             /   Total 0014 (12) calls
 1399             ////////////////////////////////////////////////////////////////////////////////
 1400             S2435,
 1401 02435 0000      0                       / return area
 1402 02436 7604      LAS                     /                                       @@2436=7604
 1403 02437 0044      AND   C0044             /                                       @@2437=0044
 1404 02440 7041      CIA                     /                                       @@2440=7041
 1405 02441 3031      DCA   D0031             /                                       @@2441=3031
 1406 02442 5635      JMP I S2435             / return                                @@2442=5635
 1407             
 1408             ////////////////////////////////////////////////////////////////////////////////
 1409             /
 1410             /   SUBROUTINE:  S2443
 1411             /
 1412             /   Called from:
 1413             /   0344 0707 1003 1110 1401 1657 2306 2401 
 1414             /   Total 0010 (8) calls
 1415             ////////////////////////////////////////////////////////////////////////////////
 1416             S2443,
 1417 02443 0000      0                       / return area
 1418 02444 7200      CLA                     /                                       @@2444=7200
 1419 02445 6040  C2445,  6040                / 6040                                  
 1420             L2446,
 1421 02446 6041      TSF                     / Skip if teleprinter flag is a 1.      @@2446=6041
 1422 02447 5246      JMP   L2446             /                                       @@2447=5246
 1423 02450 7200      CLA                     /                                       @@2450=7200
 1424 02451 5643      JMP I S2443             / return                                @@2451=5643
 1425             L2452,
 1426 02452 7300      CLA CLL                 / AC = 0000                             @@2452=7300
 1427 02453 4423      JMS I C0023             / long call to S2435                    @@2453=4423
 1428 02454 1120      TAD   C0120             /                                       @@2454=1120
 1429 02455 3260      DCA   D2460             /                                       @@2455=3260

      AUTOMATIC DISASSEMBLY OF MAINDEC-08-DHMCA-A-PB.bin BY D8TAPE       Page 27


 1430             L2456,
 1431 02456 1132      TAD   C0132             /                                       @@2456=1132
 1432 02457 3010  C2457,  3010                / DCA   AI0                             
 1433 02460 0000  D2460,  0000                / AND   S0000                           
 1434             L2461,
 1435 02461 7300      CLA CLL                 / AC = 0000                             @@2461=7300
 1436 02462 1260      TAD   D2460             /                                       @@2462=1260
 1437 02463 6005  C2463,  6005                / 6005                                  
 1438 02464 6002      IOF                     / Disable Interrupts                    @@2464=6002
 1439 02465 7300      CLA CLL                 / AC = 0000                             @@2465=7300
 1440 02466 2537      ISZ I C0137             /                                       @@2466=2537
 1441 02467 7000      NOP                     /                                       @@2467=7000
 1442 02470 1537      TAD I C0137             /                                       @@2470=1537
 1443 02471 3136      DCA   D0136             /                                       @@2471=3136
 1444 02472 1124      TAD   C0124             /                                       @@2472=1124
 1445 02473 3541      DCA I C0141             /                                       @@2473=3541
 1446 02474 1133      TAD   C0133             /                                       @@2474=1133
 1447 02475 3410  C2475,  3410                / DCA I AI0                             
 1448 02476 1130      TAD   C0130             /                                       @@2476=1130
 1449 02477 3410  C2477,  3410                / DCA I AI0                             
 1450 02500 1124      TAD   C0124             /                                       @@2500=1124
 1451 02501 3410  C2501,  3410                / DCA I AI0                             
 1452 02502 1010  C2502,  1010                / TAD   AI0                             
 1453 02503 1057      TAD   C0057             /                                       @@2503=1057
 1454 02504 3310      DCA   D2510             /                                       @@2504=3310
 1455 02505 1134      TAD   C0134             /                                       @@2505=1134
 1456 02506 3001      DCA   L0001             /                                       @@2506=3001
 1457 02507 5710      JMP I D2510             / long jump to L0000                    @@2507=5710
 1458 02510 0000  D2510,  0000                / AND   S0000                           
 1459 02511 7041      CIA                     /                                       @@2511=7041
 1460 02512 1136      TAD   D0136             /                                       @@2512=1136
 1461 02513 7440      SZA                     /                                       @@2513=7440
 1462 02514 7402      HLT                     /                                       @@2514=7402
 1463 02515 1000      TAD   S0000             /                                       @@2515=1000
 1464 02516 7041      CIA                     /                                       @@2516=7041
 1465 02517 1010  C2517,  1010                / TAD   AI0                             
 1466 02520 7440      SZA                     /                                       @@2520=7440
 1467 02521 7402      HLT                     /                                       @@2521=7402
 1468 02522 6214      RDF                     / Read data field into AC6-8.  Bit 0-5  @@2522=6214
 1469 02523 6224      RIF                     / Same as RDF except reads the instruc  @@2523=6224
 1470 02524 7640      SZA CLA                 /                                       @@2524=7640
 1471 02525 7402      HLT                     /                                       @@2525=7402
 1472 02526 6004  C2526,  6004                / 6004                                  
 1473 02527 0117      AND   C0117             /                                       @@2527=0117
 1474 02530 7041      CIA                     /                                       @@2530=7041
 1475 02531 1260      TAD   D2460             /                                       @@2531=1260
 1476 02532 7440      SZA                     /                                       @@2532=7440
 1477 02533 7402      HLT                     /                                       @@2533=7402
 1478 02534 1010  C2534,  1010                / TAD   AI0                             
 1479 02535 7001      IAC                     /                                       @@2535=7001
 1480 02536 7640      SZA CLA                 /                                       @@2536=7640
 1481 02537 5261      JMP   L2461             /                                       @@2537=5261
 1482 02540 2031      ISZ   D0031             /                                       @@2540=2031
 1483 02541 7410      SKP                     /                                       @@2541=7410
 1484 02542 5750      JMP I C2550             / long jump to L1050                    @@2542=5750
 1485 02543 7300      CLA CLL                 / AC = 0000                             @@2543=7300
 1486 02544 1120      TAD   C0120             /                                       @@2544=1120

      AUTOMATIC DISASSEMBLY OF MAINDEC-08-DHMCA-A-PB.bin BY D8TAPE       Page 28


 1487 02545 1260      TAD   D2460             /                                       @@2545=1260
 1488 02546 3260      DCA   D2460             /                                       @@2546=3260
 1489 02547 5256      JMP   L2456             /                                       @@2547=5256
 1490             C2550,
 1491 02550 1050  C2550,  1050                / TAD   C0050                           
 1492             
 1493       2600  *2600
 1494             L2600,
 1495 02600 7300      CLA CLL                 / AC = 0000                             @@2600=7300
 1496 02601 6007  C2601,  6007                / 6007                                  
 1497 02602 6264      CUF                     / (KT8/I) Clears the user flag.  Clear  @@2602=6264
 1498 02603 6204      CINT                    / (KT8/I) Clear user interrupt.  Reset  @@2603=6204
 1499 02604 1021      TAD   C0021             /                                       @@2604=1021
 1500 02605 3001      DCA   L0001             /                                       @@2605=3001
 1501 02606 1020      TAD   D0020             /                                       @@2606=1020
 1502 02607 3002      DCA   L0002             /                                       @@2607=3002
 1503 02610 6007  C2610,  6007                / 6007                                  
 1504 02611 7410      SKP                     /                                       @@2611=7410
 1505             L2612,
 1506 02612 5212      JMP   L2612             /                                       @@2612=5212
 1507 02613 6001      ION                     / Enable Interrupts                     @@2613=6001
 1508 02614 7410      SKP                     /                                       @@2614=7410
 1509             L2615,
 1510 02615 5215      JMP   L2615             /                                       @@2615=5215
 1511 02616 6032      KCC                     / Clear AC and clear keyboard flag.     @@2616=6032
 1512 02617 7410      SKP                     /                                       @@2617=7410
 1513             L2620,
 1514 02620 5220      JMP   L2620             /                                       @@2620=5220
 1515 02621 6002      IOF                     / Disable Interrupts                    @@2621=6002
 1516 02622 7410      SKP                     /                                       @@2622=7410
 1517             L2623,
 1518 02623 5223      JMP   L2623             /                                       @@2623=5223
 1519 02624 6004  C2624,  6004                / 6004                                  
 1520 02625 7410      SKP                     /                                       @@2625=7410
 1521             L2626,
 1522 02626 5226      JMP   L2626             /                                       @@2626=5226
 1523 02627 6001      ION                     / Enable Interrupts                     @@2627=6001
 1524 02630 6274      SUF                     / (KT8/I) Sets the user flag.  Sets us  @@2630=6274
 1525 02631 5232      JMP   L2632             /                                       @@2631=5232
 1526             L2632,
 1527 02632 7402      HLT                     /                                       @@2632=7402
 1528             L2633,
 1529 02633 5233      JMP   L2633             /                                       @@2633=5233
 1530 02634 6254      SINT                    / (KT8/I) Skip on user interrupt.  Whe  @@2634=6254
 1531             L2635,
 1532 02635 5235      JMP   L2635             /                                       @@2635=5235
 1533 02636 6204      CINT                    / (KT8/I) Clear user interrupt.  Reset  @@2636=6204
 1534 02637 6254      SINT                    / (KT8/I) Skip on user interrupt.  Whe  @@2637=6254
 1535 02640 7410      SKP                     /                                       @@2640=7410
 1536             L2641,
 1537 02641 5241      JMP   L2641             /                                       @@2641=5241
 1538 02642 7604      LAS                     /                                       @@2642=7604
 1539 02643 7410      SKP                     /                                       @@2643=7410
 1540             L2644,
 1541 02644 5244      JMP   L2644             /                                       @@2644=5244
 1542 02645 6244      RMF                     / Restore memory field.  Used to exit   @@2645=6244
 1543 02646 6001      ION                     / Enable Interrupts                     @@2646=6001

      AUTOMATIC DISASSEMBLY OF MAINDEC-08-DHMCA-A-PB.bin BY D8TAPE       Page 29


 1544 02647 5250      JMP   L2650             /                                       @@2647=5250
 1545             L2650,
 1546 02650 7404      OSR                     /                                       @@2650=7404
 1547             L2651,
 1548 02651 5251      JMP   L2651             /                                       @@2651=5251
 1549 02652 6254      SINT                    / (KT8/I) Skip on user interrupt.  Whe  @@2652=6254
 1550             L2653,
 1551 02653 5253      JMP   L2653             /                                       @@2653=5253
 1552 02654 6007  C2654,  6007                / 6007                                  
 1553 02655 6254      SINT                    / (KT8/I) Skip on user interrupt.  Whe  @@2655=6254
 1554 02656 7410      SKP                     /                                       @@2656=7410
 1555 02657 7402      HLT                     /                                       @@2657=7402
 1556 02660 7404      OSR                     /                                       @@2660=7404
 1557 02661 7410      SKP                     /                                       @@2661=7410
 1558             L2662,
 1559 02662 5262      JMP   L2662             /                                       @@2662=5262
 1560 02663 6244      RMF                     / Restore memory field.  Used to exit   @@2663=6244
 1561 02664 6001      ION                     / Enable Interrupts                     @@2664=6001
 1562 02665 5266      JMP   L2666             /                                       @@2665=5266
 1563             L2666,
 1564 02666 6005  C2666,  6005                / 6005                                  
 1565             L2667,
 1566 02667 5267      JMP   L2667             /                                       @@2667=5267
 1567 02670 6254      SINT                    / (KT8/I) Skip on user interrupt.  Whe  @@2670=6254
 1568             L2671,
 1569 02671 5271      JMP   L2671             /                                       @@2671=5271
 1570 02672 6204      CINT                    / (KT8/I) Clear user interrupt.  Reset  @@2672=6204
 1571 02673 6254      SINT                    / (KT8/I) Skip on user interrupt.  Whe  @@2673=6254
 1572 02674 7410      SKP                     /                                       @@2674=7410
 1573 02675 7402      HLT                     /                                       @@2675=7402
 1574 02676 6004  C2676,  6004                / 6004                                  
 1575 02677 7410      SKP                     /                                       @@2677=7410
 1576             L2700,
 1577 02700 5300      JMP   L2700             /                                       @@2700=5300
 1578 02701 6244      RMF                     / Restore memory field.  Used to exit   @@2701=6244
 1579 02702 6001      ION                     / Enable Interrupts                     @@2702=6001
 1580 02703 5304      JMP   L2704             /                                       @@2703=5304
 1581             L2704,
 1582 02704 6001      ION                     / Enable Interrupts                     @@2704=6001
 1583             L2705,
 1584 02705 5305      JMP   L2705             /                                       @@2705=5305
 1585 02706 6254      SINT                    / (KT8/I) Skip on user interrupt.  Whe  @@2706=6254
 1586             L2707,
 1587 02707 5307      JMP   L2707             /                                       @@2707=5307
 1588 02710 7300      CLA CLL                 / AC = 0000                             @@2710=7300
 1589 02711 6004  C2711,  6004                / 6004                                  
 1590 02712 0126      AND   C0126             /                                       @@2712=0126
 1591 02713 7450      SNA                     /                                       @@2713=7450
 1592 02714 7402      HLT                     /                                       @@2714=7402
 1593 02715 6204      CINT                    / (KT8/I) Clear user interrupt.  Reset  @@2715=6204
 1594 02716 6254      SINT                    / (KT8/I) Skip on user interrupt.  Whe  @@2716=6254
 1595 02717 7410      SKP                     /                                       @@2717=7410
 1596 02720 7402      HLT                     /                                       @@2720=7402
 1597 02721 6002      IOF                     / Disable Interrupts                    @@2721=6002
 1598 02722 7410      SKP                     /                                       @@2722=7410
 1599             L2723,
 1600 02723 5323      JMP   L2723             /                                       @@2723=5323

      AUTOMATIC DISASSEMBLY OF MAINDEC-08-DHMCA-A-PB.bin BY D8TAPE       Page 30


 1601 02724 6244      RMF                     / Restore memory field.  Used to exit   @@2724=6244
 1602 02725 6001      ION                     / Enable Interrupts                     @@2725=6001
 1603 02726 5327      JMP   L2727             /                                       @@2726=5327
 1604             L2727,
 1605 02727 7604      LAS                     /                                       @@2727=7604
 1606             L2730,
 1607 02730 5330      JMP   L2730             /                                       @@2730=5330
 1608 02731 6204      CINT                    / (KT8/I) Clear user interrupt.  Reset  @@2731=6204
 1609 02732 6244      RMF                     / Restore memory field.  Used to exit   @@2732=6244
 1610 02733 6264      CUF                     / (KT8/I) Clears the user flag.  Clear  @@2733=6264
 1611 02734 6001      ION                     / Enable Interrupts                     @@2734=6001
 1612 02735 5336      JMP   L2736             /                                       @@2735=5336
 1613             L2736,
 1614 02736 7404      OSR                     /                                       @@2736=7404
 1615 02737 7410      SKP                     /                                       @@2737=7410
 1616             L2740,
 1617 02740 5340      JMP   L2740             /                                       @@2740=5340
 1618 02741 6204      CINT                    / (KT8/I) Clear user interrupt.  Reset  @@2741=6204
 1619 02742 6274      SUF                     / (KT8/I) Sets the user flag.  Sets us  @@2742=6274
 1620 02743 6001      ION                     / Enable Interrupts                     @@2743=6001
 1621 02744 5345      JMP   L2745             /                                       @@2744=5345
 1622             L2745,
 1623 02745 7240      STA                     / AC = 7777 (-0001)                     @@2745=7240
 1624 02746 7604      LAS                     /                                       @@2746=7604
 1625             L2747,
 1626 02747 5347      JMP   L2747             /                                       @@2747=5347
 1627 02750 7440      SZA                     /                                       @@2750=7440
 1628 02751 7402      HLT                     /                                       @@2751=7402
 1629 02752 6204      CINT                    / (KT8/I) Clear user interrupt.  Reset  @@2752=6204
 1630 02753 6244      RMF                     / Restore memory field.  Used to exit   @@2753=6244
 1631 02754 6001      ION                     / Enable Interrupts                     @@2754=6001
 1632 02755 5356      JMP   L2756             /                                       @@2755=5356
 1633             L2756,
 1634 02756 7200      CLA                     /                                       @@2756=7200
 1635 02757 7404      OSR                     /                                       @@2757=7404
 1636             L2760,
 1637 02760 5360      JMP   L2760             /                                       @@2760=5360
 1638 02761 7440      SZA                     /                                       @@2761=7440
 1639 02762 7402      HLT                     /                                       @@2762=7402
 1640 02763 6204      CINT                    / (KT8/I) Clear user interrupt.  Reset  @@2763=6204
 1641 02764 6244      RMF                     / Restore memory field.  Used to exit   @@2764=6244
 1642 02765 6001      ION                     / Enable Interrupts                     @@2765=6001
 1643 02766 5367      JMP   L2767             /                                       @@2766=5367
 1644             L2767,
 1645 02767 7240      STA                     / AC = 7777 (-0001)                     @@2767=7240
 1646 02770 7602      CLA HLT                 /                                       @@2770=7602
 1647             L2771,
 1648 02771 5371      JMP   L2771             /                                       @@2771=5371
 1649 02772 7440      SZA                     /                                       @@2772=7440
 1650 02773 7402      HLT                     /                                       @@2773=7402
 1651 02774 6204      CINT                    / (KT8/I) Clear user interrupt.  Reset  @@2774=6204
 1652 02775 6003  C2775,  6003                / 6003                                  
 1653 02776 7410      SKP                     /                                       @@2776=7410
 1654 02777 7402      HLT                     /                                       @@2777=7402
 1655 03000 7300  D3000,  7300                / CLA CLL                               
 1656 03001 1126      TAD   C0126             /                                       @@3001=1126
 1657 03002 6005  C3002,  6005                / 6005                                  

      AUTOMATIC DISASSEMBLY OF MAINDEC-08-DHMCA-A-PB.bin BY D8TAPE       Page 31


 1658 03003 6001      ION                     / Enable Interrupts                     @@3003=6001
 1659 03004 7000      NOP                     /                                       @@3004=7000
 1660 03005 5206      JMP   L3006             /                                       @@3005=5206
 1661             L3006,
 1662 03006 6032      KCC                     / Clear AC and clear keyboard flag.     @@3006=6032
 1663             L3007,
 1664 03007 5207      JMP   L3007             /                                       @@3007=5207
 1665             L3010,
 1666 03010 6003  C3010,  6003                / 6003                                  
 1667 03011 5210      JMP   L3010             /                                       @@3011=5210
 1668 03012 6204      CINT                    / (KT8/I) Clear user interrupt.  Reset  @@3012=6204
 1669 03013 7300      CLA CLL                 / AC = 0000                             @@3013=7300
 1670 03014 1126      TAD   C0126             /                                       @@3014=1126
 1671 03015 6005  C3015,  6005                / 6005                                  
 1672 03016 7300      CLA CLL                 / AC = 0000                             @@3016=7300
 1673 03017 6001      ION                     / Enable Interrupts                     @@3017=6001
 1674 03020 5221      JMP   L3021             /                                       @@3020=5221
 1675             L3021,
 1676 03021 6004  C3021,  6004                / 6004                                  
 1677             L3022,
 1678 03022 5222      JMP   L3022             /                                       @@3022=5222
 1679 03023 0126      AND   C0126             /                                       @@3023=0126
 1680 03024 7440      SZA                     /                                       @@3024=7440
 1681 03025 7402      HLT                     /                                       @@3025=7402
 1682             L3026,
 1683 03026 6003  C3026,  6003                / 6003                                  
 1684 03027 5226      JMP   L3026             /                                       @@3027=5226
 1685 03030 6204      CINT                    / (KT8/I) Clear user interrupt.  Reset  @@3030=6204
 1686 03031 6244      RMF                     / Restore memory field.  Used to exit   @@3031=6244
 1687 03032 6001      ION                     / Enable Interrupts                     @@3032=6001
 1688 03033 5234      JMP   L3034             /                                       @@3033=5234
 1689             L3034,
 1690 03034 6004  C3034,  6004                / 6004                                  
 1691             L3035,
 1692 03035 5235      JMP   L3035             /                                       @@3035=5235
 1693 03036 6254      SINT                    / (KT8/I) Skip on user interrupt.  Whe  @@3036=6254
 1694             L3037,
 1695 03037 5237      JMP   L3037             /                                       @@3037=5237
 1696 03040 6204      CINT                    / (KT8/I) Clear user interrupt.  Reset  @@3040=6204
 1697 03041 6254      SINT                    / (KT8/I) Skip on user interrupt.  Whe  @@3041=6254
 1698 03042 7410      SKP                     /                                       @@3042=7410
 1699             L3043,
 1700 03043 5243      JMP   L3043             /                                       @@3043=5243
 1701 03044 6001      ION                     / Enable Interrupts                     @@3044=6001
 1702 03045 7410      SKP                     /                                       @@3045=7410
 1703             L3046,
 1704 03046 5246      JMP   L3046             /                                       @@3046=5246
 1705 03047 6244      RMF                     / Restore memory field.  Used to exit   @@3047=6244
 1706 03050 5251      JMP   L3051             /                                       @@3050=5251
 1707             L3051,
 1708                 SIF 0                   / Prepare to change to instruction fie  @@3051=6202
 1708 03051 6202         0^10+CIF 
 1709             L3052,
 1710 03052 5252      JMP   L3052             /                                       @@3052=5252
 1711 03053 6254      SINT                    / (KT8/I) Skip on user interrupt.  Whe  @@3053=6254
 1712             L3054,
 1713 03054 5254      JMP   L3054             /                                       @@3054=5254

      AUTOMATIC DISASSEMBLY OF MAINDEC-08-DHMCA-A-PB.bin BY D8TAPE       Page 32


 1714 03055 6204      CINT                    / (KT8/I) Clear user interrupt.  Reset  @@3055=6204
 1715 03056 6254      SINT                    / (KT8/I) Skip on user interrupt.  Whe  @@3056=6254
 1716 03057 7410      SKP                     /                                       @@3057=7410
 1717 03060 7402      HLT                     /                                       @@3060=7402
 1718                 SIF 0                   / Prepare to change to instruction fie  @@3061=6202
 1718 03061 6202         0^10+CIF 
 1719 03062 7410      SKP                     /                                       @@3062=7410
 1720             L3063,
 1721 03063 5263      JMP   L3063             /                                       @@3063=5263
 1722 03064 6244      RMF                     / Restore memory field.  Used to exit   @@3064=6244
 1723 03065 6001      ION                     / Enable Interrupts                     @@3065=6001
 1724 03066 5267      JMP   L3067             /                                       @@3066=5267
 1725             L3067,
 1726 03067 6214      RDF                     / Read data field into AC6-8.  Bit 0-5  @@3067=6214
 1727             L3070,
 1728 03070 5270      JMP   L3070             /                                       @@3070=5270
 1729 03071 6254      SINT                    / (KT8/I) Skip on user interrupt.  Whe  @@3071=6254
 1730             L3072,
 1731 03072 5272      JMP   L3072             /                                       @@3072=5272
 1732 03073 6204      CINT                    / (KT8/I) Clear user interrupt.  Reset  @@3073=6204
 1733 03074 6254      SINT                    / (KT8/I) Skip on user interrupt.  Whe  @@3074=6254
 1734 03075 7410      SKP                     /                                       @@3075=7410
 1735 03076 7402      HLT                     /                                       @@3076=7402
 1736 03077 6214      RDF                     / Read data field into AC6-8.  Bit 0-5  @@3077=6214
 1737 03100 7410      SKP                     /                                       @@3100=7410
 1738             L3101,
 1739 03101 5301      JMP   L3101             /                                       @@3101=5301
 1740 03102 6040  C3102,  6040                / 6040                                  
 1741             L3103,
 1742 03103 6041      TSF                     / Skip if teleprinter flag is a 1.      @@3103=6041
 1743 03104 5303      JMP   L3103             /                                       @@3104=5303
 1744             L3105,
 1745 03105 6003  C3105,  6003                / 6003                                  
 1746 03106 5305      JMP   L3105             /                                       @@3106=5305
 1747 03107 6001      ION                     / Enable Interrupts                     @@3107=6001
 1748 03110 7300      CLA CLL                 / AC = 0000                             @@3110=7300
 1749             L3111,
 1750 03111 5311      JMP   L3111             /                                       @@3111=5311
 1751 03112 1126      TAD   C0126             /                                       @@3112=1126
 1752 03113 6005  C3113,  6005                / 6005                                  
 1753 03114 6007  C3114,  6007                / 6007                                  
 1754 03115 6001      ION                     / Enable Interrupts                     @@3115=6001
 1755 03116 5317      JMP   L3117             /                                       @@3116=5317
 1756             L3117,
 1757 03117 6007  C3117,  6007                / 6007                                  
 1758             L3120,
 1759 03120 5320      JMP   L3120             /                                       @@3120=5320
 1760 03121 6003  C3121,  6003                / 6003                                  
 1761 03122 7402      HLT                     /                                       @@3122=7402
 1762 03123 6007  C3123,  6007                / 6007                                  
 1763 03124 6254      SINT                    / (KT8/I) Skip on user interrupt.  Whe  @@3124=6254
 1764 03125 7410      SKP                     /                                       @@3125=7410
 1765 03126 7402      HLT                     /                                       @@3126=7402
 1766 03127 7240      STA                     / AC = 7777 (-0001)                     @@3127=7240
 1767 03130 7120      STL                     /                                       @@3130=7120
 1768 03131 6274      SUF                     / (KT8/I) Sets the user flag.  Sets us  @@3131=6274
 1769 03132 6001      ION                     / Enable Interrupts                     @@3132=6001

      AUTOMATIC DISASSEMBLY OF MAINDEC-08-DHMCA-A-PB.bin BY D8TAPE       Page 33


 1770 03133 5334      JMP   L3134             /                                       @@3133=5334
 1771             L3134,
 1772 03134 6036      KRB                     / Clear AC, clear keyboard flag, and r  @@3134=6036
 1773             L3135,
 1774 03135 5335      JMP   L3135             /                                       @@3135=5335
 1775 03136 7040      CMA                     /                                       @@3136=7040
 1776 03137 7440      SZA                     /                                       @@3137=7440
 1777             L3140,
 1778 03140 5340      JMP   L3140             /                                       @@3140=5340
 1779 03141 7420      SNL                     /                                       @@3141=7420
 1780             L3142,
 1781 03142 5342      JMP   L3142             /                                       @@3142=5342
 1782 03143 6254      SINT                    / (KT8/I) Skip on user interrupt.  Whe  @@3143=6254
 1783             L3144,
 1784 03144 5344      JMP   L3144             /                                       @@3144=5344
 1785 03145 6204      CINT                    / (KT8/I) Clear user interrupt.  Reset  @@3145=6204
 1786 03146 6244      RMF                     / Restore memory field.  Used to exit   @@3146=6244
 1787 03147 6001      ION                     / Enable Interrupts                     @@3147=6001
 1788 03150 5351      JMP   L3151             /                                       @@3150=5351
 1789             L3151,
 1790 03151 6040  C3151,  6040                / 6040                                  
 1791             L3152,
 1792 03152 5352      JMP   L3152             /                                       @@3152=5352
 1793 03153 6041      TSF                     / Skip if teleprinter flag is a 1.      @@3153=6041
 1794 03154 7410      SKP                     /                                       @@3154=7410
 1795 03155 7402      HLT                     /                                       @@3155=7402
 1796 03156 6254      SINT                    / (KT8/I) Skip on user interrupt.  Whe  @@3156=6254
 1797             L3157,
 1798 03157 5357      JMP   L3157             /                                       @@3157=5357
 1799 03160 6204      CINT                    / (KT8/I) Clear user interrupt.  Reset  @@3160=6204
 1800 03161 6244      RMF                     / Restore memory field.  Used to exit   @@3161=6244
 1801 03162 6001      ION                     / Enable Interrupts                     @@3162=6001
 1802 03163 5764      JMP I C3164             / long jump to L3200                    @@3163=5764
 1803             C3164,
 1804 03164 3200  C3164,  3200                / DCA   D3000                           
 1805             
 1806       3200  *3200
 1807             L3200,
 1808 03200 6001      ION                     / Enable Interrupts                     @@3200=6001
 1809             L3201,
 1810 03201 5201      JMP   L3201             /                                       @@3201=5201
 1811 03202 6254      SINT                    / (KT8/I) Skip on user interrupt.  Whe  @@3202=6254
 1812             L3203,
 1813 03203 5203      JMP   L3203             /                                       @@3203=5203
 1814 03204 6204      CINT                    / (KT8/I) Clear user interrupt.  Reset  @@3204=6204
 1815 03205 6254      SINT                    / (KT8/I) Skip on user interrupt.  Whe  @@3205=6254
 1816 03206 7410      SKP                     /                                       @@3206=7410
 1817 03207 7402      HLT                     /                                       @@3207=7402
 1818 03210 6002      IOF                     / Disable Interrupts                    @@3210=6002
 1819 03211 7410      SKP                     /                                       @@3211=7410
 1820             L3212,
 1821 03212 5212      JMP   L3212             /                                       @@3212=5212
 1822 03213 6244      RMF                     / Restore memory field.  Used to exit   @@3213=6244
 1823 03214 6001      ION                     / Enable Interrupts                     @@3214=6001
 1824 03215 5216      JMP   L3216             /                                       @@3215=5216
 1825             L3216,
 1826 03216 6224      RIF                     / Same as RDF except reads the instruc  @@3216=6224

      AUTOMATIC DISASSEMBLY OF MAINDEC-08-DHMCA-A-PB.bin BY D8TAPE       Page 34


 1827             L3217,
 1828 03217 5217      JMP   L3217             /                                       @@3217=5217
 1829 03220 6204      CINT                    / (KT8/I) Clear user interrupt.  Reset  @@3220=6204
 1830 03221 6244      RMF                     / Restore memory field.  Used to exit   @@3221=6244
 1831 03222 6264      CUF                     / (KT8/I) Clears the user flag.  Clear  @@3222=6264
 1832 03223 5224      JMP   L3224             /                                       @@3223=5224
 1833             L3224,
 1834 03224 7404      OSR                     /                                       @@3224=7404
 1835 03225 7410      SKP                     /                                       @@3225=7410
 1836             L3226,
 1837 03226 5226      JMP   L3226             /                                       @@3226=5226
 1838 03227 7240      STA                     / AC = 7777 (-0001)                     @@3227=7240
 1839 03230 6274      SUF                     / (KT8/I) Sets the user flag.  Sets us  @@3230=6274
 1840 03231 6001      ION                     / Enable Interrupts                     @@3231=6001
 1841 03232 5233      JMP   L3233             /                                       @@3232=5233
 1842             L3233,
 1843 03233 7402      HLT                     /                                       @@3233=7402
 1844             L3234,
 1845 03234 5234      JMP   L3234             /                                       @@3234=5234
 1846 03235 6203  C3235,  6203                / 6203                                  
 1847 03236 6264      CUF                     / (KT8/I) Clears the user flag.  Clear  @@3236=6264
 1848 03237 6204      CINT                    / (KT8/I) Clear user interrupt.  Reset  @@3237=6204
 1849 03240 6001      ION                     / Enable Interrupts                     @@3240=6001
 1850 03241 5242      JMP   L3242             /                                       @@3241=5242
 1851             L3242,
 1852 03242 7604      LAS                     /                                       @@3242=7604
 1853 03243 7410      SKP                     /                                       @@3243=7410
 1854             L3244,
 1855 03244 5244      JMP   L3244             /                                       @@3244=5244
 1856 03245 7450      SNA                     /                                       @@3245=7450
 1857             L3246,
 1858 03246 5246      JMP   L3246             /                                       @@3246=5246
 1859 03247 6274      SUF                     / (KT8/I) Sets the user flag.  Sets us  @@3247=6274
 1860 03250 6001      ION                     / Enable Interrupts                     @@3250=6001
 1861 03251 5252      JMP   L3252             /                                       @@3251=5252
 1862             L3252,
 1863 03252 7412      SKP HLT                 /                                       @@3252=7412
 1864             L3253,
 1865 03253 5253      JMP   L3253             /                                       @@3253=5253
 1866             L3254,
 1867 03254 5254      JMP   L3254             /                                       @@3254=5254
 1868 03255 6254      SINT                    / (KT8/I) Skip on user interrupt.  Whe  @@3255=6254
 1869             L3256,
 1870 03256 5256      JMP   L3256             /                                       @@3256=5256
 1871 03257 6204      CINT                    / (KT8/I) Clear user interrupt.  Reset  @@3257=6204
 1872 03260 6254      SINT                    / (KT8/I) Skip on user interrupt.  Whe  @@3260=6254
 1873 03261 7410      SKP                     /                                       @@3261=7410
 1874             L3262,
 1875 03262 5262      JMP   L3262             /                                       @@3262=5262
 1876 03263 2266      ISZ   D3266             /                                       @@3263=2266
 1877 03264 5531      JMP I C0131             / long jump to L2600                    @@3264=5531
 1878 03265 7410      SKP                     /                                       @@3265=7410
 1879 03266 0000  D3266,  0000                / AND   S0000                           
 1880 03267 5670      JMP I C3270             / long jump to L3400                    @@3267=5670
 1881             C3270,
 1882 03270 3400  C3270,  3400                / DCA I S0000                           
 1883             

      AUTOMATIC DISASSEMBLY OF MAINDEC-08-DHMCA-A-PB.bin BY D8TAPE       Page 35


 1884       3400  *3400
 1885             L3400,
 1886 03400 7200      CLA                     /                                       @@3400=7200
 1887 03401 1125      TAD   C0125             /                                       @@3401=1125
 1888 03402 3207      DCA   L3407             /                                       @@3402=3207
 1889             L3403,
 1890 03403 6274      SUF                     / (KT8/I) Sets the user flag.  Sets us  @@3403=6274
 1891 03404 6204      CINT                    / (KT8/I) Clear user interrupt.  Reset  @@3404=6204
 1892 03405 6001      ION                     / Enable Interrupts                     @@3405=6001
 1893 03406 5207      JMP   L3407             /                                       @@3406=5207
 1894             L3407,
 1895 03407 6000  D3407,  6000                / 6000                                  
 1896             L3410,
 1897 03410 5210      JMP   L3410             /                                       @@3410=5210
 1898 03411 6254      SINT                    / (KT8/I) Skip on user interrupt.  Whe  @@3411=6254
 1899             L3412,
 1900 03412 5212      JMP   L3412             /                                       @@3412=5212
 1901 03413 6204      CINT                    / (KT8/I) Clear user interrupt.  Reset  @@3413=6204
 1902 03414 6254      SINT                    / (KT8/I) Skip on user interrupt.  Whe  @@3414=6254
 1903 03415 7610      SKP CLA                 /                                       @@3415=7610
 1904 03416 7402      HLT                     /                                       @@3416=7402
 1905 03417 2207      ISZ   L3407             /                                       @@3417=2207
 1906 03420 1207      TAD   L3407             /                                       @@3420=1207
 1907 03421 0130      AND   C0130             /                                       @@3421=0130
 1908 03422 7650      SNA CLA                 /                                       @@3422=7650
 1909 03423 5203      JMP   L3403             /                                       @@3423=5203
 1910 03424 1124      TAD   C0124             /                                       @@3424=1124
 1911 03425 3232      DCA   L3432             /                                       @@3425=3232
 1912             L3426,
 1913 03426 6274      SUF                     / (KT8/I) Sets the user flag.  Sets us  @@3426=6274
 1914 03427 6204      CINT                    / (KT8/I) Clear user interrupt.  Reset  @@3427=6204
 1915 03430 6001      ION                     / Enable Interrupts                     @@3430=6001
 1916 03431 5232      JMP   L3432             /                                       @@3431=5232
 1917             L3432,
 1918 03432 7406  D3432,  7406                / OSR HLT                               
 1919             L3433,
 1920 03433 5233      JMP   L3433             /                                       @@3433=5233
 1921 03434 7000      NOP                     /                                       @@3434=7000
 1922 03435 6254      SINT                    / (KT8/I) Skip on user interrupt.  Whe  @@3435=6254
 1923             L3436,
 1924 03436 5236      JMP   L3436             /                                       @@3436=5236
 1925 03437 6204      CINT                    / (KT8/I) Clear user interrupt.  Reset  @@3437=6204
 1926 03440 6254      SINT                    / (KT8/I) Skip on user interrupt.  Whe  @@3440=6254
 1927 03441 7610      SKP CLA                 /                                       @@3441=7610
 1928 03442 7402      HLT                     /                                       @@3442=7402
 1929 03443 1232      TAD   L3432             /                                       @@3443=1232
 1930 03444 1123      TAD   C0123             /                                       @@3444=1123
 1931 03445 3232      DCA   L3432             /                                       @@3445=3232
 1932 03446 1232      TAD   L3432             /                                       @@3446=1232
 1933 03447 1122      TAD   C0122             /                                       @@3447=1122
 1934 03450 7640      SZA CLA                 /                                       @@3450=7640
 1935 03451 5226      JMP   L3426             /                                       @@3451=5226
 1936 03452 6244      RMF                     / Restore memory field.  Used to exit   @@3452=6244
 1937 03453 6264      CUF                     / (KT8/I) Clears the user flag.  Clear  @@3453=6264
 1938 03454 6001      ION                     / Enable Interrupts                     @@3454=6001
 1939 03455 5256      JMP   L3456             /                                       @@3455=5256
 1940             L3456,

      AUTOMATIC DISASSEMBLY OF MAINDEC-08-DHMCA-A-PB.bin BY D8TAPE       Page 36


 1941 03456 6002      IOF                     / Disable Interrupts                    @@3456=6002
 1942 03457 6254      SINT                    / (KT8/I) Skip on user interrupt.  Whe  @@3457=6254
 1943 03460 7410      SKP                     /                                       @@3460=7410
 1944 03461 7402      HLT                     /                                       @@3461=7402
 1945 03462 6040  C3462,  6040                / 6040                                  
 1946             L3463,
 1947 03463 6041      TSF                     / Skip if teleprinter flag is a 1.      @@3463=6041
 1948 03464 5263      JMP   L3463             /                                       @@3464=5263
 1949 03465 6001      ION                     / Enable Interrupts                     @@3465=6001
 1950 03466 7410      SKP                     /                                       @@3466=7410
 1951 03467 7402      HLT                     /                                       @@3467=7402
 1952 03470 7402      HLT                     /                                       @@3470=7402
 1953 03471 7300      CLA CLL                 / AC = 0000                             @@3471=7300
 1954 03472 6004  C3472,  6004                / 6004                                  
 1955 03473 0126      AND   C0126             /                                       @@3473=0126
 1956 03474 7440      SZA                     /                                       @@3474=7440
 1957 03475 7402      HLT                     /                                       @@3475=7402
 1958 03476 7300      CLA CLL                 / AC = 0000                             @@3476=7300
 1959 03477 6007  C3477,  6007                / 6007                                  
 1960 03500 6264      CUF                     / (KT8/I) Clears the user flag.  Clear  @@3500=6264
 1961 03501 7000      NOP                     /                                       @@3501=7000
 1962 03502 7300      CLA CLL                 / AC = 0000                             @@3502=7300
 1963 03503 6007  C3503,  6007                / 6007                                  
 1964 03504 4423      JMS I C0023             / long call to S2435                    @@3504=4423
 1965 03505 1040      TAD   C0040             /                                       @@3505=1040
 1966 03506 1045      TAD   C0045             /                                       @@3506=1045
 1967 03507 3335      DCA   D3535             /                                       @@3507=3335
 1968 03510 1041      TAD   C0041             /                                       @@3510=1041
 1969 03511 1045      TAD   C0045             /                                       @@3511=1045
 1970 03512 3347      DCA   D3547             /                                       @@3512=3347
 1971             L3513,
 1972 03513 1144      TAD   C0144             /                                       @@3513=1144
 1973 03514 3010  C3514,  3010                / DCA   AI0                             
 1974 03515 1145      TAD   C0145             /                                       @@3515=1145
 1975 03516 3143      DCA   D0143             /                                       @@3516=3143
 1976 03517 7040      CMA                     /                                       @@3517=7040
 1977 03520 3011  C3520,  3011                / DCA   AI1                             
 1978 03521 1335      TAD   D3535             /                                       @@3521=1335
 1979 03522 0111      AND   C0111             /                                       @@3522=0111
 1980 03523 7010      RAR                     /                                       @@3523=7010
 1981 03524 7012      RTR                     /                                       @@3524=7012
 1982 03525 3112      DCA   D0112             /                                       @@3525=3112
 1983 03526 1347      TAD   D3547             /                                       @@3526=1347
 1984 03527 0111      AND   C0111             /                                       @@3527=0111
 1985 03530 1112      TAD   D0112             /                                       @@3530=1112
 1986 03531 1142      TAD   C0142             /                                       @@3531=1142
 1987 03532 3776      DCA I C3576             /                                       @@3532=3776
 1988             L3533,
 1989                 SDF 0                   / Change to data field 0. The data fie  @@3533=6201
 1989 03533 6201         0^10+CDF 
 1990 03534 1410  C3534,  1410                / TAD I AI0                             
 1991 03535 6201  D3535,  6201                / SDF0                                  
 1992 03536 3411  C3536,  3411                / DCA I AI1                             
 1993 03537 2143      ISZ   D0143             /                                       @@3537=2143
 1994 03540 5333      JMP   L3533             /                                       @@3540=5333
 1995 03541 1021      TAD   C0021             /                                       @@3541=1021
 1996 03542 3001      DCA   L0001             /                                       @@3542=3001

      AUTOMATIC DISASSEMBLY OF MAINDEC-08-DHMCA-A-PB.bin BY D8TAPE       Page 37


 1997 03543 1347      TAD   D3547             /                                       @@3543=1347
 1998 03544 3002      DCA   L0002             /                                       @@3544=3002
 1999 03545 1020      TAD   D0020             /                                       @@3545=1020
 2000 03546 3003      DCA   D0003             /                                       @@3546=3003
 2001 03547 6202  D3547,  6202                / SIF 0                                  
 2002 03550 5002      JMP   L0002             /                                       @@3550=5002
 2003             L3551,
 2004 03551 7300      CLA CLL                 / AC = 0000                             @@3551=7300
 2005 03552 2031      ISZ   D0031             /                                       @@3552=2031
 2006 03553 7410      SKP                     /                                       @@3553=7410
 2007 03554 5364      JMP   L3564             /                                       @@3554=5364
 2008 03555 1335      TAD   D3535             /                                       @@3555=1335
 2009 03556 1045      TAD   C0045             /                                       @@3556=1045
 2010 03557 3335      DCA   D3535             /                                       @@3557=3335
 2011 03560 1347      TAD   D3547             /                                       @@3560=1347
 2012 03561 1045      TAD   C0045             /                                       @@3561=1045
 2013 03562 3347      DCA   D3547             /                                       @@3562=3347
 2014 03563 5313      JMP   L3513             /                                       @@3563=5313
 2015             L3564,
 2016 03564 7300      CLA CLL                 / AC = 0000                             @@3564=7300
 2017 03565 6007  C3565,  6007                / 6007                                  
 2018 03566 6264      CUF                     / (KT8/I) Clears the user flag.  Clear  @@3566=6264
 2019 03567 1151      TAD   C0151             /                                       @@3567=1151
 2020 03570 3547      DCA I C0147             /                                       @@3570=3547
 2021 03571 7604      LAS                     /                                       @@3571=7604
 2022 03572 7700      SMA CLA                 /                                       @@3572=7700
 2023 03573 5550      JMP I C0150             / long jump to L1555                    @@3573=5550
 2024 03574 7402      HLT                     /                                       @@3574=7402
 2025 03575 5552      JMP I C0152             / long jump to L3643                    @@3575=5552
 2026 03576 3632  C3576,  3632                / DCA I L3432                           
 2027             
 2028       3600  *3600
 2029 03600 7402      HLT                     /                                       @@3600=7402
 2030 03601 7402      HLT                     /                                       @@3601=7402
 2031             L3602,
 2032 03602 7300      CLA CLL                 / AC = 0000                             @@3602=7300
 2033 03603 1232      TAD   D3632             /                                       @@3603=1232
 2034 03604 6005  C3604,  6005                / 6005                                  
 2035 03605 5206      JMP   L3606             /                                       @@3605=5206
 2036             L3606,
 2037 03606 6000  D3606,  6000                / 6000                                  
 2038             L3607,
 2039 03607 5207      JMP   L3607             /                                       @@3607=5207
 2040 03610 7300      CLA CLL                 / AC = 0000                             @@3610=7300
 2041 03611 6004  C3611,  6004                / 6004                                  
 2042 03612 7041      CIA                     /                                       @@3612=7041
 2043 03613 1232      TAD   D3632             /                                       @@3613=1232
 2044 03614 7640      SZA CLA                 /                                       @@3614=7640
 2045 03615 7402      HLT                     /                                       @@3615=7402
 2046             L3616,
 2047 03616 6003  C3616,  6003                / 6003                                  
 2048 03617 5216      JMP   L3616             /                                       @@3617=5216
 2049 03620 6204      CINT                    / (KT8/I) Clear user interrupt.  Reset  @@3620=6204
 2050 03621 2206      ISZ   L3606             /                                       @@3621=2206
 2051 03622 1206      TAD   L3606             /                                       @@3622=1206
 2052 03623 1231      TAD   C3631             /                                       @@3623=1231
 2053 03624 7640      SZA CLA                 /                                       @@3624=7640

      AUTOMATIC DISASSEMBLY OF MAINDEC-08-DHMCA-A-PB.bin BY D8TAPE       Page 38


 2054 03625 5202      JMP   L3602             /                                       @@3625=5202
 2055                 SIF 0                   / Prepare to change to instruction fie  @@3626=6202
 2055 03626 6202         0^10+CIF 
 2056 03627 5630      JMP I C3630             / long jump to L3551                    @@3627=5630
 2057             C3630,
 2058 03630 3551  C3630,  3551                / DCA I C0151                           
 2059 03631 1000  C3631,  1000                / TAD   S0000                           
 2060 03632 0000  D3632,  0000                / AND   S0000                           
 2061             L3633,
 2062 03633 7300      CLA CLL                 / AC = 0000                             @@3633=7300
 2063 03634 7604      LAS                     /                                       @@3634=7604
 2064 03635 7700      SMA CLA                 /                                       @@3635=7700
 2065 03636 5531      JMP I C0131             / long jump to L2600                    @@3636=5531
 2066 03637 6007  C3637,  6007                / 6007                                  
 2067 03640 1151      TAD   C0151             /                                       @@3640=1151
 2068 03641 3547      DCA I C0147             /                                       @@3641=3547
 2069 03642 5550      JMP I C0150             / long jump to L1555                    @@3642=5550
 2070             L3643,
 2071 03643 7300      CLA CLL                 / AC = 0000                             @@3643=7300
 2072 03644 1153      TAD   C0153             /                                       @@3644=1153
 2073 03645 3001      DCA   L0001             /                                       @@3645=3001
 2074 03646 6274      SUF                     / (KT8/I) Sets the user flag.  Sets us  @@3646=6274
 2075 03647 6001      ION                     / Enable Interrupts                     @@3647=6001
 2076 03650 5251      JMP   L3651             /                                       @@3650=5251
 2077             L3651,
 2078 03651 7402      HLT                     /                                       @@3651=7402
 2079 03652 6254      SINT                    / (KT8/I) Skip on user interrupt.  Whe  @@3652=6254
 2080 03653 7410      SKP                     /                                       @@3653=7410
 2081 03654 7402      HLT                     /                                       @@3654=7402
 2082 03655 6264      CUF                     / (KT8/I) Clears the user flag.  Clear  @@3655=6264
 2083 03656 6007  C3656,  6007                / 6007                                  
 2084 03657 5527      JMP I C0127             / long jump to L0203                    @@3657=5527
 2085             
 2086       4000  *4000
 2087             
 2088             ////////////////////////////////////////////////////////////////////////////////
 2089             /
 2090             /   SUBROUTINE:  S4000
 2091             /
 2092             /   Called from:
 2093             /   2370 
 2094             /   Total 0001 (1) calls
 2095             ////////////////////////////////////////////////////////////////////////////////
 2096             S4000,
 2097 04000 0000      0                       / return area
 2098             L4001,
 2099 04001 7300      CLA CLL                 / AC = 0000                             @@4001=7300
 2100 04002 3323      DCA   D4123             /                                       @@4002=3323
 2101 04003 3324      DCA   D4124             /                                       @@4003=3324
 2102 04004 1040      TAD   C0040             /                                       @@4004=1040
 2103 04005 3232      DCA   D4032             /                                       @@4005=3232
 2104 04006 1110      TAD   C0110             /                                       @@4006=1110
 2105 04007 3327      DCA   D4127             /                                       @@4007=3327
 2106 04010 1110      TAD   C0110             /                                       @@4010=1110
 2107 04011 3031      DCA   D0031             /                                       @@4011=3031
 2108 04012 1040      TAD   C0040             /                                       @@4012=1040
 2109 04013 3214      DCA   L4014             /                                       @@4013=3214

      AUTOMATIC DISASSEMBLY OF MAINDEC-08-DHMCA-A-PB.bin BY D8TAPE       Page 39


 2110             L4014,
 2111 04014 6201  D4014,  6201                / SDF0                                  
 2112 04015 4307      JMS   S4107             /                                       @@4015=4307
 2113 04016 2031      ISZ   D0031             /                                       @@4016=2031
 2114 04017 5222      JMP   L4022             /                                       @@4017=5222
 2115 04020 4252      JMS   S4052             /                                       @@4020=4252
 2116 04021 5227      JMP   L4027             /                                       @@4021=5227
 2117             L4022,
 2118 04022 1045      TAD   C0045             /                                       @@4022=1045
 2119 04023 1214      TAD   L4014             /                                       @@4023=1214
 2120 04024 3214      DCA   L4014             /                                       @@4024=3214
 2121 04025 2324      ISZ   D4124             /                                       @@4025=2324
 2122 04026 5214      JMP   L4014             /                                       @@4026=5214
 2123             L4027,
 2124 04027 7300      CLA CLL                 / AC = 0000                             @@4027=7300
 2125 04030 1323      TAD   D4123             /                                       @@4030=1323
 2126 04031 3324      DCA   D4124             /                                       @@4031=3324
 2127 04032 6201  D4032,  6201                / SDF0                                  
 2128 04033 4307      JMS   S4107             /                                       @@4033=4307
 2129 04034 6203  C4034,  6203                / 6203                                  
 2130 04035 4252      JMS   S4052             /                                       @@4035=4252
 2131 04036 7300      CLA CLL                 / AC = 0000                             @@4036=7300
 2132 04037 1232      TAD   D4032             /                                       @@4037=1232
 2133 04040 1045      TAD   C0045             /                                       @@4040=1045
 2134 04041 3232      DCA   D4032             /                                       @@4041=3232
 2135 04042 2323      ISZ   D4123             /                                       @@4042=2323
 2136 04043 2327      ISZ   D4127             /                                       @@4043=2327
 2137 04044 5227      JMP   L4027             /                                       @@4044=5227
 2138 04045 6203  C4045,  6203                / 6203                                  
 2139 04046 6007  C4046,  6007                / 6007                                  
 2140 04047 2027      ISZ   D0027             /                                       @@4047=2027
 2141 04050 5201      JMP   L4001             /                                       @@4050=5201
 2142 04051 5600      JMP I S4000             / return                                @@4051=5600
 2143             
 2144             ////////////////////////////////////////////////////////////////////////////////
 2145             /
 2146             /   SUBROUTINE:  S4052
 2147             /
 2148             /   Called from:
 2149             /   4020 4035 
 2150             /   Total 0002 (2) calls
 2151             ////////////////////////////////////////////////////////////////////////////////
 2152             S4052,
 2153 04052 0000      0                       / return area
 2154 04053 7300      CLA CLL                 / AC = 0000                             @@4053=7300
 2155 04054 3324      DCA   D4124             /                                       @@4054=3324
 2156 04055 7604      LAS                     /                                       @@4055=7604
 2157 04056 0044      AND   C0044             /                                       @@4056=0044
 2158 04057 7040      CMA                     /                                       @@4057=7040
 2159 04060 3031      DCA   D0031             /                                       @@4060=3031
 2160 04061 1041      TAD   C0041             /                                       @@4061=1041
 2161 04062 3263      DCA   L4063             /                                       @@4062=3263
 2162             L4063,
 2163 04063 6202  D4063,  6202                / SIF 0                                  
 2164 04064 5541      JMP I C0141             / long jump to L0001                    @@4064=5541
 2165 04065 7041      CIA                     /                                       @@4065=7041
 2166 04066 1324      TAD   D4124             /                                       @@4066=1324

      AUTOMATIC DISASSEMBLY OF MAINDEC-08-DHMCA-A-PB.bin BY D8TAPE       Page 40


 2167 04067 7450      SNA                     /                                       @@4067=7450
 2168 04070 5276      JMP   L4076             /                                       @@4070=5276
 2169 04071 3112      DCA   D0112             /                                       @@4071=3112
 2170 04072 1263      TAD   L4063             /                                       @@4072=1263
 2171 04073 0111      AND   C0111             /                                       @@4073=0111
 2172 04074 1112      TAD   D0112             /                                       @@4074=1112
 2173 04075 7402      HLT                     /                                       @@4075=7402
 2174             L4076,
 2175 04076 7300      CLA CLL                 / AC = 0000                             @@4076=7300
 2176 04077 2031      ISZ   D0031             /                                       @@4077=2031
 2177 04100 7410      SKP                     /                                       @@4100=7410
 2178 04101 5652      JMP I S4052             / return                                @@4101=5652
 2179 04102 1263      TAD   L4063             /                                       @@4102=1263
 2180 04103 1045      TAD   C0045             /                                       @@4103=1045
 2181 04104 3263      DCA   L4063             /                                       @@4104=3263
 2182 04105 2324      ISZ   D4124             /                                       @@4105=2324
 2183 04106 5263      JMP   L4063             /                                       @@4106=5263
 2184             
 2185             ////////////////////////////////////////////////////////////////////////////////
 2186             /
 2187             /   SUBROUTINE:  S4107
 2188             /
 2189             /   Called from:
 2190             /   4015 4033 
 2191             /   Total 0002 (2) calls
 2192             ////////////////////////////////////////////////////////////////////////////////
 2193             S4107,
 2194 04107 0000      0                       / return area
 2195 04110 1324      TAD   D4124             /                                       @@4110=1324
 2196 04111 3537      DCA I C0137             /                                       @@4111=3537
 2197 04112 1130      TAD   C0130             /                                       @@4112=1130
 2198 04113 3541      DCA I C0141             /                                       @@4113=3541
 2199 04114 1041      TAD   C0041             /                                       @@4114=1041
 2200 04115 3522      DCA I C0122             /                                       @@4115=3522
 2201 04116 1326      TAD   C4126             /                                       @@4116=1326
 2202 04117 3540      DCA I C0140             /                                       @@4117=3540
 2203 04120 1325      TAD   C4125             /                                       @@4120=1325
 2204 04121 3523      DCA I C0123             /                                       @@4121=3523
 2205 04122 5707      JMP I S4107             / return                                @@4122=5707
 2206 04123 0000  D4123,  0000                / AND   S0000                           
 2207 04124 0000  D4124,  0000                / AND   S0000                           
 2208 04125 4065  C4125,  4065                / JMS   C0065                           
 2209 04126 5404  C4126,  5404                / JMP I D0004                           
 2210 04127 0000  D4127,  0000                / AND   S0000                           
 2211             
 2212       7751  *7751                       / align to RIMLDR location
 2213 07751 0200      0200                    / addr of program start
 2214 07752 6032      KCC                     / first instr in std RIMLDR
 2215 07753 1352      TAD .-1                 / get KCC instr
 2216 07754 3356      DCA .+2                 / restore into RIMLDR
 2217 07755 5751      JMP I .-4               / start program
 2218 07756 5353      JMP .-3                 / overlay first word of RIMLDR
 2219             

      No detected errors

      AUTOMATIC DISASSEMBLY OF MAINDEC-08-DHMCA-A-PB.bin BY D8TAPE       Page 41
                                                                    Symbol Table

    1  C0020  00020   C0131  00131   C1515  01515   C2517  02517   D0027  00027 
    2  C0021  00021   C0132  00132   C1517  01517   C2526  02526   D0030  00030 
    3  C0022  00022   C0133  00133   C1521  01521   C2534  02534   D0031  00031 
    4  C0023  00023   C0134  00134   C1524  01524   C2550  02550   D0032  00032 
    5  C0025  00025   C0137  00137   C1527  01527   C2601  02601   D0033  00033 
    6  C0035  00035   C0140  00140   C1532  01532   C2610  02610   D0034  00034 
    7  C0036  00036   C0141  00141   C1535  01535   C2624  02624   D0066  00066 
    8  C0037  00037   C0142  00142   C1540  01540   C2654  02654   D0070  00070 
    9  C0040  00040   C0144  00144   C1543  01543   C2666  02666   D0112  00112 
   10  C0041  00041   C0145  00145   C1546  01546   C2676  02676   D0113  00113 
   11  C0042  00042   C0146  00146   C1554  01554   C2711  02711   D0114  00114 
   12  C0043  00043   C0147  00147   C1614  01614   C2775  02775   D0123  00123 
   13  C0044  00044   C0150  00150   C1656  01656   C3002  03002   D0136  00136 
   14  C0045  00045   C0151  00151   C1665  01665   C3010  03010   D0143  00143 
   15  C0046  00046   C0152  00152   C1674  01674   C3015  03015   D0607  00607 
   16  C0047  00047   C0153  00153   C1700  01700   C3021  03021   D0630  00630 
   17  C0050  00050   C0155  00155   C1701  01701   C3026  03026   D0671  00671 
   18  C0051  00051   C0156  00156   C1702  01702   C3034  03034   D0723  00723 
   19  C0052  00052   C0157  00157   C1732  01732   C3102  03102   D0724  00724 
   20  C0053  00053   C0204  00204   C1736  01736   C3105  03105   D0753  00753 
   21  C0054  00054   C0335  00335   C2020  02020   C3113  03113   D1017  01017 
   22  C0055  00055   C0376  00376   C2022  02022   C3114  03114   D1020  01020 
   23  C0056  00056   C0400  00400   C2031  02031   C3117  03117   D1046  01046 
   24  C0057  00057   C0547  00547   C2033  02033   C3121  03121   D1060  01060 
   25  C0060  00060   C0751  00751   C2056  02056   C3123  03123   D1071  01071 
   26  C0061  00061   C0752  00752   C2062  02062   C3151  03151   D1074  01074 
   27  C0062  00062   C0754  00754   C2101  02101   C3164  03164   D1127  01127 
   28  C0063  00063   C0755  00755   C2104  02104   C3235  03235   D1130  01130 
   29  C0064  00064   C1047  01047   C2105  02105   C3270  03270   D1132  01132 
   30  C0065  00065   C1057  01057   C2114  02114   C3462  03462   D1133  01133 
   31  C0067  00067   C1061  01061   C2116  02116   C3472  03472   D1252  01252 
   32  C0071  00071   C1062  01062   C2122  02122   C3477  03477   D1263  01263 
   33  C0072  00072   C1245  01245   C2236  02236   C3503  03503   D1316  01316 
   34  C0074  00074   C1247  01247   C2247  02247   C3514  03514   D1337  01337 
   35  C0076  00076   C1253  01253   C2251  02251   C3520  03520   D1347  01347 
   36  C0077  00077   C1254  01254   C2254  02254   C3534  03534   D1355  01355 
   37  C0100  00100   C1305  01305   C2257  02257   C3536  03536   D1363  01363 
   38  C0101  00101   C1313  01313   C2262  02262   C3565  03565   D1371  01371 
   39  C0102  00102   C1320  01320   C2311  02311   C3576  03576   D1446  01446 
   40  C0103  00103   C1327  01327   C2330  02330   C3604  03604   D1465  01465 
   41  C0104  00104   C1330  01330   C2336  02336   C3611  03611   D1506  01506 
   42  C0106  00106   C1336  01336   C2343  02343   C3616  03616   D1556  01556 
   43  C0107  00107   C1340  01340   C2345  02345   C3630  03630   D1600  01600 
   44  C0110  00110   C1346  01346   C2353  02353   C3631  03631   D1605  01605 
   45  C0111  00111   C1354  01354   C2355  02355   C3637  03637   D1644  01644 
   46  C0115  00115   C1362  01362   C2372  02372   C3656  03656   D1660  01660 
   47  C0116  00116   C1370  01370   C2373  02373   C4034  04034   D1661  01661 
   48  C0117  00117   C1400  01400   C2410  02410   C4045  04045   D1675  01675 
   49  C0120  00120   C1444  01444   C2414  02414   C4046  04046   D1676  01676 
   50  C0121  00121   C1447  01447   C2434  02434   C4125  04125   D1677  01677 
   51  C0122  00122   C1454  01454   C2445  02445   C4126  04126   D1737  01737 
   52  C0123  00123   C1460  01460   C2457  02457   CINT    6204   D1740  01740 
   53  C0124  00124   C1464  01464   C2463  02463   CUF     6264   D1741  01741 
   54  C0125  00125   C1466  01466   C2475  02475   D0001  00001   D1742  01742 
   55  C0126  00126   C1474  01474   C2477  02477   D0002  00002   D2032  02032 
   56  C0127  00127   C1476  01476   C2501  02501   D0003  00003   D2042  02042 
   57  C0130  00130   C1507  01507   C2502  02502   D0020  00020   D2043  02043 

      AUTOMATIC DISASSEMBLY OF MAINDEC-08-DHMCA-A-PB.bin BY D8TAPE       Page 42
                                                                    Symbol Table

   58  D2044  02044   L0525  00525   L1720  01720   L2756  02756   L3410  03410 
   59  D2045  02045   L0535  00535   L1727  01727   L2760  02760   L3412  03412 
   60  D2046  02046   L0544  00544   L1733  01733   L2767  02767   L3426  03426 
   61  D2057  02057   L0600  00600   L2017  02017   L2771  02771   L3432  03432 
   62  D2203  02203   L0601  00601   L2030  02030   L3006  03006   L3433  03433 
   63  D2245  02245   L0607  00607   L2055  02055   L3007  03007   L3436  03436 
   64  D2304  02304   L0622  00622   L2074  02074   L3010  03010   L3456  03456 
   65  D2331  02331   L0630  00630   L2077  02077   L3021  03021   L3463  03463 
   66  D2460  02460   L0645  00645   L2113  02113   L3022  03022   L3513  03513 
   67  D2510  02510   L0652  00652   L2200  02200   L3026  03026   L3533  03533 
   68  D3000  03000   L0656  00656   L2203  02203   L3034  03034   L3551  03551 
   69  D3266  03266   L0667  00667   L2231  02231   L3035  03035   L3564  03564 
   70  D3407  03407   L0705  00705   L2237  02237   L3037  03037   L3602  03602 
   71  D3432  03432   L0711  00711   L2253  02253   L3043  03043   L3606  03606 
   72  D3535  03535   L0715  00715   L2257  02257   L3046  03046   L3607  03607 
   73  D3547  03547   L0723  00723   L2264  02264   L3051  03051   L3616  03616 
   74  D3606  03606   L0727  00727   L2271  02271   L3052  03052   L3633  03633 
   75  D3632  03632   L0744  00744   L2276  02276   L3054  03054   L3643  03643 
   76  D4014  04014   L1000  01000   L2331  02331   L3063  03063   L3651  03651 
   77  D4032  04032   L1005  01005   L2340  02340   L3067  03067   L4001  04001 
   78  D4063  04063   L1011  01011   L2363  02363   L3070  03070   L4014  04014 
   79  D4123  04123   L1017  01017   L2400  02400   L3072  03072   L4022  04022 
   80  D4124  04124   L1023  01023   L2407  02407   L3101  03101   L4027  04027 
   81  D4127  04127   L1041  01041   L2412  02412   L3103  03103   L4063  04063 
   82  L0000  00000   L1050  01050   L2446  02446   L3105  03105   L4076  04076 
   83  L0001  00001   L1053  01053   L2452  02452   L3111  03111   S0000  00000 
   84  L0002  00002   L1061  01061   L2456  02456   L3117  03117   S1321  01321 
   85  L0203  00203   L1072  01072   L2461  02461   L3120  03120   S2000  02000 
   86  L0211  00211   L1106  01106   L2600  02600   L3134  03134   S2047  02047 
   87  L0220  00220   L1113  01113   L2612  02612   L3135  03135   S2076  02076 
   88  L0231  00231   L1127  01127   L2615  02615   L3140  03140   S2112  02112 
   89  L0235  00235   L1132  01132   L2620  02620   L3142  03142   S2244  02244 
   90  L0246  00246   L1206  01206   L2623  02623   L3144  03144   S2435  02435 
   91  L0257  00257   L1226  01226   L2626  02626   L3151  03151   S2443  02443 
   92  L0263  00263   L1240  01240   L2632  02632   L3152  03152   S4000  04000 
   93  L0274  00274   L1246  01246   L2633  02633   L3157  03157   S4052  04052 
   94  L0305  00305   L1253  01253   L2635  02635   L3200  03200   S4107  04107 
   95  L0311  00311   L1335  01335   L2641  02641   L3201  03201   SDF     0000 
   96  L0322  00322   L1400  01400   L2644  02644   L3203  03203   SIF     0001 
   97  L0333  00333   L1416  01416   L2650  02650   L3212  03212   SINT    6254 
   98  L0345  00345   L1432  01432   L2651  02651   L3216  03216   SUF     6274 
   99  L0354  00354   L1435  01435   L2653  02653   L3217  03217 
  100  L0364  00364   L1440  01440   L2662  02662   L3224  03224 
  101  L0373  00373   L1447  01447   L2666  02666   L3226  03226 
  102  L0400  00400   L1463  01463   L2667  02667   L3233  03233 
  103  L0402  00402   L1475  01475   L2671  02671   L3234  03234 
  104  L0412  00412   L1510  01510   L2700  02700   L3242  03242 
  105  L0421  00421   L1555  01555   L2704  02704   L3244  03244 
  106  L0431  00431   L1557  01557   L2705  02705   L3246  03246 
  107  L0440  00440   L1600  01600   L2707  02707   L3252  03252 
  108  L0444  00444   L1615  01615   L2723  02723   L3253  03253 
  109  L0454  00454   L1621  01621   L2727  02727   L3254  03254 
  110  L0463  00463   L1633  01633   L2730  02730   L3256  03256 
  111  L0473  00473   L1656  01656   L2736  02736   L3262  03262 
  112  L0502  00502   L1665  01665   L2740  02740   L3400  03400 
  113  L0506  00506   L1703  01703   L2745  02745   L3403  03403 
  114  L0516  00516   L1710  01710   L2747  02747   L3407  03407 

      AUTOMATIC DISASSEMBLY OF MAINDEC-08-DHMCA-A-PB.bin BY D8TAPE       Page 43
                                                                 Cross Reference

    1 A     57  C0020   
    2 A     59  C0021       495   1318   1361   1499   1995
    3 A     61  C0022       283    521    572    652    824   1007   1296   1360
    4 A     63  C0023       443    462    501    527    578    616    634    658
    5                       855   1134   1427   1964
    6 A     66  C0025       667
    7 A     74  C0035       805
    8 A     75  C0036       640    702    737    811
    9 A     76  C0037       177    507    509    511    642    736    828
   10 A     77  C0040       446    465    502    617    659    856    999   1092
   11                      1135   1229   1285   1965   2102   2108
   12 A     78  C0041       524    575    662    898   1002   1968   2160   2199
   13 A     79  C0042       666
   14 A     80  C0043       508
   15 A     81  C0044       888    957   1212   1214   1220   1403   2157
   16 A     82  C0045       447    456    466    483    504    530    533    581
   17                       584    621    637    660    663    740    743    860
   18                       976    987   1104   1136   1151   1243   1306   1966
   19                      1969   2009   2012   2118   2133   2180
   20 A     83  C0046       817    896
   21 A     85  C0047       452    470    825    829    832    846
   22 A     86  C0050        64    189    653    852
   23 A     87  C0051       204
   24 A     88  C0052       214
   25 A     89  C0053       229
   26 A     90  C0054       239
   27 A     91  C0055       254
   28 A     92  C0056       264
   29 A     93  C0057       302   1453
   30 A     94  C0060       330
   31 A     95  C0061       347
   32 A     96  C0062       369
   33 A     97  C0063       386
   34 A     98  C0064       408
   35 A     99  C0065       656
   36 A    101  C0067       783
   37 A    103  C0071       873
   38 A    104  C0072   
   39 A    106  C0074   
   40 A    109  C0076       683    700    711    723    733    739    741    749
   41                       785
   42 A    110  C0077       742    744    745
   43 A    111  C0100       780
   44 A    112  C0101       776    833
   45 A    113  C0102       778
   46 A    114  C0103       799
   47 A    115  C0104       831
   48 A    117  C0106       835
   49 A    119  C0107       717
   50 A    120  C0110       425    886    981    983   1208   1311   1386   2104
   51                      2106
   52 A    121  C0111       144   1289   1979   1984   2171
   53 A    125  C0115      1327   1332
   54 A    126  C0116      1340
   55 A    127  C0117      1374   1473
   56 A    128  C0120      1382   1428   1486
   57 A    129  C0121   

      AUTOMATIC DISASSEMBLY OF MAINDEC-08-DHMCA-A-PB.bin BY D8TAPE       Page 44
                                                                 Cross Reference

   58 A    130  C0122      1933   2200
   59 A    132  C0123      1930   2204
   60 A    133  C0124      1444   1450   1910
   61 A    134  C0125      1887
   62 A    135  C0126      1590   1656   1670   1679   1751   1955
   63 A    137  C0127       950    952   2084
   64 A    138  C0130      1448   1907   2197
   65 A    140  C0131      1877   2065
   66 A    141  C0132      1431
   67 A    142  C0133       760    761   1446
   68 A    143  C0134      1455
   69 A    146  C0137      1440   1442   2196
   70 A    147  C0140      2202
   71 A    149  C0141      1445   2164   2198
   72 A    150  C0142      1986
   73 A    152  C0144      1972
   74 A    153  C0145      1974
   75 A    155  C0146      1216   1238
   76 A    156  C0147      1218   2020   2068
   77 A    158  C0150      2023   2069
   78 A    159  C0151      2019   2067
   79 A    161  C0152       172   2025
   80 A    162  C0153      2072
   81 A    165  C0155      1349
   82 A    166  C0156   
   83 A    167  C0157      1170   1172
   84 A    175  C0204   
   85 A    276  C0335   
   86 A    314  C0376       312
   87 A    318  C0400   
   88 A    437  C0547       435
   89 A    561  C0751       559
   90 A    562  C0752       497
   91 A    564  C0754       510
   92 A    565  C0755       512
   93 A    614  C1047       611
   94 A    624  C1057   
   95 A    627  C1061   
   96 A    628  C1062   
   97 A    719  C1245       716
   98 A    722  C1247   
   99 A    727  C1253   
  100 A    728  C1254   
  101 A    753  C1305   
  102 A    759  C1313   
  103 A    764  C1320   
  104 A    781  C1327   
  105 A    782  C1330   
  106 A    789  C1336   
  107 A    791  C1340   
  108 A    797  C1346   
  109 A    803  C1354   
  110 A    809  C1362   
  111 A    815  C1370   
  112 A    823  C1400   
  113 A    863  C1444   
  114 A    867  C1447   

      AUTOMATIC DISASSEMBLY OF MAINDEC-08-DHMCA-A-PB.bin BY D8TAPE       Page 45
                                                                 Cross Reference

  115 A    872  C1454   
  116 A    876  C1460   
  117 A    881  C1464   
  118 A    883  C1466   
  119 A    889  C1474   
  120 A    892  C1476   
  121 A    901  C1507   
  122 A    909  C1515       907
  123 A    911  C1517       871    875
  124 A    913  C1521   
  125 A    916  C1524   
  126 A    919  C1527   
  127 A    922  C1532   
  128 A    925  C1535   
  129 A    928  C1540   
  130 A    931  C1543   
  131 A    934  C1546   
  132 A    940  C1554       942
  133 A    968  C1614   
  134 A   1006  C1656   
  135 A   1014  C1665   
  136 A   1021  C1674       967
  137 A   1026  C1700       960    994
  138 A   1028  C1701      1020
  139 A   1029  C1702       963    965
  140 A   1058  C1732      1056
  141 A   1064  C1736       997   1062
  142 A   1098  C2020   
  143 A   1100  C2022   
  144 A   1108  C2031   
  145 A   1110  C2033   
  146 A   1140  C2056   
  147 A   1144  C2062   
  148 A   1171  C2101   
  149 A   1174  C2104   
  150 A   1175  C2105   
  151 A   1193  C2114   
  152 A   1195  C2116   
  153 A   1199  C2122   
  154 A   1240  C2236      1237
  155 A   1260  C2247   
  156 A   1262  C2251   
  157 A   1266  C2254   
  158 A   1270  C2257   
  159 A   1273  C2262   
  160 A   1299  C2311   
  161 A   1315  C2330      1313
  162 A   1322  C2336   
  163 A   1328  C2343   
  164 A   1330  C2345   
  165 A   1336  C2353   
  166 A   1338  C2355   
  167 A   1353  C2372      1351
  168 A   1355  C2373      1350
  169 A   1368  C2410   
  170 A   1373  C2414   
  171 A   1390  C2434      1388

      AUTOMATIC DISASSEMBLY OF MAINDEC-08-DHMCA-A-PB.bin BY D8TAPE       Page 46
                                                                 Cross Reference

  172 A   1419  C2445   
  173 A   1432  C2457   
  174 A   1437  C2463   
  175 A   1447  C2475   
  176 A   1449  C2477   
  177 A   1451  C2501   
  178 A   1452  C2502   
  179 A   1465  C2517   
  180 A   1472  C2526   
  181 A   1478  C2534   
  182 A   1491  C2550      1484
  183 A   1496  C2601   
  184 A   1503  C2610   
  185 A   1519  C2624   
  186 A   1552  C2654   
  187 A   1564  C2666   
  188 A   1574  C2676   
  189 A   1589  C2711   
  190 A   1652  C2775   
  191 A   1657  C3002   
  192 A   1666  C3010   
  193 A   1671  C3015   
  194 A   1676  C3021   
  195 A   1683  C3026   
  196 A   1690  C3034   
  197 A   1740  C3102   
  198 A   1745  C3105   
  199 A   1752  C3113   
  200 A   1753  C3114   
  201 A   1757  C3117   
  202 A   1760  C3121   
  203 A   1762  C3123   
  204 A   1790  C3151   
  205 A   1804  C3164      1802
  206 A   1846  C3235   
  207 A   1882  C3270      1880
  208 A   1945  C3462   
  209 A   1954  C3472   
  210 A   1959  C3477   
  211 A   1963  C3503   
  212 A   1973  C3514   
  213 A   1977  C3520   
  214 A   1990  C3534   
  215 A   1992  C3536   
  216 A   2017  C3565   
  217 A   2026  C3576      1987
  218 A   2034  C3604   
  219 A   2041  C3611   
  220 A   2047  C3616   
  221 A   2058  C3630      2056
  222 A   2059  C3631      2052
  223 A   2066  C3637   
  224 A   2083  C3656   
  225 A   2129  C4034   
  226 A   2138  C4045   
  227 A   2139  C4046   
  228 A   2208  C4125      2203

      AUTOMATIC DISASSEMBLY OF MAINDEC-08-DHMCA-A-PB.bin BY D8TAPE       Page 47
                                                                 Cross Reference

  229 A   2209  C4126      2201
  230 A     34  CINT       1498   1498   1533   1533   1570   1570   1593   1593
  231                      1608   1608   1618   1618   1629   1629   1640   1640
  232                      1651   1651   1668   1668   1685   1685   1696   1696
  233                      1714   1714   1732   1732   1785   1785   1799   1799
  234                      1814   1814   1829   1829   1848   1848   1871   1871
  235                      1891   1891   1901   1901   1914   1914   1925   1925
  236                      2049   2049
  237 A     31  CUF         176    176   1497   1497   1610   1610   1831   1831
  238                      1847   1847   1937   1937   1960   1960   2018   2018
  239                      2082   2082
  240 A     51  D0001   
  241 A     53  D0002   
  242 A     54  D0003       500   2000
  243 A     58  D0020       279    499    757   1283   1320   1363   1501   1999
  244 A     68  D0027       116    199    202    224    227    249    252    274
  245                       281    310    319    355    358    394    397    433
  246                       441    479    522    557    573    609    641    643
  247                       654    715    826    847    853    905   1209   1236
  248                      1304   1347   1379   2140
  249 A     69  D0030       445    451    459    464    474    486
  250 A     70  D0031       453    477    513    555    607    632    644    713
  251                       903   1147   1405   1482   2005   2107   2113   2159
  252                      2176
  253 A     71  D0032        67    471    472    489
  254 A     72  D0033      1217   1226   1228   1234
  255 A     73  D0034      1225   1230
  256 A    100  D0066       657    690    747
  257 A    102  D0070   
  258 A    122  D0112      1293   1301   1982   1985   2169   2172
  259 A    123  D0113      1309   1312   1384   1387
  260 A    124  D0114      1365   1367   1376   1381   1383
  261 A    131  D0123   
  262 A    145  D0136      1443   1460
  263 A    151  D0143      1975   1993
  264 A    450  D0607   
  265 A    469  D0630   
  266 A    506  D0671       505    516
  267 A    536  D0723   
  268 A    537  D0724   
  269 A    563  D0753       526    532    534    544    547
  270 A    587  D1017   
  271 A    588  D1020   
  272 A    612  D1046       577    583    585    596    599
  273 A    625  D1060       618    620    622
  274 A    635  D1071   
  275 A    639  D1074       638    647
  276 A    669  D1127   
  277 A    670  D1130       664    665
  278 A    673  D1132   
  279 A    674  D1133   
  280 A    725  D1252       724
  281 A    735  D1263       734
  282 A    762  D1316       746
  283 A    790  D1337       786    794    801    807    813
  284 A    798  D1347       795
  285 A    804  D1355       802

      AUTOMATIC DISASSEMBLY OF MAINDEC-08-DHMCA-A-PB.bin BY D8TAPE       Page 48
                                                                 Cross Reference

  286 A    810  D1363       808
  287 A    816  D1371       814
  288 A    865  D1446       857    859    861    877
  289 A    882  D1465       878
  290 A    900  D1506       899
  291 A    943  D1556   
  292 A    956  D1600   
  293 A    961  D1605       959    972    992
  294 A    995  D1644       993
  295 A   1008  D1660      1001
  296 A   1009  D1661      1004
  297 A   1022  D1675       964   1018
  298 A   1023  D1676       973   1016
  299 A   1024  D1677       982
  300 A   1065  D1737       984    986    988    989   1000   1042
  301 A   1066  D1740       991   1039
  302 A   1067  D1741       971    975    977    978   1003   1050
  303 A   1068  D1742       980   1047
  304 A   1109  D2032      1093   1103   1105
  305 A   1117  D2042      1084   1094
  306 A   1118  D2043      1087   1101
  307 A   1119  D2044      1090   1097   1099
  308 A   1120  D2045      1095   1113
  309 A   1121  D2046      1102   1111
  310 A   1141  D2057      1137   1150   1152
  311 A   1211  D2203   
  312 A   1258  D2245      1231   1242   1244
  313 A   1294  D2304      1286   1288   1307   1308
  314 A   1317  D2331   
  315 A   1433  D2460      1429   1436   1475   1487   1488
  316 A   1458  D2510      1454   1457
  317 A   1655  D3000   
  318 A   1879  D3266      1876
  319 A   1895  D3407   
  320 A   1918  D3432   
  321 A   1991  D3535      1967   1978   2008   2010
  322 A   2001  D3547      1970   1983   1997   2011   2013
  323 A   2037  D3606   
  324 A   2060  D3632      2033   2043
  325 A   2111  D4014   
  326 A   2127  D4032      2103   2132   2134
  327 A   2163  D4063   
  328 A   2206  D4123      2100   2125   2135
  329 A   2207  D4124      2101   2121   2126   2155   2166   2182   2195
  330 A   2210  D4127      2105   2136
  331 A     40  L0000   
  332 A     50  L0001       178    280    496    777    834    966   1284   1319
  333                      1362   1456   1500   1996   2073
  334 A     52  L0002       498    779    836    910   1263   1267   1276   1321
  335                      1364   1502   1998   2002
  336 A    173  L0203   
  337 A    180  L0211       187    200
  338 A    188  L0220       184    197
  339 A    198  L0231       194
  340 A    203  L0235       212    225
  341 A    213  L0246       209    222
  342 A    223  L0257       219

      AUTOMATIC DISASSEMBLY OF MAINDEC-08-DHMCA-A-PB.bin BY D8TAPE       Page 49
                                                                 Cross Reference

  343 A    228  L0263       237    250
  344 A    238  L0274       234    247
  345 A    248  L0305       244
  346 A    253  L0311       262    275
  347 A    263  L0322       259    272
  348 A    273  L0333       269
  349 A    284  L0345       291    311
  350 A    292  L0354       289    300    308
  351 A    301  L0364       298
  352 A    309  L0373       306
  353 A    317  L0400   
  354 A    320  L0402       328    336    356
  355 A    329  L0412       326
  356 A    337  L0421       334    345    353
  357 A    346  L0431       343
  358 A    354  L0440       351
  359 A    359  L0444       367    375    395
  360 A    368  L0454       365
  361 A    376  L0463       373    384    392
  362 A    385  L0473       382
  363 A    393  L0502       390
  364 A    398  L0506       406    414    434
  365 A    407  L0516       404
  366 A    415  L0525       412    423    431
  367 A    424  L0535       421
  368 A    432  L0544       429
  369 A    440  L0600   
  370 A    442  L0601       480
  371 A    449  L0607       448    457    458    460
  372 A    461  L0622       455
  373 A    468  L0630       467    484    485    487    492
  374 A    482  L0645       478
  375 A    488  L0652       476
  376 A    493  L0656       481
  377 A    503  L0667       517
  378 A    518  L0705       515
  379 A    523  L0711       558
  380 A    528  L0715       556
  381 A    535  L0723       525    529    531    553
  382 A    540  L0727       539
  383 A    554  L0744       546
  384 A    568  L1000   
  385 A    574  L1005       610
  386 A    579  L1011       608
  387 A    586  L1017       576    580    582    605
  388 A    591  L1023       590
  389 A    606  L1041       598
  390 A    615  L1050   
  391 A    619  L1053       633
  392 A    626  L1061       631
  393 A    636  L1072       648
  394 A    649  L1106       646
  395 A    655  L1113   
  396 A    668  L1127       661    675
  397 A    672  L1132       671
  398 A    684  L1206       680
  399 A    701  L1226       693

      AUTOMATIC DISASSEMBLY OF MAINDEC-08-DHMCA-A-PB.bin BY D8TAPE       Page 50
                                                                 Cross Reference

  400 A    712  L1240       707
  401 A    720  L1246       714
  402 A    726  L1253       731
  403 A    787  L1335       793
  404 A    822  L1400       841
  405 A    837  L1416       848
  406 A    850  L1432       849
  407 A    854  L1435       906
  408 A    858  L1440       904
  409 A    866  L1447       869
  410 A    879  L1463       885
  411 A    890  L1475       894
  412 A    902  L1510       939
  413 A    941  L1555   
  414 A    944  L1557       946
  415 A    955  L1600   
  416 A    969  L1615      1019
  417 A    974  L1621      1017
  418 A    985  L1633      1015
  419 A   1005  L1656   
  420 A   1013  L1665   
  421 A   1030  L1703      1010
  422 A   1036  L1710      1012
  423 A   1045  L1720      1041
  424 A   1053  L1727      1049
  425 A   1059  L1733      1035   1044   1052
  426 A   1096  L2017      1114
  427 A   1106  L2030      1112
  428 A   1138  L2055      1153
  429 A   1154  L2074      1149
  430 A   1168  L2077      1178
  431 A   1191  L2113      1202
  432 A   1206  L2200   
  433 A   1210  L2203   
  434 A   1233  L2231      1246
  435 A   1241  L2237      1235
  436 A   1264  L2253      1268
  437 A   1269  L2257      1277
  438 A   1275  L2264      1272
  439 A   1281  L2271   
  440 A   1287  L2276      1305   1310
  441 A   1316  L2331      1348
  442 A   1324  L2340      1323
  443 A   1344  L2363      1343
  444 A   1358  L2400   
  445 A   1366  L2407      1380   1385
  446 A   1370  L2412      1369
  447 A   1420  L2446      1422
  448 A   1425  L2452   
  449 A   1430  L2456      1489
  450 A   1434  L2461      1481
  451 A   1494  L2600   
  452 A   1505  L2612      1506
  453 A   1509  L2615      1510
  454 A   1513  L2620      1514
  455 A   1517  L2623      1518
  456 A   1521  L2626      1522

      AUTOMATIC DISASSEMBLY OF MAINDEC-08-DHMCA-A-PB.bin BY D8TAPE       Page 51
                                                                 Cross Reference

  457 A   1526  L2632      1525
  458 A   1528  L2633      1529
  459 A   1531  L2635      1532
  460 A   1536  L2641      1537
  461 A   1540  L2644      1541
  462 A   1545  L2650      1544
  463 A   1547  L2651      1548
  464 A   1550  L2653      1551
  465 A   1558  L2662      1559
  466 A   1563  L2666      1562
  467 A   1565  L2667      1566
  468 A   1568  L2671      1569
  469 A   1576  L2700      1577
  470 A   1581  L2704      1580
  471 A   1583  L2705      1584
  472 A   1586  L2707      1587
  473 A   1599  L2723      1600
  474 A   1604  L2727      1603
  475 A   1606  L2730      1607
  476 A   1613  L2736      1612
  477 A   1616  L2740      1617
  478 A   1622  L2745      1621
  479 A   1625  L2747      1626
  480 A   1633  L2756      1632
  481 A   1636  L2760      1637
  482 A   1644  L2767      1643
  483 A   1647  L2771      1648
  484 A   1661  L3006      1660
  485 A   1663  L3007      1664
  486 A   1665  L3010      1667
  487 A   1675  L3021      1674
  488 A   1677  L3022      1678
  489 A   1682  L3026      1684
  490 A   1689  L3034      1688
  491 A   1691  L3035      1692
  492 A   1694  L3037      1695
  493 A   1699  L3043      1700
  494 A   1703  L3046      1704
  495 A   1707  L3051      1706
  496 A   1709  L3052      1710
  497 A   1712  L3054      1713
  498 A   1720  L3063      1721
  499 A   1725  L3067      1724
  500 A   1727  L3070      1728
  501 A   1730  L3072      1731
  502 A   1738  L3101      1739
  503 A   1741  L3103      1743
  504 A   1744  L3105      1746
  505 A   1749  L3111      1750
  506 A   1756  L3117      1755
  507 A   1758  L3120      1759
  508 A   1771  L3134      1770
  509 A   1773  L3135      1774
  510 A   1777  L3140      1778
  511 A   1780  L3142      1781
  512 A   1783  L3144      1784
  513 A   1789  L3151      1788

      AUTOMATIC DISASSEMBLY OF MAINDEC-08-DHMCA-A-PB.bin BY D8TAPE       Page 52
                                                                 Cross Reference

  514 A   1791  L3152      1792
  515 A   1797  L3157      1798
  516 A   1807  L3200   
  517 A   1809  L3201      1810
  518 A   1812  L3203      1813
  519 A   1820  L3212      1821
  520 A   1825  L3216      1824
  521 A   1827  L3217      1828
  522 A   1833  L3224      1832
  523 A   1836  L3226      1837
  524 A   1842  L3233      1841
  525 A   1844  L3234      1845
  526 A   1851  L3242      1850
  527 A   1854  L3244      1855
  528 A   1857  L3246      1858
  529 A   1862  L3252      1861
  530 A   1864  L3253      1865
  531 A   1866  L3254      1867
  532 A   1869  L3256      1870
  533 A   1874  L3262      1875
  534 A   1885  L3400   
  535 A   1889  L3403      1909
  536 A   1894  L3407      1888   1893   1905   1906
  537 A   1896  L3410      1897
  538 A   1899  L3412      1900
  539 A   1912  L3426      1935
  540 A   1917  L3432      1911   1916   1929   1931   1932
  541 A   1919  L3433      1920
  542 A   1923  L3436      1924
  543 A   1940  L3456      1939
  544 A   1946  L3463      1948
  545 A   1971  L3513      2014
  546 A   1988  L3533      1994
  547 A   2003  L3551   
  548 A   2015  L3564      2007
  549 A   2031  L3602      2054
  550 A   2036  L3606      2035   2050   2051
  551 A   2038  L3607      2039
  552 A   2046  L3616      2048
  553 A   2061  L3633   
  554 A   2070  L3643   
  555 A   2077  L3651      2076
  556 A   2098  L4001      2141
  557 A   2110  L4014      2109   2119   2120   2122
  558 A   2117  L4022      2114
  559 A   2123  L4027      2116   2137
  560 A   2162  L4063      2161   2170   2179   2181   2183
  561 A   2174  L4076      2168
  562 A     48  S0000       163    705    708    750    751    756    784    792
  563                       864    868    874    884    887    893   1463
  564 A    774  S1321       748    819
  565 A   1080  S2000      1083   1085   1086   1088   1089   1091   1116
  566 A   1131  S2047      1156
  567 A   1166  S2076      1142   1179
  568 A   1189  S2112      1145   1203
  569 A   1256  S2244      1232   1245   1280
  570 A   1400  S2435      1406

      AUTOMATIC DISASSEMBLY OF MAINDEC-08-DHMCA-A-PB.bin BY D8TAPE       Page 53
                                                                 Cross Reference

  571 A   1416  S2443      1424
  572 A   2096  S4000      2142
  573 A   2152  S4052      2115   2130   2178
  574 A   2193  S4107      2112   2128   2205
  575 A     25  SDF         181    190    205    215    230    240    255    265
  576                       278    293    321    338    360    377    399    416
  577                       494    519    570    650    689    698    732    738
  578                       788    796    800    806    812    818    827    830
  579                       843    851    870    880    937    970    998   1054
  580                      1060   1107   1115   1155   1278   1989
  581 A     28  SIF         685    688    699    844    938   1055   1061   1279
  582                      1708   1718   2055
  583 A     35  SINT       1530   1530   1534   1534   1549   1549   1553   1553
  584                      1567   1567   1571   1571   1585   1585   1594   1594
  585                      1693   1693   1697   1697   1711   1711   1715   1715
  586                      1729   1729   1733   1733   1763   1763   1782   1782
  587                      1796   1796   1811   1811   1815   1815   1868   1868
  588                      1872   1872   1898   1898   1902   1902   1922   1922
  589                      1926   1926   1942   1942   2079   2079
  590 A     32  SUF        1524   1524   1619   1619   1768   1768   1839   1839
  591                      1859   1859   1890   1890   1913   1913   2074   2074

      AUTOMATIC DISASSEMBLY OF MAINDEC-08-DHMCA-A-PB.bin BY D8TAPE       Page 54
                                                                      Memory Map

    1 00000/ XXXX.... ........ XXXXXXXX XXXXXXXX XXXXXXXX XXXXXXXX XXXXXXXX XXXXXXXX
    2 00100/ XXXXXXXX XXXXXXXX XXXXXXXX XXXXXXXX XXXXXXXX XXXXXXXX ........ ........
    3
    4 00200/ XXXXXXXX XXXXXXXX XXXXXXXX XXXXXXXX XXXXXXXX XXXXXXXX XXXXXXXX XXXXXXXX
    5 00300/ XXXXXXXX XXXXXXXX XXXXXXXX XXXXXXXX XXXXXXXX XXXXXXXX XXXXXXXX XXXXXXX.
    6
    7 00400/ XXXXXXXX XXXXXXXX XXXXXXXX XXXXXXXX XXXXXXXX XXXXXXXX XXXXXXXX XXXXXXXX
    8 00500/ XXXXXXXX XXXXXXXX XXXXXXXX XXXXXXXX XXXXXXXX ........ ........ ........
    9
   10 00600/ XXXXXXXX XXXXXXXX XXXXXXXX XXXXXXXX XXXXXXXX XXXXXXXX XXXXXXXX XXXXXXXX
   11 00700/ XXXXXXXX XXXXXXXX XXXXXXXX XXXXXXXX XXXXXXXX XXXXXX.. ........ ........
   12
   13 01000/ XXXXXXXX XXXXXXXX XXXXXXXX XXXXXXXX XXXXXXXX XXXXXXXX XXXXXXXX XXXXXXXX
   14 01100/ XXXXXXXX XXXXXXXX XXXXXXXX XXXXX... ........ ........ ........ ........
   15
   16 01200/ XXXXXXXX XXXXXXXX XXXXXXXX XXXXXXXX XXXXXXXX XXXXXXXX XXXXXXXX XXXXXXXX
   17 01300/ XXXXXXXX XXXXXXXX XXXXXXXX XXXXXXXX XXXXXXXX XXXXXXXX XXXXXXXX XXXXX...
   18
   19 01400/ XXXXXXXX XXXXXXXX XXXXXXXX XXXXXXXX XXXXXXXX XXXXXXXX XXXXXXXX XXXXXXXX
   20 01500/ XXXXXXXX XXXXXXXX XXXXXXXX XXXXXXXX XXXXXXXX XXXXXXXX XXXXXXX. ........
   21
   22 01600/ XXXXXXXX XXXXXXXX XXXXXXXX XXXXXXXX XXXXXXXX XXXXXXXX XXXXXXXX XXXXXXXX
   23 01700/ XXXXXXXX XXXXXXXX XXXXXXXX XXXXXXXX XXX..... ........ ........ ........
   24
   25 02000/ XXXXXXXX XXXXXXXX XXXXXXXX XXXXXXXX XXXXXXXX XXXXXXXX XXXXXXXX XXXXXXXX
   26 02100/ XXXXXXXX XXXXXXXX XXXXXXX. ........ ........ ........ ........ ........
   27
   28 02200/ XXXXXXXX XXXXXXXX XXXXXXXX XXXXXXXX XXXXXXXX XXXXXXXX XXXXXXXX XXXXXXXX
   29 02300/ XXXXXXXX XXXXXXXX XXXXXXXX XXXXXXXX XXXXXXXX XXXXXXXX XXXXXXXX XXXX....
   30
   31 02400/ XXXXXXXX XXXXXXXX XXXXXXXX XXXXXXXX XXXXXXXX XXXXXXXX XXXXXXXX XXXXXXXX
   32 02500/ XXXXXXXX XXXXXXXX XXXXXXXX XXXXXXXX XXXXXXXX X....... ........ ........
   33
   34 02600/ XXXXXXXX XXXXXXXX XXXXXXXX XXXXXXXX XXXXXXXX XXXXXXXX XXXXXXXX XXXXXXXX
   35 02700/ XXXXXXXX XXXXXXXX XXXXXXXX XXXXXXXX XXXXXXXX XXXXXXXX XXXXXXXX XXXXXXXX
   36
   37 03000/ XXXXXXXX XXXXXXXX XXXXXXXX XXXXXXXX XXXXXXXX XXXXXXXX XXXXXXXX XXXXXXXX
   38 03100/ XXXXXXXX XXXXXXXX XXXXXXXX XXXXXXXX XXXXXXXX XXXXXXXX XXXXX... ........
   39
   40 03200/ XXXXXXXX XXXXXXXX XXXXXXXX XXXXXXXX XXXXXXXX XXXXXXXX XXXXXXXX X.......
   41 03300/ ........ ........ ........ ........ ........ ........ ........ ........
   42
   43 03400/ XXXXXXXX XXXXXXXX XXXXXXXX XXXXXXXX XXXXXXXX XXXXXXXX XXXXXXXX XXXXXXXX
   44 03500/ XXXXXXXX XXXXXXXX XXXXXXXX XXXXXXXX XXXXXXXX XXXXXXXX XXXXXXXX XXXXXXX.
   45
   46 03600/ XXXXXXXX XXXXXXXX XXXXXXXX XXXXXXXX XXXXXXXX XXXXXXXX ........ ........
   47 03700/ ........ ........ ........ ........ ........ ........ ........ ........
   48

      AUTOMATIC DISASSEMBLY OF MAINDEC-08-DHMCA-A-PB.bin BY D8TAPE       Page 55
                                                                      Memory Map

   49 04000/ XXXXXXXX XXXXXXXX XXXXXXXX XXXXXXXX XXXXXXXX XXXXXXXX XXXXXXXX XXXXXXXX
   50 04100/ XXXXXXXX XXXXXXXX XXXXXXXX ........ ........ ........ ........ ........
   51
   52 04200/ ........ ........ ........ ........ ........ ........ ........ ........
   53 04300/ ........ ........ ........ ........ ........ ........ ........ ........
   54
   55 04400/ ........ ........ ........ ........ ........ ........ ........ ........
   56 04500/ ........ ........ ........ ........ ........ ........ ........ ........
   57
   58 04600/ ........ ........ ........ ........ ........ ........ ........ ........
   59 04700/ ........ ........ ........ ........ ........ ........ ........ ........
   60
   61 05000/ ........ ........ ........ ........ ........ ........ ........ ........
   62 05100/ ........ ........ ........ ........ ........ ........ ........ ........
   63
   64 05200/ ........ ........ ........ ........ ........ ........ ........ ........
   65 05300/ ........ ........ ........ ........ ........ ........ ........ ........
   66
   67 05400/ ........ ........ ........ ........ ........ ........ ........ ........
   68 05500/ ........ ........ ........ ........ ........ ........ ........ ........
   69
   70 05600/ ........ ........ ........ ........ ........ ........ ........ ........
   71 05700/ ........ ........ ........ ........ ........ ........ ........ ........
   72
   73 06000/ ........ ........ ........ ........ ........ ........ ........ ........
   74 06100/ ........ ........ ........ ........ ........ ........ ........ ........
   75
   76 06200/ ........ ........ ........ ........ ........ ........ ........ ........
   77 06300/ ........ ........ ........ ........ ........ ........ ........ ........
   78
   79 06400/ ........ ........ ........ ........ ........ ........ ........ ........
   80 06500/ ........ ........ ........ ........ ........ ........ ........ ........
   81
   82 06600/ ........ ........ ........ ........ ........ ........ ........ ........
   83 06700/ ........ ........ ........ ........ ........ ........ ........ ........
   84
   85 07000/ ........ ........ ........ ........ ........ ........ ........ ........
   86 07100/ ........ ........ ........ ........ ........ ........ ........ ........
   87
   88 07200/ ........ ........ ........ ........ ........ ........ ........ ........
   89 07300/ ........ ........ ........ ........ ........ ........ ........ ........
   90
   91 07400/ ........ ........ ........ ........ ........ ........ ........ ........
   92 07500/ ........ ........ ........ ........ ........ ........ ........ ........
   93
   94 07600/ ........ ........ ........ ........ ........ ........ ........ ........
   95 07700/ ........ ........ ........ ........ ........ .XXXXXX. ........ ........
   96
