
      AUTOMATIC DISASSEMBLY OF MAINDEC-08-DHKMA-A-PB.bin BY D8TAPE        Page 1


    1             TITLE "AUTOMATIC DISASSEMBLY OF MAINDEC-08-DHKMA-A-PB.bin BY D8TAPE"
    2             ////////////////////////////////////////////////////////////////////////////////
    3             /
    4             /   Automatic Disassembly of MAINDEC-08-DHKMA-A-PB.bin
    5             /   Generated 2015 10 27 17:52:15
    6             /   Generated by d8tape version 0.347
    7             /   Visit http://www.pdp12.org/pdp8/software/index.html for updates
    8             /
    9             /   Symbol format:
   10             /       AIx   -- Auto-index variables (address range 001x)
   11             /       Caaaa -- Constants (non-unique)
   12             /       Daaaa -- Data (read/write variables)
   13             /       Kvvvv -- Program-wide unique constants
   14             /       Laaaa -- Labels for control flow targets
   15             /       Saaaa -- Subroutines
   16             /
   17             /   Where:
   18             /       aaaa is the definition address
   19             /       vvvv is the value of the constant
   20             /       x    is the last digit of the address 001x for auto-index variables
   21             /
   22             /   4403 locations used, 3165 code and 1216 data
   23             ////////////////////////////////////////////////////////////////////////////////
   24             
   25       0200  *0200
   26             
   27       0000  *0000
   28             L0000,
   29 00000 0000  D0000,  0000                / AND   L0000                           
   30 00001 3061  D0001,  3061                / DCA   D0061                           
   31 00002 7701      CLA MQA                 /                                       @@0002=7701
   32 00003 3062      DCA   D0062             /                                       @@0003=3062
   33 00004 5777  C0004,  5777                / JMP I C0177                           
   34             
   35       0020  *0020
   36             L0020,
   37 00020 4000  C0020,  4000                / JMS   L0000                           
   38 00021 2000  C0021,  2000                / ISZ   L0000                           
   39 00022 1000  D0022,  1000                / TAD   L0000                           
   40 00023 0400  C0023,  0400                / AND I L0000                           
   41 00024 0200  D0024,  0200                / AND   L0000                           
   42 00025 0100  D0025,  0100                / AND   D0100                           
   43 00026 0070  C0026,  0070                / AND   D0070                           
   44 00027 0007  C0027,  0007                / AND   C0007                           
   45 00030 0000  D0030,  0000                / AND   L0000                           
   46 00031 0000  D0031,  0000                / AND   L0000                           
   47 00032 0000  D0032,  0000                / AND   L0000                           
   48 00033 0000  D0033,  0000                / AND   L0000                           
   49 00034 0000  D0034,  0000                / AND   L0000                           
   50 00035 0000  D0035,  0000                / AND   L0000                           
   51 00036 0000  D0036,  0000                / AND   L0000                           
   52 00037 0000  D0037,  0000                / AND   L0000                           
   53 00040 0000  D0040,  0000                / AND   L0000                           
   54 00041 0000  D0041,  0000                / AND   L0000                           
   55 00042 0000  D0042,  0000                / AND   L0000                           
   56 00043 0000  D0043,  0000                / AND   L0000                           
   57 00044 0000  D0044,  0000                / AND   L0000                           

      AUTOMATIC DISASSEMBLY OF MAINDEC-08-DHKMA-A-PB.bin BY D8TAPE        Page 2


   58 00045 7510  D0045,  7510                / SPA                                   
   59 00046 0000  D0046,  0000                / AND   L0000                           
   60 00047 0000  D0047,  0000                / AND   L0000                           
   61 00050 0000  D0050,  0000                / AND   L0000                           
   62 00051 0000  D0051,  0000                / AND   L0000                           
   63             L0052,
   64 00052 0000  D0052,  0000                / AND   L0000                           
   65 00053 0000  D0053,  0000                / AND   L0000                           
   66 00054 0000  D0054,  0000                / AND   L0000                           
   67 00055 0000  D0055,  0000                / AND   L0000                           
   68 00056 0000  D0056,  0000                / AND   L0000                           
   69 00057 0000  D0057,  0000                / AND   L0000                           
   70 00060 0000  D0060,  0000                / AND   L0000                           
   71 00061 0000  D0061,  0000                / AND   L0000                           
   72 00062 0000  D0062,  0000                / AND   L0000                           
   73 00063 0000  D0063,  0000                / AND   L0000                           
   74 00064 0000  D0064,  0000                / AND   L0000                           
   75 00065 0000  D0065,  0000                / AND   L0000                           
   76 00066 0000  D0066,  0000                / AND   L0000                           
   77 00067 0000  D0067,  0000                / AND   L0000                           
   78 00070 0000  D0070,  0000                / AND   L0000                           
   79 00071 0000  D0071,  0000                / AND   L0000                           
   80 00072 0000  D0072,  0000                / AND   L0000                           
   81 00073 0000  D0073,  0000                / AND   L0000                           
   82 00074 0000  D0074,  0000                / AND   L0000                           
   83 00075 0000  D0075,  0000                / AND   L0000                           
   84 00076 0000  D0076,  0000                / AND   L0000                           
   85 00077 0000  D0077,  0000                / AND   L0000                           
   86 00100 0000  D0100,  0000                / AND   L0000                           
   87 00101 0000  D0101,  0000                / AND   L0000                           
   88 00102 0000  D0102,  0000                / AND   L0000                           
   89 00103 0000  D0103,  0000                / AND   L0000                           
   90 00104 0000  D0104,  0000                / AND   L0000                           
   91 00105 0000  D0105,  0000                / AND   L0000                           
   92 00106 0000  D0106,  0000                / AND   L0000                           
   93 00107 0000  D0107,  0000                / AND   L0000                           
   94 00110 0000  D0110,  0000                / AND   L0000                           
   95 00111 0000  D0111,  0000                / AND   L0000                           
   96 00112 0000  D0112,  0000                / AND   L0000                           
   97             
   98       0200  *0200
   99 00200 4232  D0200,  4232                / JMS   S0232                           
  100 00201 5204      JMP   L0204             /                                       @@0201=5204
  101 00202 4232      JMS   S0232             /                                       @@0202=4232
  102 00203 7410      SKP                     /                                       @@0203=7410
  103             L0204,
  104 00204 4777      JMS I C0377             / long call to S4256                    @@0204=4777
  105             L0205,
  106 00205 6002      IOF                     / Disable Interrupts                    @@0205=6002
  107 00206 4776      JMS I C0376             / long call to S4301                    @@0206=4776
  108 00207 3030      DCA   D0030             /                                       @@0207=3030
  109 00210 3031      DCA   D0031             /                                       @@0210=3031
  110 00211 3032      DCA   D0032             /                                       @@0211=3032
  111 00212 3033      DCA   D0033             /                                       @@0212=3033
  112 00213 7240      STA                     / AC = 7777 (-0001)                     @@0213=7240
  113 00214 3034      DCA   D0034             /                                       @@0214=3034
  114 00215 3043      DCA   D0043             /                                       @@0215=3043

      AUTOMATIC DISASSEMBLY OF MAINDEC-08-DHKMA-A-PB.bin BY D8TAPE        Page 3


  115 00216 7240      STA                     / AC = 7777 (-0001)                     @@0216=7240
  116 00217 3041      DCA   D0041             /                                       @@0217=3041
  117 00220 1045      TAD   D0045             /                                       @@0220=1045
  118 00221 3044      DCA   D0044             /                                       @@0221=3044
  119 00222 4775      JMS I C0375             / long call to S2015                    @@0222=4775
  120 00223 4774      JMS I C0374             / long call to S1670                    @@0223=4774
  121 00224 1034      TAD   D0034             /                                       @@0224=1034
  122 00225 7650      SNA CLA                 /                                       @@0225=7650
  123 00226 5242      JMP   L0242             /                                       @@0226=5242
  124 00227 4773      JMS I C0373             / long call to S2007                    @@0227=4773
  125 00230 5276      JMP   L0276             /                                       @@0230=5276
  126 00231 5257      JMP   L0257             /                                       @@0231=5257
  127             
  128             ////////////////////////////////////////////////////////////////////////////////
  129             /
  130             /   SUBROUTINE:  S0232
  131             /
  132             /   Called from:
  133             /   0202 
  134             /   Total 0001 (1) calls
  135             ////////////////////////////////////////////////////////////////////////////////
  136             S0232,
  137 00232 0000      0                       / return area
  138 00233 6002      IOF                     / Disable Interrupts                    @@0233=6002
  139 00234 7300      CLA CLL                 / AC = 0000                             @@0234=7300
  140 00235 6224      RIF                     / Same as RDF except reads the instruc  @@0235=6224
  141 00236 1176      TAD   C0176             /                                       @@0236=1176
  142 00237 3240      DCA   D0240             /                                       @@0237=3240
  143 00240 6201  D0240,  6201                / CDF0                                  
  144 00241 5632      JMP I S0232             / return                                @@0241=5632
  145             L0242,
  146 00242 6224      RIF                     / Same as RDF except reads the instruc  @@0242=6224
  147 00243 3035      DCA   D0035             /                                       @@0243=3035
  148 00244 4772      JMS I C0372             / long call to S4316                    @@0244=4772
  149             L0245,
  150 00245 4771      JMS I C0371             / long call to S0600                    @@0245=4771
  151 00246 7604      LAS                     /                                       @@0246=7604
  152 00247 0025      AND   D0025             /                                       @@0247=0025
  153 00250 7640      SZA CLA                 /                                       @@0250=7640
  154 00251 7402      HLT                     /                                       @@0251=7402
  155 00252 7604      LAS                     /                                       @@0252=7604
  156 00253 0024      AND   D0024             /                                       @@0253=0024
  157 00254 7640      SZA CLA                 /                                       @@0254=7640
  158 00255 5205      JMP   L0205             /                                       @@0255=5205
  159 00256 5245      JMP   L0245             /                                       @@0256=5245
  160             L0257,
  161 00257 6224      RIF                     / Same as RDF except reads the instruc  @@0257=6224
  162             L0260,
  163 00260 3035      DCA   D0035             /                                       @@0260=3035
  164 00261 4772      JMS I C0372             / long call to S4316                    @@0261=4772
  165             L0262,
  166 00262 4771      JMS I C0371             / long call to S0600                    @@0262=4771
  167 00263 7604      LAS                     /                                       @@0263=7604
  168 00264 0025      AND   D0025             /                                       @@0264=0025
  169 00265 7640      SZA CLA                 /                                       @@0265=7640
  170 00266 7402      HLT                     /                                       @@0266=7402
  171 00267 7604      LAS                     /                                       @@0267=7604

      AUTOMATIC DISASSEMBLY OF MAINDEC-08-DHKMA-A-PB.bin BY D8TAPE        Page 4


  172 00270 0024  C0270,  0024                / AND   D0024                           
  173 00271 7640      SZA CLA                 /                                       @@0271=7640
  174 00272 5205      JMP   L0205             /                                       @@0272=5205
  175 00273 4773      JMS I C0373             / long call to S2007                    @@0273=4773
  176 00274 5276      JMP   L0276             /                                       @@0274=5276
  177 00275 5262      JMP   L0262             /                                       @@0275=5262
  178             L0276,
  179 00276 6224      RIF                     / Same as RDF except reads the instruc  @@0276=6224
  180 00277 3035      DCA   D0035             /                                       @@0277=3035
  181 00300 1032      TAD   D0032             /                                       @@0300=1032
  182 00301 3033      DCA   D0033             /                                       @@0301=3033
  183 00302 4770      JMS I C0370             / long call to S4400                    @@0302=4770
  184             L0303,
  185 00303 4771      JMS I C0371             / long call to S0600                    @@0303=4771
  186 00304 7604      LAS                     /                                       @@0304=7604
  187 00305 0025      AND   D0025             /                                       @@0305=0025
  188 00306 7640      SZA CLA                 /                                       @@0306=7640
  189 00307 7402      HLT                     /                                       @@0307=7402
  190 00310 7604      LAS                     /                                       @@0310=7604
  191 00311 0024      AND   D0024             /                                       @@0311=0024
  192 00312 7640      SZA CLA                 /                                       @@0312=7640
  193 00313 5205      JMP   L0205             /                                       @@0313=5205
  194 00314 4773      JMS I C0373             / long call to S2007                    @@0314=4773
  195 00315 7410      SKP                     /                                       @@0315=7410
  196 00316 5257      JMP   L0257             /                                       @@0316=5257
  197 00317 4767      JMS I C0367             / long call to S0400                    @@0317=4767
  198 00320 5303      JMP   L0303             /                                       @@0320=5303
  199             
  200       0367  *0367
  201             C0367,
  202 00367 0400  C0367,  0400                / AND I L0000                           
  203             C0370,
  204 00370 4400  C0370,  4400                / JMS I L0000                           
  205             C0371,
  206 00371 0600  C0371,  0600                / AND I D0200                           
  207             C0372,
  208 00372 4316  C0372,  4316                / JMS   C0316                           
  209             C0373,
  210 00373 2007  C0373,  2007                / ISZ   C0007                           
  211             C0374,
  212 00374 1670  C0374,  1670                / TAD I C0270                           
  213             C0375,
  214 00375 2015  C0375,  2015                / ISZ   AI5                             
  215             C0376,
  216 00376 4301  C0376,  4301                / JMS   C0301                           
  217             C0377,
  218 00377 4256  C0377,  4256                / JMS   C0256                           
  219             
  220       0400  *0400
  221             
  222             ////////////////////////////////////////////////////////////////////////////////
  223             /
  224             /   SUBROUTINE:  S0400
  225             /
  226             /   Called from:
  227             /   0317 
  228             /   Total 0001 (1) calls

      AUTOMATIC DISASSEMBLY OF MAINDEC-08-DHKMA-A-PB.bin BY D8TAPE        Page 5


  229             ////////////////////////////////////////////////////////////////////////////////
  230             S0400,
  231 00400 0000      0                       / return area
  232 00401 7200      CLA                     /                                       @@0401=7200
  233 00402 6224      RIF                     / Same as RDF except reads the instruc  @@0402=6224
  234 00403 3035      DCA   D0035             /                                       @@0403=3035
  235 00404 6224  C0404,  6224                / RIF                                   
  236 00405 7112      CLL RTR                 /                                       @@0405=7112
  237 00406 7010      RAR                     /                                       @@0406=7010
  238 00407 1377      TAD   C0577             /                                       @@0407=1377
  239 00410 3042      DCA   D0042             /                                       @@0410=3042
  240 00411 5442      JMP I D0042             / long jump to L0000                    @@0411=5442
  241 00412 5222      JMP   L0422             /                                       @@0412=5222
  242 00413 5256      JMP   L0456             /                                       @@0413=5256
  243 00414 5252      JMP   L0452             /                                       @@0414=5252
  244 00415 5246      JMP   L0446             /                                       @@0415=5246
  245 00416 5242      JMP   L0442             /                                       @@0416=5242
  246 00417 5236      JMP   L0436             /                                       @@0417=5236
  247 00420 5232      JMP   L0432             /                                       @@0420=5232
  248 00421 5226      JMP   L0426             /                                       @@0421=5226
  249             L0422,
  250 00422 4776  C0422,  4776                / JMS I C0576                           
  251 00423 5226      JMP   L0426             /                                       @@0423=5226
  252 00424 1175      TAD   C0175             /                                       @@0424=1175
  253 00425 5260      JMP   L0460             /                                       @@0425=5260
  254             L0426,
  255 00426 4775      JMS I C0575             / long call to S4210                    @@0426=4775
  256 00427 5232      JMP   L0432             /                                       @@0427=5232
  257 00430 1174      TAD   C0174             /                                       @@0430=1174
  258 00431 5260      JMP   L0460             /                                       @@0431=5260
  259             L0432,
  260 00432 4774      JMS I C0574             / long call to S4200                    @@0432=4774
  261 00433 5236      JMP   L0436             /                                       @@0433=5236
  262 00434 1173      TAD   C0173             /                                       @@0434=1173
  263 00435 5260      JMP   L0460             /                                       @@0435=5260
  264             L0436,
  265 00436 4773      JMS I C0573             / long call to S4127                    @@0436=4773
  266 00437 5242      JMP   L0442             /                                       @@0437=5242
  267 00440 1172      TAD   C0172             /                                       @@0440=1172
  268 00441 5260      JMP   L0460             /                                       @@0441=5260
  269             L0442,
  270 00442 4772      JMS I C0572             / long call to S4117                    @@0442=4772
  271 00443 5246      JMP   L0446             /                                       @@0443=5246
  272 00444 1171      TAD   C0171             /                                       @@0444=1171
  273 00445 5260      JMP   L0460             /                                       @@0445=5260
  274             L0446,
  275 00446 4771      JMS I C0571             / long call to S4110                    @@0446=4771
  276 00447 5252      JMP   L0452             /                                       @@0447=5252
  277 00450 1170      TAD   C0170             /                                       @@0450=1170
  278 00451 5260      JMP   L0460             /                                       @@0451=5260
  279             L0452,
  280 00452 4770      JMS I C0570             / long call to S4101                    @@0452=4770
  281 00453 5256      JMP   L0456             /                                       @@0453=5256
  282 00454 1167      TAD   C0167             /                                       @@0454=1167
  283 00455 5260      JMP   L0460             /                                       @@0455=5260
  284             L0456,
  285 00456 4767      JMS I C0567             / long call to S4073                    @@0456=4767

      AUTOMATIC DISASSEMBLY OF MAINDEC-08-DHKMA-A-PB.bin BY D8TAPE        Page 6


  286 00457 5222      JMP   L0422             /                                       @@0457=5222
  287             L0460,
  288 00460 3036      DCA   D0036             /                                       @@0460=3036
  289 00461 4766      JMS I C0566             / long call to S2000                    @@0461=4766
  290 00462 5600      JMP I S0400             / return                                @@0462=5600
  291 00463 4765      JMS I C0565             / long call to S4445                    @@0463=4765
  292 00464 6224      RIF                     / Same as RDF except reads the instruc  @@0464=6224
  293 00465 3035      DCA   D0035             /                                       @@0465=3035
  294 00466 5600      JMP I S0400             / return                                @@0466=5600
  295             
  296       0565  *0565
  297             C0565,
  298 00565 4445  C0565,  4445                / JMS I D0045                           
  299             C0566,
  300 00566 2000  C0566,  2000                / ISZ   L0000                           
  301             C0567,
  302 00567 4073  C0567,  4073                / JMS   D0073                           
  303             C0570,
  304 00570 4101  C0570,  4101                / JMS   D0101                           
  305             C0571,
  306 00571 4110  C0571,  4110                / JMS   D0110                           
  307             C0572,
  308 00572 4117  C0572,  4117                / JMS   C0117                           
  309             C0573,
  310 00573 4127  C0573,  4127                / JMS   C0127                           
  311             C0574,
  312 00574 4200  C0574,  4200                / JMS   S0400                           
  313             C0575,
  314 00575 4210  C0575,  4210                / JMS   C0410                           
  315             C0576,
  316 00576 4217  C0576,  4217                / JMS   C0417                           
  317 00577 0412  C0577,  0412                / AND I AI2                             
  318             
  319       0600  *0600
  320             
  321             ////////////////////////////////////////////////////////////////////////////////
  322             /
  323             /   SUBROUTINE:  S0600
  324             /
  325             /   Called from:
  326             /   0245 0262 0303 
  327             /   Total 0003 (3) calls
  328             ////////////////////////////////////////////////////////////////////////////////
  329             S0600,
  330 00600 0000      0                       / return area
  331 00601 4777      JMS I C0777             / long call to S4525                    @@0601=4777
  332 00602 7200      CLA                     /                                       @@0602=7200
  333 00603 3053      DCA   D0053             /                                       @@0603=3053
  334 00604 3054      DCA   D0054             /                                       @@0604=3054
  335 00605 4776      JMS I C0776             / long call to S3441                    @@0605=4776
  336 00606 4252      JMS   L0652             /                                       @@0606=4252
  337 00607 7240      STA                     / AC = 7777 (-0001)                     @@0607=7240
  338 00610 3053      DCA   D0053             /                                       @@0610=3053
  339 00611 7240      STA                     / AC = 7777 (-0001)                     @@0611=7240
  340 00612 3054      DCA   D0054             /                                       @@0612=3054
  341 00613 4775      JMS I C0775             / long call to S3445                    @@0613=4775
  342 00614 4252      JMS   L0652             /                                       @@0614=4252

      AUTOMATIC DISASSEMBLY OF MAINDEC-08-DHKMA-A-PB.bin BY D8TAPE        Page 7


  343 00615 7240      STA                     / AC = 7777 (-0001)                     @@0615=7240
  344 00616 3054      DCA   D0054             /                                       @@0616=3054
  345 00617 3053      DCA   D0053             /                                       @@0617=3053
  346 00620 4774      JMS I C0774             / long call to S3451                    @@0620=4774
  347 00621 4252      JMS   L0652             /                                       @@0621=4252
  348 00622 7240      STA                     / AC = 7777 (-0001)                     @@0622=7240
  349 00623 3053      DCA   D0053             /                                       @@0623=3053
  350 00624 3054      DCA   D0054             /                                       @@0624=3054
  351 00625 4773      JMS I C0773             / long call to S3456                    @@0625=4773
  352 00626 4252      JMS   L0652             /                                       @@0626=4252
  353 00627 7200      CLA                     /                                       @@0627=7200
  354 00630 1166      TAD   C0166             /                                       @@0630=1166
  355 00631 3053      DCA   D0053             /                                       @@0631=3053
  356 00632 1165      TAD   C0165             /                                       @@0632=1165
  357 00633 3054      DCA   D0054             /                                       @@0633=3054
  358 00634 4772      JMS I C0772             / long call to S3463                    @@0634=4772
  359 00635 4252      JMS   L0652             /                                       @@0635=4252
  360 00636 7200      CLA                     /                                       @@0636=7200
  361 00637 1165      TAD   C0165             /                                       @@0637=1165
  362 00640 3053      DCA   D0053             /                                       @@0640=3053
  363 00641 1166      TAD   C0166             /                                       @@0641=1166
  364 00642 3054      DCA   D0054             /                                       @@0642=3054
  365 00643 4771      JMS I C0771             / long call to S3470                    @@0643=4771
  366 00644 4252      JMS   L0652             /                                       @@0644=4252
  367 00645 7200      CLA                     /                                       @@0645=7200
  368 00646 3031      DCA   D0031             /                                       @@0646=3031
  369 00647 6002      IOF                     / Disable Interrupts                    @@0647=6002
  370 00650 5600      JMP I S0600             / return                                @@0650=5600
  371             L0651,
  372 00651 5652      JMP I L0652             / long jump to L0000                    @@0651=5652
  373             L0652,
  374 00652 0000      0                       / return address                        @@0652=0000
  375 00653 4770      JMS I C0770             / long call to S4000                    @@0653=4770
  376 00654 5261      JMP   L0661             /                                       @@0654=5261
  377 00655 3036      DCA   D0036             /                                       @@0655=3036
  378 00656 4767      JMS I C0767             / long call to S2000                    @@0656=4767
  379 00657 7410      SKP                     /                                       @@0657=7410
  380 00660 4766      JMS I C0766             / long call to S1200                    @@0660=4766
  381             L0661,
  382 00661 4765      JMS I C0765             / long call to S4006                    @@0661=4765
  383 00662 5270      JMP   L0670             /                                       @@0662=5270
  384 00663 1167      TAD   C0167             /                                       @@0663=1167
  385 00664 3036      DCA   D0036             /                                       @@0664=3036
  386 00665 4767      JMS I C0767             / long call to S2000                    @@0665=4767
  387 00666 7410      SKP                     /                                       @@0666=7410
  388 00667 4766      JMS I C0766             / long call to S1200                    @@0667=4766
  389             L0670,
  390 00670 4764      JMS I C0764             / long call to S4015                    @@0670=4764
  391 00671 5277      JMP   L0677             /                                       @@0671=5277
  392 00672 1170      TAD   C0170             /                                       @@0672=1170
  393 00673 3036      DCA   D0036             /                                       @@0673=3036
  394 00674 4767      JMS I C0767             / long call to S2000                    @@0674=4767
  395 00675 7410      SKP                     /                                       @@0675=7410
  396 00676 4766      JMS I C0766             / long call to S1200                    @@0676=4766
  397             L0677,
  398 00677 4763      JMS I C0763             / long call to S4024                    @@0677=4763
  399 00700 5306      JMP   L0706             /                                       @@0700=5306

      AUTOMATIC DISASSEMBLY OF MAINDEC-08-DHKMA-A-PB.bin BY D8TAPE        Page 8


  400 00701 1171      TAD   C0171             /                                       @@0701=1171
  401 00702 3036      DCA   D0036             /                                       @@0702=3036
  402 00703 4767      JMS I C0767             / long call to S2000                    @@0703=4767
  403 00704 7410      SKP                     /                                       @@0704=7410
  404 00705 4766      JMS I C0766             / long call to S1200                    @@0705=4766
  405             L0706,
  406 00706 4762      JMS I C0762             / long call to S4034                    @@0706=4762
  407 00707 5315      JMP   L0715             /                                       @@0707=5315
  408 00710 1172      TAD   C0172             /                                       @@0710=1172
  409 00711 3036      DCA   D0036             /                                       @@0711=3036
  410 00712 4767      JMS I C0767             / long call to S2000                    @@0712=4767
  411 00713 7410      SKP                     /                                       @@0713=7410
  412 00714 4766      JMS I C0766             / long call to S1200                    @@0714=4766
  413             L0715,
  414 00715 4761      JMS I C0761             / long call to S4044                    @@0715=4761
  415 00716 5324      JMP   L0724             /                                       @@0716=5324
  416 00717 1173      TAD   C0173             /                                       @@0717=1173
  417 00720 3036      DCA   D0036             /                                       @@0720=3036
  418 00721 4767      JMS I C0767             / long call to S2000                    @@0721=4767
  419 00722 7410      SKP                     /                                       @@0722=7410
  420 00723 4766      JMS I C0766             / long call to S1200                    @@0723=4766
  421             L0724,
  422 00724 4760      JMS I C0760             / long call to S4054                    @@0724=4760
  423 00725 5333      JMP   L0733             /                                       @@0725=5333
  424 00726 1174      TAD   C0174             /                                       @@0726=1174
  425 00727 3036      DCA   D0036             /                                       @@0727=3036
  426 00730 4767      JMS I C0767             / long call to S2000                    @@0730=4767
  427 00731 7410      SKP                     /                                       @@0731=7410
  428 00732 4766      JMS I C0766             / long call to S1200                    @@0732=4766
  429             L0733,
  430 00733 4757      JMS I C0757             / long call to S4063                    @@0733=4757
  431 00734 5342      JMP   L0742             /                                       @@0734=5342
  432 00735 1175      TAD   C0175             /                                       @@0735=1175
  433 00736 3036      DCA   D0036             /                                       @@0736=3036
  434 00737 4767      JMS I C0767             / long call to S2000                    @@0737=4767
  435 00740 7410      SKP                     /                                       @@0740=7410
  436 00741 4766      JMS I C0766             / long call to S1200                    @@0741=4766
  437             L0742,
  438 00742 5756      JMP I C0756             / long jump to L1000                    @@0742=5756
  439             
  440       0756  *0756
  441             C0756,
  442 00756 1000  C0756,  1000                / TAD   L0000                           
  443             C0757,
  444 00757 4063  C0757,  4063                / JMS   D0063                           
  445             C0760,
  446 00760 4054  C0760,  4054                / JMS   D0054                           
  447             C0761,
  448 00761 4044  C0761,  4044                / JMS   D0044                           
  449             C0762,
  450 00762 4034  C0762,  4034                / JMS   D0034                           
  451             C0763,
  452 00763 4024  C0763,  4024                / JMS   D0024                           
  453             C0764,
  454 00764 4015  C0764,  4015                / JMS   AI5                             
  455             C0765,
  456 00765 4006  C0765,  4006                / JMS   C0006                           

      AUTOMATIC DISASSEMBLY OF MAINDEC-08-DHKMA-A-PB.bin BY D8TAPE        Page 9


  457             C0766,
  458 00766 1200  C0766,  1200                / TAD   S0600                           
  459             C0767,
  460 00767 2000  C0767,  2000                / ISZ   L0000                           
  461             C0770,
  462 00770 4000  C0770,  4000                / JMS   L0000                           
  463             C0771,
  464 00771 3470  C0771,  3470                / DCA I D0070                           
  465             C0772,
  466 00772 3463  C0772,  3463                / DCA I D0063                           
  467             C0773,
  468 00773 3456  C0773,  3456                / DCA I D0056                           
  469             C0774,
  470 00774 3451  C0774,  3451                / DCA I D0051                           
  471             C0775,
  472 00775 3445  C0775,  3445                / DCA I D0045                           
  473             C0776,
  474 00776 3441  C0776,  3441                / DCA I D0041                           
  475             C0777,
  476 00777 4525  C0777,  4525                / JMS I C0125                           
  477             
  478       1000  *1000
  479             L1000,
  480 01000 4777      JMS I C1177             / long call to S4000                    @@1000=4777
  481 01001 5212      JMP   L1012             /                                       @@1001=5212
  482 01002 3036      DCA   D0036             /                                       @@1002=3036
  483 01003 3037      DCA   D0037             /                                       @@1003=3037
  484 01004 4776      JMS I C1176             / long call to S2000                    @@1004=4776
  485 01005 5212  C1005,  5212                / JMP   L1012                           
  486 01006 4775      JMS I C1175             / long call to S1400                    @@1006=4775
  487 01007 1037  C1007,  1037                / TAD   D0037                           
  488 01010 7640      SZA CLA                 /                                       @@1010=7640
  489 01011 4774      JMS I C1174             / long call to S3514                    @@1011=4774
  490             L1012,
  491 01012 4773      JMS I C1173             / long call to S4006                    @@1012=4773
  492 01013 5225      JMP   L1025             /                                       @@1013=5225
  493 01014 1167      TAD   C0167             /                                       @@1014=1167
  494 01015 3036      DCA   D0036             /                                       @@1015=3036
  495 01016 3037      DCA   D0037             /                                       @@1016=3037
  496 01017 4776      JMS I C1176             / long call to S2000                    @@1017=4776
  497 01020 5225      JMP   L1025             /                                       @@1020=5225
  498 01021 4775      JMS I C1175             / long call to S1400                    @@1021=4775
  499 01022 1037      TAD   D0037             /                                       @@1022=1037
  500 01023 7640      SZA CLA                 /                                       @@1023=7640
  501 01024 4772      JMS I C1172             / long call to S3532                    @@1024=4772
  502             L1025,
  503 01025 4771  C1025,  4771                / JMS I C1171                           
  504 01026 5240      JMP   L1040             /                                       @@1026=5240
  505 01027 1170      TAD   C0170             /                                       @@1027=1170
  506 01030 3036      DCA   D0036             /                                       @@1030=3036
  507 01031 3037      DCA   D0037             /                                       @@1031=3037
  508 01032 4776      JMS I C1176             / long call to S2000                    @@1032=4776
  509 01033 5240      JMP   L1040             /                                       @@1033=5240
  510 01034 4775      JMS I C1175             / long call to S1400                    @@1034=4775
  511 01035 1037      TAD   D0037             /                                       @@1035=1037
  512 01036 7640      SZA CLA                 /                                       @@1036=7640
  513 01037 4770      JMS I C1170             / long call to S3552                    @@1037=4770

      AUTOMATIC DISASSEMBLY OF MAINDEC-08-DHKMA-A-PB.bin BY D8TAPE       Page 10


  514             L1040,
  515 01040 4767      JMS I C1167             / long call to S4024                    @@1040=4767
  516 01041 5253      JMP   L1053             /                                       @@1041=5253
  517 01042 1171      TAD   C0171             /                                       @@1042=1171
  518 01043 3036  C1043,  3036                / DCA   D0036                           
  519 01044 3037      DCA   D0037             /                                       @@1044=3037
  520 01045 4776      JMS I C1176             / long call to S2000                    @@1045=4776
  521 01046 5253      JMP   L1053             /                                       @@1046=5253
  522 01047 4775      JMS I C1175             / long call to S1400                    @@1047=4775
  523 01050 1037      TAD   D0037             /                                       @@1050=1037
  524 01051 7640  C1051,  7640                / SZA CLA                               
  525 01052 4766      JMS I C1166             / long call to S3607                    @@1052=4766
  526             L1053,
  527 01053 4765      JMS I C1165             / long call to S4034                    @@1053=4765
  528 01054 5266      JMP   L1066             /                                       @@1054=5266
  529 01055 1172      TAD   C0172             /                                       @@1055=1172
  530 01056 3036      DCA   D0036             /                                       @@1056=3036
  531 01057 3037      DCA   D0037             /                                       @@1057=3037
  532 01060 4776      JMS I C1176             / long call to S2000                    @@1060=4776
  533 01061 5266  C1061,  5266                / JMP   L1066                           
  534 01062 4775      JMS I C1175             / long call to S1400                    @@1062=4775
  535 01063 1037      TAD   D0037             /                                       @@1063=1037
  536 01064 7640      SZA CLA                 /                                       @@1064=7640
  537 01065 4764      JMS I C1164             / long call to S3625                    @@1065=4764
  538             L1066,
  539 01066 4763      JMS I C1163             / long call to S4044                    @@1066=4763
  540 01067 5301      JMP   L1101             /                                       @@1067=5301
  541 01070 1173      TAD   C0173             /                                       @@1070=1173
  542 01071 3036      DCA   D0036             /                                       @@1071=3036
  543 01072 3037      DCA   D0037             /                                       @@1072=3037
  544 01073 4776      JMS I C1176             / long call to S2000                    @@1073=4776
  545 01074 5301      JMP   L1101             /                                       @@1074=5301
  546 01075 4775      JMS I C1175             / long call to S1400                    @@1075=4775
  547 01076 1037      TAD   D0037             /                                       @@1076=1037
  548 01077 7640  C1077,  7640                / SZA CLA                               
  549 01100 4762      JMS I C1162             / long call to S3643                    @@1100=4762
  550             L1101,
  551 01101 4761      JMS I C1161             / long call to S4054                    @@1101=4761
  552 01102 5314      JMP   L1114             /                                       @@1102=5314
  553 01103 1174      TAD   C0174             /                                       @@1103=1174
  554 01104 3036      DCA   D0036             /                                       @@1104=3036
  555 01105 3037      DCA   D0037             /                                       @@1105=3037
  556 01106 4776      JMS I C1176             / long call to S2000                    @@1106=4776
  557 01107 5314      JMP   L1114             /                                       @@1107=5314
  558 01110 4775      JMS I C1175             / long call to S1400                    @@1110=4775
  559 01111 1037      TAD   D0037             /                                       @@1111=1037
  560 01112 7640      SZA CLA                 /                                       @@1112=7640
  561 01113 4760      JMS I C1160             / long call to S3661                    @@1113=4760
  562             L1114,
  563 01114 4757      JMS I C1157             / long call to S4063                    @@1114=4757
  564 01115 5327      JMP   L1127             /                                       @@1115=5327
  565 01116 1175      TAD   C0175             /                                       @@1116=1175
  566 01117 3036      DCA   D0036             /                                       @@1117=3036
  567 01120 3037      DCA   D0037             /                                       @@1120=3037
  568 01121 4776      JMS I C1176             / long call to S2000                    @@1121=4776
  569 01122 5327      JMP   L1127             /                                       @@1122=5327
  570 01123 4775      JMS I C1175             / long call to S1400                    @@1123=4775

      AUTOMATIC DISASSEMBLY OF MAINDEC-08-DHKMA-A-PB.bin BY D8TAPE       Page 11


  571 01124 1037      TAD   D0037             /                                       @@1124=1037
  572 01125 7640      SZA CLA                 /                                       @@1125=7640
  573 01126 4756      JMS I C1156             / long call to S3677                    @@1126=4756
  574             L1127,
  575 01127 7604      LAS                     /                                       @@1127=7604
  576 01130 0024      AND   D0024             /                                       @@1130=0024
  577 01131 7640      SZA CLA                 /                                       @@1131=7640
  578 01132 5755      JMP I C1155             / long jump to L0205                    @@1132=5755
  579 01133 5754      JMP I C1154             / long jump to L0651                    @@1133=5754
  580             
  581       1154  *1154
  582             C1154,
  583 01154 0651  C1154,  0651                / AND I C1051                           
  584             C1155,
  585 01155 0205  C1155,  0205                / AND   C1005                           
  586             C1156,
  587 01156 3677  C1156,  3677                / DCA I C1077                           
  588             C1157,
  589 01157 4063  C1157,  4063                / JMS   D0063                           
  590             C1160,
  591 01160 3661  C1160,  3661                / DCA I C1061                           
  592             C1161,
  593 01161 4054  C1161,  4054                / JMS   D0054                           
  594             C1162,
  595 01162 3643  C1162,  3643                / DCA I C1043                           
  596             C1163,
  597 01163 4044  C1163,  4044                / JMS   D0044                           
  598             C1164,
  599 01164 3625  C1164,  3625                / DCA I L1025                           
  600             C1165,
  601 01165 4034  C1165,  4034                / JMS   D0034                           
  602             C1166,
  603 01166 3607  C1166,  3607                / DCA I C1007                           
  604             C1167,
  605 01167 4024  C1167,  4024                / JMS   D0024                           
  606             C1170,
  607 01170 3552  C1170,  3552                / DCA I C0152                           
  608 01171 4015  C1171,  4015                / JMS   AI5                             
  609             C1172,
  610 01172 3532  C1172,  3532                / DCA I C0132                           
  611             C1173,
  612 01173 4006  C1173,  4006                / JMS   C0006                           
  613             C1174,
  614 01174 3514  C1174,  3514                / DCA I C0114                           
  615             C1175,
  616 01175 1400  C1175,  1400                / TAD I L0000                           
  617             C1176,
  618 01176 2000  C1176,  2000                / ISZ   L0000                           
  619             C1177,
  620 01177 4000  C1177,  4000                / JMS   L0000                           
  621             
  622       1200  *1200
  623             
  624             ////////////////////////////////////////////////////////////////////////////////
  625             /
  626             /   SUBROUTINE:  S1200
  627             /

      AUTOMATIC DISASSEMBLY OF MAINDEC-08-DHKMA-A-PB.bin BY D8TAPE       Page 12


  628             /   Called from:
  629             /   0660 0667 0676 0705 0714 0723 0732 0741 
  630             /   Total 0010 (8) calls
  631             ////////////////////////////////////////////////////////////////////////////////
  632             S1200,
  633 01200 0000      0                       / return area
  634 01201 7200      CLA                     /                                       @@1201=7200
  635             L1202,
  636 01202 1164      TAD   C0164             /                                       @@1202=1164
  637 01203 3055      DCA   D0055             /                                       @@1203=3055
  638             L1204,
  639 01204 4231      JMS   S1231             /                                       @@1204=4231
  640 01205 4253      JMS   S1253             /                                       @@1205=4253
  641 01206 2055      ISZ   D0055             /                                       @@1206=2055
  642 01207 5204      JMP   L1204             /                                       @@1207=5204
  643 01210 1164      TAD   C0164             /                                       @@1210=1164
  644 01211 3055      DCA   D0055             /                                       @@1211=3055
  645             L1212,
  646 01212 4253      JMS   S1253             /                                       @@1212=4253
  647 01213 4231      JMS   S1231             /                                       @@1213=4231
  648 01214 2055      ISZ   D0055             /                                       @@1214=2055
  649 01215 5212      JMP   L1212             /                                       @@1215=5212
  650 01216 1043      TAD   D0043             /                                       @@1216=1043
  651 01217 7640      SZA CLA                 /                                       @@1217=7640
  652 01220 5202      JMP   L1202             /                                       @@1220=5202
  653 01221 2044      ISZ   D0044             /                                       @@1221=2044
  654 01222 5600      JMP I S1200             / return                                @@1222=5600
  655 01223 1045      TAD   D0045             /                                       @@1223=1045
  656 01224 3044      DCA   D0044             /                                       @@1224=3044
  657 01225 4777      JMS I C1377             / long call to S2440                    @@1225=4777
  658 01226 4543  C1226,  4543                / JMS I C0143                           
  659 01227 6500  C1227,  6500                / 6500                                  
  660 01230 5600      JMP I S1200             / return                                @@1230=5600
  661             
  662             ////////////////////////////////////////////////////////////////////////////////
  663             /
  664             /   SUBROUTINE:  S1231
  665             /
  666             /   Called from:
  667             /   1204 1213 
  668             /   Total 0002 (2) calls
  669             ////////////////////////////////////////////////////////////////////////////////
  670             S1231,
  671 01231 0000      0                       / return area
  672 01232 1163      TAD   C0163             /                                       @@1232=1163
  673 01233 3056      DCA   D0056             /                                       @@1233=3056
  674 01234 1036      TAD   D0036             /                                       @@1234=1036
  675 01235 1176      TAD   C0176             /                                       @@1235=1176
  676 01236 3237      DCA   D1237             /                                       @@1236=3237
  677 01237 6201  D1237,  6201                / CDF0                                  
  678             L1240,
  679 01240 1053      TAD   D0053             /                                       @@1240=1053
  680 01241 3443      DCA I D0043             /                                       @@1241=3443
  681 01242 2043      ISZ   D0043             /                                       @@1242=2043
  682 01243 7000      NOP                     /                                       @@1243=7000
  683 01244 2056      ISZ   D0056             /                                       @@1244=2056
  684 01245 5240      JMP   L1240             /                                       @@1245=5240

      AUTOMATIC DISASSEMBLY OF MAINDEC-08-DHKMA-A-PB.bin BY D8TAPE       Page 13


  685 01246 1035      TAD   D0035             /                                       @@1246=1035
  686 01247 1176      TAD   C0176             /                                       @@1247=1176
  687 01250 3251      DCA   D1251             /                                       @@1250=3251
  688 01251 6201  D1251,  6201                / CDF0                                  
  689 01252 5631      JMP I S1231             / return                                @@1252=5631
  690             
  691             ////////////////////////////////////////////////////////////////////////////////
  692             /
  693             /   SUBROUTINE:  S1253
  694             /
  695             /   Called from:
  696             /   1205 1212 
  697             /   Total 0002 (2) calls
  698             ////////////////////////////////////////////////////////////////////////////////
  699             S1253,
  700 01253 0000      0                       / return area
  701 01254 1163      TAD   C0163             /                                       @@1254=1163
  702 01255 3056      DCA   D0056             /                                       @@1255=3056
  703 01256 1036      TAD   D0036             /                                       @@1256=1036
  704 01257 1176      TAD   C0176             /                                       @@1257=1176
  705 01260 3261      DCA   D1261             /                                       @@1260=3261
  706 01261 6201  D1261,  6201                / CDF0                                  
  707             L1262,
  708 01262 1054      TAD   D0054             /                                       @@1262=1054
  709 01263 3443      DCA I D0043             /                                       @@1263=3443
  710 01264 2043      ISZ   D0043             /                                       @@1264=2043
  711 01265 7000      NOP                     /                                       @@1265=7000
  712 01266 2056      ISZ   D0056             /                                       @@1266=2056
  713 01267 5262      JMP   L1262             /                                       @@1267=5262
  714 01270 1035      TAD   D0035             /                                       @@1270=1035
  715 01271 1176      TAD   C0176             /                                       @@1271=1176
  716 01272 3273      DCA   D1273             /                                       @@1272=3273
  717 01273 6201  D1273,  6201                / CDF0                                  
  718 01274 5653      JMP I S1253             / return                                @@1274=5653
  719             
  720       1377  *1377
  721             C1377,
  722 01377 2440  C1377,  2440                / ISZ I D0040                           
  723             
  724       1400  *1400
  725             
  726             ////////////////////////////////////////////////////////////////////////////////
  727             /
  728             /   SUBROUTINE:  S1400
  729             /
  730             /   Called from:
  731             /   1006 1021 1034 1047 1062 1075 1110 1123 
  732             /   Total 0010 (8) calls
  733             ////////////////////////////////////////////////////////////////////////////////
  734             S1400,
  735 01400 0000      0                       / return area
  736 01401 7200      CLA                     /                                       @@1401=7200
  737 01402 1036      TAD   D0036             /                                       @@1402=1036
  738 01403 1176      TAD   C0176             /                                       @@1403=1176
  739 01404 3207      DCA   L1407             /                                       @@1404=3207
  740 01405 1207      TAD   L1407             /                                       @@1405=1207
  741 01406 3262      DCA   L1462             /                                       @@1406=3262

      AUTOMATIC DISASSEMBLY OF MAINDEC-08-DHKMA-A-PB.bin BY D8TAPE       Page 14


  742             L1407,
  743 01407 6201  D1407,  6201                / CDF0                                  
  744 01410 1162      TAD   C0162             /                                       @@1410=1162
  745 01411 3055  C1411,  3055                / DCA   D0055                           
  746             L1412,
  747 01412 1163      TAD   C0163             /                                       @@1412=1163
  748 01413 3056      DCA   D0056             /                                       @@1413=3056
  749             L1414,
  750 01414 3030      DCA   D0030             /                                       @@1414=3030
  751 01415 4326      JMS   S1526             /                                       @@1415=4326
  752 01416 7041      CIA                     /                                       @@1416=7041
  753 01417 1053  C1417,  1053                / TAD   D0053                           
  754 01420 7440      SZA                     /                                       @@1420=7440
  755 01421 4777      JMS I C1577             / long call to S1600                    @@1421=4777
  756 01422 4326      JMS   S1526             /                                       @@1422=4326
  757 01423 7040      CMA                     /                                       @@1423=7040
  758 01424 3443      DCA I D0043             /                                       @@1424=3443
  759 01425 4776      JMS I C1576             / long call to S3474                    @@1425=4776
  760 01426 4326  C1426,  4326                / JMS   S1526                           
  761 01427 7001      IAC                     /                                       @@1427=7001
  762 01430 1053      TAD   D0053             /                                       @@1430=1053
  763 01431 7440      SZA                     /                                       @@1431=7440
  764 01432 4775      JMS I C1575             / long call to S1611                    @@1432=4775
  765 01433 4326      JMS   S1526             /                                       @@1433=4326
  766 01434 7040      CMA                     /                                       @@1434=7040
  767 01435 3443      DCA I D0043             /                                       @@1435=3443
  768 01436 4774      JMS I C1574             / long call to S3500                    @@1436=4774
  769 01437 4326  C1437,  4326                / JMS   S1526                           
  770 01440 7041      CIA                     /                                       @@1440=7041
  771 01441 1053      TAD   D0053             /                                       @@1441=1053
  772 01442 7440      SZA                     /                                       @@1442=7440
  773 01443 4777      JMS I C1577             / long call to S1600                    @@1443=4777
  774 01444 2043      ISZ   D0043             /                                       @@1444=2043
  775 01445 7000      NOP                     /                                       @@1445=7000
  776 01446 2056      ISZ   D0056             /                                       @@1446=2056
  777 01447 5214      JMP   L1414             /                                       @@1447=5214
  778 01450 2055      ISZ   D0055             /                                       @@1450=2055
  779 01451 5265      JMP   L1465             /                                       @@1451=5265
  780 01452 1035      TAD   D0035             /                                       @@1452=1035
  781 01453 1176      TAD   C0176             /                                       @@1453=1176
  782 01454 3255      DCA   D1455             /                                       @@1454=3255
  783 01455 6201  D1455,  6201                / CDF0                                  
  784 01456 1043      TAD   D0043             /                                       @@1456=1043
  785 01457 7640      SZA CLA                 /                                       @@1457=7640
  786 01460 5207      JMP   L1407             /                                       @@1460=5207
  787 01461 5600      JMP I S1400             / return                                @@1461=5600
  788             L1462,
  789 01462 6201  D1462,  6201                / CDF0                                  
  790 01463 1162      TAD   C0162             /                                       @@1463=1162
  791 01464 3055      DCA   D0055             /                                       @@1464=3055
  792             L1465,
  793 01465 1163      TAD   C0163             /                                       @@1465=1163
  794 01466 3056      DCA   D0056             /                                       @@1466=3056
  795             L1467,
  796 01467 3030      DCA   D0030             /                                       @@1467=3030
  797 01470 4326      JMS   S1526             /                                       @@1470=4326
  798 01471 7041      CIA                     /                                       @@1471=7041

      AUTOMATIC DISASSEMBLY OF MAINDEC-08-DHKMA-A-PB.bin BY D8TAPE       Page 15


  799 01472 1054      TAD   D0054             /                                       @@1472=1054
  800 01473 7440      SZA                     /                                       @@1473=7440
  801 01474 4773      JMS I C1573             / long call to S1626                    @@1474=4773
  802 01475 4326      JMS   S1526             /                                       @@1475=4326
  803 01476 7040      CMA                     /                                       @@1476=7040
  804 01477 3443      DCA I D0043             /                                       @@1477=3443
  805 01500 4776      JMS I C1576             / long call to S3474                    @@1500=4776
  806 01501 4326      JMS   S1526             /                                       @@1501=4326
  807 01502 7001      IAC                     /                                       @@1502=7001
  808 01503 1054      TAD   D0054             /                                       @@1503=1054
  809 01504 7440      SZA                     /                                       @@1504=7440
  810 01505 4772      JMS I C1572             / long call to S1637                    @@1505=4772
  811 01506 4326      JMS   S1526             /                                       @@1506=4326
  812 01507 7040      CMA                     /                                       @@1507=7040
  813 01510 3443      DCA I D0043             /                                       @@1510=3443
  814 01511 4774      JMS I C1574             / long call to S3500                    @@1511=4774
  815 01512 4326      JMS   S1526             /                                       @@1512=4326
  816 01513 7041      CIA                     /                                       @@1513=7041
  817 01514 1054      TAD   D0054             /                                       @@1514=1054
  818 01515 7440      SZA                     /                                       @@1515=7440
  819 01516 4773      JMS I C1573             / long call to S1626                    @@1516=4773
  820 01517 2043      ISZ   D0043             /                                       @@1517=2043
  821 01520 7000      NOP                     /                                       @@1520=7000
  822 01521 2056      ISZ   D0056             /                                       @@1521=2056
  823 01522 5267      JMP   L1467             /                                       @@1522=5267
  824 01523 2055      ISZ   D0055             /                                       @@1523=2055
  825 01524 5212      JMP   L1412             /                                       @@1524=5212
  826 01525 5262      JMP   L1462             /                                       @@1525=5262
  827             
  828             ////////////////////////////////////////////////////////////////////////////////
  829             /
  830             /   SUBROUTINE:  S1526
  831             /
  832             /   Called from:
  833             /   1415 1422 1433 1470 1475 1501 1506 1512 
  834             /   Total 0010 (8) calls
  835             ////////////////////////////////////////////////////////////////////////////////
  836             S1526,
  837 01526 0000      0                       / return area
  838 01527 1443      TAD I D0043             /                                       @@1527=1443
  839 01530 1443      TAD I D0043             /                                       @@1530=1443
  840 01531 1443      TAD I D0043             /                                       @@1531=1443
  841 01532 1443      TAD I D0043             /                                       @@1532=1443
  842 01533 1443      TAD I D0043             /                                       @@1533=1443
  843 01534 1443      TAD I D0043             /                                       @@1534=1443
  844 01535 1443      TAD I D0043             /                                       @@1535=1443
  845 01536 1443      TAD I D0043             /                                       @@1536=1443
  846 01537 1443      TAD I D0043             /                                       @@1537=1443
  847 01540 1443      TAD I D0043             /                                       @@1540=1443
  848 01541 1443      TAD I D0043             /                                       @@1541=1443
  849 01542 7200      CLA                     /                                       @@1542=7200
  850 01543 1443      TAD I D0043             /                                       @@1543=1443
  851 01544 5726      JMP I S1526             / return                                @@1544=5726
  852             
  853       1572  *1572
  854             C1572,
  855 01572 1637  C1572,  1637                / TAD I C1437                           

      AUTOMATIC DISASSEMBLY OF MAINDEC-08-DHKMA-A-PB.bin BY D8TAPE       Page 16


  856             C1573,
  857 01573 1626  C1573,  1626                / TAD I C1426                           
  858             C1574,
  859 01574 3500  C1574,  3500                / DCA I D0100                           
  860             C1575,
  861 01575 1611  C1575,  1611                / TAD I C1411                           
  862             C1576,
  863 01576 3474  C1576,  3474                / DCA I D0074                           
  864             C1577,
  865 01577 1600  C1577,  1600                / TAD I S1400                           
  866             
  867       1600  *1600
  868             
  869             ////////////////////////////////////////////////////////////////////////////////
  870             /
  871             /   SUBROUTINE:  S1600
  872             /
  873             /   Called from:
  874             /   1421 1443 
  875             /   Total 0002 (2) calls
  876             ////////////////////////////////////////////////////////////////////////////////
  877             S1600,
  878 01600 0000      0                       / return area
  879 01601 7041      CIA                     /                                       @@1601=7041
  880 01602 1053      TAD   D0053             /                                       @@1602=1053
  881 01603 3060      DCA   D0060             /                                       @@1603=3060
  882 01604 1053      TAD   D0053             /                                       @@1604=1053
  883 01605 4254      JMS   S1654             /                                       @@1605=4254
  884 01606 1053      TAD   D0053             /                                       @@1606=1053
  885 01607 3443      DCA I D0043             /                                       @@1607=3443
  886 01610 5600      JMP I S1600             / return                                @@1610=5600
  887             
  888             ////////////////////////////////////////////////////////////////////////////////
  889             /
  890             /   SUBROUTINE:  S1611
  891             /
  892             /   Called from:
  893             /   1432 
  894             /   Total 0001 (1) calls
  895             ////////////////////////////////////////////////////////////////////////////////
  896             S1611,
  897 01611 0000      0                       / return area
  898 01612 3042      DCA   D0042             /                                       @@1612=3042
  899 01613 1053      TAD   D0053             /                                       @@1613=1053
  900 01614 7040      CMA                     /                                       @@1614=7040
  901 01615 1042      TAD   D0042             /                                       @@1615=1042
  902 01616 3060      DCA   D0060             /                                       @@1616=3060
  903 01617 1053      TAD   D0053             /                                       @@1617=1053
  904 01620 7040      CMA                     /                                       @@1620=7040
  905 01621 4254      JMS   S1654             /                                       @@1621=4254
  906 01622 1053      TAD   D0053             /                                       @@1622=1053
  907 01623 7040      CMA                     /                                       @@1623=7040
  908 01624 3443  C1624,  3443                / DCA I D0043                           
  909 01625 5611      JMP I S1611             / return                                @@1625=5611
  910             
  911             ////////////////////////////////////////////////////////////////////////////////
  912             /

      AUTOMATIC DISASSEMBLY OF MAINDEC-08-DHKMA-A-PB.bin BY D8TAPE       Page 17


  913             /   SUBROUTINE:  S1626
  914             /
  915             /   Called from:
  916             /   1474 1516 
  917             /   Total 0002 (2) calls
  918             ////////////////////////////////////////////////////////////////////////////////
  919             S1626,
  920 01626 0000      0                       / return area
  921 01627 7041      CIA                     /                                       @@1627=7041
  922 01630 1054      TAD   D0054             /                                       @@1630=1054
  923 01631 3060      DCA   D0060             /                                       @@1631=3060
  924 01632 1054      TAD   D0054             /                                       @@1632=1054
  925 01633 4254      JMS   S1654             /                                       @@1633=4254
  926 01634 1054      TAD   D0054             /                                       @@1634=1054
  927 01635 3443      DCA I D0043             /                                       @@1635=3443
  928 01636 5626      JMP I S1626             / return                                @@1636=5626
  929             
  930             ////////////////////////////////////////////////////////////////////////////////
  931             /
  932             /   SUBROUTINE:  S1637
  933             /
  934             /   Called from:
  935             /   1505 
  936             /   Total 0001 (1) calls
  937             ////////////////////////////////////////////////////////////////////////////////
  938             S1637,
  939 01637 0000      0                       / return area
  940 01640 3042      DCA   D0042             /                                       @@1640=3042
  941 01641 1054      TAD   D0054             /                                       @@1641=1054
  942 01642 7040      CMA                     /                                       @@1642=7040
  943 01643 1042      TAD   D0042             /                                       @@1643=1042
  944 01644 3060      DCA   D0060             /                                       @@1644=3060
  945 01645 1054      TAD   D0054             /                                       @@1645=1054
  946 01646 7040      CMA                     /                                       @@1646=7040
  947 01647 4254      JMS   S1654             /                                       @@1647=4254
  948 01650 1054      TAD   D0054             /                                       @@1650=1054
  949 01651 7040      CMA                     /                                       @@1651=7040
  950 01652 3443      DCA I D0043             /                                       @@1652=3443
  951 01653 5637      JMP I S1637             / return                                @@1653=5637
  952             
  953             ////////////////////////////////////////////////////////////////////////////////
  954             /
  955             /   SUBROUTINE:  S1654
  956             /
  957             /   Called from:
  958             /   1605 1621 1633 1647 
  959             /   Total 0004 (4) calls
  960             ////////////////////////////////////////////////////////////////////////////////
  961             S1654,
  962 01654 0000      0                       / return area
  963 01655 3057      DCA   D0057             /                                       @@1655=3057
  964 01656 1035      TAD   D0035             /                                       @@1656=1035
  965 01657 1176      TAD   C0176             /                                       @@1657=1176
  966 01660 3261      DCA   D1661             /                                       @@1660=3261
  967 01661 6201  D1661,  6201                / CDF0                                  
  968 01662 4777      JMS I C1777             / long call to S3000                    @@1662=4777
  969 01663 1036      TAD   D0036             /                                       @@1663=1036

      AUTOMATIC DISASSEMBLY OF MAINDEC-08-DHKMA-A-PB.bin BY D8TAPE       Page 18


  970 01664 1176      TAD   C0176             /                                       @@1664=1176
  971 01665 3266      DCA   D1666             /                                       @@1665=3266
  972 01666 6201  D1666,  6201                / CDF0                                  
  973 01667 5654      JMP I S1654             / return                                @@1667=5654
  974             
  975             ////////////////////////////////////////////////////////////////////////////////
  976             /
  977             /   SUBROUTINE:  S1670
  978             /
  979             /   Called from:
  980             /   0223 
  981             /   Total 0001 (1) calls
  982             ////////////////////////////////////////////////////////////////////////////////
  983             S1670,
  984 01670 0000      0                       / return area
  985 01671 7300      CLA CLL                 / AC = 0000                             @@1671=7300
  986 01672 3051      DCA   D0051             /                                       @@1672=3051
  987 01673 1161      TAD   C0161             /                                       @@1673=1161
  988 01674 3052      DCA   L0052             /                                       @@1674=3052
  989 01675 3036      DCA   D0036             /                                       @@1675=3036
  990 01676 4776      JMS I C1776             / long call to S4000                    @@1676=4776
  991 01677 7410      SKP                     /                                       @@1677=7410
  992 01700 4353      JMS   S1753             /                                       @@1700=4353
  993 01701 1167      TAD   C0167             /                                       @@1701=1167
  994 01702 3036      DCA   D0036             /                                       @@1702=3036
  995 01703 4775      JMS I C1775             / long call to S4006                    @@1703=4775
  996 01704 7410      SKP                     /                                       @@1704=7410
  997 01705 4353      JMS   S1753             /                                       @@1705=4353
  998 01706 1170      TAD   C0170             /                                       @@1706=1170
  999 01707 3036      DCA   D0036             /                                       @@1707=3036
 1000 01710 4774      JMS I C1774             / long call to S4015                    @@1710=4774
 1001 01711 7410      SKP                     /                                       @@1711=7410
 1002 01712 4353      JMS   S1753             /                                       @@1712=4353
 1003 01713 1171      TAD   C0171             /                                       @@1713=1171
 1004 01714 3036      DCA   D0036             /                                       @@1714=3036
 1005 01715 4773  C1715,  4773                / JMS I C1773                           
 1006 01716 7410      SKP                     /                                       @@1716=7410
 1007 01717 4353      JMS   S1753             /                                       @@1717=4353
 1008 01720 1172  C1720,  1172                / TAD   C0172                           
 1009 01721 3036      DCA   D0036             /                                       @@1721=3036
 1010 01722 4772      JMS I C1772             / long call to S4034                    @@1722=4772
 1011 01723 7410      SKP                     /                                       @@1723=7410
 1012 01724 4353      JMS   S1753             /                                       @@1724=4353
 1013 01725 1173      TAD   C0173             /                                       @@1725=1173
 1014 01726 3036      DCA   D0036             /                                       @@1726=3036
 1015 01727 4771      JMS I C1771             / long call to S4044                    @@1727=4771
 1016 01730 7410      SKP                     /                                       @@1730=7410
 1017 01731 4353      JMS   S1753             /                                       @@1731=4353
 1018 01732 1174      TAD   C0174             /                                       @@1732=1174
 1019 01733 3036      DCA   D0036             /                                       @@1733=3036
 1020 01734 4770      JMS I C1770             / long call to S4054                    @@1734=4770
 1021 01735 7410      SKP                     /                                       @@1735=7410
 1022 01736 4353      JMS   S1753             /                                       @@1736=4353
 1023 01737 1175      TAD   C0175             /                                       @@1737=1175
 1024 01740 3036      DCA   D0036             /                                       @@1740=3036
 1025 01741 4767      JMS I C1767             / long call to S4063                    @@1741=4767
 1026 01742 7410      SKP                     /                                       @@1742=7410

      AUTOMATIC DISASSEMBLY OF MAINDEC-08-DHKMA-A-PB.bin BY D8TAPE       Page 19


 1027 01743 4353      JMS   S1753             /                                       @@1743=4353
 1028 01744 2052      ISZ   L0052             /                                       @@1744=2052
 1029 01745 5766      JMP I C1766             / long jump to L4440                    @@1745=5766
 1030 01746 1051      TAD   D0051             /                                       @@1746=1051
 1031 01747 7640      SZA CLA                 /                                       @@1747=7640
 1032 01750 5765      JMP I C1765             / long jump to L4420                    @@1750=5765
 1033 01751 3034      DCA   D0034             /                                       @@1751=3034
 1034 01752 5670      JMP I S1670             / return                                @@1752=5670
 1035             
 1036             ////////////////////////////////////////////////////////////////////////////////
 1037             /
 1038             /   SUBROUTINE:  S1753
 1039             /
 1040             /   Called from:
 1041             /   1700 1705 1712 1717 1724 1731 1736 1743 
 1042             /   Total 0010 (8) calls
 1043             ////////////////////////////////////////////////////////////////////////////////
 1044             S1753,
 1045 01753 0000      0                       / return area
 1046 01754 2052      ISZ   L0052             /                                       @@1754=2052
 1047 01755 7410      SKP                     /                                       @@1755=7410
 1048 01756 5670      JMP I S1670             / return                                @@1756=5670
 1049 01757 6224      RIF                     / Same as RDF except reads the instruc  @@1757=6224
 1050 01760 3035      DCA   D0035             /                                       @@1760=3035
 1051 01761 4764      JMS I C1764             / long call to S2000                    @@1761=4764
 1052 01762 2051      ISZ   D0051             /                                       @@1762=2051
 1053 01763 5753      JMP I S1753             / return                                @@1763=5753
 1054             C1764,
 1055 01764 2000  C1764,  2000                / ISZ   L0000                           
 1056             C1765,
 1057 01765 4420  C1765,  4420                / JMS I L0020                           
 1058             C1766,
 1059 01766 4440  C1766,  4440                / JMS I D0040                           
 1060             C1767,
 1061 01767 4063  C1767,  4063                / JMS   D0063                           
 1062             C1770,
 1063 01770 4054  C1770,  4054                / JMS   D0054                           
 1064             C1771,
 1065 01771 4044  C1771,  4044                / JMS   D0044                           
 1066             C1772,
 1067 01772 4034  C1772,  4034                / JMS   D0034                           
 1068             C1773,
 1069 01773 4024  C1773,  4024                / JMS   D0024                           
 1070             C1774,
 1071 01774 4015  C1774,  4015                / JMS   AI5                             
 1072             C1775,
 1073 01775 4006  C1775,  4006                / JMS   C0006                           
 1074             C1776,
 1075 01776 4000  C1776,  4000                / JMS   L0000                           
 1076             C1777,
 1077 01777 3000  C1777,  3000                / DCA   L0000                           
 1078             
 1079       2000  *2000
 1080             
 1081             ////////////////////////////////////////////////////////////////////////////////
 1082             /
 1083             /   SUBROUTINE:  S2000

      AUTOMATIC DISASSEMBLY OF MAINDEC-08-DHKMA-A-PB.bin BY D8TAPE       Page 20


 1084             /
 1085             /   Called from:
 1086             /   0461 0656 0665 0674 0703 0712 0721 0730 0737 1004 1017 1032 1045 1060 1073 
 1087             /   1106 1121 1761 
 1088             /   Total 0022 (18) calls
 1089             ////////////////////////////////////////////////////////////////////////////////
 1090             S2000,
 1091 02000 0000      0                       / return area
 1092 02001 1035      TAD   D0035             /                                       @@2001=1035
 1093 02002 7041      CIA                     /                                       @@2002=7041
 1094 02003 1036      TAD   D0036             /                                       @@2003=1036
 1095 02004 7640      SZA CLA                 /                                       @@2004=7640
 1096 02005 2200  D2005,  2200                / ISZ   S2000                           
 1097 02006 5600      JMP I S2000             / return                                @@2006=5600
 1098             
 1099             ////////////////////////////////////////////////////////////////////////////////
 1100             /
 1101             /   SUBROUTINE:  S2007
 1102             /
 1103             /   Called from:
 1104             /   0227 0273 0314 
 1105             /   Total 0003 (3) calls
 1106             ////////////////////////////////////////////////////////////////////////////////
 1107             S2007,
 1108 02007 0000      0                       / return area
 1109 02010 7604      LAS                     /                                       @@2010=7604
 1110 02011 0023  C2011,  0023                / AND   C0023                           
 1111 02012 7640      SZA CLA                 /                                       @@2012=7640
 1112 02013 2207      ISZ   S2007             /                                       @@2013=2207
 1113 02014 5607      JMP I S2007             / return                                @@2014=5607
 1114             
 1115             ////////////////////////////////////////////////////////////////////////////////
 1116             /
 1117             /   SUBROUTINE:  S2015
 1118             /
 1119             /   Called from:
 1120             /   0222 
 1121             /   Total 0001 (1) calls
 1122             ////////////////////////////////////////////////////////////////////////////////
 1123             S2015,
 1124 02015 0000      0                       / return area
 1125 02016 7200  C2016,  7200                / CLA                                   
 1126 02017 3032      DCA   D0032             /                                       @@2017=3032
 1127 02020 3046      DCA   D0046             /                                       @@2020=3046
 1128 02021 7604      LAS                     /                                       @@2021=7604
 1129 02022 0026      AND   C0026             /                                       @@2022=0026
 1130 02023 3047      DCA   D0047             /                                       @@2023=3047
 1131 02024 7604      LAS                     /                                       @@2024=7604
 1132 02025 0027      AND   C0027             /                                       @@2025=0027
 1133 02026 7106      CLL RTL                 /                                       @@2026=7106
 1134 02027 7004      RAL                     /                                       @@2027=7004
 1135 02030 3050      DCA   D0050             /                                       @@2030=3050
 1136 02031 6271      CDF 70                  / Change to data field 7. The data fie  @@2031=6271
 1137 02032 4777      JMS I C2177             / long call to S2200                    @@2032=4777
 1138 02033 4776      JMS I C2176             / long call to S3670                    @@2033=4776
 1139             C2034,
 1140 02034 6261      CDF 60                  / Change to data field 6.

      AUTOMATIC DISASSEMBLY OF MAINDEC-08-DHKMA-A-PB.bin BY D8TAPE       Page 21


 1141 02035 4777      JMS I C2177             / long call to S2200                    @@2035=4777
 1142 02036 4775      JMS I C2175             / long call to S3652                    @@2036=4775
 1143 02037 6251      CDF 50                  / Change to data field 5. The data fie  @@2037=6251
 1144 02040 4777  C2040,  4777                / JMS I C2177                           
 1145 02041 4774      JMS I C2174             / long call to S3634                    @@2041=4774
 1146 02042 6241      CDF 40                  / Change to data field 4. The data fie  @@2042=6241
 1147 02043 4777      JMS I C2177             / long call to S2200                    @@2043=4777
 1148 02044 4773      JMS I C2173             / long call to S3616                    @@2044=4773
 1149 02045 6231      CDF 30                  / Change to data field 3. The data fie  @@2045=6231
 1150 02046 4777      JMS I C2177             / long call to S2200                    @@2046=4777
 1151 02047 4772      JMS I C2172             / long call to S3600                    @@2047=4772
 1152 02050 6221      CDF 20                  / Change to data field 2. The data fie  @@2050=6221
 1153 02051 4777      JMS I C2177             / long call to S2200                    @@2051=4777
 1154 02052 4771  C2052,  4771                / JMS I C2171                           
 1155 02053 6211      CDF 10                  / Change to data field 1. The data fie  @@2053=6211
 1156 02054 4777      JMS I C2177             / long call to S2200                    @@2054=4777
 1157 02055 4770      JMS I C2170             / long call to S3523                    @@2055=4770
 1158 02056 6201      CDF 00                  / Change to data field 0. The data fie  @@2056=6201
 1159 02057 4777      JMS I C2177             / long call to S2200                    @@2057=4777
 1160 02060 4767      JMS I C2167             / long call to S3505                    @@2060=4767
 1161 02061 4766      JMS I C2166             / long call to S2440                    @@2061=4766
 1162 02062 4543  C2062,  4543                / JMS I C0143                           
 1163 02063 0000  D2063,  0000                / AND   L0000                           
 1164 02064 1046      TAD   D0046             /                                       @@2064=1046
 1165 02065 1160      TAD   C0160             /                                       @@2065=1160
 1166 02066 4765      JMS I C2165             / long call to S2531                    @@2066=4765
 1167 02067 4766      JMS I C2166             / long call to S2440                    @@2067=4766
 1168 02070 0611  C2070,  0611                / AND I C2011                           
 1169 02071 0514  C2071,  0514                / AND I C0114                           
 1170 02072 0423      AND I C0023             /                                       @@2072=0423
 1171 02073 4011  C2073,  4011                / JMS   AI1                             
 1172 02074 1640      TAD I C2040             /                                       @@2074=1640
 1173 02075 2410  C2075,  2410                / ISZ I L0                              
 1174 02076 1123      TAD   D0123             /                                       @@2076=1123
 1175 02077 4023  C2077,  4023                / JMS   C0023                           
 1176 02100 3123      DCA   D0123             /                                       @@2100=3123
 1177 02101 2405  C2101,  2405                / ISZ I C0005                           
 1178 02102 1500      TAD I D0100             /                                       @@2102=1500
 1179 02103 4766      JMS I C2166             / long call to S2440                    @@2103=4766
 1180 02104 4543  C2104,  4543                / JMS I C0143                           
 1181 02105 0611      AND I C2011             /                                       @@2105=0611
 1182 02106 0514  C2106,  0514                / AND I C0114                           
 1183 02107 0423      AND I C0023             /                                       @@2107=0423
 1184 02110 4023  C2110,  4023                / JMS   C0023                           
 1185 02111 0514  C2111,  0514                / AND I C0114                           
 1186 02112 4704  C2112,  4704                / JMS I C2104                           
 1187 02113 4001  C2113,  4001                / JMS   D0001                           
 1188 02114 2205      ISZ   D2005             /                                       @@2114=2205
 1189 02115 4000      JMS   L0000             /                                       @@2115=4000
 1190 02116 4764      JMS I C2164             / long call to S2263                    @@2116=4764
 1191 02117 5615      JMP I S2015             / return                                @@2117=5615
 1192             
 1193       2164  *2164
 1194             C2164,
 1195 02164 2263  C2164,  2263                / ISZ   D2063                           
 1196             C2165,
 1197 02165 2531  C2165,  2531                / ISZ I C0131                           

      AUTOMATIC DISASSEMBLY OF MAINDEC-08-DHKMA-A-PB.bin BY D8TAPE       Page 22


 1198             C2166,
 1199 02166 2440  C2166,  2440                / ISZ I D0040                           
 1200             C2167,
 1201 02167 3505  C2167,  3505                / DCA I D0105                           
 1202             C2170,
 1203 02170 3523  C2170,  3523                / DCA I D0123                           
 1204 02171 3541      DCA I C0141             /                                       @@2171=3541
 1205             C2172,
 1206 02172 3600  C2172,  3600                / DCA I S2000                           
 1207             C2173,
 1208 02173 3616  C2173,  3616                / DCA I C2016                           
 1209             C2174,
 1210 02174 3634  C2174,  3634                / DCA I C2034                           
 1211             C2175,
 1212 02175 3652  C2175,  3652                / DCA I C2052                           
 1213             C2176,
 1214 02176 3670  C2176,  3670                / DCA I C2070                           
 1215             C2177,
 1216 02177 2200  C2177,  2200                / ISZ   S2000                           
 1217             
 1218       2200  *2200
 1219             
 1220             ////////////////////////////////////////////////////////////////////////////////
 1221             /
 1222             /   SUBROUTINE:  S2200
 1223             /
 1224             /   Called from:
 1225             /   2032 2035 2043 2046 2051 2054 2057 
 1226             /   Total 0007 (7) calls
 1227             ////////////////////////////////////////////////////////////////////////////////
 1228             S2200,
 1229 02200 0000      0                       / return area
 1230 02201 7300      CLA CLL                 / AC = 0000                             @@2201=7300
 1231 02202 6224      RIF                     / Same as RDF except reads the instruc  @@2202=6224
 1232 02203 1176      TAD   C0176             /                                       @@2203=1176
 1233 02204 3212      DCA   L2212             /                                       @@2204=3212
 1234 02205 1157      TAD   C0157             /                                       @@2205=1157
 1235 02206 3661      DCA I C2261             /                                       @@2206=3661
 1236 02207 1661      TAD I C2261             /                                       @@2207=1661
 1237 02210 7640      SZA CLA                 /                                       @@2210=7640
 1238 02211 5214      JMP   L2214             /                                       @@2211=5214
 1239             L2212,
 1240 02212 6201  D2212,  6201                / CDF0                                  
 1241 02213 5600      JMP I S2200             / return                                @@2213=5600
 1242             L2214,
 1243 02214 2046      ISZ   D0046             /                                       @@2214=2046
 1244 02215 1050      TAD   D0050             /                                       @@2215=1050
 1245 02216 7041      CIA                     /                                       @@2216=7041
 1246 02217 1047      TAD   D0047             /                                       @@2217=1047
 1247 02220 7440      SZA                     /                                       @@2220=7440
 1248 02221 5230      JMP   L2230             /                                       @@2221=5230
 1249 02222 6214      RDF                     / Read data field into AC6-8.  Bit 0-5  @@2222=6214
 1250 02223 7041  C2223,  7041                / CIA                                   
 1251 02224 1047      TAD   D0047             /                                       @@2224=1047
 1252 02225 7650      SNA CLA                 /                                       @@2225=7650
 1253             L2226,
 1254 02226 2200      ISZ   S2200             /                                       @@2226=2200

      AUTOMATIC DISASSEMBLY OF MAINDEC-08-DHKMA-A-PB.bin BY D8TAPE       Page 23


 1255 02227 5212      JMP   L2212             /                                       @@2227=5212
 1256             L2230,
 1257 02230 7710      SPA CLA                 /                                       @@2230=7710
 1258 02231 5251      JMP   L2251             /                                       @@2231=5251
 1259 02232 6214      RDF                     / Read data field into AC6-8.  Bit 0-5  @@2232=6214
 1260 02233 7041      CIA                     /                                       @@2233=7041
 1261 02234 1047      TAD   D0047             /                                       @@2234=1047
 1262 02235 7450      SNA                     /                                       @@2235=7450
 1263 02236 5226      JMP   L2226             /                                       @@2236=5226
 1264 02237 7710      SPA CLA                 /                                       @@2237=7710
 1265 02240 5226      JMP   L2226             /                                       @@2240=5226
 1266             L2241,
 1267 02241 6214      RDF                     / Read data field into AC6-8.  Bit 0-5  @@2241=6214
 1268 02242 7041      CIA                     /                                       @@2242=7041
 1269 02243 1050      TAD   D0050             /                                       @@2243=1050
 1270 02244 7450      SNA                     /                                       @@2244=7450
 1271 02245 5226      JMP   L2226             /                                       @@2245=5226
 1272 02246 7710      SPA CLA                 /                                       @@2246=7710
 1273 02247 5212      JMP   L2212             /                                       @@2247=5212
 1274 02250 5226      JMP   L2226             /                                       @@2250=5226
 1275             L2251,
 1276 02251 6214      RDF                     / Read data field into AC6-8.  Bit 0-5  @@2251=6214
 1277 02252 7041      CIA                     /                                       @@2252=7041
 1278 02253 1047      TAD   D0047             /                                       @@2253=1047
 1279 02254 7450      SNA                     /                                       @@2254=7450
 1280 02255 5226      JMP   L2226             /                                       @@2255=5226
 1281 02256 7710      SPA CLA                 /                                       @@2256=7710
 1282 02257 5241      JMP   L2241             /                                       @@2257=5241
 1283 02260 5212      JMP   L2212             /                                       @@2260=5212
 1284 02261 2262  C2261,  2262                / ISZ   D2262                           
 1285 02262 0000  D2262,  0000                / AND   L0000                           
 1286             
 1287             ////////////////////////////////////////////////////////////////////////////////
 1288             /
 1289             /   SUBROUTINE:  S2263
 1290             /
 1291             /   Called from:
 1292             /   2116 
 1293             /   Total 0001 (1) calls
 1294             ////////////////////////////////////////////////////////////////////////////////
 1295             S2263,
 1296 02263 0000      0                       / return area
 1297 02264 4777      JMS I C2377             / long call to S4063                    @@2264=4777
 1298 02265 5270      JMP   L2270             /                                       @@2265=5270
 1299 02266 1156      TAD   C0156             /                                       @@2266=1156
 1300 02267 4776      JMS I C2376             / long call to S2531                    @@2267=4776
 1301             L2270,
 1302 02270 4775      JMS I C2375             / long call to S4054                    @@2270=4775
 1303 02271 5274      JMP   L2274             /                                       @@2271=5274
 1304 02272 1155      TAD   C0155             /                                       @@2272=1155
 1305 02273 4776      JMS I C2376             / long call to S2531                    @@2273=4776
 1306             L2274,
 1307 02274 4774      JMS I C2374             / long call to S4044                    @@2274=4774
 1308 02275 5300      JMP   L2300             /                                       @@2275=5300
 1309 02276 1154      TAD   C0154             /                                       @@2276=1154
 1310 02277 4776      JMS I C2376             / long call to S2531                    @@2277=4776
 1311             L2300,

      AUTOMATIC DISASSEMBLY OF MAINDEC-08-DHKMA-A-PB.bin BY D8TAPE       Page 24


 1312 02300 4773      JMS I C2373             / long call to S4034                    @@2300=4773
 1313 02301 5304      JMP   L2304             /                                       @@2301=5304
 1314 02302 1153      TAD   C0153             /                                       @@2302=1153
 1315 02303 4776      JMS I C2376             / long call to S2531                    @@2303=4776
 1316             L2304,
 1317 02304 4772      JMS I C2372             / long call to S4024                    @@2304=4772
 1318 02305 5310  C2305,  5310                / JMP   L2310                           
 1319 02306 1152      TAD   C0152             /                                       @@2306=1152
 1320 02307 4776      JMS I C2376             / long call to S2531                    @@2307=4776
 1321             L2310,
 1322 02310 4771      JMS I C2371             / long call to S4015                    @@2310=4771
 1323 02311 5314      JMP   L2314             /                                       @@2311=5314
 1324 02312 1151      TAD   C0151             /                                       @@2312=1151
 1325 02313 4776      JMS I C2376             / long call to S2531                    @@2313=4776
 1326             L2314,
 1327 02314 4770      JMS I C2370             / long call to S4006                    @@2314=4770
 1328 02315 5320      JMP   L2320             /                                       @@2315=5320
 1329 02316 1150      TAD   C0150             /                                       @@2316=1150
 1330 02317 4776      JMS I C2376             / long call to S2531                    @@2317=4776
 1331             L2320,
 1332 02320 4767      JMS I C2367             / long call to S4000                    @@2320=4767
 1333 02321 5324      JMP   L2324             /                                       @@2321=5324
 1334 02322 1160      TAD   C0160             /                                       @@2322=1160
 1335 02323 4776      JMS I C2376             / long call to S2531                    @@2323=4776
 1336             L2324,
 1337 02324 5663      JMP I S2263             / return                                @@2324=5663
 1338             
 1339       2367  *2367
 1340             C2367,
 1341 02367 4000  C2367,  4000                / JMS   L0000                           
 1342             C2370,
 1343 02370 4006  C2370,  4006                / JMS   C0006                           
 1344             C2371,
 1345 02371 4015  C2371,  4015                / JMS   AI5                             
 1346             C2372,
 1347 02372 4024  C2372,  4024                / JMS   D0024                           
 1348             C2373,
 1349 02373 4034  C2373,  4034                / JMS   D0034                           
 1350             C2374,
 1351 02374 4044  C2374,  4044                / JMS   D0044                           
 1352             C2375,
 1353 02375 4054  C2375,  4054                / JMS   D0054                           
 1354             C2376,
 1355 02376 2531  C2376,  2531                / ISZ I C0131                           
 1356             C2377,
 1357 02377 4063  C2377,  4063                / JMS   D0063                           
 1358             
 1359       2400  *2400
 1360             
 1361             ////////////////////////////////////////////////////////////////////////////////
 1362             /
 1363             /   SUBROUTINE:  S2400
 1364             /
 1365             /   Called from:
 1366             /   2625 2674 3032 3035 3040 3330 3333 
 1367             /   Total 0007 (7) calls
 1368             ////////////////////////////////////////////////////////////////////////////////

      AUTOMATIC DISASSEMBLY OF MAINDEC-08-DHKMA-A-PB.bin BY D8TAPE       Page 25


 1369             S2400,
 1370 02400 0000      0                       / return area
 1371 02401 7300      CLA CLL                 / AC = 0000                             @@2401=7300
 1372 02402 1600      TAD I S2400             /                                       @@2402=1600
 1373 02403 3235      DCA   D2435             /                                       @@2403=3235
 1374 02404 2200      ISZ   S2400             /                                       @@2404=2200
 1375 02405 1600      TAD I S2400             /                                       @@2405=1600
 1376 02406 3236      DCA   D2436             /                                       @@2406=3236
 1377 02407 2200      ISZ   S2400             /                                       @@2407=2200
 1378 02410 1147      TAD   C0147             /                                       @@2410=1147
 1379 02411 7040      CMA                     /                                       @@2411=7040
 1380 02412 0635      AND I D2435             /                                       @@2412=0635
 1381 02413 7002      BSW                     /                                       @@2413=7002
 1382 02414 4222      JMS   S2422             /                                       @@2414=4222
 1383 02415 2236      ISZ   D2436             /                                       @@2415=2236
 1384 02416 1147      TAD   C0147             /                                       @@2416=1147
 1385 02417 0635      AND I D2435             /                                       @@2417=0635
 1386 02420 4222      JMS   S2422             /                                       @@2420=4222
 1387 02421 5600      JMP I S2400             / return                                @@2421=5600
 1388             
 1389             ////////////////////////////////////////////////////////////////////////////////
 1390             /
 1391             /   SUBROUTINE:  S2422
 1392             /
 1393             /   Called from:
 1394             /   2414 2420 
 1395             /   Total 0002 (2) calls
 1396             ////////////////////////////////////////////////////////////////////////////////
 1397             S2422,
 1398 02422 0000      0                       / return area
 1399 02423 3237      DCA   D2437             /                                       @@2423=3237
 1400 02424 1237      TAD   D2437             /                                       @@2424=1237
 1401 02425 7106      CLL RTL                 /                                       @@2425=7106
 1402 02426 7004      RAL                     /                                       @@2426=7004
 1403 02427 0146      AND   C0146             /                                       @@2427=0146
 1404 02430 1237      TAD   D2437             /                                       @@2430=1237
 1405 02431 0146      AND   C0146             /                                       @@2431=0146
 1406 02432 1145      TAD   C0145             /                                       @@2432=1145
 1407 02433 3636      DCA I D2436             /                                       @@2433=3636
 1408 02434 5622      JMP I S2422             / return                                @@2434=5622
 1409 02435 0000  D2435,  0000                / AND   L0000                           
 1410 02436 0000  D2436,  0000                / AND   L0000                           
 1411 02437 0000  D2437,  0000                / AND   L0000                           
 1412 02440 0000  D2440,  0000                / AND   L0000                           
 1413 02441 7240      STA                     / AC = 7777 (-0001)                     @@2441=7240
 1414 02442 1240      TAD   D2440             /                                       @@2442=1240
 1415 02443 3010  C2443,  3010                / DCA   L0                              
 1416             L2444,
 1417 02444 1410  C2444,  1410                / TAD I L0                              
 1418 02445 3307      DCA   D2507             /                                       @@2445=3307
 1419 02446 1307      TAD   D2507             /                                       @@2446=1307
 1420 02447 7002      BSW                     /                                       @@2447=7002
 1421 02450 4254      JMS   S2454             /                                       @@2450=4254
 1422 02451 1307      TAD   D2507             /                                       @@2451=1307
 1423 02452 4254      JMS   S2454             /                                       @@2452=4254
 1424 02453 5244      JMP   L2444             /                                       @@2453=5244
 1425             

      AUTOMATIC DISASSEMBLY OF MAINDEC-08-DHKMA-A-PB.bin BY D8TAPE       Page 26


 1426             ////////////////////////////////////////////////////////////////////////////////
 1427             /
 1428             /   SUBROUTINE:  S2454
 1429             /
 1430             /   Called from:
 1431             /   2450 2452 
 1432             /   Total 0002 (2) calls
 1433             ////////////////////////////////////////////////////////////////////////////////
 1434             S2454,
 1435 02454 0000      0                       / return area
 1436 02455 0147      AND   C0147             /                                       @@2455=0147
 1437 02456 7450      SNA                     /                                       @@2456=7450
 1438 02457 5410  C2457,  5410                / JMP I L0                              
 1439 02460 1144      TAD   C0144             /                                       @@2460=1144
 1440 02461 7440      SZA                     /                                       @@2461=7440
 1441 02462 5265      JMP   L2465             /                                       @@2462=5265
 1442 02463 1143      TAD   C0143             /                                       @@2463=1143
 1443 02464 5305      JMP   L2505             /                                       @@2464=5305
 1444             L2465,
 1445 02465 1163      TAD   C0163             /                                       @@2465=1163
 1446 02466 7500      SMA                     /                                       @@2466=7500
 1447 02467 5272      JMP   L2472             /                                       @@2467=5272
 1448 02470 1142      TAD   C0142             /                                       @@2470=1142
 1449 02471 5305      JMP   L2505             /                                       @@2471=5305
 1450             L2472,
 1451 02472 1141      TAD   C0141             /                                       @@2472=1141
 1452 02473 7440      SZA                     /                                       @@2473=7440
 1453 02474 5277      JMP   L2477             /                                       @@2474=5277
 1454 02475 1140      TAD   D0140             /                                       @@2475=1140
 1455 02476 5305      JMP   L2505             /                                       @@2476=5305
 1456             L2477,
 1457 02477 1161      TAD   C0161             /                                       @@2477=1161
 1458 02500 7440      SZA                     /                                       @@2500=7440
 1459 02501 5304      JMP   L2504             /                                       @@2501=5304
 1460 02502 1137      TAD   C0137             /                                       @@2502=1137
 1461 02503 7410      SKP                     /                                       @@2503=7410
 1462             L2504,
 1463 02504 1136      TAD   C0136             /                                       @@2504=1136
 1464             L2505,
 1465 02505 4310      JMS   S2510             /                                       @@2505=4310
 1466 02506 5654      JMP I S2454             / return                                @@2506=5654
 1467 02507 0000  D2507,  0000                / AND   L0000                           
 1468             
 1469             ////////////////////////////////////////////////////////////////////////////////
 1470             /
 1471             /   SUBROUTINE:  S2510
 1472             /
 1473             /   Called from:
 1474             /   2505 2532 2534 2606 3101 3103 3351 
 1475             /   Total 0007 (7) calls
 1476             ////////////////////////////////////////////////////////////////////////////////
 1477             S2510,
 1478 02510 0000      0                       / return area
 1479 02511 6000  C2511,  6000                / 6000                                  
 1480 02512 5323      JMP   L2523             /                                       @@2512=5323
 1481 02513 6046      TLS                     / Load the TTO from the content of AC4  @@2513=6046
 1482             L2514,

      AUTOMATIC DISASSEMBLY OF MAINDEC-08-DHKMA-A-PB.bin BY D8TAPE       Page 27


 1483 02514 6041      TSF                     / Skip if teleprinter flag is a 1.      @@2514=6041
 1484 02515 5314      JMP   L2514             /                                       @@2515=5314
 1485 02516 6042      TCF                     / Clear teleprinter flag.               @@2516=6042
 1486 02517 6007  C2517,  6007                / 6007                                  
 1487 02520 6001      ION                     / Enable Interrupts                     @@2520=6001
 1488 02521 7200      CLA                     /                                       @@2521=7200
 1489 02522 5710      JMP I S2510             / return                                @@2522=5710
 1490             L2523,
 1491 02523 6046      TLS                     / Load the TTO from the content of AC4  @@2523=6046
 1492             L2524,
 1493 02524 6041      TSF                     / Skip if teleprinter flag is a 1.      @@2524=6041
 1494 02525 5324      JMP   L2524             /                                       @@2525=5324
 1495 02526 6042      TCF                     / Clear teleprinter flag.               @@2526=6042
 1496 02527 7200      CLA                     /                                       @@2527=7200
 1497 02530 5710      JMP I S2510             / return                                @@2530=5710
 1498             
 1499             ////////////////////////////////////////////////////////////////////////////////
 1500             /
 1501             /   SUBROUTINE:  S2531
 1502             /
 1503             /   Called from:
 1504             /   2066 2267 2273 2277 2303 2307 2313 2317 2323 
 1505             /   Total 0011 (9) calls
 1506             ////////////////////////////////////////////////////////////////////////////////
 1507             S2531,
 1508 02531 0000      0                       / return area
 1509 02532 4310      JMS   S2510             /                                       @@2532=4310
 1510 02533 1135      TAD   C0135             /                                       @@2533=1135
 1511 02534 4310      JMS   S2510             /                                       @@2534=4310
 1512 02535 5731      JMP I S2531             / return                                @@2535=5731
 1513             
 1514       2600  *2600
 1515 02600 0000  D2600,  0000                / AND   L0000                           
 1516             L2601,
 1517 02601 7604      LAS                     /                                       @@2601=7604
 1518 02602 0022      AND   D0022             /                                       @@2602=0022
 1519 02603 7650      SNA CLA                 /                                       @@2603=7650
 1520 02604 5210      JMP   L2610             /                                       @@2604=5210
 1521             L2605,
 1522 02605 1143  D2605,  1143                / TAD   C0143                           
 1523 02606 4777      JMS I C2777             / long call to S2510                    @@2606=4777
 1524 02607 5600      JMP I D2600             / long jump to L0000                    @@2607=5600
 1525             L2610,
 1526 02610 7604      LAS                     /                                       @@2610=7604
 1527 02611 0021      AND   C0021             /                                       @@2611=0021
 1528 02612 7640      SZA CLA                 /                                       @@2612=7640
 1529 02613 5241      JMP   L2641             /                                       @@2613=5241
 1530 02614 6224      RIF                     / Same as RDF except reads the instruc  @@2614=6224
 1531 02615 7012      RTR                     /                                       @@2615=7012
 1532 02616 7010      RAR                     /                                       @@2616=7010
 1533 02617 0134      AND   C0134             /                                       @@2617=0134
 1534 02620 1133      TAD   C0133             /                                       @@2620=1133
 1535 02621 3232      DCA   D2632             /                                       @@2621=3232
 1536 02622 1200  D2622,  1200                / TAD   D2600                           
 1537 02623 1157      TAD   C0157             /                                       @@2623=1157
 1538 02624 3042      DCA   D0042             /                                       @@2624=3042
 1539 02625 4776      JMS I C2776             / long call to S2400                    @@2625=4776

      AUTOMATIC DISASSEMBLY OF MAINDEC-08-DHKMA-A-PB.bin BY D8TAPE       Page 28


 1540 02626 0042      AND   D0042             /                                       @@2626=0042
 1541 02627 2633      ISZ I D2633             /                                       @@2627=2633
 1542 02630 4775      JMS I C2775             / long call to S2440                    @@2630=4775
 1543 02631 4543  C2631,  4543                / JMS I C0143                           
 1544 02632 0000  D2632,  0000                / AND   L0000                           
 1545 02633 0000  D2633,  0000                / AND   L0000                           
 1546 02634 0000  D2634,  0000                / AND   L0000                           
 1547 02635 4040      JMS   D0040             /                                       @@2635=4040
 1548 02636 0000      AND   L0000             /                                       @@2636=0000
 1549 02637 5640      JMP I D2640             / long jump to L0000                    @@2637=5640
 1550 02640 0000  D2640,  0000                / AND   L0000                           
 1551             L2641,
 1552 02641 7604      LAS                     /                                       @@2641=7604
 1553 02642 0020      AND   L0020             /                                       @@2642=0020
 1554 02643 7650      SNA CLA                 /                                       @@2643=7650
 1555 02644 5250      JMP   L2650             /                                       @@2644=5250
 1556 02645 1200      TAD   D2600             /                                       @@2645=1200
 1557 02646 1157      TAD   C0157             /                                       @@2646=1157
 1558 02647 7402      HLT                     /                                       @@2647=7402
 1559             L2650,
 1560 02650 7604      LAS                     /                                       @@2650=7604
 1561 02651 0024      AND   D0024             /                                       @@2651=0024
 1562 02652 7640      SZA CLA                 /                                       @@2652=7640
 1563 02653 5774      JMP I C2774             / long jump to L0205                    @@2653=5774
 1564 02654 5600      JMP I D2600             / long jump to L0000                    @@2654=5600
 1565 02655 0000  C2655,  0000                / AND   L0000                           
 1566             L2656,
 1567 02656 2037      ISZ   D0037             /                                       @@2656=2037
 1568 02657 7410      SKP                     /                                       @@2657=7410
 1569 02660 5256      JMP   L2656             /                                       @@2660=5256
 1570 02661 7200      CLA                     /                                       @@2661=7200
 1571 02662 1255      TAD   C2655             /                                       @@2662=1255
 1572 02663 3200      DCA   D2600             /                                       @@2663=3200
 1573 02664 1373      TAD   C2773             /                                       @@2664=1373
 1574 02665 3240      DCA   D2640             /                                       @@2665=3240
 1575 02666 5201      JMP   L2601             /                                       @@2666=5201
 1576 02667 1036      TAD   D0036             /                                       @@2667=1036
 1577 02670 7112      CLL RTR                 /                                       @@2670=7112
 1578 02671 7010      RAR                     /                                       @@2671=7010
 1579 02672 1133      TAD   C0133             /                                       @@2672=1133
 1580 02673 3310      DCA   D2710             /                                       @@2673=3310
 1581 02674 4776      JMS I C2776             / long call to S2400                    @@2674=4776
 1582 02675 0040      AND   D0040             /                                       @@2675=0040
 1583 02676 2711      ISZ I C2711             /                                       @@2676=2711
 1584 02677 4775      JMS I C2775             / long call to S2440                    @@2677=4775
 1585 02700 2205      ISZ   L2605             /                                       @@2700=2205
 1586 02701 1417  C2701,  1417                / TAD I AI7                             
 1587 02702 4005  C2702,  4005                / JMS   C0005                           
 1588 02703 2222      ISZ   D2622             /                                       @@2703=2222
 1589 02704 4001  C2704,  4001                / JMS   D0001                           
 1590 02705 2440      ISZ I D0040             /                                       @@2705=2440
 1591 02706 0000      AND   L0000             /                                       @@2706=0000
 1592 02707 4775      JMS I C2775             / long call to S2440                    @@2707=4775
 1593 02710 0000  D2710,  0000                / AND   L0000                           
 1594 02711 0000  C2711,  0000                / AND   L0000                           
 1595 02712 0000      AND   L0000             /                                       @@2712=0000
 1596 02713 0000      AND   L0000             /                                       @@2713=0000

      AUTOMATIC DISASSEMBLY OF MAINDEC-08-DHKMA-A-PB.bin BY D8TAPE       Page 29


 1597 02714 7240      STA                     / AC = 7777 (-0001)                     @@2714=7240
 1598 02715 3041      DCA   D0041             /                                       @@2715=3041
 1599 02716 5241      JMP   L2641             /                                       @@2716=5241
 1600             
 1601       2773  *2773
 1602 02773 2667  C2773,  2667                / ISZ I C2667                           
 1603             C2774,
 1604 02774 0205  C2774,  0205                / AND   L2605                           
 1605             C2775,
 1606 02775 2440  C2775,  2440                / ISZ I D0040                           
 1607             C2776,
 1608 02776 2400  C2776,  2400                / ISZ I L0000                           
 1609             C2777,
 1610 02777 2510  C2777,  2510                / ISZ I D0110                           
 1611             
 1612       3000  *3000
 1613 03000 0000  D3000,  0000                / AND   L0000                           
 1614             L3001,
 1615 03001 2037  C3001,  2037                / ISZ   D0037                           
 1616 03002 7410      SKP                     /                                       @@3002=7410
 1617 03003 5201      JMP   L3001             /                                       @@3003=5201
 1618 03004 7200      CLA                     /                                       @@3004=7200
 1619 03005 1200  C3005,  1200                / TAD   D3000                           
 1620 03006 3777      DCA I C3177             /                                       @@3006=3777
 1621 03007 1376      TAD   C3176             /                                       @@3007=1376
 1622 03010 3775      DCA I C3175             /                                       @@3010=3775
 1623 03011 7604  D3011,  7604                / LAS                                   
 1624 03012 0022      AND   D0022             /                                       @@3012=0022
 1625 03013 7640      SZA CLA                 /                                       @@3013=7640
 1626 03014 5774      JMP I C3174             / long jump to L2605                    @@3014=5774
 1627 03015 7604      LAS                     /                                       @@3015=7604
 1628 03016 0021      AND   C0021             /                                       @@3016=0021
 1629 03017 7640      SZA CLA                 /                                       @@3017=7640
 1630 03020 5773      JMP I C3173             / long jump to L2641                    @@3020=5773
 1631 03021 2041  D3021,  2041                / ISZ   D0041                           
 1632 03022 7410      SKP                     /                                       @@3022=7410
 1633 03023 4772      JMS I C3172             / long call to S4227                    @@3023=4772
 1634 03024 5771      JMP I C3171             / long jump to L2601                    @@3024=5771
 1635 03025 1036      TAD   D0036             /                                       @@3025=1036
 1636 03026 7112      CLL RTR                 /                                       @@3026=7112
 1637 03027 7010      RAR                     /                                       @@3027=7010
 1638 03030 1133      TAD   C0133             /                                       @@3030=1133
 1639 03031 3244  D3031,  3244                / DCA   D3044                           
 1640 03032 4770      JMS I C3170             / long call to S2400                    @@3032=4770
 1641 03033 0043      AND   D0043             /                                       @@3033=0043
 1642 03034 3045      DCA   D0045             /                                       @@3034=3045
 1643 03035 4770      JMS I C3170             / long call to S2400                    @@3035=4770
 1644 03036 0057      AND   D0057             /                                       @@3036=0057
 1645 03037 3051      DCA   D0051             /                                       @@3037=3051
 1646 03040 4770      JMS I C3170             / long call to S2400                    @@3040=4770
 1647 03041 0060  C3041,  0060                / AND   D0060                           
 1648 03042 3054      DCA   D0054             /                                       @@3042=3054
 1649 03043 4767      JMS I C3167             / long call to S2440                    @@3043=4767
 1650 03044 0000  D3044,  0000                / AND   L0000                           
 1651 03045 0000  D3045,  0000                / AND   L0000                           
 1652 03046 0000      AND   L0000             /                                       @@3046=0000
 1653 03047 4040      JMS   D0040             /                                       @@3047=4040

      AUTOMATIC DISASSEMBLY OF MAINDEC-08-DHKMA-A-PB.bin BY D8TAPE       Page 30


 1654 03050 4040      JMS   D0040             /                                       @@3050=4040
 1655 03051 0000      AND   L0000             /                                       @@3051=0000
 1656 03052 0000      AND   L0000             /                                       @@3052=0000
 1657 03053 4040      JMS   D0040             /                                       @@3053=4040
 1658 03054 0000      AND   L0000             /                                       @@3054=0000
 1659 03055 0000      AND   L0000             /                                       @@3055=0000
 1660 03056 4000      JMS   L0000             /                                       @@3056=4000
 1661             L3057,
 1662 03057 4766      JMS I C3166             / long call to S3724                    @@3057=4766
 1663 03060 4765      JMS I C3165             / long call to S3200                    @@3060=4765
 1664 03061 5773  D3061,  5773                / JMP I C3173                           
 1665 03062 4764      JMS I C3164             / long call to S3211                    @@3062=4764
 1666 03063 5275      JMP   L3075             /                                       @@3063=5275
 1667 03064 4763      JMS I C3163             / long call to S3221                    @@3064=4763
 1668 03065 5275      JMP   L3075             /                                       @@3065=5275
 1669 03066 4762      JMS I C3162             / long call to S3231                    @@3066=4762
 1670 03067 5275      JMP   L3075             /                                       @@3067=5275
 1671 03070 4761      JMS I C3161             / long call to S3245                    @@3070=4761
 1672 03071 5275      JMP   L3075             /                                       @@3071=5275
 1673 03072 4760      JMS I C3160             / long call to S3261                    @@3072=4760
 1674 03073 7410      SKP                     /                                       @@3073=7410
 1675 03074 4757      JMS I C3157             / long call to S3275                    @@3074=4757
 1676             L3075,
 1677 03075 4756  D3075,  4756                / JMS I C3156                           
 1678 03076 1132      TAD   C0132             /                                       @@3076=1132
 1679 03077 1157      TAD   C0157             /                                       @@3077=1157
 1680 03100 1151      TAD   C0151             /                                       @@3100=1151
 1681 03101 4755      JMS I C3155             / long call to S2510                    @@3101=4755
 1682 03102 1131      TAD   C0131             /                                       @@3102=1131
 1683 03103 4755      JMS I C3155             / long call to S2510                    @@3103=4755
 1684 03104 5773      JMP I C3173             / long jump to L2641                    @@3104=5773
 1685             
 1686       3155  *3155
 1687             C3155,
 1688 03155 2510  C3155,  2510                / ISZ I D0110                           
 1689 03156 3706  C3156,  3706                / DCA I C3106                           
 1690             C3157,
 1691 03157 3275  C3157,  3275                / DCA   L3075                           
 1692             C3160,
 1693 03160 3261  C3160,  3261                / DCA   D3061                           
 1694             C3161,
 1695 03161 3245  C3161,  3245                / DCA   D3045                           
 1696             C3162,
 1697 03162 3231  C3162,  3231                / DCA   D3031                           
 1698             C3163,
 1699 03163 3221  C3163,  3221                / DCA   D3021                           
 1700             C3164,
 1701 03164 3211  C3164,  3211                / DCA   D3011                           
 1702             C3165,
 1703 03165 3200  C3165,  3200                / DCA   D3000                           
 1704             C3166,
 1705 03166 3724  C3166,  3724                / DCA I C3124                           
 1706             C3167,
 1707 03167 2440  C3167,  2440                / ISZ I D0040                           
 1708             C3170,
 1709 03170 2400  C3170,  2400                / ISZ I L0000                           
 1710             C3171,

      AUTOMATIC DISASSEMBLY OF MAINDEC-08-DHKMA-A-PB.bin BY D8TAPE       Page 31


 1711 03171 2601  C3171,  2601                / ISZ I L3001                           
 1712             C3172,
 1713 03172 4227  C3172,  4227                / JMS   C3027                           
 1714             C3173,
 1715 03173 2641  C3173,  2641                / ISZ I C3041                           
 1716             C3174,
 1717 03174 2605  C3174,  2605                / ISZ I C3005                           
 1718 03175 2640  C3175,  2640                / ISZ I C3040                           
 1719 03176 3025  C3176,  3025                / DCA   D0025                           
 1720 03177 2600  C3177,  2600                / ISZ I D3000                           
 1721             
 1722       3200  *3200
 1723             
 1724             ////////////////////////////////////////////////////////////////////////////////
 1725             /
 1726             /   SUBROUTINE:  S3200
 1727             /
 1728             /   Called from:
 1729             /   3060 
 1730             /   Total 0001 (1) calls
 1731             ////////////////////////////////////////////////////////////////////////////////
 1732             S3200,
 1733 03200 0000      0                       / return area
 1734 03201 4777      JMS I C3377             / long call to S2440                    @@3201=4777
 1735 03202 1617      TAD I C3217             /                                       @@3202=1617
 1736 03203 4020  C3203,  4020                / JMS   L0020                           
 1737 03204 0124      AND   C0124             /                                       @@3204=0124
 1738 03205 2405  C3205,  2405                / ISZ I C0005                           
 1739 03206 2216      ISZ   D3216             /                                       @@3206=2216
 1740 03207 0000      AND   L0000             /                                       @@3207=0000
 1741 03210 5600      JMP I S3200             / return                                @@3210=5600
 1742             
 1743             ////////////////////////////////////////////////////////////////////////////////
 1744             /
 1745             /   SUBROUTINE:  S3211
 1746             /
 1747             /   Called from:
 1748             /   3062 
 1749             /   Total 0001 (1) calls
 1750             ////////////////////////////////////////////////////////////////////////////////
 1751             S3211,
 1752 03211 0000      0                       / return area
 1753 03212 4777      JMS I C3377             / long call to S2440                    @@3212=4777
 1754 03213 0114  C3213,  0114                / AND   C0114                           
 1755 03214 1440      TAD I D0040             /                                       @@3214=1440
 1756 03215 6040  C3215,  6040                / 6040                                  
 1757 03216 5540  D3216,  5540                / JMP I D0140                           
 1758 03217 0000  C3217,  0000                / AND   L0000                           
 1759 03220 5611      JMP I S3211             / return                                @@3220=5611
 1760             
 1761             ////////////////////////////////////////////////////////////////////////////////
 1762             /
 1763             /   SUBROUTINE:  S3221
 1764             /
 1765             /   Called from:
 1766             /   3064 
 1767             /   Total 0001 (1) calls

      AUTOMATIC DISASSEMBLY OF MAINDEC-08-DHKMA-A-PB.bin BY D8TAPE       Page 32


 1768             ////////////////////////////////////////////////////////////////////////////////
 1769             S3221,
 1770 03221 0000      0                       / return area
 1771 03222 4777  D3222,  4777                / JMS I C3377                           
 1772 03223 0114  C3223,  0114                / AND   C0114                           
 1773 03224 1440      TAD I D0040             /                                       @@3224=1440
 1774 03225 6140  C3225,  6140                / 6140                                  
 1775 03226 5540      JMP I D0140             / long jump to L0212                    @@3226=5540
 1776 03227 0000      AND   L0000             /                                       @@3227=0000
 1777 03230 5621      JMP I S3221             / return                                @@3230=5621
 1778             
 1779             ////////////////////////////////////////////////////////////////////////////////
 1780             /
 1781             /   SUBROUTINE:  S3231
 1782             /
 1783             /   Called from:
 1784             /   3066 
 1785             /   Total 0001 (1) calls
 1786             ////////////////////////////////////////////////////////////////////////////////
 1787             S3231,
 1788 03231 0000      0                       / return area
 1789 03232 4777      JMS I C3377             / long call to S2440                    @@3232=4777
 1790 03233 6060  C3233,  6060                / 6060                                  
 1791 03234 6060  C3234,  6060                / 6060                                  
 1792 03235 5567      JMP I C0167             / long jump to L0010                    @@3235=5567
 1793 03236 6767  C3236,  6767                / 6767                                  
 1794 03237 6740  C3237,  6740                / 6740                                  
 1795 03240 2703      ISZ I C3303             /                                       @@3240=2703
 1796 03241 2040      ISZ   D0040             /                                       @@3241=2040
 1797 03242 5540      JMP I D0140             / long jump to L0212                    @@3242=5540
 1798 03243 0000      AND   L0000             /                                       @@3243=0000
 1799 03244 5631      JMP I S3231             / return                                @@3244=5631
 1800             
 1801             ////////////////////////////////////////////////////////////////////////////////
 1802             /
 1803             /   SUBROUTINE:  S3245
 1804             /
 1805             /   Called from:
 1806             /   3070 
 1807             /   Total 0001 (1) calls
 1808             ////////////////////////////////////////////////////////////////////////////////
 1809             S3245,
 1810 03245 0000      0                       / return area
 1811 03246 4777      JMS I C3377             / long call to S2440                    @@3246=4777
 1812 03247 6767  C3247,  6767                / 6767                                  
 1813 03250 6767  C3250,  6767                / 6767                                  
 1814 03251 5560      JMP I C0160             / long jump to L0260                    @@3251=5560
 1815 03252 6060  C3252,  6060                / 6060                                  
 1816 03253 6040  C3253,  6040                / 6040                                  
 1817 03254 2703      ISZ I C3303             /                                       @@3254=2703
 1818 03255 2040      ISZ   D0040             /                                       @@3255=2040
 1819 03256 5540      JMP I D0140             / long jump to L0212                    @@3256=5540
 1820 03257 0000      AND   L0000             /                                       @@3257=0000
 1821 03260 5645      JMP I S3245             / return                                @@3260=5645
 1822             
 1823             ////////////////////////////////////////////////////////////////////////////////
 1824             /

      AUTOMATIC DISASSEMBLY OF MAINDEC-08-DHKMA-A-PB.bin BY D8TAPE       Page 33


 1825             /   SUBROUTINE:  S3261
 1826             /
 1827             /   Called from:
 1828             /   3072 
 1829             /   Total 0001 (1) calls
 1830             ////////////////////////////////////////////////////////////////////////////////
 1831             S3261,
 1832 03261 0000      0                       / return area
 1833 03262 4777      JMS I C3377             / long call to S2440                    @@3262=4777
 1834 03263 6265  C3263,  6265                / 6265                                  
 1835 03264 6265  C3264,  6265                / 6265                                  
 1836 03265 5565      JMP I C0165             / long jump to L5252                    @@3265=5565
 1837 03266 6265  C3266,  6265                / 6265                                  
 1838 03267 6240  C3267,  6240                / 6240                                  
 1839 03270 2703      ISZ I C3303             /                                       @@3270=2703
 1840 03271 2040      ISZ   D0040             /                                       @@3271=2040
 1841 03272 5540      JMP I D0140             / long jump to L0212                    @@3272=5540
 1842 03273 0000      AND   L0000             /                                       @@3273=0000
 1843 03274 5661      JMP I S3261             / return                                @@3274=5661
 1844             
 1845             ////////////////////////////////////////////////////////////////////////////////
 1846             /
 1847             /   SUBROUTINE:  S3275
 1848             /
 1849             /   Called from:
 1850             /   3074 
 1851             /   Total 0001 (1) calls
 1852             ////////////////////////////////////////////////////////////////////////////////
 1853             S3275,
 1854 03275 0000      0                       / return area
 1855 03276 4777      JMS I C3377             / long call to S2440                    @@3276=4777
 1856 03277 6562      6562                    / (AA05/AA07) The buffer (input buffer  @@3277=6562
 1857 03300 6562      6562                    / (AA05/AA07) The buffer (input buffer  @@3300=6562
 1858 03301 5562      JMP I C0162             / long jump to L7700                    @@3301=5562
 1859 03302 6562      6562                    / (AA05/AA07) The buffer (input buffer  @@3302=6562
 1860 03303 6540  C3303,  6540                / 6540                                  
 1861 03304 2703      ISZ I C3303             /                                       @@3304=2703
 1862 03305 2040      ISZ   D0040             /                                       @@3305=2040
 1863 03306 5540      JMP I D0140             / long jump to L0212                    @@3306=5540
 1864 03307 0000      AND   L0000             /                                       @@3307=0000
 1865 03310 5675      JMP I S3275             / return                                @@3310=5675
 1866             L3311,
 1867 03311 7200      CLA                     /                                       @@3311=7200
 1868 03312 1376      TAD   C3376             /                                       @@3312=1376
 1869 03313 3775      DCA I C3375             /                                       @@3313=3775
 1870 03314 4777      JMS I C3377             / long call to S2440                    @@3314=4777
 1871 03315 4543  C3315,  4543                / JMS I C0143                           
 1872 03316 2001      ISZ   D0001             /                                       @@3316=2001
 1873 03317 2211      ISZ   S3211             /                                       @@3317=2211
 1874 03320 2431      ISZ I D0031             /                                       @@3320=2431
 1875 03321 4005  C3321,  4005                / JMS   C0005                           
 1876 03322 2222      ISZ   D3222             /                                       @@3322=2222
 1877 03323 5440      JMP I D0040             / long jump to L0000                    @@3323=5440
 1878 03324 1417  C3324,  1417                / TAD I AI7                             
 1879 03325 0340      AND   C3340             /                                       @@3325=0340
 1880 03326 6075      6075                    / Set minimum brightness                @@3326=6075
 1881 03327 0000      AND   L0000             /                                       @@3327=0000

      AUTOMATIC DISASSEMBLY OF MAINDEC-08-DHKMA-A-PB.bin BY D8TAPE       Page 34


 1882 03330 4774      JMS I C3374             / long call to S2400                    @@3330=4774
 1883 03331 0000      AND   L0000             /                                       @@3331=0000
 1884 03332 3337      DCA   D3337             /                                       @@3332=3337
 1885 03333 4774      JMS I C3374             / long call to S2400                    @@3333=4774
 1886 03334 0043      AND   D0043             /                                       @@3334=0043
 1887 03335 3353      DCA   D3353             /                                       @@3335=3353
 1888 03336 4777      JMS I C3377             / long call to S2440                    @@3336=4777
 1889 03337 0000  D3337,  0000                / AND   L0000                           
 1890 03340 0000  C3340,  0000                / AND   L0000                           
 1891 03341 4040      JMS   D0040             /                                       @@3341=4040
 1892 03342 2423      ISZ I C0023             /                                       @@3342=2423
 1893 03343 2401      ISZ I D0001             /                                       @@3343=2401
 1894 03344 0475      AND I D0075             /                                       @@3344=0475
 1895 03345 0000      AND   L0000             /                                       @@3345=0000
 1896 03346 6004  C3346,  6004                / 6004                                  
 1897 03347 0134      AND   C0134             /                                       @@3347=0134
 1898 03350 1160      TAD   C0160             /                                       @@3350=1160
 1899 03351 4773      JMS I C3373             / long call to S2510                    @@3351=4773
 1900 03352 4777      JMS I C3377             / long call to S2440                    @@3352=4777
 1901 03353 0000  D3353,  0000                / AND   L0000                           
 1902 03354 0000      AND   L0000             /                                       @@3354=0000
 1903 03355 4000      JMS   L0000             /                                       @@3355=4000
 1904 03356 6104      CMP                     / (MP8/I) Clear memory parity error fl  @@3356=6104
 1905 03357 7240      STA                     / AC = 7777 (-0001)                     @@3357=7240
 1906 03360 3041      DCA   D0041             /                                       @@3360=3041
 1907 03361 5772      JMP I C3372             / long jump to L3057                    @@3361=5772
 1908             
 1909       3372  *3372
 1910             C3372,
 1911 03372 3057  C3372,  3057                / DCA   D0057                           
 1912             C3373,
 1913 03373 2510  C3373,  2510                / ISZ I D0110                           
 1914             C3374,
 1915 03374 2400  C3374,  2400                / ISZ I L0000                           
 1916 03375 2600  C3375,  2600                / ISZ I S3200                           
 1917 03376 4514  C3376,  4514                / JMS I C0114                           
 1918             C3377,
 1919 03377 2440  C3377,  2440                / ISZ I D0040                           
 1920             
 1921       3400  *3400
 1922             
 1923             ////////////////////////////////////////////////////////////////////////////////
 1924             /
 1925             /   SUBROUTINE:  S3400
 1926             /
 1927             /   Called from:
 1928             /   4513 
 1929             /   Total 0001 (1) calls
 1930             ////////////////////////////////////////////////////////////////////////////////
 1931             S3400,
 1932 03400 0000      0                       / return area
 1933 03401 4777      JMS I C3577             / long call to S2440                    @@3401=4777
 1934 03402 4543  C3402,  4543                / JMS I C0143                           
 1935 03403 1116      TAD   C0116             /                                       @@3403=1116
 1936 03404 2440      ISZ I D0040             /                                       @@3404=2440
 1937 03405 0622  D3405,  0622                / AND I C3422                           
 1938 03406 1715      TAD I C3515             /                                       @@3406=1715

      AUTOMATIC DISASSEMBLY OF MAINDEC-08-DHKMA-A-PB.bin BY D8TAPE       Page 35


 1939 03407 4013  C3407,  4013                / JMS   AI3                             
 1940 03410 0200      AND   S3400             /                                       @@3410=0200
 1941 03411 6032      KCC                     / Clear AC and clear keyboard flag.     @@3411=6032
 1942 03412 7240      STA                     / AC = 7777 (-0001)                     @@3412=7240
 1943 03413 3041      DCA   D0041             /                                       @@3413=3041
 1944 03414 5600      JMP I S3400             / return                                @@3414=5600
 1945             L3415,
 1946 03415 4777      JMS I C3577             / long call to S2440                    @@3415=4777
 1947 03416 4543  C3416,  4543                / JMS I C0143                           
 1948 03417 2516      ISZ I C0116             /                                       @@3417=2516
 1949 03420 2701      ISZ I C3501             /                                       @@3420=2701
 1950 03421 1624      TAD I C3424             /                                       @@3421=1624
 1951 03422 0504  C3422,  0504                / AND I D0104                           
 1952 03423 4011  C3423,  4011                / JMS   AI1                             
 1953 03424 1624  C3424,  1624                / TAD I C3424                           
 1954 03425 0522  D3425,  0522                / AND I C0122                           
 1955 03426 2225      ISZ   D3425             /                                       @@3426=2225
 1956 03427 2024      ISZ   D0024             /                                       @@3427=2024
 1957 03430 4017  C3430,  4017                / JMS   AI7                             
 1958 03431 0303      AND   C3503             /                                       @@3431=0303
 1959 03432 2522      ISZ I C0122             /                                       @@3432=2522
 1960 03433 2205      ISZ   D3405             /                                       @@3433=2205
 1961 03434 0400      AND I L0000             /                                       @@3434=0400
 1962 03435 6007  C3435,  6007                / 6007                                  
 1963 03436 7240      STA                     / AC = 7777 (-0001)                     @@3436=7240
 1964 03437 3041      DCA   D0041             /                                       @@3437=3041
 1965 03440 5776      JMP I C3576             / long jump to L4514                    @@3440=5776
 1966             
 1967             ////////////////////////////////////////////////////////////////////////////////
 1968             /
 1969             /   SUBROUTINE:  S3441
 1970             /
 1971             /   Called from:
 1972             /   0605 
 1973             /   Total 0001 (1) calls
 1974             ////////////////////////////////////////////////////////////////////////////////
 1975             S3441,
 1976 03441 0000      0                       / return area
 1977 03442 7330      CLA CLL CML RAR         / AC = 4000 (-4000 = -2048 dec)         @@3442=7330
 1978 03443 3031      DCA   D0031             /                                       @@3443=3031
 1979 03444 5641      JMP I S3441             / return                                @@3444=5641
 1980             
 1981             ////////////////////////////////////////////////////////////////////////////////
 1982             /
 1983             /   SUBROUTINE:  S3445
 1984             /
 1985             /   Called from:
 1986             /   0613 
 1987             /   Total 0001 (1) calls
 1988             ////////////////////////////////////////////////////////////////////////////////
 1989             S3445,
 1990 03445 0000      0                       / return area
 1991 03446 7332      CLA CLL CML RTR         / AC = 2000 (1024)                      @@3446=7332
 1992 03447 3031      DCA   D0031             /                                       @@3447=3031
 1993 03450 5645      JMP I S3445             / return                                @@3450=5645
 1994             
 1995             ////////////////////////////////////////////////////////////////////////////////

      AUTOMATIC DISASSEMBLY OF MAINDEC-08-DHKMA-A-PB.bin BY D8TAPE       Page 36


 1996             /
 1997             /   SUBROUTINE:  S3451
 1998             /
 1999             /   Called from:
 2000             /   0620 
 2001             /   Total 0001 (1) calls
 2002             ////////////////////////////////////////////////////////////////////////////////
 2003             S3451,
 2004 03451 0000      0                       / return area
 2005 03452 7332      CLA CLL CML RTR         / AC = 2000 (1024)                      @@3452=7332
 2006 03453 7010      RAR                     /                                       @@3453=7010
 2007 03454 3031      DCA   D0031             /                                       @@3454=3031
 2008 03455 5651      JMP I S3451             / return                                @@3455=5651
 2009             
 2010             ////////////////////////////////////////////////////////////////////////////////
 2011             /
 2012             /   SUBROUTINE:  S3456
 2013             /
 2014             /   Called from:
 2015             /   0625 
 2016             /   Total 0001 (1) calls
 2017             ////////////////////////////////////////////////////////////////////////////////
 2018             S3456,
 2019 03456 0000      0                       / return area
 2020 03457 7332      CLA CLL CML RTR         / AC = 2000 (1024)                      @@3457=7332
 2021 03460 7012      RTR                     /                                       @@3460=7012
 2022 03461 3031      DCA   D0031             /                                       @@3461=3031
 2023 03462 5656      JMP I S3456             / return                                @@3462=5656
 2024             
 2025             ////////////////////////////////////////////////////////////////////////////////
 2026             /
 2027             /   SUBROUTINE:  S3463
 2028             /
 2029             /   Called from:
 2030             /   0634 
 2031             /   Total 0001 (1) calls
 2032             ////////////////////////////////////////////////////////////////////////////////
 2033             S3463,
 2034 03463 0000      0                       / return area
 2035 03464 7203      CLA IAC BSW             /                                       @@3464=7203
 2036 03465 7104      CLL RAL                 /                                       @@3465=7104
 2037 03466 3031      DCA   D0031             /                                       @@3466=3031
 2038 03467 5663      JMP I S3463             / return                                @@3467=5663
 2039             
 2040             ////////////////////////////////////////////////////////////////////////////////
 2041             /
 2042             /   SUBROUTINE:  S3470
 2043             /
 2044             /   Called from:
 2045             /   0643 
 2046             /   Total 0001 (1) calls
 2047             ////////////////////////////////////////////////////////////////////////////////
 2048             S3470,
 2049 03470 0000      0                       / return area
 2050 03471 7203      CLA IAC BSW             /                                       @@3471=7203
 2051 03472 3031      DCA   D0031             /                                       @@3472=3031
 2052 03473 5670      JMP I S3470             / return                                @@3473=5670

      AUTOMATIC DISASSEMBLY OF MAINDEC-08-DHKMA-A-PB.bin BY D8TAPE       Page 37


 2053             
 2054             ////////////////////////////////////////////////////////////////////////////////
 2055             /
 2056             /   SUBROUTINE:  S3474
 2057             /
 2058             /   Called from:
 2059             /   1425 1500 
 2060             /   Total 0002 (2) calls
 2061             ////////////////////////////////////////////////////////////////////////////////
 2062             S3474,
 2063 03474 0000      0                       / return area
 2064 03475 7332      CLA CLL CML RTR         / AC = 2000 (1024)                      @@3475=7332
 2065 03476 3030      DCA   D0030             /                                       @@3476=3030
 2066 03477 5674      JMP I S3474             / return                                @@3477=5674
 2067             
 2068             ////////////////////////////////////////////////////////////////////////////////
 2069             /
 2070             /   SUBROUTINE:  S3500
 2071             /
 2072             /   Called from:
 2073             /   1436 1511 
 2074             /   Total 0002 (2) calls
 2075             ////////////////////////////////////////////////////////////////////////////////
 2076             S3500,
 2077 03500 0000      0                       / return area
 2078 03501 7332  C3501,  7332                / CLA CLL CML RTR                       
 2079 03502 7010      RAR                     /                                       @@3502=7010
 2080 03503 3030  C3503,  3030                / DCA   D0030                           
 2081 03504 5700      JMP I S3500             / return                                @@3504=5700
 2082             
 2083             ////////////////////////////////////////////////////////////////////////////////
 2084             /
 2085             /   SUBROUTINE:  S3505
 2086             /
 2087             /   Called from:
 2088             /   2060 
 2089             /   Total 0001 (1) calls
 2090             ////////////////////////////////////////////////////////////////////////////////
 2091             S3505,
 2092 03505 0000      0                       / return area
 2093 03506 7200      CLA                     /                                       @@3506=7200
 2094 03507 1032      TAD   D0032             /                                       @@3507=1032
 2095 03510 7004      RAL                     /                                       @@3510=7004
 2096 03511 7130      CLL CML RAR             /                                       @@3511=7130
 2097 03512 3032      DCA   D0032             /                                       @@3512=3032
 2098 03513 5705      JMP I S3505             / return                                @@3513=5705
 2099             
 2100             ////////////////////////////////////////////////////////////////////////////////
 2101             /
 2102             /   SUBROUTINE:  S3514
 2103             /
 2104             /   Called from:
 2105             /   1011 
 2106             /   Total 0001 (1) calls
 2107             ////////////////////////////////////////////////////////////////////////////////
 2108             S3514,
 2109 03514 0000      0                       / return area

      AUTOMATIC DISASSEMBLY OF MAINDEC-08-DHKMA-A-PB.bin BY D8TAPE       Page 38


 2110 03515 7200  C3515,  7200                / CLA                                   
 2111 03516 1033      TAD   D0033             /                                       @@3516=1033
 2112 03517 7004      RAL                     /                                       @@3517=7004
 2113 03520 7130      CLL CML RAR             /                                       @@3520=7130
 2114 03521 3033      DCA   D0033             /                                       @@3521=3033
 2115 03522 5714      JMP I S3514             / return                                @@3522=5714
 2116             
 2117             ////////////////////////////////////////////////////////////////////////////////
 2118             /
 2119             /   SUBROUTINE:  S3523
 2120             /
 2121             /   Called from:
 2122             /   2055 
 2123             /   Total 0001 (1) calls
 2124             ////////////////////////////////////////////////////////////////////////////////
 2125             S3523,
 2126 03523 0000      0                       / return area
 2127 03524 7200      CLA                     /                                       @@3524=7200
 2128 03525 1032      TAD   D0032             /                                       @@3525=1032
 2129 03526 7006      RTL                     /                                       @@3526=7006
 2130 03527 7132      CLL CML RTR             /                                       @@3527=7132
 2131 03530 3032      DCA   D0032             /                                       @@3530=3032
 2132 03531 5723      JMP I S3523             / return                                @@3531=5723
 2133             
 2134             ////////////////////////////////////////////////////////////////////////////////
 2135             /
 2136             /   SUBROUTINE:  S3532
 2137             /
 2138             /   Called from:
 2139             /   1024 
 2140             /   Total 0001 (1) calls
 2141             ////////////////////////////////////////////////////////////////////////////////
 2142             S3532,
 2143 03532 0000      0                       / return area
 2144 03533 7200      CLA                     /                                       @@3533=7200
 2145 03534 1033      TAD   D0033             /                                       @@3534=1033
 2146 03535 7006      RTL                     /                                       @@3535=7006
 2147 03536 7132      CLL CML RTR             /                                       @@3536=7132
 2148 03537 3033      DCA   D0033             /                                       @@3537=3033
 2149 03540 5732      JMP I S3532             / return                                @@3540=5732
 2150             C3541,
 2151 03541 0000  C3541,  0000                / AND   L0000                           
 2152 03542 7200      CLA                     /                                       @@3542=7200
 2153 03543 1032      TAD   D0032             /                                       @@3543=1032
 2154 03544 7006      RTL                     /                                       @@3544=7006
 2155 03545 7500      SMA                     /                                       @@3545=7500
 2156 03546 1130      TAD   C0130             /                                       @@3546=1130
 2157 03547 7012      RTR                     /                                       @@3547=7012
 2158 03550 3032      DCA   D0032             /                                       @@3550=3032
 2159 03551 5741      JMP I C3541             / long jump to L0000                    @@3551=5741
 2160             
 2161             ////////////////////////////////////////////////////////////////////////////////
 2162             /
 2163             /   SUBROUTINE:  S3552
 2164             /
 2165             /   Called from:
 2166             /   1037 

      AUTOMATIC DISASSEMBLY OF MAINDEC-08-DHKMA-A-PB.bin BY D8TAPE       Page 39


 2167             /   Total 0001 (1) calls
 2168             ////////////////////////////////////////////////////////////////////////////////
 2169             S3552,
 2170 03552 0000      0                       / return area
 2171 03553 7200      CLA                     /                                       @@3553=7200
 2172 03554 1033      TAD   D0033             /                                       @@3554=1033
 2173 03555 7006      RTL                     /                                       @@3555=7006
 2174 03556 7500      SMA                     /                                       @@3556=7500
 2175 03557 1130      TAD   C0130             /                                       @@3557=1130
 2176 03560 7012      RTR                     /                                       @@3560=7012
 2177 03561 3033      DCA   D0033             /                                       @@3561=3033
 2178 03562 5752      JMP I S3552             / return                                @@3562=5752
 2179             
 2180       3576  *3576
 2181             C3576,
 2182 03576 4514  C3576,  4514                / JMS I C0114                           
 2183             C3577,
 2184 03577 2440  C3577,  2440                / ISZ I D0040                           
 2185             
 2186       3600  *3600
 2187             
 2188             ////////////////////////////////////////////////////////////////////////////////
 2189             /
 2190             /   SUBROUTINE:  S3600
 2191             /
 2192             /   Called from:
 2193             /   2047 
 2194             /   Total 0001 (1) calls
 2195             ////////////////////////////////////////////////////////////////////////////////
 2196             S3600,
 2197 03600 0000      0                       / return area
 2198 03601 7200      CLA                     /                                       @@3601=7200
 2199 03602 1032      TAD   D0032             /                                       @@3602=1032
 2200 03603 0127      AND   C0127             /                                       @@3603=0127
 2201 03604 1126      TAD   C0126             /                                       @@3604=1126
 2202 03605 3032      DCA   D0032             /                                       @@3605=3032
 2203 03606 5600      JMP I S3600             / return                                @@3606=5600
 2204             
 2205             ////////////////////////////////////////////////////////////////////////////////
 2206             /
 2207             /   SUBROUTINE:  S3607
 2208             /
 2209             /   Called from:
 2210             /   1052 
 2211             /   Total 0001 (1) calls
 2212             ////////////////////////////////////////////////////////////////////////////////
 2213             S3607,
 2214 03607 0000      0                       / return area
 2215 03610 7200      CLA                     /                                       @@3610=7200
 2216 03611 1033      TAD   D0033             /                                       @@3611=1033
 2217 03612 0127      AND   C0127             /                                       @@3612=0127
 2218 03613 1126      TAD   C0126             /                                       @@3613=1126
 2219 03614 3033      DCA   D0033             /                                       @@3614=3033
 2220 03615 5607      JMP I S3607             / return                                @@3615=5607
 2221             
 2222             ////////////////////////////////////////////////////////////////////////////////
 2223             /

      AUTOMATIC DISASSEMBLY OF MAINDEC-08-DHKMA-A-PB.bin BY D8TAPE       Page 40


 2224             /   SUBROUTINE:  S3616
 2225             /
 2226             /   Called from:
 2227             /   2044 
 2228             /   Total 0001 (1) calls
 2229             ////////////////////////////////////////////////////////////////////////////////
 2230             S3616,
 2231 03616 0000      0                       / return area
 2232 03617 7200      CLA                     /                                       @@3617=7200
 2233 03620 1032      TAD   D0032             /                                       @@3620=1032
 2234 03621 0125      AND   C0125             /                                       @@3621=0125
 2235 03622 1124      TAD   C0124             /                                       @@3622=1124
 2236 03623 3032      DCA   D0032             /                                       @@3623=3032
 2237 03624 5616      JMP I S3616             / return                                @@3624=5616
 2238             
 2239             ////////////////////////////////////////////////////////////////////////////////
 2240             /
 2241             /   SUBROUTINE:  S3625
 2242             /
 2243             /   Called from:
 2244             /   1065 
 2245             /   Total 0001 (1) calls
 2246             ////////////////////////////////////////////////////////////////////////////////
 2247             S3625,
 2248 03625 0000      0                       / return area
 2249 03626 7200      CLA                     /                                       @@3626=7200
 2250 03627 1033      TAD   D0033             /                                       @@3627=1033
 2251 03630 0125      AND   C0125             /                                       @@3630=0125
 2252 03631 1124      TAD   C0124             /                                       @@3631=1124
 2253 03632 3033      DCA   D0033             /                                       @@3632=3033
 2254 03633 5625      JMP I S3625             / return                                @@3633=5625
 2255             
 2256             ////////////////////////////////////////////////////////////////////////////////
 2257             /
 2258             /   SUBROUTINE:  S3634
 2259             /
 2260             /   Called from:
 2261             /   2041 
 2262             /   Total 0001 (1) calls
 2263             ////////////////////////////////////////////////////////////////////////////////
 2264             S3634,
 2265 03634 0000      0                       / return area
 2266 03635 7200      CLA                     /                                       @@3635=7200
 2267 03636 1032      TAD   D0032             /                                       @@3636=1032
 2268 03637 0123      AND   D0123             /                                       @@3637=0123
 2269 03640 1122      TAD   C0122             /                                       @@3640=1122
 2270 03641 3032      DCA   D0032             /                                       @@3641=3032
 2271 03642 5634      JMP I S3634             / return                                @@3642=5634
 2272             
 2273             ////////////////////////////////////////////////////////////////////////////////
 2274             /
 2275             /   SUBROUTINE:  S3643
 2276             /
 2277             /   Called from:
 2278             /   1100 
 2279             /   Total 0001 (1) calls
 2280             ////////////////////////////////////////////////////////////////////////////////

      AUTOMATIC DISASSEMBLY OF MAINDEC-08-DHKMA-A-PB.bin BY D8TAPE       Page 41


 2281             S3643,
 2282 03643 0000      0                       / return area
 2283 03644 7200      CLA                     /                                       @@3644=7200
 2284 03645 1033      TAD   D0033             /                                       @@3645=1033
 2285 03646 0123      AND   D0123             /                                       @@3646=0123
 2286 03647 1122      TAD   C0122             /                                       @@3647=1122
 2287 03650 3033      DCA   D0033             /                                       @@3650=3033
 2288 03651 5643      JMP I S3643             / return                                @@3651=5643
 2289             
 2290             ////////////////////////////////////////////////////////////////////////////////
 2291             /
 2292             /   SUBROUTINE:  S3652
 2293             /
 2294             /   Called from:
 2295             /   2036 
 2296             /   Total 0001 (1) calls
 2297             ////////////////////////////////////////////////////////////////////////////////
 2298             S3652,
 2299 03652 0000      0                       / return area
 2300 03653 7200      CLA                     /                                       @@3653=7200
 2301 03654 1032      TAD   D0032             /                                       @@3654=1032
 2302 03655 0121      AND   C0121             /                                       @@3655=0121
 2303 03656 1172      TAD   C0172             /                                       @@3656=1172
 2304 03657 3032      DCA   D0032             /                                       @@3657=3032
 2305 03660 5652      JMP I S3652             / return                                @@3660=5652
 2306             
 2307             ////////////////////////////////////////////////////////////////////////////////
 2308             /
 2309             /   SUBROUTINE:  S3661
 2310             /
 2311             /   Called from:
 2312             /   1113 
 2313             /   Total 0001 (1) calls
 2314             ////////////////////////////////////////////////////////////////////////////////
 2315             S3661,
 2316 03661 0000      0                       / return area
 2317 03662 7200      CLA                     /                                       @@3662=7200
 2318 03663 1033      TAD   D0033             /                                       @@3663=1033
 2319 03664 0121      AND   C0121             /                                       @@3664=0121
 2320 03665 1172      TAD   C0172             /                                       @@3665=1172
 2321 03666 3033      DCA   D0033             /                                       @@3666=3033
 2322 03667 5661      JMP I S3661             / return                                @@3667=5661
 2323             
 2324             ////////////////////////////////////////////////////////////////////////////////
 2325             /
 2326             /   SUBROUTINE:  S3670
 2327             /
 2328             /   Called from:
 2329             /   2033 
 2330             /   Total 0001 (1) calls
 2331             ////////////////////////////////////////////////////////////////////////////////
 2332             S3670,
 2333 03670 0000      0                       / return area
 2334 03671 7200      CLA                     /                                       @@3671=7200
 2335 03672 1032      TAD   D0032             /                                       @@3672=1032
 2336 03673 0164      AND   C0164             /                                       @@3673=0164
 2337 03674 1170      TAD   C0170             /                                       @@3674=1170

      AUTOMATIC DISASSEMBLY OF MAINDEC-08-DHKMA-A-PB.bin BY D8TAPE       Page 42


 2338 03675 3032      DCA   D0032             /                                       @@3675=3032
 2339 03676 5670      JMP I S3670             / return                                @@3676=5670
 2340             
 2341             ////////////////////////////////////////////////////////////////////////////////
 2342             /
 2343             /   SUBROUTINE:  S3677
 2344             /
 2345             /   Called from:
 2346             /   1126 
 2347             /   Total 0001 (1) calls
 2348             ////////////////////////////////////////////////////////////////////////////////
 2349             S3677,
 2350 03677 0000      0                       / return area
 2351 03700 7200      CLA                     /                                       @@3700=7200
 2352 03701 1033      TAD   D0033             /                                       @@3701=1033
 2353 03702 0164      AND   C0164             /                                       @@3702=0164
 2354 03703 1170      TAD   C0170             /                                       @@3703=1170
 2355 03704 3033      DCA   D0033             /                                       @@3704=3033
 2356 03705 5677      JMP I S3677             / return                                @@3705=5677
 2357 03706 0000  D3706,  0000                / AND   L0000                           
 2358 03707 7200      CLA                     /                                       @@3707=7200
 2359 03710 1030      TAD   D0030             /                                       @@3710=1030
 2360 03711 7450      SNA                     /                                       @@3711=7450
 2361 03712 5706      JMP I D3706             / long jump to L0000                    @@3712=5706
 2362 03713 2306      ISZ   D3706             /                                       @@3713=2306
 2363 03714 7106      CLL RTL                 /                                       @@3714=7106
 2364 03715 7430      SZL                     /                                       @@3715=7430
 2365 03716 5706      JMP I D3706             / long jump to L0000                    @@3716=5706
 2366 03717 2306      ISZ   D3706             /                                       @@3717=2306
 2367 03720 7710      SPA CLA                 /                                       @@3720=7710
 2368 03721 5706      JMP I D3706             / long jump to L0000                    @@3721=5706
 2369             L3722,
 2370 03722 7402      HLT                     /                                       @@3722=7402
 2371 03723 5322      JMP   L3722             /                                       @@3723=5322
 2372             
 2373             ////////////////////////////////////////////////////////////////////////////////
 2374             /
 2375             /   SUBROUTINE:  S3724
 2376             /
 2377             /   Called from:
 2378             /   3057 
 2379             /   Total 0001 (1) calls
 2380             ////////////////////////////////////////////////////////////////////////////////
 2381             S3724,
 2382 03724 0000      0                       / return area
 2383 03725 7200      CLA                     /                                       @@3725=7200
 2384 03726 1031      TAD   D0031             /                                       @@3726=1031
 2385 03727 0120      AND   C0120             /                                       @@3727=0120
 2386 03730 7450      SNA                     /                                       @@3730=7450
 2387 03731 5724      JMP I S3724             / return                                @@3731=5724
 2388 03732 2324      ISZ   S3724             /                                       @@3732=2324
 2389 03733 2324      ISZ   S3724             /                                       @@3733=2324
 2390             L3734,
 2391 03734 7104      CLL RAL                 /                                       @@3734=7104
 2392 03735 7421      MQL                     /                                       @@3735=7421
 2393 03736 7430      SZL                     /                                       @@3736=7430
 2394 03737 5724      JMP I S3724             / return                                @@3737=5724

      AUTOMATIC DISASSEMBLY OF MAINDEC-08-DHKMA-A-PB.bin BY D8TAPE       Page 43


 2395 03740 2324      ISZ   S3724             /                                       @@3740=2324
 2396 03741 2324      ISZ   S3724             /                                       @@3741=2324
 2397 03742 7521      MQA MQL                 /                                       @@3742=7521
 2398 03743 5334      JMP   L3734             /                                       @@3743=5334
 2399             
 2400       4000  *4000
 2401             
 2402             ////////////////////////////////////////////////////////////////////////////////
 2403             /
 2404             /   SUBROUTINE:  S4000
 2405             /
 2406             /   Called from:
 2407             /   0653 1000 1676 2320 
 2408             /   Total 0004 (4) calls
 2409             ////////////////////////////////////////////////////////////////////////////////
 2410             S4000,
 2411 04000 0000      0                       / return area
 2412 04001 7200      CLA                     /                                       @@4001=7200
 2413 04002 1032      TAD   D0032             /                                       @@4002=1032
 2414 04003 7700      SMA CLA                 /                                       @@4003=7700
 2415 04004 2200      ISZ   S4000             /                                       @@4004=2200
 2416 04005 5600      JMP I S4000             / return                                @@4005=5600
 2417             
 2418             ////////////////////////////////////////////////////////////////////////////////
 2419             /
 2420             /   SUBROUTINE:  S4006
 2421             /
 2422             /   Called from:
 2423             /   0661 1012 1703 2314 
 2424             /   Total 0004 (4) calls
 2425             ////////////////////////////////////////////////////////////////////////////////
 2426             S4006,
 2427 04006 0000      0                       / return area
 2428 04007 7200      CLA                     /                                       @@4007=7200
 2429 04010 1032      TAD   D0032             /                                       @@4010=1032
 2430 04011 7004  C4011,  7004                / RAL                                   
 2431 04012 7700      SMA CLA                 /                                       @@4012=7700
 2432 04013 2206      ISZ   S4006             /                                       @@4013=2206
 2433 04014 5606      JMP I S4006             / return                                @@4014=5606
 2434             
 2435             ////////////////////////////////////////////////////////////////////////////////
 2436             /
 2437             /   SUBROUTINE:  S4015
 2438             /
 2439             /   Called from:
 2440             /   0670 1710 2310 
 2441             /   Total 0003 (3) calls
 2442             ////////////////////////////////////////////////////////////////////////////////
 2443             S4015,
 2444 04015 0000      0                       / return area
 2445 04016 7200      CLA                     /                                       @@4016=7200
 2446 04017 1032      TAD   D0032             /                                       @@4017=1032
 2447 04020 7006      RTL                     /                                       @@4020=7006
 2448 04021 7700      SMA CLA                 /                                       @@4021=7700
 2449 04022 2215      ISZ   S4015             /                                       @@4022=2215
 2450 04023 5615      JMP I S4015             / return                                @@4023=5615
 2451             

      AUTOMATIC DISASSEMBLY OF MAINDEC-08-DHKMA-A-PB.bin BY D8TAPE       Page 44


 2452             ////////////////////////////////////////////////////////////////////////////////
 2453             /
 2454             /   SUBROUTINE:  S4024
 2455             /
 2456             /   Called from:
 2457             /   0677 1040 2304 
 2458             /   Total 0003 (3) calls
 2459             ////////////////////////////////////////////////////////////////////////////////
 2460             S4024,
 2461 04024 0000      0                       / return area
 2462 04025 7200      CLA                     /                                       @@4025=7200
 2463 04026 1032      TAD   D0032             /                                       @@4026=1032
 2464 04027 7006      RTL                     /                                       @@4027=7006
 2465 04030 7004      RAL                     /                                       @@4030=7004
 2466 04031 7700      SMA CLA                 /                                       @@4031=7700
 2467 04032 2224      ISZ   S4024             /                                       @@4032=2224
 2468 04033 5624      JMP I S4024             / return                                @@4033=5624
 2469             
 2470             ////////////////////////////////////////////////////////////////////////////////
 2471             /
 2472             /   SUBROUTINE:  S4034
 2473             /
 2474             /   Called from:
 2475             /   0706 1053 1722 2300 
 2476             /   Total 0004 (4) calls
 2477             ////////////////////////////////////////////////////////////////////////////////
 2478             S4034,
 2479 04034 0000      0                       / return area
 2480 04035 7200      CLA                     /                                       @@4035=7200
 2481 04036 1032      TAD   D0032             /                                       @@4036=1032
 2482 04037 7006      RTL                     /                                       @@4037=7006
 2483 04040 7006      RTL                     /                                       @@4040=7006
 2484 04041 7700      SMA CLA                 /                                       @@4041=7700
 2485 04042 2234      ISZ   S4034             /                                       @@4042=2234
 2486 04043 5634      JMP I S4034             / return                                @@4043=5634
 2487             
 2488             ////////////////////////////////////////////////////////////////////////////////
 2489             /
 2490             /   SUBROUTINE:  S4044
 2491             /
 2492             /   Called from:
 2493             /   0715 1066 1727 2274 
 2494             /   Total 0004 (4) calls
 2495             ////////////////////////////////////////////////////////////////////////////////
 2496             S4044,
 2497 04044 0000      0                       / return area
 2498 04045 7200      CLA                     /                                       @@4045=7200
 2499 04046 1032      TAD   D0032             /                                       @@4046=1032
 2500 04047 7002      BSW                     /                                       @@4047=7002
 2501 04050 7010      RAR                     /                                       @@4050=7010
 2502 04051 7620      SNL CLA                 /                                       @@4051=7620
 2503 04052 2244      ISZ   S4044             /                                       @@4052=2244
 2504 04053 5644      JMP I S4044             / return                                @@4053=5644
 2505             
 2506             ////////////////////////////////////////////////////////////////////////////////
 2507             /
 2508             /   SUBROUTINE:  S4054

      AUTOMATIC DISASSEMBLY OF MAINDEC-08-DHKMA-A-PB.bin BY D8TAPE       Page 45


 2509             /
 2510             /   Called from:
 2511             /   0724 1101 1734 2270 
 2512             /   Total 0004 (4) calls
 2513             ////////////////////////////////////////////////////////////////////////////////
 2514             S4054,
 2515 04054 0000      0                       / return area
 2516 04055 7200      CLA                     /                                       @@4055=7200
 2517 04056 1032      TAD   D0032             /                                       @@4056=1032
 2518 04057 7002      BSW                     /                                       @@4057=7002
 2519 04060 7700      SMA CLA                 /                                       @@4060=7700
 2520 04061 2254      ISZ   S4054             /                                       @@4061=2254
 2521 04062 5654      JMP I S4054             / return                                @@4062=5654
 2522             
 2523             ////////////////////////////////////////////////////////////////////////////////
 2524             /
 2525             /   SUBROUTINE:  S4063
 2526             /
 2527             /   Called from:
 2528             /   0733 1114 1741 2264 
 2529             /   Total 0004 (4) calls
 2530             ////////////////////////////////////////////////////////////////////////////////
 2531             S4063,
 2532 04063 0000      0                       / return area
 2533 04064 7200      CLA                     /                                       @@4064=7200
 2534 04065 1032      TAD   D0032             /                                       @@4065=1032
 2535 04066 7002      BSW                     /                                       @@4066=7002
 2536 04067 7004      RAL                     /                                       @@4067=7004
 2537 04070 7700      SMA CLA                 /                                       @@4070=7700
 2538 04071 2263      ISZ   S4063             /                                       @@4071=2263
 2539 04072 5663      JMP I S4063             / return                                @@4072=5663
 2540             
 2541             ////////////////////////////////////////////////////////////////////////////////
 2542             /
 2543             /   SUBROUTINE:  S4073
 2544             /
 2545             /   Called from:
 2546             /   0456 
 2547             /   Total 0001 (1) calls
 2548             ////////////////////////////////////////////////////////////////////////////////
 2549             S4073,
 2550 04073 0000      0                       / return area
 2551 04074 7200      CLA                     /                                       @@4074=7200
 2552 04075 1033      TAD   D0033             /                                       @@4075=1033
 2553 04076 7700      SMA CLA                 /                                       @@4076=7700
 2554 04077 2273      ISZ   S4073             /                                       @@4077=2273
 2555 04100 5673      JMP I S4073             / return                                @@4100=5673
 2556             
 2557             ////////////////////////////////////////////////////////////////////////////////
 2558             /
 2559             /   SUBROUTINE:  S4101
 2560             /
 2561             /   Called from:
 2562             /   0452 
 2563             /   Total 0001 (1) calls
 2564             ////////////////////////////////////////////////////////////////////////////////
 2565             S4101,

      AUTOMATIC DISASSEMBLY OF MAINDEC-08-DHKMA-A-PB.bin BY D8TAPE       Page 46


 2566 04101 0000      0                       / return area
 2567 04102 7200      CLA                     /                                       @@4102=7200
 2568 04103 1033      TAD   D0033             /                                       @@4103=1033
 2569 04104 7004      RAL                     /                                       @@4104=7004
 2570 04105 7700      SMA CLA                 /                                       @@4105=7700
 2571 04106 2301      ISZ   S4101             /                                       @@4106=2301
 2572 04107 5701      JMP I S4101             / return                                @@4107=5701
 2573             
 2574             ////////////////////////////////////////////////////////////////////////////////
 2575             /
 2576             /   SUBROUTINE:  S4110
 2577             /
 2578             /   Called from:
 2579             /   0446 
 2580             /   Total 0001 (1) calls
 2581             ////////////////////////////////////////////////////////////////////////////////
 2582             S4110,
 2583 04110 0000      0                       / return area
 2584 04111 7200      CLA                     /                                       @@4111=7200
 2585 04112 1033      TAD   D0033             /                                       @@4112=1033
 2586 04113 7006      RTL                     /                                       @@4113=7006
 2587 04114 7700      SMA CLA                 /                                       @@4114=7700
 2588 04115 2310      ISZ   S4110             /                                       @@4115=2310
 2589 04116 5710      JMP I S4110             / return                                @@4116=5710
 2590             
 2591             ////////////////////////////////////////////////////////////////////////////////
 2592             /
 2593             /   SUBROUTINE:  S4117
 2594             /
 2595             /   Called from:
 2596             /   0442 
 2597             /   Total 0001 (1) calls
 2598             ////////////////////////////////////////////////////////////////////////////////
 2599             S4117,
 2600 04117 0000      0                       / return area
 2601 04120 7200      CLA                     /                                       @@4120=7200
 2602 04121 1033      TAD   D0033             /                                       @@4121=1033
 2603 04122 7004      RAL                     /                                       @@4122=7004
 2604 04123 7006      RTL                     /                                       @@4123=7006
 2605 04124 7700      SMA CLA                 /                                       @@4124=7700
 2606 04125 2317      ISZ   S4117             /                                       @@4125=2317
 2607 04126 5717      JMP I S4117             / return                                @@4126=5717
 2608             
 2609             ////////////////////////////////////////////////////////////////////////////////
 2610             /
 2611             /   SUBROUTINE:  S4127
 2612             /
 2613             /   Called from:
 2614             /   0436 
 2615             /   Total 0001 (1) calls
 2616             ////////////////////////////////////////////////////////////////////////////////
 2617             S4127,
 2618 04127 0000      0                       / return area
 2619 04130 7200      CLA                     /                                       @@4130=7200
 2620 04131 1033      TAD   D0033             /                                       @@4131=1033
 2621 04132 7006      RTL                     /                                       @@4132=7006
 2622 04133 7006      RTL                     /                                       @@4133=7006

      AUTOMATIC DISASSEMBLY OF MAINDEC-08-DHKMA-A-PB.bin BY D8TAPE       Page 47


 2623 04134 7700      SMA CLA                 /                                       @@4134=7700
 2624 04135 2327      ISZ   S4127             /                                       @@4135=2327
 2625 04136 5727      JMP I S4127             / return                                @@4136=5727
 2626             
 2627       4200  *4200
 2628             
 2629             ////////////////////////////////////////////////////////////////////////////////
 2630             /
 2631             /   SUBROUTINE:  S4200
 2632             /
 2633             /   Called from:
 2634             /   0432 
 2635             /   Total 0001 (1) calls
 2636             ////////////////////////////////////////////////////////////////////////////////
 2637             S4200,
 2638 04200 0000      0                       / return area
 2639 04201 7200  C4201,  7200                / CLA                                   
 2640 04202 1033      TAD   D0033             /                                       @@4202=1033
 2641 04203 7002      BSW                     /                                       @@4203=7002
 2642 04204 7010  C4204,  7010                / RAR                                   
 2643 04205 7620      SNL CLA                 /                                       @@4205=7620
 2644 04206 2200      ISZ   S4200             /                                       @@4206=2200
 2645 04207 5600      JMP I S4200             / return                                @@4207=5600
 2646             
 2647             ////////////////////////////////////////////////////////////////////////////////
 2648             /
 2649             /   SUBROUTINE:  S4210
 2650             /
 2651             /   Called from:
 2652             /   0426 
 2653             /   Total 0001 (1) calls
 2654             ////////////////////////////////////////////////////////////////////////////////
 2655             S4210,
 2656 04210 0000      0                       / return area
 2657 04211 7200      CLA                     /                                       @@4211=7200
 2658 04212 1033      TAD   D0033             /                                       @@4212=1033
 2659 04213 7002      BSW                     /                                       @@4213=7002
 2660 04214 7700      SMA CLA                 /                                       @@4214=7700
 2661 04215 2210      ISZ   S4210             /                                       @@4215=2210
 2662 04216 5610  D4216,  5610                / JMP I S4210                           
 2663             
 2664             ////////////////////////////////////////////////////////////////////////////////
 2665             /
 2666             /   SUBROUTINE:  S4217
 2667             /
 2668             /   Never called
 2669             ////////////////////////////////////////////////////////////////////////////////
 2670             S4217,
 2671 04217 0000      0                       / return area
 2672 04220 7200      CLA                     /                                       @@4220=7200
 2673 04221 1033      TAD   D0033             /                                       @@4221=1033
 2674 04222 7002      BSW                     /                                       @@4222=7002
 2675 04223 7004      RAL                     /                                       @@4223=7004
 2676 04224 7700      SMA CLA                 /                                       @@4224=7700
 2677 04225 2217      ISZ   S4217             /                                       @@4225=2217
 2678 04226 5617      JMP I S4217             / return                                @@4226=5617
 2679             

      AUTOMATIC DISASSEMBLY OF MAINDEC-08-DHKMA-A-PB.bin BY D8TAPE       Page 48


 2680             ////////////////////////////////////////////////////////////////////////////////
 2681             /
 2682             /   SUBROUTINE:  S4227
 2683             /
 2684             /   Called from:
 2685             /   3023 
 2686             /   Total 0001 (1) calls
 2687             ////////////////////////////////////////////////////////////////////////////////
 2688             S4227,
 2689 04227 0000      0                       / return area
 2690 04230 4777      JMS I C4377             / long call to S2440                    @@4230=4777
 2691 04231 4543  C4231,  4543                / JMS I C0143                           
 2692 04232 2022      ISZ   D0022             /                                       @@4232=2022
 2693 04233 4014  C4233,  4014                / JMS   AI4                             
 2694 04234 1703      TAD I C4303             /                                       @@4234=1703
 2695 04235 4040      JMS   D0040             /                                       @@4235=4040
 2696 04236 0601      AND I C4201             /                                       @@4236=0601
 2697 04237 1114  C4237,  1114                / TAD   C0114                           
 2698 04240 4001  C4240,  4001                / JMS   D0001                           
 2699 04241 0422      AND I D0022             /                                       @@4241=0422
 2700 04242 4040      JMS   D0040             /                                       @@4242=4040
 2701 04243 0717      AND I C4317             /                                       @@4243=0717
 2702 04244 1704      TAD I C4304             /                                       @@4244=1704
 2703 04245 4040      JMS   D0040             /                                       @@4245=4040
 2704 04246 0201      AND   C4201             /                                       @@4246=0201
 2705 04247 0440      AND I D0040             /                                       @@4247=0440
 2706 04250 4020  C4250,  4020                / JMS   L0020                           
 2707 04251 0124      AND   C0124             /                                       @@4251=0124
 2708 04252 2405  C4252,  2405                / ISZ I C0005                           
 2709 04253 2216      ISZ   D4216             /                                       @@4253=2216
 2710 04254 0000  C4254,  0000                / AND   L0000                           
 2711 04255 5627      JMP I S4227             / return                                @@4255=5627
 2712             
 2713             ////////////////////////////////////////////////////////////////////////////////
 2714             /
 2715             /   SUBROUTINE:  S4256
 2716             /
 2717             /   Called from:
 2718             /   0204 
 2719             /   Total 0001 (1) calls
 2720             ////////////////////////////////////////////////////////////////////////////////
 2721             S4256,
 2722 04256 0000      0                       / return area
 2723 04257 4777      JMS I C4377             / long call to S2440                    @@4257=4777
 2724 04260 4543  C4260,  4543                / JMS I C0143                           
 2725 04261 4320  C4261,  4320                / JMS   C4320                           
 2726 04262 0420      AND I L0020             /                                       @@4262=0420
 2727 04263 5570      JMP I C0170             / long jump to L0020                    @@4263=5570
 2728 04264 0540      AND I D0140             /                                       @@4264=0540
 2729 04265 0530      AND I C0130             /                                       @@4265=0530
 2730 04266 2440      ISZ I D0040             /                                       @@4266=2440
 2731 04267 1505      TAD I D0105             /                                       @@4267=1505
 2732 04270 1540      TAD I D0140             /                                       @@4270=1540
 2733 04271 0401      AND I D0001             /                                       @@4271=0401
 2734 04272 2401      ISZ I D0001             /                                       @@4272=2401
 2735 04273 4046      JMS   D0046             /                                       @@4273=4046
 2736 04274 4003  C4274,  4003                / JMS   C0003                           

      AUTOMATIC DISASSEMBLY OF MAINDEC-08-DHKMA-A-PB.bin BY D8TAPE       Page 49


 2737 04275 1013  C4275,  1013                / TAD   AI3                             
 2738 04276 0204      AND   C4204             /                                       @@4276=0204
 2739 04277 4300  C4277,  4300                / JMS   C4300                           
 2740 04300 5656      JMP I S4256             / return                                @@4300=5656
 2741             
 2742             ////////////////////////////////////////////////////////////////////////////////
 2743             /
 2744             /   SUBROUTINE:  S4301
 2745             /
 2746             /   Called from:
 2747             /   0206 
 2748             /   Total 0001 (1) calls
 2749             ////////////////////////////////////////////////////////////////////////////////
 2750             S4301,
 2751 04301 0000      0                       / return area
 2752 04302 4777      JMS I C4377             / long call to S2440                    @@4302=4777
 2753 04303 4543  C4303,  4543                / JMS I C0143                           
 2754 04304 2305  C4304,  2305                / ISZ   C4305                           
 2755 04305 2425      ISZ I D0025             /                                       @@4305=2425
 2756 04306 2040      ISZ   D0040             /                                       @@4306=2040
 2757 04307 2322      ISZ   D4322             /                                       @@4307=2322
 2758 04310 4046      JMS   D0046             /                                       @@4310=4046
 2759 04311 4003  C4311,  4003                / JMS   C0003                           
 2760 04312 1716      TAD I S4316             /                                       @@4312=1716
 2761 04313 2400      ISZ I L0000             /                                       @@4313=2400
 2762 04314 7402      HLT                     /                                       @@4314=7402
 2763 04315 5701      JMP I S4301             / return                                @@4315=5701
 2764             
 2765             ////////////////////////////////////////////////////////////////////////////////
 2766             /
 2767             /   SUBROUTINE:  S4316
 2768             /
 2769             /   Called from:
 2770             /   0244 0261 
 2771             /   Total 0002 (2) calls
 2772             ////////////////////////////////////////////////////////////////////////////////
 2773             S4316,
 2774 04316 0000      0                       / return area
 2775 04317 4777  C4317,  4777                / JMS I C4377                           
 2776 04320 4543  C4320,  4543                / JMS I C0143                           
 2777 04321 1617      TAD I S4217             /                                       @@4321=1617
 2778 04322 4022  D4322,  4022                / JMS   D0022                           
 2779 04323 0514  C4323,  0514                / AND I C0114                           
 2780 04324 1703      TAD I C4303             /                                       @@4324=1703
 2781 04325 0124      AND   C0124             /                                       @@4325=0124
 2782 04326 1117      TAD   C0117             /                                       @@4326=1117
 2783 04327 1654      TAD I C4254             /                                       @@4327=1654
 2784 04330 4020  C4330,  4020                / JMS   L0020                           
 2785 04331 2217      ISZ   S4217             /                                       @@4331=2217
 2786 04332 0740      AND I C4340             /                                       @@4332=0740
 2787 04333 1116      TAD   C0116             /                                       @@4333=1116
 2788 04334 4006  C4334,  4006                / JMS   C0006                           
 2789 04335 1105      TAD   D0105             /                                       @@4335=1105
 2790 04336 1404      TAD I C0004             /                                       @@4336=1404
 2791 04337 4000      JMS   L0000             /                                       @@4337=4000
 2792 04340 6224  C4340,  6224                / RIF                                   
 2793 04341 7106      CLL RTL                 /                                       @@4341=7106

      AUTOMATIC DISASSEMBLY OF MAINDEC-08-DHKMA-A-PB.bin BY D8TAPE       Page 50


 2794 04342 7004      RAL                     /                                       @@4342=7004
 2795 04343 1117      TAD   C0117             /                                       @@4343=1117
 2796 04344 3346      DCA   D4346             /                                       @@4344=3346
 2797 04345 4777      JMS I C4377             / long call to S2440                    @@4345=4777
 2798 04346 0000  D4346,  0000                / AND   L0000                           
 2799 04347 7240      STA                     / AC = 7777 (-0001)                     @@4347=7240
 2800 04350 3041      DCA   D0041             /                                       @@4350=3041
 2801 04351 5716      JMP I S4316             / return                                @@4351=5716
 2802             
 2803       4377  *4377
 2804             C4377,
 2805 04377 2440  C4377,  2440                / ISZ I D0040                           
 2806             
 2807       4400  *4400
 2808             
 2809             ////////////////////////////////////////////////////////////////////////////////
 2810             /
 2811             /   SUBROUTINE:  S4400
 2812             /
 2813             /   Called from:
 2814             /   0302 
 2815             /   Total 0001 (1) calls
 2816             ////////////////////////////////////////////////////////////////////////////////
 2817             S4400,
 2818 04400 0000      0                       / return area
 2819 04401 4777  D4401,  4777                / JMS I C4577                           
 2820 04402 4543  C4402,  4543                / JMS I C0143                           
 2821 04403 2022      ISZ   D0022             /                                       @@4403=2022
 2822 04404 1707      TAD I C4507             /                                       @@4404=1707
 2823 04405 4027  D4405,  4027                / JMS   C0027                           
 2824 04406 1114  C4406,  1114                / TAD   C0114                           
 2825 04407 1440      TAD I D0040             /                                       @@4407=1440
 2826 04410 2205      ISZ   D4405             /                                       @@4410=2205
 2827 04411 1417  C4411,  1417                / TAD I AI7                             
 2828 04412 0301      AND   C4501             /                                       @@4412=0301
 2829 04413 2405  C4413,  2405                / ISZ I C0005                           
 2830 04414 0000      AND   L0000             /                                       @@4414=0000
 2831 04415 7240      STA                     / AC = 7777 (-0001)                     @@4415=7240
 2832 04416 3041      DCA   D0041             /                                       @@4416=3041
 2833 04417 5600  C4417,  5600                / JMP I S4400                           
 2834             L4420,
 2835 04420 4777      JMS I C4577             / long call to S2440                    @@4420=4777
 2836 04421 4543  C4421,  4543                / JMS I C0143                           
 2837 04422 2022      ISZ   D0022             /                                       @@4422=2022
 2838 04423 1707      TAD I C4507             /                                       @@4423=1707
 2839 04424 2201      ISZ   D4401             /                                       @@4424=2201
 2840 04425 1540      TAD I D0140             /                                       @@4425=1540
 2841 04426 1116      TAD   C0116             /                                       @@4426=1116
 2842 04427 4023  C4427,  4023                / JMS   C0023                           
 2843 04430 0514  C4430,  0514                / AND I C0114                           
 2844 04431 0503      AND I D0103             /                                       @@4431=0503
 2845 04432 2405  C4432,  2405                / ISZ I C0005                           
 2846 04433 0440      AND I D0040             /                                       @@4433=0440
 2847 04434 0611      AND I C4411             /                                       @@4434=0611
 2848 04435 0514  C4435,  0514                / AND I C0114                           
 2849 04436 0400      AND I L0000             /                                       @@4436=0400
 2850 04437 5776      JMP I C4576             / long jump to L0205                    @@4437=5776

      AUTOMATIC DISASSEMBLY OF MAINDEC-08-DHKMA-A-PB.bin BY D8TAPE       Page 51


 2851             L4440,
 2852 04440 4777      JMS I C4577             / long call to S2440                    @@4440=4777
 2853 04441 1617      TAD I C4417             /                                       @@4441=1617
 2854 04442 1605      TAD I D4405             /                                       @@4442=1605
 2855 04443 0000      AND   L0000             /                                       @@4443=0000
 2856 04444 5776      JMP I C4576             / long jump to L0205                    @@4444=5776
 2857             
 2858             ////////////////////////////////////////////////////////////////////////////////
 2859             /
 2860             /   SUBROUTINE:  S4445
 2861             /
 2862             /   Called from:
 2863             /   0463 
 2864             /   Total 0001 (1) calls
 2865             ////////////////////////////////////////////////////////////////////////////////
 2866             S4445,
 2867 04445 0000      0                       / return area
 2868 04446 7200      CLA                     /                                       @@4446=7200
 2869 04447 3037      DCA   D0037             /                                       @@4447=3037
 2870 04450 3040      DCA   D0040             /                                       @@4450=3040
 2871 04451 1176      TAD   C0176             /                                       @@4451=1176
 2872 04452 1035      TAD   D0035             /                                       @@4452=1035
 2873 04453 3264      DCA   L4464             /                                       @@4453=3264
 2874 04454 1176      TAD   C0176             /                                       @@4454=1176
 2875 04455 1036  C4455,  1036                / TAD   D0036                           
 2876 04456 3266      DCA   D4466             /                                       @@4456=3266
 2877 04457 1264      TAD   L4464             /                                       @@4457=1264
 2878 04460 3271      DCA   D4471             /                                       @@4460=3271
 2879 04461 1116      TAD   C0116             /                                       @@4461=1116
 2880 04462 1036      TAD   D0036             /                                       @@4462=1036
 2881 04463 3302      DCA   D4502             /                                       @@4463=3302
 2882             L4464,
 2883 04464 6201  D4464,  6201                / CDF0                                  
 2884 04465 1440      TAD I D0040             /                                       @@4465=1440
 2885 04466 6201  D4466,  6201                / CDF0                                  
 2886 04467 3440      DCA I D0040             /                                       @@4467=3440
 2887 04470 1440      TAD I D0040             /                                       @@4470=1440
 2888 04471 6201  D4471,  6201                / CDF0                                  
 2889 04472 7041      CIA                     /                                       @@4472=7041
 2890 04473 1440      TAD I D0040             /                                       @@4473=1440
 2891 04474 7640      SZA CLA                 /                                       @@4474=7640
 2892 04475 4775      JMS I C4575             / long call to S2655                    @@4475=4775
 2893 04476 2040      ISZ   D0040             /                                       @@4476=2040
 2894 04477 5264      JMP   L4464             /                                       @@4477=5264
 2895 04500 1037      TAD   D0037             /                                       @@4500=1037
 2896 04501 7650  C4501,  7650                / SNA CLA                               
 2897 04502 6203  D4502,  6203                / 6203                                  
 2898 04503 5645      JMP I S4445             / return                                @@4503=5645
 2899 04504 4774      JMS I C4574             / long call to S4600                    @@4504=4774
 2900 04505 6107  C4505,  6107                / 6107                                  
 2901 04506 5311      JMP   L4511             /                                       @@4506=5311
 2902 04507 6101  C4507,  6101                / SMP                                   
 2903 04510 5773      JMP I C4573             / long jump to L3311                    @@4510=5773
 2904             L4511,
 2905 04511 6031  D4511,  6031                / KSF                                   
 2906 04512 5772      JMP I C4572             / long jump to L3415                    @@4512=5772
 2907 04513 4771      JMS I C4571             / long call to S3400                    @@4513=4771

      AUTOMATIC DISASSEMBLY OF MAINDEC-08-DHKMA-A-PB.bin BY D8TAPE       Page 52


 2908             L4514,
 2909 04514 4770      JMS I C4570             / long call to S4663                    @@4514=4770
 2910 04515 7200      CLA                     /                                       @@4515=7200
 2911 04516 1062      TAD   D0062             /                                       @@4516=1062
 2912 04517 7421      MQL                     /                                       @@4517=7421
 2913 04520 6004  C4520,  6004                / 6004                                  
 2914 04521 6005  C4521,  6005                / 6005                                  
 2915 04522 7200      CLA                     /                                       @@4522=7200
 2916 04523 1061      TAD   D0061             /                                       @@4523=1061
 2917 04524 5400      JMP I L0000             / long jump to L0000                    @@4524=5400
 2918             
 2919             ////////////////////////////////////////////////////////////////////////////////
 2920             /
 2921             /   SUBROUTINE:  S4525
 2922             /
 2923             /   Called from:
 2924             /   0601 
 2925             /   Total 0001 (1) calls
 2926             ////////////////////////////////////////////////////////////////////////////////
 2927             S4525,
 2928 04525 0000      0                       / return area
 2929 04526 7300      CLA CLL                 / AC = 0000                             @@4526=7300
 2930 04527 6007  C4527,  6007                / 6007                                  
 2931 04530 6107  C4530,  6107                / 6107                                  
 2932 04531 5725      JMP I S4525             / return                                @@4531=5725
 2933 04532 6224      RIF                     / Same as RDF except reads the instruc  @@4532=6224
 2934 04533 7650      SNA CLA                 /                                       @@4533=7650
 2935 04534 6001      ION                     / Enable Interrupts                     @@4534=6001
 2936 04535 5725      JMP I S4525             / return                                @@4535=5725
 2937             
 2938       4570  *4570
 2939             C4570,
 2940 04570 4663  C4570,  4663                / JMS I C4463                           
 2941             C4571,
 2942 04571 3400  C4571,  3400                / DCA I L0000                           
 2943             C4572,
 2944 04572 3415  C4572,  3415                / DCA I AI5                             
 2945             C4573,
 2946 04573 3311  C4573,  3311                / DCA   L4511                           
 2947             C4574,
 2948 04574 4600  C4574,  4600                / JMS I S4400                           
 2949             C4575,
 2950 04575 2655  C4575,  2655                / ISZ I C4455                           
 2951             C4576,
 2952 04576 0205  C4576,  0205                / AND   D4405                           
 2953             C4577,
 2954 04577 2440  C4577,  2440                / ISZ I D0040                           
 2955             
 2956       4600  *4600
 2957             
 2958             ////////////////////////////////////////////////////////////////////////////////
 2959             /
 2960             /   SUBROUTINE:  S4600
 2961             /
 2962             /   Called from:
 2963             /   4504 
 2964             /   Total 0001 (1) calls

      AUTOMATIC DISASSEMBLY OF MAINDEC-08-DHKMA-A-PB.bin BY D8TAPE       Page 53


 2965             ////////////////////////////////////////////////////////////////////////////////
 2966             S4600,
 2967 04600 0000      0                       / return area
 2968 04601 7200      CLA                     /                                       @@4601=7200
 2969 04602 1777      TAD I C4777             /                                       @@4602=1777
 2970 04603 3063      DCA   D0063             /                                       @@4603=3063
 2971 04604 1776      TAD I C4776             /                                       @@4604=1776
 2972 04605 3064      DCA   D0064             /                                       @@4605=3064
 2973 04606 1775      TAD I C4775             /                                       @@4606=1775
 2974 04607 3065      DCA   D0065             /                                       @@4607=3065
 2975 04610 1774      TAD I C4774             /                                       @@4610=1774
 2976 04611 3066      DCA   D0066             /                                       @@4611=3066
 2977 04612 1773      TAD I C4773             /                                       @@4612=1773
 2978 04613 3067      DCA   D0067             /                                       @@4613=3067
 2979 04614 1772      TAD I C4772             /                                       @@4614=1772
 2980 04615 3070      DCA   D0070             /                                       @@4615=3070
 2981 04616 1771      TAD I C4771             /                                       @@4616=1771
 2982 04617 3071      DCA   D0071             /                                       @@4617=3071
 2983 04620 1770      TAD I C4770             /                                       @@4620=1770
 2984 04621 3072      DCA   D0072             /                                       @@4621=3072
 2985 04622 1767      TAD I C4767             /                                       @@4622=1767
 2986 04623 3073      DCA   D0073             /                                       @@4623=3073
 2987 04624 1766      TAD I C4766             /                                       @@4624=1766
 2988 04625 3074      DCA   D0074             /                                       @@4625=3074
 2989 04626 1765      TAD I C4765             /                                       @@4626=1765
 2990 04627 3075      DCA   D0075             /                                       @@4627=3075
 2991 04630 1764      TAD I C4764             /                                       @@4630=1764
 2992 04631 3076      DCA   D0076             /                                       @@4631=3076
 2993 04632 1763      TAD I C4763             /                                       @@4632=1763
 2994 04633 3077      DCA   D0077             /                                       @@4633=3077
 2995 04634 1762      TAD I C4762             /                                       @@4634=1762
 2996 04635 3100      DCA   D0100             /                                       @@4635=3100
 2997 04636 1761      TAD I C4761             /                                       @@4636=1761
 2998 04637 3101      DCA   D0101             /                                       @@4637=3101
 2999 04640 1760      TAD I C4760             /                                       @@4640=1760
 3000 04641 3102      DCA   D0102             /                                       @@4641=3102
 3001 04642 1757      TAD I C4757             /                                       @@4642=1757
 3002 04643 3103      DCA   D0103             /                                       @@4643=3103
 3003 04644 1756      TAD I C4756             /                                       @@4644=1756
 3004 04645 3104      DCA   D0104             /                                       @@4645=3104
 3005 04646 1755      TAD I C4755             /                                       @@4646=1755
 3006 04647 3105      DCA   D0105             /                                       @@4647=3105
 3007 04650 1754      TAD I C4754             /                                       @@4650=1754
 3008 04651 3106      DCA   D0106             /                                       @@4651=3106
 3009 04652 1753      TAD I C4753             /                                       @@4652=1753
 3010 04653 3107      DCA   D0107             /                                       @@4653=3107
 3011 04654 1752      TAD I C4752             /                                       @@4654=1752
 3012 04655 3110      DCA   D0110             /                                       @@4655=3110
 3013 04656 1751      TAD I C4751             /                                       @@4656=1751
 3014 04657 3111      DCA   D0111             /                                       @@4657=3111
 3015 04660 1750      TAD I C4750             /                                       @@4660=1750
 3016 04661 3112      DCA   D0112             /                                       @@4661=3112
 3017 04662 5600      JMP I S4600             / return                                @@4662=5600
 3018             
 3019             ////////////////////////////////////////////////////////////////////////////////
 3020             /
 3021             /   SUBROUTINE:  S4663

      AUTOMATIC DISASSEMBLY OF MAINDEC-08-DHKMA-A-PB.bin BY D8TAPE       Page 54


 3022             /
 3023             /   Called from:
 3024             /   4514 
 3025             /   Total 0001 (1) calls
 3026             ////////////////////////////////////////////////////////////////////////////////
 3027             S4663,
 3028 04663 0000      0                       / return area
 3029 04664 7200      CLA                     /                                       @@4664=7200
 3030 04665 1063      TAD   D0063             /                                       @@4665=1063
 3031 04666 3777      DCA I C4777             /                                       @@4666=3777
 3032 04667 1064      TAD   D0064             /                                       @@4667=1064
 3033 04670 3776      DCA I C4776             /                                       @@4670=3776
 3034 04671 1065      TAD   D0065             /                                       @@4671=1065
 3035 04672 3775      DCA I C4775             /                                       @@4672=3775
 3036 04673 1066      TAD   D0066             /                                       @@4673=1066
 3037 04674 3774      DCA I C4774             /                                       @@4674=3774
 3038 04675 1067      TAD   D0067             /                                       @@4675=1067
 3039 04676 3773      DCA I C4773             /                                       @@4676=3773
 3040 04677 1070      TAD   D0070             /                                       @@4677=1070
 3041 04700 3772      DCA I C4772             /                                       @@4700=3772
 3042 04701 1071      TAD   D0071             /                                       @@4701=1071
 3043 04702 3771      DCA I C4771             /                                       @@4702=3771
 3044 04703 1072      TAD   D0072             /                                       @@4703=1072
 3045 04704 3770      DCA I C4770             /                                       @@4704=3770
 3046 04705 1073      TAD   D0073             /                                       @@4705=1073
 3047 04706 3767      DCA I C4767             /                                       @@4706=3767
 3048 04707 1074      TAD   D0074             /                                       @@4707=1074
 3049 04710 3766      DCA I C4766             /                                       @@4710=3766
 3050 04711 1075      TAD   D0075             /                                       @@4711=1075
 3051 04712 3765      DCA I C4765             /                                       @@4712=3765
 3052 04713 1076      TAD   D0076             /                                       @@4713=1076
 3053 04714 3764      DCA I C4764             /                                       @@4714=3764
 3054 04715 1077      TAD   D0077             /                                       @@4715=1077
 3055 04716 3763      DCA I C4763             /                                       @@4716=3763
 3056 04717 1100      TAD   D0100             /                                       @@4717=1100
 3057 04720 3762      DCA I C4762             /                                       @@4720=3762
 3058 04721 1101      TAD   D0101             /                                       @@4721=1101
 3059 04722 3761      DCA I C4761             /                                       @@4722=3761
 3060 04723 1102      TAD   D0102             /                                       @@4723=1102
 3061 04724 3760      DCA I C4760             /                                       @@4724=3760
 3062 04725 1103      TAD   D0103             /                                       @@4725=1103
 3063 04726 3757      DCA I C4757             /                                       @@4726=3757
 3064 04727 1104      TAD   D0104             /                                       @@4727=1104
 3065 04730 3756      DCA I C4756             /                                       @@4730=3756
 3066 04731 1105      TAD   D0105             /                                       @@4731=1105
 3067 04732 3755      DCA I C4755             /                                       @@4732=3755
 3068 04733 1106      TAD   D0106             /                                       @@4733=1106
 3069 04734 3754      DCA I C4754             /                                       @@4734=3754
 3070 04735 1107      TAD   D0107             /                                       @@4735=1107
 3071 04736 3753      DCA I C4753             /                                       @@4736=3753
 3072 04737 1110      TAD   D0110             /                                       @@4737=1110
 3073 04740 3752      DCA I C4752             /                                       @@4740=3752
 3074 04741 1111      TAD   D0111             /                                       @@4741=1111
 3075 04742 3751      DCA I C4751             /                                       @@4742=3751
 3076 04743 1112      TAD   D0112             /                                       @@4743=1112
 3077 04744 3750      DCA I C4750             /                                       @@4744=3750
 3078 04745 5663      JMP I S4663             / return                                @@4745=5663

      AUTOMATIC DISASSEMBLY OF MAINDEC-08-DHKMA-A-PB.bin BY D8TAPE       Page 55


 3079             
 3080       4750  *4750
 3081 04750 3724  C4750,  3724                / DCA I C4724                           
 3082 04751 3706  C4751,  3706                / DCA I C4706                           
 3083 04752 3275  C4752,  3275                / DCA   C4675                           
 3084 04753 3261  C4753,  3261                / DCA   C4661                           
 3085 04754 3245  C4754,  3245                / DCA   C4645                           
 3086 04755 3231  C4755,  3231                / DCA   C4631                           
 3087 04756 3221  C4756,  3221                / DCA   C4621                           
 3088 04757 3211  C4757,  3211                / DCA   C4611                           
 3089 04760 3200  C4760,  3200                / DCA   S4600                           
 3090 04761 2640  C4761,  2640                / ISZ I C4640                           
 3091 04762 2634  C4762,  2634                / ISZ I C4634                           
 3092 04763 2633  C4763,  2633                / ISZ I C4633                           
 3093 04764 2632  C4764,  2632                / ISZ I C4632                           
 3094 04765 2600  C4765,  2600                / ISZ I S4600                           
 3095 04766 2531  C4766,  2531                / ISZ I C0131                           
 3096 04767 2510  C4767,  2510                / ISZ I D0110                           
 3097 04770 2507  C4770,  2507                / ISZ I D0107                           
 3098 04771 2454  C4771,  2454                / ISZ I D0054                           
 3099 04772 2440  C4772,  2440                / ISZ I D0040                           
 3100 04773 2437  C4773,  2437                / ISZ I D0037                           
 3101 04774 2436  C4774,  2436                / ISZ I D0036                           
 3102 04775 2435  C4775,  2435                / ISZ I D0035                           
 3103 04776 2422  C4776,  2422                / ISZ I D0022                           
 3104 04777 2400  C4777,  2400                / ISZ I L0000                           
 3105             
 3106       6000  *6000
 3107 06000 4777  D6000,  4777                / JMS I C6177                           
 3108 06001 4776      JMS I C6176             / long call to S2440                    @@6001=4776
 3109 06002 4543  C6002,  4543                / JMS I C0143                           
 3110 06003 1417  C6003,  1417                / TAD I AI7                             
 3111 06004 1720  C6004,  1720                / TAD I C6120                           
 3112 06005 4017  C6005,  4017                / JMS   AI7                             
 3113 06006 1640  C6006,  1640                / TAD I C6040                           
 3114 06007 0104      AND   D0104             /                                       @@6007=0104
 3115 06010 0422      AND I D0022             /                                       @@6010=0422
 3116 06011 0523      AND I D0123             /                                       @@6011=0523
 3117 06012 2340  C6012,  2340                / ISZ   C6140                           
 3118 06013 2305  C6013,  2305                / ISZ   C6105                           
 3119 06014 2440      ISZ I D0040             /                                       @@6014=2440
 3120 06015 1116      TAD   C0116             /                                       @@6015=1116
 3121 06016 4023  C6016,  4023                / JMS   C0023                           
 3122 06017 2200      ISZ   D6000             /                                       @@6017=2200
 3123 06020 4775      JMS I C6175             / long call to S6672                    @@6020=4775
 3124             L6021,
 3125 06021 7604      LAS                     /                                       @@6021=7604
 3126 06022 3232      DCA   D6032             /                                       @@6022=3232
 3127 06023 1632      TAD I D6032             /                                       @@6023=1632
 3128 06024 7040      CMA                     /                                       @@6024=7040
 3129 06025 3632      DCA I D6032             /                                       @@6025=3632
 3130 06026 1632      TAD I D6032             /                                       @@6026=1632
 3131 06027 7040      CMA                     /                                       @@6027=7040
 3132 06030 3632      DCA I D6032             /                                       @@6030=3632
 3133 06031 5221      JMP   L6021             /                                       @@6031=5221
 3134 06032 0000  D6032,  0000                / AND   L0000                           
 3135             

      AUTOMATIC DISASSEMBLY OF MAINDEC-08-DHKMA-A-PB.bin BY D8TAPE       Page 56


 3136       6175  *6175
 3137             C6175,
 3138 06175 6672  C6175,  6672                / RCSE                                  
 3139             C6176,
 3140 06176 2440  C6176,  2440                / ISZ I D0040                           
 3141 06177 6660  C6177,  6660                / 6660                                  
 3142             
 3143       6200  *6200
 3144 06200 4777  D6200,  4777                / JMS I C6377                           
 3145 06201 4776      JMS I C6376             / long call to S2440                    @@6201=4776
 3146 06202 4543  C6202,  4543                / JMS I C0143                           
 3147 06203 1417  D6203,  1417                / TAD I AI7                             
 3148 06204 1720  C6204,  1720                / TAD I C6320                           
 3149 06205 4017  D6205,  4017                / JMS   AI7                             
 3150 06206 1614      TAD I C6214             /                                       @@6206=1614
 3151 06207 3140      DCA   D0140             /                                       @@6207=3140
 3152 06210 2410  C6210,  2410                / ISZ I L0                              
 3153 06211 0540  C6211,  0540                / AND I D0140                           
 3154 06212 6240  C6212,  6240                / 6240                                  
 3155 06213 0104      AND   D0104             /                                       @@6213=0104
 3156 06214 0422  C6214,  0422                / AND I D0022                           
 3157 06215 0523      AND I D0123             /                                       @@6215=0523
 3158 06216 2305      ISZ   D6305             /                                       @@6216=2305
 3159 06217 2340  C6217,  2340                / ISZ   C6340                           
 3160 06220 1116      TAD   C0116             /                                       @@6220=1116
 3161 06221 2025      ISZ   D0025             /                                       @@6221=2025
 3162 06222 2440  C6222,  2440                / ISZ I D0040                           
 3163 06223 0622  D6223,  0622                / AND I C6222                           
 3164 06224 1715  C6224,  1715                / TAD I C6315                           
 3165 06225 4024  C6225,  4024                / JMS   D0024                           
 3166 06226 1005  C6226,  1005                / TAD   C0005                           
 3167 06227 4023  C6227,  4023                / JMS   C0023                           
 3168 06230 2200      ISZ   D6200             /                                       @@6230=2200
 3169 06231 4242      JMS   S6242             /                                       @@6231=4242
 3170 06232 4775      JMS I C6375             / long call to S6672                    @@6232=4775
 3171             L6233,
 3172 06233 1716      TAD I D6316             /                                       @@6233=1716
 3173 06234 7040      CMA                     /                                       @@6234=7040
 3174 06235 3716      DCA I D6316             /                                       @@6235=3716
 3175 06236 1717      TAD I D6317             /                                       @@6236=1717
 3176 06237 7040      CMA                     /                                       @@6237=7040
 3177 06240 3717      DCA I D6317             /                                       @@6240=3717
 3178 06241 5233      JMP   L6233             /                                       @@6241=5233
 3179             
 3180             ////////////////////////////////////////////////////////////////////////////////
 3181             /
 3182             /   SUBROUTINE:  S6242
 3183             /
 3184             /   Called from:
 3185             /   6231 6431 7033 
 3186             /   Total 0003 (3) calls
 3187             ////////////////////////////////////////////////////////////////////////////////
 3188             S6242,
 3189 06242 0000      0                       / return area
 3190 06243 4776      JMS I C6376             / long call to S2440                    @@6243=4776
 3191 06244 4543  C6244,  4543                / JMS I C0143                           
 3192 06245 2305      ISZ   D6305             /                                       @@6245=2305

      AUTOMATIC DISASSEMBLY OF MAINDEC-08-DHKMA-A-PB.bin BY D8TAPE       Page 57


 3193 06246 2440      ISZ I D0040             /                                       @@6246=2440
 3194 06247 2322  C6247,  2322                / ISZ   C6322                           
 3195 06250 4024  C6250,  4024                / JMS   D0024                           
 3196 06251 1740  C6251,  1740                / TAD I C6340                           
 3197 06252 0611      AND I C6211             /                                       @@6252=0611
 3198 06253 2223      ISZ   D6223             /                                       @@6253=2223
 3199 06254 2440      ISZ I D0040             /                                       @@6254=2440
 3200 06255 0104      AND   D0104             /                                       @@6255=0104
 3201 06256 0422      AND I D0022             /                                       @@6256=0422
 3202 06257 0523      AND I D0123             /                                       @@6257=0523
 3203 06260 2340  C6260,  2340                / ISZ   C6340                           
 3204 06261 4640  C6261,  4640                / JMS I C6240                           
 3205 06262 0317      AND   D6317             /                                       @@6262=0317
 3206 06263 1624      TAD I C6224             /                                       @@6263=1624
 3207 06264 0000      AND   L0000             /                                       @@6264=0000
 3208 06265 7402      HLT                     /                                       @@6265=7402
 3209 06266 7604      LAS                     /                                       @@6266=7604
 3210 06267 3316      DCA   D6316             /                                       @@6267=3316
 3211 06270 4776      JMS I C6376             / long call to S2440                    @@6270=4776
 3212 06271 4543  C6271,  4543                / JMS I C0143                           
 3213 06272 2305      ISZ   D6305             /                                       @@6272=2305
 3214 06273 2440      ISZ I D0040             /                                       @@6273=2440
 3215 06274 2322  C6274,  2322                / ISZ   C6322                           
 3216 06275 4024  C6275,  4024                / JMS   D0024                           
 3217 06276 1740  C6276,  1740                / TAD I C6340                           
 3218 06277 2305      ISZ   D6305             /                                       @@6277=2305
 3219 06300 0317      AND   D6317             /                                       @@6300=0317
 3220 06301 1604      TAD I C6204             /                                       @@6301=1604
 3221 06302 4001  C6302,  4001                / JMS   D0001                           
 3222 06303 0404      AND I C0004             /                                       @@6303=0404
 3223 06304 2205      ISZ   D6205             /                                       @@6304=2205
 3224 06305 2323  D6305,  2323                / ISZ   C6323                           
 3225 06306 4046      JMS   D0046             /                                       @@6306=4046
 3226 06307 4003  C6307,  4003                / JMS   C0003                           
 3227 06310 1716      TAD I D6316             /                                       @@6310=1716
 3228 06311 2400      ISZ I L0000             /                                       @@6311=2400
 3229 06312 7402      HLT                     /                                       @@6312=7402
 3230 06313 7604      LAS                     /                                       @@6313=7604
 3231 06314 3317      DCA   D6317             /                                       @@6314=3317
 3232 06315 5642  C6315,  5642                / JMP I S6242                           
 3233 06316 0000  D6316,  0000                / AND   L0000                           
 3234 06317 0000  D6317,  0000                / AND   L0000                           
 3235             
 3236       6375  *6375
 3237             C6375,
 3238 06375 6672  C6375,  6672                / RCSE                                  
 3239             C6376,
 3240 06376 2440  C6376,  2440                / ISZ I D0040                           
 3241 06377 6660  C6377,  6660                / 6660                                  
 3242             
 3243       6400  *6400
 3244             L6400,
 3245 06400 4777      JMS I C6577             / long call to S6660                    @@6400=4777
 3246 06401 4776      JMS I C6576             / long call to S2440                    @@6401=4776
 3247 06402 4543  C6402,  4543                / JMS I C0143                           
 3248 06403 1417  C6403,  1417                / TAD I AI7                             
 3249 06404 1720  C6404,  1720                / TAD I C6520                           

      AUTOMATIC DISASSEMBLY OF MAINDEC-08-DHKMA-A-PB.bin BY D8TAPE       Page 58


 3250 06405 4006  C6405,  4006                / JMS   C0006                           
 3251 06406 2217      ISZ   D6417             /                                       @@6406=2217
 3252 06407 1540      TAD I D0140             /                                       @@6407=1540
 3253 06410 0611      AND I C6411             /                                       @@6410=0611
 3254 06411 2223  C6411,  2223                / ISZ   C6423                           
 3255 06412 2440      ISZ I D0040             /                                       @@6412=2440
 3256 06413 0104      AND   D0104             /                                       @@6413=0104
 3257 06414 0422      AND I D0022             /                                       @@6414=0422
 3258 06415 0523      AND I D0123             /                                       @@6415=0523
 3259 06416 2340  C6416,  2340                / ISZ   D6540                           
 3260 06417 2410  D6417,  2410                / ISZ I L0                              
 3261 06420 2225      ISZ   D6425             /                                       @@6420=2225
 3262 06421 4023  C6421,  4023                / JMS   C0023                           
 3263 06422 0503      AND I D0103             /                                       @@6422=0503
 3264 06423 1716  C6423,  1716                / TAD I C6516                           
 3265 06424 0440      AND I D0040             /                                       @@6424=0440
 3266 06425 0104  D6425,  0104                / AND   D0104                           
 3267 06426 0422      AND I D0022             /                                       @@6426=0422
 3268 06427 0523      AND I D0123             /                                       @@6427=0523
 3269 06430 2300  C6430,  2300                / ISZ   C6500                           
 3270 06431 4775      JMS I C6575             / long call to S6242                    @@6431=4775
 3271 06432 1774      TAD I C6574             /                                       @@6432=1774
 3272 06433 3261      DCA   D6461             /                                       @@6433=3261
 3273 06434 1773      TAD I C6573             /                                       @@6434=1773
 3274 06435 3262      DCA   D6462             /                                       @@6435=3262
 3275 06436 4772      JMS I C6572             / long call to S6672                    @@6436=4772
 3276             L6437,
 3277 06437 1261      TAD   D6461             /                                       @@6437=1261
 3278 06440 3260      DCA   D6460             /                                       @@6440=3260
 3279             L6441,
 3280 06441 1660      TAD I D6460             /                                       @@6441=1660
 3281 06442 7040      CMA                     /                                       @@6442=7040
 3282 06443 3660      DCA I D6460             /                                       @@6443=3660
 3283 06444 1660      TAD I D6460             /                                       @@6444=1660
 3284 06445 7040      CMA                     /                                       @@6445=7040
 3285 06446 3660      DCA I D6460             /                                       @@6446=3660
 3286 06447 1260      TAD   D6460             /                                       @@6447=1260
 3287 06450 7041      CIA                     /                                       @@6450=7041
 3288 06451 1262      TAD   D6462             /                                       @@6451=1262
 3289 06452 7650      SNA CLA                 /                                       @@6452=7650
 3290 06453 5237      JMP   L6437             /                                       @@6453=5237
 3291 06454 2260      ISZ   D6460             /                                       @@6454=2260
 3292 06455 5241      JMP   L6441             /                                       @@6455=5241
 3293 06456 7402      HLT                     /                                       @@6456=7402
 3294 06457 5200      JMP   L6400             /                                       @@6457=5200
 3295 06460 0000  D6460,  0000                / AND   L0000                           
 3296 06461 0000  D6461,  0000                / AND   L0000                           
 3297 06462 0000  D6462,  0000                / AND   L0000                           
 3298             
 3299       6572  *6572
 3300             C6572,
 3301 06572 6672  C6572,  6672                / RCSE                                  
 3302 06573 6317  C6573,  6317                / 6317                                  
 3303 06574 6316  C6574,  6316                / 6316                                  
 3304             C6575,
 3305 06575 6242  C6575,  6242                / CIF0                                  
 3306             C6576,

      AUTOMATIC DISASSEMBLY OF MAINDEC-08-DHKMA-A-PB.bin BY D8TAPE       Page 59


 3307 06576 2440  C6576,  2440                / ISZ I D0040                           
 3308             C6577,
 3309 06577 6660  C6577,  6660                / 6660                                  
 3310             
 3311       6600  *6600
 3312 06600 4260      JMS   S6660             /                                       @@6600=4260
 3313 06601 4777      JMS I C6777             / long call to S2440                    @@6601=4777
 3314 06602 4543  C6602,  4543                / JMS I C0143                           
 3315 06603 1417  C6603,  1417                / TAD I AI7                             
 3316 06604 1720  C6604,  1720                / TAD I C6720                           
 3317 06605 4004  D6605,  4004                / JMS   C0004                           
 3318 06606 0124      AND   C0124             /                                       @@6606=0124
 3319 06607 0140      AND   D0140             /                                       @@6607=0140
 3320 06610 1116      TAD   C0116             /                                       @@6610=1116
 3321 06611 4024  C6611,  4024                / JMS   D0024                           
 3322 06612 1005  C6612,  1005                / TAD   C0005                           
 3323 06613 4023  C6613,  4023                / JMS   C0023                           
 3324 06614 2240      ISZ   D6640             /                                       @@6614=2240
 3325 06615 1716  C6615,  1716                / TAD I C6716                           
 3326 06616 4024  C6616,  4024                / JMS   D0024                           
 3327 06617 1005  C6617,  1005                / TAD   C0005                           
 3328 06620 4011  C6620,  4011                / JMS   AI1                             
 3329 06621 1620      TAD I C6620             /                                       @@6621=1620
 3330 06622 2524      ISZ I C0124             /                                       @@6622=2524
 3331 06623 4001  C6623,  4001                / JMS   D0001                           
 3332 06624 0404  C6624,  0404                / AND I C0004                           
 3333 06625 2205      ISZ   D6605             /                                       @@6625=2205
 3334 06626 2323  C6626,  2323                / ISZ   C6723                           
 3335 06627 0000      AND   L0000             /                                       @@6627=0000
 3336 06630 4777      JMS I C6777             / long call to S2440                    @@6630=4777
 3337 06631 4543  C6631,  4543                / JMS I C0143                           
 3338 06632 2305  C6632,  2305                / ISZ   C6705                           
 3339 06633 2440      ISZ I D0040             /                                       @@6633=2440
 3340 06634 2322  C6634,  2322                / ISZ   C6722                           
 3341 06635 4024  C6635,  4024                / JMS   D0024                           
 3342 06636 1740  C6636,  1740                / TAD I C6740                           
 3343 06637 0104      AND   D0104             /                                       @@6637=0104
 3344 06640 0422  D6640,  0422                / AND I D0022                           
 3345 06641 0523      AND I D0123             /                                       @@6641=0523
 3346 06642 2340  C6642,  2340                / ISZ   C6740                           
 3347 06643 4640      JMS I D6640             / long call to S0422                    @@6643=4640
 3348 06644 0317  C6644,  0317                / AND   C6717                           
 3349 06645 1624      TAD I C6624             /                                       @@6645=1624
 3350 06646 0000      AND   L0000             /                                       @@6646=0000
 3351 06647 4272      JMS   S6672             /                                       @@6647=4272
 3352 06650 7402      HLT                     /                                       @@6650=7402
 3353 06651 7604      LAS                     /                                       @@6651=7604
 3354 06652 3257      DCA   D6657             /                                       @@6652=3257
 3355             L6653,
 3356 06653 7604      LAS                     /                                       @@6653=7604
 3357 06654 3657      DCA I D6657             /                                       @@6654=3657
 3358 06655 1657      TAD I D6657             /                                       @@6655=1657
 3359 06656 5253      JMP   L6653             /                                       @@6656=5253
 3360 06657 0000  D6657,  0000                / AND   L0000                           
 3361             
 3362             ////////////////////////////////////////////////////////////////////////////////
 3363             /

      AUTOMATIC DISASSEMBLY OF MAINDEC-08-DHKMA-A-PB.bin BY D8TAPE       Page 60


 3364             /   SUBROUTINE:  S6660
 3365             /
 3366             /   Called from:
 3367             /   6400 6600 7000 
 3368             /   Total 0003 (3) calls
 3369             ////////////////////////////////////////////////////////////////////////////////
 3370             S6660,
 3371 06660 0000      0                       / return area
 3372 06661 7200      CLA                     /                                       @@6661=7200
 3373 06662 6214      RDF                     / Read data field into AC6-8.  Bit 0-5  @@6662=6214
 3374 06663 3271      DCA   D6671             /                                       @@6663=3271
 3375 06664 6224      RIF                     / Same as RDF except reads the instruc  @@6664=6224
 3376 06665 1176      TAD   C0176             /                                       @@6665=1176
 3377 06666 3267      DCA   D6667             /                                       @@6666=3267
 3378 06667 6201  D6667,  6201                / CDF0                                  
 3379 06670 5660      JMP I S6660             / return                                @@6670=5660
 3380 06671 0000  D6671,  0000                / AND   L0000                           
 3381             
 3382             ////////////////////////////////////////////////////////////////////////////////
 3383             /
 3384             /   SUBROUTINE:  S6672
 3385             /
 3386             /   Called from:
 3387             /   6020 6232 6436 6647 
 3388             /   Total 0004 (4) calls
 3389             ////////////////////////////////////////////////////////////////////////////////
 3390             S6672,
 3391 06672 0000      0                       / return area
 3392 06673 1271      TAD   D6671             /                                       @@6673=1271
 3393 06674 1176      TAD   C0176             /                                       @@6674=1176
 3394 06675 3276      DCA   D6676             /                                       @@6675=3276
 3395 06676 6201  D6676,  6201                / CDF0                                  
 3396 06677 5672      JMP I S6672             / return                                @@6677=5672
 3397             
 3398       6777  *6777
 3399             C6777,
 3400 06777 2440  C6777,  2440                / ISZ I D0040                           
 3401             
 3402       7000  *7000
 3403             L7000,
 3404 07000 4777      JMS I C7177             / long call to S6660                    @@7000=4777
 3405 07001 4776      JMS I C7176             / long call to S2440                    @@7001=4776
 3406 07002 4543  C7002,  4543                / JMS I C0143                           
 3407 07003 1417  C7003,  1417                / TAD I AI7                             
 3408 07004 1720  C7004,  1720                / TAD I C7120                           
 3409 07005 4004  D7005,  4004                / JMS   C0004                           
 3410 07006 0124      AND   C0124             /                                       @@7006=0124
 3411 07007 0140      AND   D0140             /                                       @@7007=0140
 3412 07010 1116      TAD   C0116             /                                       @@7010=1116
 3413 07011 4024  C7011,  4024                / JMS   D0024                           
 3414 07012 1005  C7012,  1005                / TAD   C0005                           
 3415 07013 4023  C7013,  4023                / JMS   C0023                           
 3416 07014 2240      ISZ   D7040             /                                       @@7014=2240
 3417 07015 2410  C7015,  2410                / ISZ I L0                              
 3418 07016 2225      ISZ   D7025             /                                       @@7016=2225
 3419 07017 4024  C7017,  4024                / JMS   D0024                           
 3420 07020 1005  C7020,  1005                / TAD   C0005                           

      AUTOMATIC DISASSEMBLY OF MAINDEC-08-DHKMA-A-PB.bin BY D8TAPE       Page 61


 3421 07021 4001  C7021,  4001                / JMS   D0001                           
 3422 07022 0404      AND I C0004             /                                       @@7022=0404
 3423 07023 2205      ISZ   D7005             /                                       @@7023=2205
 3424 07024 2323  C7024,  2323                / ISZ   C7123                           
 3425 07025 4023  D7025,  4023                / JMS   C0023                           
 3426 07026 0514  C7026,  0514                / AND I C0114                           
 3427 07027 0503      AND I D0103             /                                       @@7027=0503
 3428 07030 2411  C7030,  2411                / ISZ I AI1                             
 3429 07031 1716  C7031,  1716                / TAD I C7116                           
 3430 07032 0000      AND   L0000             /                                       @@7032=0000
 3431 07033 4775      JMS I C7175             / long call to S6242                    @@7033=4775
 3432 07034 1774      TAD I C7174             /                                       @@7034=1774
 3433 07035 3260      DCA   D7060             /                                       @@7035=3260
 3434 07036 1773      TAD I C7173             /                                       @@7036=1773
 3435 07037 3261      DCA   D7061             /                                       @@7037=3261
 3436 07040 4772  D7040,  4772                / JMS I C7172                           
 3437             L7041,
 3438 07041 1260      TAD   D7060             /                                       @@7041=1260
 3439 07042 3262      DCA   D7062             /                                       @@7042=3262
 3440             L7043,
 3441 07043 7604      LAS                     /                                       @@7043=7604
 3442 07044 3662      DCA I D7062             /                                       @@7044=3662
 3443 07045 1662      TAD I D7062             /                                       @@7045=1662
 3444 07046 3662      DCA I D7062             /                                       @@7046=3662
 3445 07047 1262      TAD   D7062             /                                       @@7047=1262
 3446 07050 7041      CIA                     /                                       @@7050=7041
 3447 07051 1261      TAD   D7061             /                                       @@7051=1261
 3448 07052 7650      SNA CLA                 /                                       @@7052=7650
 3449 07053 5241      JMP   L7041             /                                       @@7053=5241
 3450 07054 2262      ISZ   D7062             /                                       @@7054=2262
 3451 07055 5243      JMP   L7043             /                                       @@7055=5243
 3452 07056 7402      HLT                     /                                       @@7056=7402
 3453 07057 5200      JMP   L7000             /                                       @@7057=5200
 3454 07060 0000  D7060,  0000                / AND   L0000                           
 3455 07061 0000  D7061,  0000                / AND   L0000                           
 3456 07062 0000  D7062,  0000                / AND   L0000                           
 3457             
 3458       7172  *7172
 3459 07172 6672      6672                    / Generates an IOP pulse (IOP 2) to ad  @@7172=6672
 3460 07173 6317  C7173,  6317                / 6317                                  
 3461 07174 6316  C7174,  6316                / 6316                                  
 3462             C7175,
 3463 07175 6242  C7175,  6242                / CIF0                                  
 3464             C7176,
 3465 07176 2440  C7176,  2440                / ISZ I D0040                           
 3466             C7177,
 3467 07177 6660  C7177,  6660                / 6660                                  
 3468             
 3469       0116  *0116
 3470 00116 6203  C0116,  6203                / 6203                                  
 3471 00117 6000  C0117,  6000                / 6000                                  
 3472 00120 7760  C0120,  7760                / SMA SZA SNL CLA                       
 3473 00121 7720  C0121,  7720                / SMA SNL CLA                           
 3474 00122 0100  C0122,  0100                / AND   D0100                           
 3475 00123 7660  D0123,  7660                / SZA SNL CLA                           
 3476 00124 0200  C0124,  0200                / AND   L0000                           
 3477 00125 7560  C0125,  7560                / SMA SZA SNL                           

      AUTOMATIC DISASSEMBLY OF MAINDEC-08-DHKMA-A-PB.bin BY D8TAPE       Page 62


 3478 00126 0400  C0126,  0400                / AND I L0000                           
 3479 00127 7360  C0127,  7360                / CLA CLL CMA CML                       
 3480 00130 4000  C0130,  4000                / JMS   L0000                           
 3481 00131 0303  C0131,  0303                / AND   D0103                           
 3482 00132 0035  C0132,  0035                / AND   D0035                           
 3483 00133 4060  C0133,  4060                / JMS   D0060                           
 3484 00134 0007  C0134,  0007                / AND   C0007                           
 3485 00135 0240  C0135,  0240                / AND   D0040                           
 3486 00136 0245  C0136,  0245                / AND   D0045                           
 3487 00137 0215  C0137,  0215                / AND   AI5                             
 3488 00140 0212  D0140,  0212                / AND   AI2                             
 3489 00141 7775  C0141,  7775                / CLA MQA SCA MQL ASR +                 
 3490 00142 0340  C0142,  0340                / AND   D0140                           
 3491 00143 0207  C0143,  0207                / AND   C0007                           
 3492 00144 7744  C0144,  7744                / SMA SZA CLA OSR                       
 3493 00145 6060  C0145,  6060                / 6060                                  
 3494 00146 0707  C0146,  0707                / AND I D0107                           
 3495 00147 0077  C0147,  0077                / AND   D0077                           
 3496 00150 0261  C0150,  0261                / AND   D0061                           
 3497 00151 0262  C0151,  0262                / AND   D0062                           
 3498 00152 0263  C0152,  0263                / AND   D0063                           
 3499 00153 0264  C0153,  0264                / AND   D0064                           
 3500 00154 0265  C0154,  0265                / AND   D0065                           
 3501 00155 0266  C0155,  0266                / AND   D0066                           
 3502 00156 0267  C0156,  0267                / AND   D0067                           
 3503 00157 7777  C0157,  7777                / CLA MQA SCA MQL LSR +                 
 3504             C0160,
 3505 00160 0260  C0160,  0260                / AND   D0060                           
 3506 00161 7776  C0161,  7776                / SPA SNA SZL CLA OSR HLT               
 3507             C0162,
 3508 00162 7700  C0162,  7700                / SMA CLA                               
 3509 00163 7774  C0163,  7774                / SPA SNA SZL CLA OSR                   
 3510 00164 7740  C0164,  7740                / SMA SZA CLA                           
 3511             C0165,
 3512 00165 5252  C0165,  5252                / JMP   L0052                           
 3513 00166 2525  C0166,  2525                / ISZ I C0125                           
 3514             C0167,
 3515 00167 0010  C0167,  0010                / AND   L0                              
 3516             C0170,
 3517 00170 0020  C0170,  0020                / AND   L0020                           
 3518 00171 0030  C0171,  0030                / AND   D0030                           
 3519 00172 0040  C0172,  0040                / AND   D0040                           
 3520 00173 0050  C0173,  0050                / AND   D0050                           
 3521 00174 0060  C0174,  0060                / AND   D0060                           
 3522 00175 0070  C0175,  0070                / AND   D0070                           
 3523 00176 6201  C0176,  6201                / CDF0                                  
 3524 00177 4504      JMS I D0104             / long call to S0000                    @@0177=4504
 3525             
 3526       7751  *7751                       / align to RIMLDR location
 3527 07751 0200      0200                    / addr of program start
 3528 07752 6032      KCC                     / first instr in std RIMLDR
 3529 07753 1352      TAD .-1                 / get KCC instr
 3530 07754 3356      DCA .+2                 / restore into RIMLDR
 3531 07755 5751      JMP I .-4               / start program
 3532 07756 5353      JMP .-3                 / overlay first word of RIMLDR
 3533             

      No detected errors

      AUTOMATIC DISASSEMBLY OF MAINDEC-08-DHKMA-A-PB.bin BY D8TAPE       Page 63
                                                                    Symbol Table

    1  C0004  00004   C0372  00372   C1171  01171   C2170  02170   C3203  03203 
    2  C0020  00020   C0373  00373   C1172  01172   C2172  02172   C3205  03205 
    3  C0021  00021   C0374  00374   C1173  01173   C2173  02173   C3213  03213 
    4  C0023  00023   C0375  00375   C1174  01174   C2174  02174   C3215  03215 
    5  C0026  00026   C0376  00376   C1175  01175   C2175  02175   C3217  03217 
    6  C0027  00027   C0377  00377   C1176  01176   C2176  02176   C3223  03223 
    7  C0116  00116   C0404  00404   C1177  01177   C2177  02177   C3225  03225 
    8  C0117  00117   C0422  00422   C1226  01226   C2223  02223   C3233  03233 
    9  C0120  00120   C0565  00565   C1227  01227   C2261  02261   C3234  03234 
   10  C0121  00121   C0566  00566   C1377  01377   C2305  02305   C3236  03236 
   11  C0122  00122   C0567  00567   C1411  01411   C2367  02367   C3237  03237 
   12  C0124  00124   C0570  00570   C1417  01417   C2370  02370   C3247  03247 
   13  C0125  00125   C0571  00571   C1426  01426   C2371  02371   C3250  03250 
   14  C0126  00126   C0572  00572   C1437  01437   C2372  02372   C3252  03252 
   15  C0127  00127   C0573  00573   C1572  01572   C2373  02373   C3253  03253 
   16  C0130  00130   C0574  00574   C1573  01573   C2374  02374   C3263  03263 
   17  C0131  00131   C0575  00575   C1574  01574   C2375  02375   C3264  03264 
   18  C0132  00132   C0576  00576   C1575  01575   C2376  02376   C3266  03266 
   19  C0133  00133   C0577  00577   C1576  01576   C2377  02377   C3267  03267 
   20  C0134  00134   C0756  00756   C1577  01577   C2443  02443   C3303  03303 
   21  C0135  00135   C0757  00757   C1624  01624   C2444  02444   C3315  03315 
   22  C0136  00136   C0760  00760   C1715  01715   C2457  02457   C3321  03321 
   23  C0137  00137   C0761  00761   C1720  01720   C2511  02511   C3324  03324 
   24  C0141  00141   C0762  00762   C1764  01764   C2517  02517   C3340  03340 
   25  C0142  00142   C0763  00763   C1765  01765   C2631  02631   C3346  03346 
   26  C0143  00143   C0764  00764   C1766  01766   C2655  02655   C3372  03372 
   27  C0144  00144   C0765  00765   C1767  01767   C2701  02701   C3373  03373 
   28  C0145  00145   C0766  00766   C1770  01770   C2702  02702   C3374  03374 
   29  C0146  00146   C0767  00767   C1771  01771   C2704  02704   C3375  03375 
   30  C0147  00147   C0770  00770   C1772  01772   C2711  02711   C3376  03376 
   31  C0150  00150   C0771  00771   C1773  01773   C2773  02773   C3377  03377 
   32  C0151  00151   C0772  00772   C1774  01774   C2774  02774   C3402  03402 
   33  C0152  00152   C0773  00773   C1775  01775   C2775  02775   C3407  03407 
   34  C0153  00153   C0774  00774   C1776  01776   C2776  02776   C3416  03416 
   35  C0154  00154   C0775  00775   C1777  01777   C2777  02777   C3422  03422 
   36  C0155  00155   C0776  00776   C2011  02011   C3001  03001   C3423  03423 
   37  C0156  00156   C0777  00777   C2016  02016   C3005  03005   C3424  03424 
   38  C0157  00157   C1005  01005   C2034  02034   C3041  03041   C3430  03430 
   39  C0160  00160   C1007  01007   C2040  02040   C3155  03155   C3435  03435 
   40  C0161  00161   C1025  01025   C2052  02052   C3156  03156   C3501  03501 
   41  C0162  00162   C1043  01043   C2062  02062   C3157  03157   C3503  03503 
   42  C0163  00163   C1051  01051   C2070  02070   C3160  03160   C3515  03515 
   43  C0164  00164   C1061  01061   C2071  02071   C3161  03161   C3541  03541 
   44  C0165  00165   C1077  01077   C2073  02073   C3162  03162   C3576  03576 
   45  C0166  00166   C1154  01154   C2075  02075   C3163  03163   C3577  03577 
   46  C0167  00167   C1155  01155   C2077  02077   C3164  03164   C4011  04011 
   47  C0170  00170   C1156  01156   C2101  02101   C3165  03165   C4201  04201 
   48  C0171  00171   C1157  01157   C2104  02104   C3166  03166   C4204  04204 
   49  C0172  00172   C1160  01160   C2106  02106   C3167  03167   C4231  04231 
   50  C0173  00173   C1161  01161   C2110  02110   C3170  03170   C4233  04233 
   51  C0174  00174   C1162  01162   C2111  02111   C3171  03171   C4237  04237 
   52  C0175  00175   C1163  01163   C2112  02112   C3172  03172   C4240  04240 
   53  C0176  00176   C1164  01164   C2113  02113   C3173  03173   C4250  04250 
   54  C0270  00270   C1165  01165   C2164  02164   C3174  03174   C4252  04252 
   55  C0367  00367   C1166  01166   C2165  02165   C3175  03175   C4254  04254 
   56  C0370  00370   C1167  01167   C2166  02166   C3176  03176   C4260  04260 
   57  C0371  00371   C1170  01170   C2167  02167   C3177  03177   C4261  04261 

      AUTOMATIC DISASSEMBLY OF MAINDEC-08-DHKMA-A-PB.bin BY D8TAPE       Page 64
                                                                    Symbol Table

   58  C4274  04274   C4772  04772   C6575  06575   D0041  00041   D2212  02212 
   59  C4275  04275   C4773  04773   C6576  06576   D0042  00042   D2262  02262 
   60  C4277  04277   C4774  04774   C6577  06577   D0043  00043   D2435  02435 
   61  C4303  04303   C4775  04775   C6602  06602   D0044  00044   D2436  02436 
   62  C4304  04304   C4776  04776   C6603  06603   D0045  00045   D2437  02437 
   63  C4311  04311   C4777  04777   C6604  06604   D0046  00046   D2440  02440 
   64  C4317  04317   C6002  06002   C6611  06611   D0047  00047   D2507  02507 
   65  C4320  04320   C6003  06003   C6612  06612   D0050  00050   D2600  02600 
   66  C4323  04323   C6004  06004   C6613  06613   D0051  00051   D2605  02605 
   67  C4330  04330   C6005  06005   C6615  06615   D0052  00052   D2622  02622 
   68  C4334  04334   C6006  06006   C6616  06616   D0053  00053   D2632  02632 
   69  C4340  04340   C6012  06012   C6617  06617   D0054  00054   D2633  02633 
   70  C4377  04377   C6013  06013   C6620  06620   D0055  00055   D2634  02634 
   71  C4402  04402   C6016  06016   C6623  06623   D0056  00056   D2640  02640 
   72  C4406  04406   C6175  06175   C6624  06624   D0057  00057   D2710  02710 
   73  C4411  04411   C6176  06176   C6626  06626   D0060  00060   D3000  03000 
   74  C4413  04413   C6177  06177   C6631  06631   D0061  00061   D3011  03011 
   75  C4417  04417   C6202  06202   C6632  06632   D0062  00062   D3021  03021 
   76  C4421  04421   C6204  06204   C6634  06634   D0063  00063   D3031  03031 
   77  C4427  04427   C6210  06210   C6635  06635   D0064  00064   D3044  03044 
   78  C4430  04430   C6211  06211   C6636  06636   D0065  00065   D3045  03045 
   79  C4432  04432   C6212  06212   C6642  06642   D0066  00066   D3061  03061 
   80  C4435  04435   C6214  06214   C6644  06644   D0067  00067   D3075  03075 
   81  C4455  04455   C6217  06217   C6777  06777   D0070  00070   D3216  03216 
   82  C4501  04501   C6222  06222   C7002  07002   D0071  00071   D3222  03222 
   83  C4505  04505   C6224  06224   C7003  07003   D0072  00072   D3337  03337 
   84  C4507  04507   C6225  06225   C7004  07004   D0073  00073   D3353  03353 
   85  C4520  04520   C6226  06226   C7011  07011   D0074  00074   D3405  03405 
   86  C4521  04521   C6227  06227   C7012  07012   D0075  00075   D3425  03425 
   87  C4527  04527   C6244  06244   C7013  07013   D0076  00076   D3706  03706 
   88  C4530  04530   C6247  06247   C7015  07015   D0077  00077   D4216  04216 
   89  C4570  04570   C6250  06250   C7017  07017   D0100  00100   D4322  04322 
   90  C4571  04571   C6251  06251   C7020  07020   D0101  00101   D4346  04346 
   91  C4572  04572   C6260  06260   C7021  07021   D0102  00102   D4401  04401 
   92  C4573  04573   C6261  06261   C7024  07024   D0103  00103   D4405  04405 
   93  C4574  04574   C6271  06271   C7026  07026   D0104  00104   D4464  04464 
   94  C4575  04575   C6274  06274   C7030  07030   D0105  00105   D4466  04466 
   95  C4576  04576   C6275  06275   C7031  07031   D0106  00106   D4471  04471 
   96  C4577  04577   C6276  06276   C7173  07173   D0107  00107   D4502  04502 
   97  C4750  04750   C6302  06302   C7174  07174   D0110  00110   D4511  04511 
   98  C4751  04751   C6307  06307   C7175  07175   D0111  00111   D6000  06000 
   99  C4752  04752   C6315  06315   C7176  07176   D0112  00112   D6032  06032 
  100  C4753  04753   C6375  06375   C7177  07177   D0123  00123   D6200  06200 
  101  C4754  04754   C6376  06376   D0000  00000   D0140  00140   D6203  06203 
  102  C4755  04755   C6377  06377   D0001  00001   D0200  00200   D6205  06205 
  103  C4756  04756   C6402  06402   D0022  00022   D0240  00240   D6223  06223 
  104  C4757  04757   C6403  06403   D0024  00024   D1237  01237   D6305  06305 
  105  C4760  04760   C6404  06404   D0025  00025   D1251  01251   D6316  06316 
  106  C4761  04761   C6405  06405   D0030  00030   D1261  01261   D6317  06317 
  107  C4762  04762   C6411  06411   D0031  00031   D1273  01273   D6417  06417 
  108  C4763  04763   C6416  06416   D0032  00032   D1407  01407   D6425  06425 
  109  C4764  04764   C6421  06421   D0033  00033   D1455  01455   D6460  06460 
  110  C4765  04765   C6423  06423   D0034  00034   D1462  01462   D6461  06461 
  111  C4766  04766   C6430  06430   D0035  00035   D1661  01661   D6462  06462 
  112  C4767  04767   C6572  06572   D0036  00036   D1666  01666   D6605  06605 
  113  C4770  04770   C6573  06573   D0037  00037   D2005  02005   D6640  06640 
  114  C4771  04771   C6574  06574   D0040  00040   D2063  02063   D6657  06657 

      AUTOMATIC DISASSEMBLY OF MAINDEC-08-DHKMA-A-PB.bin BY D8TAPE       Page 65
                                                                    Symbol Table

  115  D6667  06667   L1462  01462   S1231  01231   S4034  04034 
  116  D6671  06671   L1465  01465   S1253  01253   S4044  04044 
  117  D6676  06676   L1467  01467   S1400  01400   S4054  04054 
  118  D7005  07005   L2212  02212   S1526  01526   S4063  04063 
  119  D7025  07025   L2214  02214   S1600  01600   S4073  04073 
  120  D7040  07040   L2226  02226   S1611  01611   S4101  04101 
  121  D7060  07060   L2230  02230   S1626  01626   S4110  04110 
  122  D7061  07061   L2241  02241   S1637  01637   S4117  04117 
  123  D7062  07062   L2251  02251   S1654  01654   S4127  04127 
  124  L0000  00000   L2270  02270   S1670  01670   S4200  04200 
  125  L0020  00020   L2274  02274   S1753  01753   S4210  04210 
  126  L0052  00052   L2300  02300   S2000  02000   S4217  04217 
  127  L0204  00204   L2304  02304   S2007  02007   S4227  04227 
  128  L0205  00205   L2310  02310   S2015  02015   S4256  04256 
  129  L0242  00242   L2314  02314   S2200  02200   S4301  04301 
  130  L0245  00245   L2320  02320   S2263  02263   S4316  04316 
  131  L0257  00257   L2324  02324   S2400  02400   S4400  04400 
  132  L0260  00260   L2444  02444   S2422  02422   S4445  04445 
  133  L0262  00262   L2465  02465   S2454  02454   S4525  04525 
  134  L0276  00276   L2472  02472   S2510  02510   S4600  04600 
  135  L0303  00303   L2477  02477   S2531  02531   S4663  04663 
  136  L0422  00422   L2504  02504   S3200  03200   S6242  06242 
  137  L0426  00426   L2505  02505   S3211  03211   S6660  06660 
  138  L0432  00432   L2514  02514   S3221  03221   S6672  06672 
  139  L0436  00436   L2523  02523   S3231  03231 
  140  L0442  00442   L2524  02524   S3245  03245 
  141  L0446  00446   L2601  02601   S3261  03261 
  142  L0452  00452   L2605  02605   S3275  03275 
  143  L0456  00456   L2610  02610   S3400  03400 
  144  L0460  00460   L2641  02641   S3441  03441 
  145  L0651  00651   L2650  02650   S3445  03445 
  146  L0652  00652   L2656  02656   S3451  03451 
  147  L0661  00661   L3001  03001   S3456  03456 
  148  L0670  00670   L3057  03057   S3463  03463 
  149  L0677  00677   L3075  03075   S3470  03470 
  150  L0706  00706   L3311  03311   S3474  03474 
  151  L0715  00715   L3415  03415   S3500  03500 
  152  L0724  00724   L3722  03722   S3505  03505 
  153  L0733  00733   L3734  03734   S3514  03514 
  154  L0742  00742   L4420  04420   S3523  03523 
  155  L1000  01000   L4440  04440   S3532  03532 
  156  L1012  01012   L4464  04464   S3552  03552 
  157  L1025  01025   L4511  04511   S3600  03600 
  158  L1040  01040   L4514  04514   S3607  03607 
  159  L1053  01053   L6021  06021   S3616  03616 
  160  L1066  01066   L6233  06233   S3625  03625 
  161  L1101  01101   L6400  06400   S3634  03634 
  162  L1114  01114   L6437  06437   S3643  03643 
  163  L1127  01127   L6441  06441   S3652  03652 
  164  L1202  01202   L6653  06653   S3661  03661 
  165  L1204  01204   L7000  07000   S3670  03670 
  166  L1212  01212   L7041  07041   S3677  03677 
  167  L1240  01240   L7043  07043   S3724  03724 
  168  L1262  01262   S0232  00232   S4000  04000 
  169  L1407  01407   S0400  00400   S4006  04006 
  170  L1412  01412   S0600  00600   S4015  04015 
  171  L1414  01414   S1200  01200   S4024  04024 

      AUTOMATIC DISASSEMBLY OF MAINDEC-08-DHKMA-A-PB.bin BY D8TAPE       Page 66
                                                                 Cross Reference

    1 A     33  C0004      2790   3222   3422
    2 A     37  C0020   
    3 A     38  C0021      1527   1628
    4 A     40  C0023      1170   1183   1892
    5 A     43  C0026      1129
    6 A     44  C0027      1132
    7 A   3470  C0116      1935   1948   2787   2841   2879   3120   3160   3320
    8                      3412
    9 A   3471  C0117      2782   2795
   10 A   3472  C0120      2385
   11 A   3473  C0121      2302   2319
   12 A   3474  C0122      1959   2269   2286
   13 A   3476  C0124      1737   2235   2252   2707   2781   3318   3330   3410
   14 A   3477  C0125      2234   2251
   15 A   3478  C0126      2201   2218
   16 A   3479  C0127      2200   2217
   17 A   3480  C0130      2156   2175   2729
   18 A   3481  C0131      1682
   19 A   3482  C0132      1678
   20 A   3483  C0133      1534   1579   1638
   21 A   3484  C0134      1533   1897
   22 A   3485  C0135      1510
   23 A   3486  C0136      1463
   24 A   3487  C0137      1460
   25 A   3489  C0141      1204   1451
   26 A   3490  C0142      1448
   27 A   3491  C0143      1442
   28 A   3492  C0144      1439
   29 A   3493  C0145      1406
   30 A   3494  C0146      1403   1405
   31 A   3495  C0147      1378   1384   1436
   32 A   3496  C0150      1329
   33 A   3497  C0151      1324   1680
   34 A   3498  C0152      1319
   35 A   3499  C0153      1314
   36 A   3500  C0154      1309
   37 A   3501  C0155      1304
   38 A   3502  C0156      1299
   39 A   3503  C0157      1234   1537   1557   1679
   40 A   3505  C0160      1165   1334   1814   1898
   41 A   3506  C0161       987   1457
   42 A   3508  C0162       744    790   1858
   43 A   3509  C0163       672    701    747    793   1445
   44 A   3510  C0164       636    643   2336   2353
   45 A   3512  C0165       356    361   1836
   46 A   3513  C0166       354    363
   47 A   3515  C0167       282    384    493    993   1792
   48 A   3517  C0170       277    392    505    998   2337   2354   2727
   49 A   3518  C0171       272    400    517   1003
   50 A   3519  C0172       267    408    529   2303   2320
   51 A   3520  C0173       262    416    541   1013
   52 A   3521  C0174       257    424    553   1018
   53 A   3522  C0175       252    432    565   1023
   54 A   3523  C0176       141    675    686    704    715    738    781    965
   55                       970   1232   2871   2874   3376   3393
   56 A    172  C0270   
   57 A    202  C0367       197

      AUTOMATIC DISASSEMBLY OF MAINDEC-08-DHKMA-A-PB.bin BY D8TAPE       Page 67
                                                                 Cross Reference

   58 A    204  C0370       183
   59 A    206  C0371       150    166    185
   60 A    208  C0372       148    164
   61 A    210  C0373       124    175    194
   62 A    212  C0374       120
   63 A    214  C0375       119
   64 A    216  C0376       107
   65 A    218  C0377       104
   66 A    235  C0404   
   67 A    250  C0422   
   68 A    298  C0565       291
   69 A    300  C0566       289
   70 A    302  C0567       285
   71 A    304  C0570       280
   72 A    306  C0571       275
   73 A    308  C0572       270
   74 A    310  C0573       265
   75 A    312  C0574       260
   76 A    314  C0575       255
   77 A    316  C0576   
   78 A    317  C0577       238
   79 A    442  C0756       438
   80 A    444  C0757       430
   81 A    446  C0760       422
   82 A    448  C0761       414
   83 A    450  C0762       406
   84 A    452  C0763       398
   85 A    454  C0764       390
   86 A    456  C0765       382
   87 A    458  C0766       380    388    396    404    412    420    428    436
   88 A    460  C0767       378    386    394    402    410    418    426    434
   89 A    462  C0770       375
   90 A    464  C0771       365
   91 A    466  C0772       358
   92 A    468  C0773       351
   93 A    470  C0774       346
   94 A    472  C0775       341
   95 A    474  C0776       335
   96 A    476  C0777       331
   97 A    485  C1005   
   98 A    487  C1007   
   99 A    503  C1025   
  100 A    518  C1043   
  101 A    524  C1051   
  102 A    533  C1061   
  103 A    548  C1077   
  104 A    583  C1154       579
  105 A    585  C1155       578
  106 A    587  C1156       573
  107 A    589  C1157       563
  108 A    591  C1160       561
  109 A    593  C1161       551
  110 A    595  C1162       549
  111 A    597  C1163       539
  112 A    599  C1164       537
  113 A    601  C1165       527
  114 A    603  C1166       525

      AUTOMATIC DISASSEMBLY OF MAINDEC-08-DHKMA-A-PB.bin BY D8TAPE       Page 68
                                                                 Cross Reference

  115 A    605  C1167       515
  116 A    607  C1170       513
  117 A    608  C1171   
  118 A    610  C1172       501
  119 A    612  C1173       491
  120 A    614  C1174       489
  121 A    616  C1175       486    498    510    522    534    546    558    570
  122 A    618  C1176       484    496    508    520    532    544    556    568
  123 A    620  C1177       480
  124 A    658  C1226   
  125 A    659  C1227   
  126 A    722  C1377       657
  127 A    745  C1411   
  128 A    753  C1417   
  129 A    760  C1426   
  130 A    769  C1437   
  131 A    855  C1572       810
  132 A    857  C1573       801    819
  133 A    859  C1574       768    814
  134 A    861  C1575       764
  135 A    863  C1576       759    805
  136 A    865  C1577       755    773
  137 A    908  C1624   
  138 A   1005  C1715   
  139 A   1008  C1720   
  140 A   1055  C1764      1051
  141 A   1057  C1765      1032
  142 A   1059  C1766      1029
  143 A   1061  C1767      1025
  144 A   1063  C1770      1020
  145 A   1065  C1771      1015
  146 A   1067  C1772      1010
  147 A   1069  C1773   
  148 A   1071  C1774      1000
  149 A   1073  C1775       995
  150 A   1075  C1776       990
  151 A   1077  C1777       968
  152 A   1110  C2011      1181
  153 A   1125  C2016   
  154 A   1139  C2034   
  155 A   1144  C2040      1172
  156 A   1154  C2052   
  157 A   1162  C2062   
  158 A   1168  C2070   
  159 A   1169  C2071   
  160 A   1171  C2073   
  161 A   1173  C2075   
  162 A   1175  C2077   
  163 A   1177  C2101   
  164 A   1180  C2104   
  165 A   1182  C2106   
  166 A   1184  C2110   
  167 A   1185  C2111   
  168 A   1186  C2112   
  169 A   1187  C2113   
  170 A   1195  C2164      1190
  171 A   1197  C2165      1166

      AUTOMATIC DISASSEMBLY OF MAINDEC-08-DHKMA-A-PB.bin BY D8TAPE       Page 69
                                                                 Cross Reference

  172 A   1199  C2166      1161   1167   1179
  173 A   1201  C2167      1160
  174 A   1203  C2170      1157
  175 A   1206  C2172      1151
  176 A   1208  C2173      1148
  177 A   1210  C2174      1145
  178 A   1212  C2175      1142
  179 A   1214  C2176      1138
  180 A   1216  C2177      1137   1141   1147   1150   1153   1156   1159
  181 A   1250  C2223   
  182 A   1284  C2261      1235   1236
  183 A   1318  C2305   
  184 A   1341  C2367      1332
  185 A   1343  C2370      1327
  186 A   1345  C2371      1322
  187 A   1347  C2372      1317
  188 A   1349  C2373      1312
  189 A   1351  C2374      1307
  190 A   1353  C2375      1302
  191 A   1355  C2376      1300   1305   1310   1315   1320   1325   1330   1335
  192 A   1357  C2377      1297
  193 A   1415  C2443   
  194 A   1417  C2444   
  195 A   1438  C2457   
  196 A   1479  C2511   
  197 A   1486  C2517   
  198 A   1543  C2631   
  199 A   1565  C2655      1571
  200 A   1586  C2701   
  201 A   1587  C2702   
  202 A   1589  C2704   
  203 A   1594  C2711      1583
  204 A   1602  C2773      1573
  205 A   1604  C2774      1563
  206 A   1606  C2775      1542   1584   1592
  207 A   1608  C2776      1539   1581
  208 A   1610  C2777      1523
  209 A   1615  C3001   
  210 A   1619  C3005   
  211 A   1647  C3041   
  212 A   1688  C3155      1681   1683
  213 A   1689  C3156   
  214 A   1691  C3157      1675
  215 A   1693  C3160      1673
  216 A   1695  C3161      1671
  217 A   1697  C3162      1669
  218 A   1699  C3163      1667
  219 A   1701  C3164      1665
  220 A   1703  C3165      1663
  221 A   1705  C3166      1662
  222 A   1707  C3167      1649
  223 A   1709  C3170      1640   1643   1646
  224 A   1711  C3171      1634
  225 A   1713  C3172      1633
  226 A   1715  C3173      1630   1684
  227 A   1717  C3174      1626
  228 A   1718  C3175      1622

      AUTOMATIC DISASSEMBLY OF MAINDEC-08-DHKMA-A-PB.bin BY D8TAPE       Page 70
                                                                 Cross Reference

  229 A   1719  C3176      1621
  230 A   1720  C3177      1620
  231 A   1736  C3203   
  232 A   1738  C3205   
  233 A   1754  C3213   
  234 A   1756  C3215   
  235 A   1758  C3217      1735
  236 A   1772  C3223   
  237 A   1774  C3225   
  238 A   1790  C3233   
  239 A   1791  C3234   
  240 A   1793  C3236   
  241 A   1794  C3237   
  242 A   1812  C3247   
  243 A   1813  C3250   
  244 A   1815  C3252   
  245 A   1816  C3253   
  246 A   1834  C3263   
  247 A   1835  C3264   
  248 A   1837  C3266   
  249 A   1838  C3267   
  250 A   1860  C3303      1795   1817   1839   1861
  251 A   1871  C3315   
  252 A   1875  C3321   
  253 A   1878  C3324   
  254 A   1890  C3340      1879
  255 A   1896  C3346   
  256 A   1911  C3372      1907
  257 A   1913  C3373      1899
  258 A   1915  C3374      1882   1885
  259 A   1916  C3375      1869
  260 A   1917  C3376      1868
  261 A   1919  C3377      1734   1753   1789   1811   1833   1855   1870   1888
  262                      1900
  263 A   1934  C3402   
  264 A   1939  C3407   
  265 A   1947  C3416   
  266 A   1951  C3422   
  267 A   1952  C3423   
  268 A   1953  C3424      1950
  269 A   1957  C3430   
  270 A   1962  C3435   
  271 A   2078  C3501      1949
  272 A   2080  C3503      1958
  273 A   2110  C3515      1938
  274 A   2151  C3541      2159
  275 A   2182  C3576      1965
  276 A   2184  C3577      1933   1946
  277 A   2430  C4011   
  278 A   2639  C4201      2696   2704
  279 A   2642  C4204      2738
  280 A   2691  C4231   
  281 A   2693  C4233   
  282 A   2697  C4237   
  283 A   2698  C4240   
  284 A   2706  C4250   
  285 A   2708  C4252   

      AUTOMATIC DISASSEMBLY OF MAINDEC-08-DHKMA-A-PB.bin BY D8TAPE       Page 71
                                                                 Cross Reference

  286 A   2710  C4254      2783
  287 A   2724  C4260   
  288 A   2725  C4261   
  289 A   2736  C4274   
  290 A   2737  C4275   
  291 A   2739  C4277   
  292 A   2753  C4303      2694   2780
  293 A   2754  C4304      2702
  294 A   2759  C4311   
  295 A   2775  C4317      2701
  296 A   2776  C4320   
  297 A   2779  C4323   
  298 A   2784  C4330   
  299 A   2788  C4334   
  300 A   2792  C4340      2786
  301 A   2805  C4377      2690   2723   2752   2797
  302 A   2820  C4402   
  303 A   2824  C4406   
  304 A   2827  C4411      2847
  305 A   2829  C4413   
  306 A   2833  C4417      2853
  307 A   2836  C4421   
  308 A   2842  C4427   
  309 A   2843  C4430   
  310 A   2845  C4432   
  311 A   2848  C4435   
  312 A   2875  C4455   
  313 A   2896  C4501      2828
  314 A   2900  C4505   
  315 A   2902  C4507      2822   2838
  316 A   2913  C4520   
  317 A   2914  C4521   
  318 A   2930  C4527   
  319 A   2931  C4530   
  320 A   2940  C4570      2909
  321 A   2942  C4571      2907
  322 A   2944  C4572      2906
  323 A   2946  C4573      2903
  324 A   2948  C4574      2899
  325 A   2950  C4575      2892
  326 A   2952  C4576      2850   2856
  327 A   2954  C4577      2835   2852
  328 A   3081  C4750      3015   3077
  329 A   3082  C4751      3013   3075
  330 A   3083  C4752      3011   3073
  331 A   3084  C4753      3009   3071
  332 A   3085  C4754      3007   3069
  333 A   3086  C4755      3005   3067
  334 A   3087  C4756      3003   3065
  335 A   3088  C4757      3001   3063
  336 A   3089  C4760      2999   3061
  337 A   3090  C4761      2997   3059
  338 A   3091  C4762      2995   3057
  339 A   3092  C4763      2993   3055
  340 A   3093  C4764      2991   3053
  341 A   3094  C4765      2989   3051
  342 A   3095  C4766      2987   3049

      AUTOMATIC DISASSEMBLY OF MAINDEC-08-DHKMA-A-PB.bin BY D8TAPE       Page 72
                                                                 Cross Reference

  343 A   3096  C4767      2985   3047
  344 A   3097  C4770      2983   3045
  345 A   3098  C4771      2981   3043
  346 A   3099  C4772      2979   3041
  347 A   3100  C4773      2977   3039
  348 A   3101  C4774      2975   3037
  349 A   3102  C4775      2973   3035
  350 A   3103  C4776      2971   3033
  351 A   3104  C4777      2969   3031
  352 A   3109  C6002   
  353 A   3110  C6003   
  354 A   3111  C6004   
  355 A   3112  C6005   
  356 A   3113  C6006   
  357 A   3117  C6012   
  358 A   3118  C6013   
  359 A   3121  C6016   
  360 A   3138  C6175      3123
  361 A   3140  C6176      3108
  362 A   3141  C6177   
  363 A   3146  C6202   
  364 A   3148  C6204      3220
  365 A   3152  C6210   
  366 A   3153  C6211      3197
  367 A   3154  C6212   
  368 A   3156  C6214      3150
  369 A   3159  C6217   
  370 A   3162  C6222   
  371 A   3164  C6224      3206
  372 A   3165  C6225   
  373 A   3166  C6226   
  374 A   3167  C6227   
  375 A   3191  C6244   
  376 A   3194  C6247   
  377 A   3195  C6250   
  378 A   3196  C6251   
  379 A   3203  C6260   
  380 A   3204  C6261   
  381 A   3212  C6271   
  382 A   3215  C6274   
  383 A   3216  C6275   
  384 A   3217  C6276   
  385 A   3221  C6302   
  386 A   3226  C6307   
  387 A   3232  C6315   
  388 A   3238  C6375      3170
  389 A   3240  C6376      3145   3190   3211
  390 A   3241  C6377   
  391 A   3247  C6402   
  392 A   3248  C6403   
  393 A   3249  C6404   
  394 A   3250  C6405   
  395 A   3254  C6411      3253
  396 A   3259  C6416   
  397 A   3262  C6421   
  398 A   3264  C6423   
  399 A   3269  C6430   

      AUTOMATIC DISASSEMBLY OF MAINDEC-08-DHKMA-A-PB.bin BY D8TAPE       Page 73
                                                                 Cross Reference

  400 A   3301  C6572      3275
  401 A   3302  C6573      3273
  402 A   3303  C6574      3271
  403 A   3305  C6575      3270
  404 A   3307  C6576      3246
  405 A   3309  C6577      3245
  406 A   3314  C6602   
  407 A   3315  C6603   
  408 A   3316  C6604   
  409 A   3321  C6611   
  410 A   3322  C6612   
  411 A   3323  C6613   
  412 A   3325  C6615   
  413 A   3326  C6616   
  414 A   3327  C6617   
  415 A   3328  C6620      3329
  416 A   3331  C6623   
  417 A   3332  C6624      3349
  418 A   3334  C6626   
  419 A   3337  C6631   
  420 A   3338  C6632   
  421 A   3340  C6634   
  422 A   3341  C6635   
  423 A   3342  C6636   
  424 A   3346  C6642   
  425 A   3348  C6644   
  426 A   3400  C6777      3313   3336
  427 A   3406  C7002   
  428 A   3407  C7003   
  429 A   3408  C7004   
  430 A   3413  C7011   
  431 A   3414  C7012   
  432 A   3415  C7013   
  433 A   3417  C7015   
  434 A   3419  C7017   
  435 A   3420  C7020   
  436 A   3421  C7021   
  437 A   3424  C7024   
  438 A   3426  C7026   
  439 A   3428  C7030   
  440 A   3429  C7031   
  441 A   3460  C7173      3434
  442 A   3461  C7174      3432
  443 A   3463  C7175      3431
  444 A   3465  C7176      3405
  445 A   3467  C7177      3404
  446 A     29  D0000   
  447 A     30  D0001      1872   1893   2733   2734
  448 A     39  D0022      1518   1624   2692   2699   2821   2837   3115   3201
  449                      3257   3267
  450 A     41  D0024       156    191    576   1561   1956
  451 A     42  D0025       152    168    187   2755   3161
  452 A     45  D0030       108    750    796   2065   2359
  453 A     46  D0031       109    368   1874   1978   1992   2007   2022   2037
  454                      2051   2384
  455 A     47  D0032       110    181   1126   2094   2097   2128   2131   2153
  456                      2158   2199   2202   2233   2236   2267   2270   2301
      AUTOMATIC DISASSEMBLY OF MAINDEC-08-DHKMA-A-PB.bin BY D8TAPE       Page 74
                                                                 Cross Reference


  457                      2304   2335   2338   2413   2429   2446   2463   2481
  458                      2499   2517   2534
  459 A     48  D0033       111    182   2111   2114   2145   2148   2172   2177
  460                      2216   2219   2250   2253   2284   2287   2318   2321
  461                      2352   2355   2552   2568   2585   2602   2620   2640
  462                      2658   2673
  463 A     49  D0034       113    121   1033
  464 A     50  D0035       147    163    180    234    293    685    714    780
  465                       964   1050   1092   2872
  466 A     51  D0036       288    377    385    393    401    409    417    425
  467                       433    482    494    506    530    542    554    566
  468                       674    703    737    969    989    994    999   1004
  469                      1009   1014   1019   1024   1094   1576   1635   2880
  470 A     52  D0037       483    495    499    507    511    519    523    531
  471                       535    543    547    555    559    567    571   1567
  472                      2869   2895
  473 A     53  D0040      1547   1582   1590   1653   1654   1657   1755   1773
  474                      1796   1818   1840   1862   1877   1891   1936   2695
  475                      2700   2703   2705   2730   2756   2825   2846   2870
  476                      2884   2886   2887   2890   2893   3119   3193   3199
  477                      3214   3255   3265   3339
  478 A     54  D0041       116   1598   1906   1943   1964   2800   2832
  479 A     55  D0042       239    240    898    901    940    943   1538   1540
  480 A     56  D0043       114    650    680    681    709    710    758    767
  481                       774    784    804    813    820    838    839    840
  482                       841    842    843    844    845    846    847    848
  483                       850    885    927    950   1641   1886
  484 A     57  D0044       118    653    656
  485 A     58  D0045       117    655   1642
  486 A     59  D0046      1127   1164   1243   2735   2758   3225
  487 A     60  D0047      1130   1246   1251   1261   1278
  488 A     61  D0050      1135   1244   1269
  489 A     62  D0051       986   1030   1052   1645
  490 A     64  D0052   
  491 A     65  D0053       333    338    345    349    355    362    679    762
  492                       771    880    882    884    899    903    906
  493 A     66  D0054       334    340    344    350    357    364    708    799
  494                       808    817    922    924    926    941    945    948
  495                      1648
  496 A     67  D0055       637    641    644    648    778    791    824
  497 A     68  D0056       673    683    702    712    748    776    794    822
  498 A     69  D0057       963   1644
  499 A     70  D0060       881    902    923    944
  500 A     71  D0061      2916
  501 A     72  D0062        32   2911
  502 A     73  D0063      2970   3030
  503 A     74  D0064      2972   3032
  504 A     75  D0065      2974   3034
  505 A     76  D0066      2976   3036
  506 A     77  D0067      2978   3038
  507 A     78  D0070      2980   3040
  508 A     79  D0071      2982   3042
  509 A     80  D0072      2984   3044
  510 A     81  D0073      2986   3046
  511 A     82  D0074      2988   3048
  512 A     83  D0075      1894   2990   3050
  513 A     84  D0076      2992   3052

      AUTOMATIC DISASSEMBLY OF MAINDEC-08-DHKMA-A-PB.bin BY D8TAPE       Page 75
                                                                 Cross Reference

  514 A     85  D0077      2994   3054
  515 A     86  D0100      1178   2996   3056
  516 A     87  D0101      2998   3058
  517 A     88  D0102      3000   3060
  518 A     89  D0103      2844   3002   3062   3263   3427
  519 A     90  D0104      3004   3064   3114   3155   3200   3256   3343   3524
  520 A     91  D0105      2731   2789   3006   3066
  521 A     92  D0106      3008   3068
  522 A     93  D0107      3010   3070
  523 A     94  D0110      3012   3072
  524 A     95  D0111      3014   3074
  525 A     96  D0112      3016   3076
  526 A   3475  D0123      1174   1176   2268   2285   3116   3157   3202   3258
  527                      3268   3345
  528 A   3488  D0140      1454   1775   1797   1819   1841   1863   2728   2732
  529                      2840   3151   3252   3319   3411
  530 A     99  D0200   
  531 A    143  D0240       142
  532 A    677  D1237       676
  533 A    688  D1251       687
  534 A    706  D1261       705
  535 A    717  D1273       716
  536 A    743  D1407   
  537 A    783  D1455       782
  538 A    789  D1462   
  539 A    967  D1661       966
  540 A    972  D1666       971
  541 A   1096  D2005      1188
  542 A   1163  D2063   
  543 A   1240  D2212   
  544 A   1285  D2262   
  545 A   1409  D2435      1373   1380   1385
  546 A   1410  D2436      1376   1383   1407
  547 A   1411  D2437      1399   1400   1404
  548 A   1412  D2440      1414
  549 A   1467  D2507      1418   1419   1422
  550 A   1515  D2600      1524   1556   1564   1572
  551 A   1522  D2605   
  552 A   1536  D2622      1588
  553 A   1544  D2632      1535
  554 A   1545  D2633      1541
  555 A   1546  D2634   
  556 A   1550  D2640      1549   1574
  557 A   1593  D2710      1580
  558 A   1613  D3000   
  559 A   1623  D3011   
  560 A   1631  D3021   
  561 A   1639  D3031   
  562 A   1650  D3044   
  563 A   1651  D3045   
  564 A   1664  D3061   
  565 A   1677  D3075   
  566 A   1757  D3216      1739
  567 A   1771  D3222      1876
  568 A   1889  D3337      1884
  569 A   1901  D3353      1887
  570 A   1937  D3405      1960

      AUTOMATIC DISASSEMBLY OF MAINDEC-08-DHKMA-A-PB.bin BY D8TAPE       Page 76
                                                                 Cross Reference

  571 A   1954  D3425      1955
  572 A   2357  D3706      2361   2362   2365   2366   2368
  573 A   2662  D4216      2709
  574 A   2778  D4322      2757
  575 A   2798  D4346      2796
  576 A   2819  D4401      2839
  577 A   2823  D4405      2826   2854
  578 A   2883  D4464   
  579 A   2885  D4466      2876
  580 A   2888  D4471      2878
  581 A   2897  D4502      2881
  582 A   2905  D4511   
  583 A   3107  D6000      3122
  584 A   3134  D6032      3126   3127   3129   3130   3132
  585 A   3144  D6200      3168
  586 A   3147  D6203   
  587 A   3149  D6205      3223
  588 A   3163  D6223      3198
  589 A   3224  D6305      3158   3192   3213   3218
  590 A   3233  D6316      3172   3174   3210   3227
  591 A   3234  D6317      3175   3177   3205   3219   3231
  592 A   3260  D6417      3251
  593 A   3266  D6425      3261
  594 A   3295  D6460      3278   3280   3282   3283   3285   3286   3291
  595 A   3296  D6461      3272   3277
  596 A   3297  D6462      3274   3288
  597 A   3317  D6605      3333
  598 A   3344  D6640      3324   3347
  599 A   3360  D6657      3354   3357   3358
  600 A   3378  D6667      3377
  601 A   3380  D6671      3374   3392
  602 A   3395  D6676      3394
  603 A   3409  D7005      3423
  604 A   3425  D7025      3418
  605 A   3436  D7040      3416
  606 A   3454  D7060      3433   3438
  607 A   3455  D7061      3435   3447
  608 A   3456  D7062      3439   3442   3443   3444   3445   3450
  609 A     28  L0000      1189   1548   1591   1595   1596   1652   1655   1656
  610                      1658   1659   1660   1740   1776   1798   1820   1842
  611                      1864   1881   1883   1895   1902   1903   1961   2761
  612                      2791   2830   2849   2855   2917   3207   3228   3335
  613                      3350   3430
  614 A     36  L0020      1553   2726
  615 A     63  L0052       988   1028   1046
  616 A    103  L0204       100
  617 A    105  L0205       158    174    193
  618 A    145  L0242       123
  619 A    149  L0245       159
  620 A    160  L0257       126    196
  621 A    162  L0260   
  622 A    165  L0262       177
  623 A    178  L0276       125    176
  624 A    184  L0303       198
  625 A    249  L0422       241    286
  626 A    254  L0426       248    251
  627 A    259  L0432       247    256

      AUTOMATIC DISASSEMBLY OF MAINDEC-08-DHKMA-A-PB.bin BY D8TAPE       Page 77
                                                                 Cross Reference

  628 A    264  L0436       246    261
  629 A    269  L0442       245    266
  630 A    274  L0446       244    271
  631 A    279  L0452       243    276
  632 A    284  L0456       242    281
  633 A    287  L0460       253    258    263    268    273    278    283
  634 A    371  L0651   
  635 A    373  L0652       336    342    347    352    359    366    372
  636 A    381  L0661       376
  637 A    389  L0670       383
  638 A    397  L0677       391
  639 A    405  L0706       399
  640 A    413  L0715       407
  641 A    421  L0724       415
  642 A    429  L0733       423
  643 A    437  L0742       431
  644 A    479  L1000   
  645 A    490  L1012       481
  646 A    502  L1025       492    497
  647 A    514  L1040       504    509
  648 A    526  L1053       516    521
  649 A    538  L1066       528
  650 A    550  L1101       540    545
  651 A    562  L1114       552    557
  652 A    574  L1127       564    569
  653 A    635  L1202       652
  654 A    638  L1204       642
  655 A    645  L1212       649
  656 A    678  L1240       684
  657 A    707  L1262       713
  658 A    742  L1407       739    740    786
  659 A    746  L1412       825
  660 A    749  L1414       777
  661 A    788  L1462       741    826
  662 A    792  L1465       779
  663 A    795  L1467       823
  664 A   1239  L2212      1233   1255   1273   1283
  665 A   1242  L2214      1238
  666 A   1253  L2226      1263   1265   1271   1274   1280
  667 A   1256  L2230      1248
  668 A   1266  L2241      1282
  669 A   1275  L2251      1258
  670 A   1301  L2270      1298
  671 A   1306  L2274      1303
  672 A   1311  L2300      1308
  673 A   1316  L2304      1313
  674 A   1321  L2310   
  675 A   1326  L2314      1323
  676 A   1331  L2320      1328
  677 A   1336  L2324      1333
  678 A   1416  L2444      1424
  679 A   1444  L2465      1441
  680 A   1450  L2472      1447
  681 A   1456  L2477      1453
  682 A   1462  L2504      1459
  683 A   1464  L2505      1443   1449   1455
  684 A   1482  L2514      1484

      AUTOMATIC DISASSEMBLY OF MAINDEC-08-DHKMA-A-PB.bin BY D8TAPE       Page 78
                                                                 Cross Reference

  685 A   1490  L2523      1480
  686 A   1492  L2524      1494
  687 A   1516  L2601      1575
  688 A   1521  L2605      1585
  689 A   1525  L2610      1520
  690 A   1551  L2641      1529   1599
  691 A   1559  L2650      1555
  692 A   1566  L2656      1569
  693 A   1614  L3001      1617
  694 A   1661  L3057   
  695 A   1676  L3075      1666   1668   1670   1672
  696 A   1866  L3311   
  697 A   1945  L3415   
  698 A   2369  L3722      2371
  699 A   2390  L3734      2398
  700 A   2834  L4420   
  701 A   2851  L4440   
  702 A   2882  L4464      2873   2877   2894
  703 A   2904  L4511      2901
  704 A   2908  L4514   
  705 A   3124  L6021      3133
  706 A   3171  L6233      3178
  707 A   3244  L6400      3294
  708 A   3276  L6437      3290
  709 A   3279  L6441      3292
  710 A   3355  L6653      3359
  711 A   3403  L7000      3453
  712 A   3437  L7041      3449
  713 A   3440  L7043      3451
  714 A    136  S0232       101    144
  715 A    230  S0400       290    294
  716 A    329  S0600       370
  717 A    632  S1200       654    660
  718 A    670  S1231       639    647    689
  719 A    699  S1253       640    646    718
  720 A    734  S1400       787
  721 A    836  S1526       751    756    765    797    802    806    811    815
  722                       851
  723 A    877  S1600       886
  724 A    896  S1611       909
  725 A    919  S1626       928
  726 A    938  S1637       951
  727 A    961  S1654       883    905    925    947    973
  728 A    983  S1670      1034   1048
  729 A   1044  S1753       992    997   1002   1007   1012   1017   1022   1027
  730                      1053
  731 A   1090  S2000      1097
  732 A   1107  S2007      1112   1113
  733 A   1123  S2015      1191
  734 A   1228  S2200      1241   1254
  735 A   1295  S2263      1337
  736 A   1369  S2400      1372   1374   1375   1377   1387
  737 A   1397  S2422      1382   1386   1408
  738 A   1434  S2454      1421   1423   1466
  739 A   1477  S2510      1465   1489   1497   1509   1511
  740 A   1507  S2531      1512
  741 A   1732  S3200      1741

      AUTOMATIC DISASSEMBLY OF MAINDEC-08-DHKMA-A-PB.bin BY D8TAPE       Page 79
                                                                 Cross Reference

  742 A   1751  S3211      1759   1873
  743 A   1769  S3221      1777
  744 A   1787  S3231      1799
  745 A   1809  S3245      1821
  746 A   1831  S3261      1843
  747 A   1853  S3275      1865
  748 A   1931  S3400      1940   1944
  749 A   1975  S3441      1979
  750 A   1989  S3445      1993
  751 A   2003  S3451      2008
  752 A   2018  S3456      2023
  753 A   2033  S3463      2038
  754 A   2048  S3470      2052
  755 A   2062  S3474      2066
  756 A   2076  S3500      2081
  757 A   2091  S3505      2098
  758 A   2108  S3514      2115
  759 A   2125  S3523      2132
  760 A   2142  S3532      2149
  761 A   2169  S3552      2178
  762 A   2196  S3600      2203
  763 A   2213  S3607      2220
  764 A   2230  S3616      2237
  765 A   2247  S3625      2254
  766 A   2264  S3634      2271
  767 A   2281  S3643      2288
  768 A   2298  S3652      2305
  769 A   2315  S3661      2322
  770 A   2332  S3670      2339
  771 A   2349  S3677      2356
  772 A   2381  S3724      2387   2388   2389   2394   2395   2396
  773 A   2410  S4000      2415   2416
  774 A   2426  S4006      2432   2433
  775 A   2443  S4015      2449   2450
  776 A   2460  S4024      2467   2468
  777 A   2478  S4034      2485   2486
  778 A   2496  S4044      2503   2504
  779 A   2514  S4054      2520   2521
  780 A   2531  S4063      2538   2539
  781 A   2549  S4073      2554   2555
  782 A   2565  S4101      2571   2572
  783 A   2582  S4110      2588   2589
  784 A   2599  S4117      2606   2607
  785 A   2617  S4127      2624   2625
  786 A   2637  S4200      2644   2645
  787 A   2655  S4210      2661
  788 A   2670  S4217      2677   2678   2777   2785
  789 A   2688  S4227      2711
  790 A   2721  S4256      2740
  791 A   2750  S4301      2763
  792 A   2773  S4316      2760   2801
  793 A   2817  S4400   
  794 A   2866  S4445      2898
  795 A   2927  S4525      2932   2936
  796 A   2966  S4600      3017
  797 A   3027  S4663      3078
  798 A   3188  S6242      3169

      AUTOMATIC DISASSEMBLY OF MAINDEC-08-DHKMA-A-PB.bin BY D8TAPE       Page 80
                                                                 Cross Reference

  799 A   3370  S6660      3312   3379
  800 A   3390  S6672      3351   3396

      AUTOMATIC DISASSEMBLY OF MAINDEC-08-DHKMA-A-PB.bin BY D8TAPE       Page 81
                                                                      Memory Map

    1 00000/ XXXXX... ........ XXXXXXXX XXXXXXXX XXXXXXXX XXXXXXXX XXXXXXXX XXXXXXXX
    2 00100/ XXXXXXXX XXX...XX XXXXXXXX XXXXXXXX XXXXXXXX XXXXXXXX XXXXXXXX XXXXXXXX
    3
    4 00200/ XXXXXXXX XXXXXXXX XXXXXXXX XXXXXXXX XXXXXXXX XXXXXXXX XXXXXXXX XXXXXXXX
    5 00300/ XXXXXXXX XXXXXXXX X....... ........ ........ ........ .......X XXXXXXXX
    6
    7 00400/ XXXXXXXX XXXXXXXX XXXXXXXX XXXXXXXX XXXXXXXX XXXXXXXX XXXXXXX. ........
    8 00500/ ........ ........ ........ ........ ........ ........ .....XXX XXXXXXXX
    9
   10 00600/ XXXXXXXX XXXXXXXX XXXXXXXX XXXXXXXX XXXXXXXX XXXXXXXX XXXXXXXX XXXXXXXX
   11 00700/ XXXXXXXX XXXXXXXX XXXXXXXX XXXXXXXX XXX..... ......XX XXXXXXXX XXXXXXXX
   12
   13 01000/ XXXXXXXX XXXXXXXX XXXXXXXX XXXXXXXX XXXXXXXX XXXXXXXX XXXXXXXX XXXXXXXX
   14 01100/ XXXXXXXX XXXXXXXX XXXXXXXX XXXX.... ........ ....XXXX XXXXXXXX XXXXXXXX
   15
   16 01200/ XXXXXXXX XXXXXXXX XXXXXXXX XXXXXXXX XXXXXXXX XXXXXXXX XXXXXXXX XXXXX...
   17 01300/ ........ ........ ........ ........ ........ ........ ........ .......X
   18
   19 01400/ XXXXXXXX XXXXXXXX XXXXXXXX XXXXXXXX XXXXXXXX XXXXXXXX XXXXXXXX XXXXXXXX
   20 01500/ XXXXXXXX XXXXXXXX XXXXXXXX XXXXXXXX XXXXX... ........ ........ ..XXXXXX
   21
   22 01600/ XXXXXXXX XXXXXXXX XXXXXXXX XXXXXXXX XXXXXXXX XXXXXXXX XXXXXXXX XXXXXXXX
   23 01700/ XXXXXXXX XXXXXXXX XXXXXXXX XXXXXXXX XXXXXXXX XXXXXXXX XXXXXXXX XXXXXXXX
   24
   25 02000/ XXXXXXXX XXXXXXXX XXXXXXXX XXXXXXXX XXXXXXXX XXXXXXXX XXXXXXXX XXXXXXXX
   26 02100/ XXXXXXXX XXXXXXXX ........ ........ ........ ........ ....XXXX XXXXXXXX
   27
   28 02200/ XXXXXXXX XXXXXXXX XXXXXXXX XXXXXXXX XXXXXXXX XXXXXXXX XXXXXXXX XXXXXXXX
   29 02300/ XXXXXXXX XXXXXXXX XXXXX... ........ ........ ........ .......X XXXXXXXX
   30
   31 02400/ XXXXXXXX XXXXXXXX XXXXXXXX XXXXXXXX XXXXXXXX XXXXXXXX XXXXXXXX XXXXXXXX
   32 02500/ XXXXXXXX XXXXXXXX XXXXXXXX XXXXXX.. ........ ........ ........ ........
   33
   34 02600/ XXXXXXXX XXXXXXXX XXXXXXXX XXXXXXXX XXXXXXXX XXXXXXXX XXXXXXXX XXXXXXXX
   35 02700/ XXXXXXXX XXXXXXX. ........ ........ ........ ........ ........ ...XXXXX
   36
   37 03000/ XXXXXXXX XXXXXXXX XXXXXXXX XXXXXXXX XXXXXXXX XXXXXXXX XXXXXXXX XXXXXXXX
   38 03100/ XXXXX... ........ ........ ........ ........ .....XXX XXXXXXXX XXXXXXXX
   39
   40 03200/ XXXXXXXX XXXXXXXX XXXXXXXX XXXXXXXX XXXXXXXX XXXXXXXX XXXXXXXX XXXXXXXX
   41 03300/ XXXXXXXX XXXXXXXX XXXXXXXX XXXXXXXX XXXXXXXX XXXXXXXX XX...... ..XXXXXX
   42
   43 03400/ XXXXXXXX XXXXXXXX XXXXXXXX XXXXXXXX XXXXXXXX XXXXXXXX XXXXXXXX XXXXXXXX
   44 03500/ XXXXXXXX XXXXXXXX XXXXXXXX XXXXXXXX XXXXXXXX XXXXXXXX XXX..... ......XX
   45
   46 03600/ XXXXXXXX XXXXXXXX XXXXXXXX XXXXXXXX XXXXXXXX XXXXXXXX XXXXXXXX XXXXXXXX
   47 03700/ XXXXXXXX XXXXXXXX XXXXXXXX XXXXXXXX XXXX.... ........ ........ ........
   48

      AUTOMATIC DISASSEMBLY OF MAINDEC-08-DHKMA-A-PB.bin BY D8TAPE       Page 82
                                                                      Memory Map

   49 04000/ XXXXXXXX XXXXXXXX XXXXXXXX XXXXXXXX XXXXXXXX XXXXXXXX XXXXXXXX XXXXXXXX
   50 04100/ XXXXXXXX XXXXXXXX XXXXXXXX XXXXXXX. ........ ........ ........ ........
   51
   52 04200/ XXXXXXXX XXXXXXXX XXXXXXXX XXXXXXXX XXXXXXXX XXXXXXXX XXXXXXXX XXXXXXXX
   53 04300/ XXXXXXXX XXXXXXXX XXXXXXXX XXXXXXXX XXXXXXXX XX...... ........ .......X
   54
   55 04400/ XXXXXXXX XXXXXXXX XXXXXXXX XXXXXXXX XXXXXXXX XXXXXXXX XXXXXXXX XXXXXXXX
   56 04500/ XXXXXXXX XXXXXXXX XXXXXXXX XXXXXX.. ........ ........ ........ XXXXXXXX
   57
   58 04600/ XXXXXXXX XXXXXXXX XXXXXXXX XXXXXXXX XXXXXXXX XXXXXXXX XXXXXXXX XXXXXXXX
   59 04700/ XXXXXXXX XXXXXXXX XXXXXXXX XXXXXXXX XXXXXX.. XXXXXXXX XXXXXXXX XXXXXXXX
   60
   61 05000/ ........ ........ ........ ........ ........ ........ ........ ........
   62 05100/ ........ ........ ........ ........ ........ ........ ........ ........
   63
   64 05200/ ........ ........ ........ ........ ........ ........ ........ ........
   65 05300/ ........ ........ ........ ........ ........ ........ ........ ........
   66
   67 05400/ ........ ........ ........ ........ ........ ........ ........ ........
   68 05500/ ........ ........ ........ ........ ........ ........ ........ ........
   69
   70 05600/ ........ ........ ........ ........ ........ ........ ........ ........
   71 05700/ ........ ........ ........ ........ ........ ........ ........ ........
   72
   73 06000/ XXXXXXXX XXXXXXXX XXXXXXXX XXX..... ........ ........ ........ ........
   74 06100/ ........ ........ ........ ........ ........ ........ ........ .....XXX
   75
   76 06200/ XXXXXXXX XXXXXXXX XXXXXXXX XXXXXXXX XXXXXXXX XXXXXXXX XXXXXXXX XXXXXXXX
   77 06300/ XXXXXXXX XXXXXXXX ........ ........ ........ ........ ........ .....XXX
   78
   79 06400/ XXXXXXXX XXXXXXXX XXXXXXXX XXXXXXXX XXXXXXXX XXXXXXXX XXX..... ........
   80 06500/ ........ ........ ........ ........ ........ ........ ........ ..XXXXXX
   81
   82 06600/ XXXXXXXX XXXXXXXX XXXXXXXX XXXXXXXX XXXXXXXX XXXXXXXX XXXXXXXX XXXXXXXX
   83 06700/ ........ ........ ........ ........ ........ ........ ........ .......X
   84
   85 07000/ XXXXXXXX XXXXXXXX XXXXXXXX XXXXXXXX XXXXXXXX XXXXXXXX XXX..... ........
   86 07100/ ........ ........ ........ ........ ........ ........ ........ ..XXXXXX
   87
   88 07200/ ........ ........ ........ ........ ........ ........ ........ ........
   89 07300/ ........ ........ ........ ........ ........ ........ ........ ........
   90
   91 07400/ ........ ........ ........ ........ ........ ........ ........ ........
   92 07500/ ........ ........ ........ ........ ........ ........ ........ ........
   93
   94 07600/ ........ ........ ........ ........ ........ ........ ........ ........
   95 07700/ ........ ........ ........ ........ ........ .XXXXXX. ........ ........
   96
